@
@ -- FILES --
@

@ hi_runtime_api.cpp


unsigned char data[0] = {
};

unsigned char bss[0];

_RODATA__ZTSN4HIRT25MODELGROUPFORWARDLISTENERE_0000: .ascii "N4hirt25ModelGroupForwardListenerE\0"


unsigned char data.rel.ro._ZTIN4hirt25ModelGroupForwardListenerE[8] = {
    /*0000*/ 0x08, 0x00, 0x00, 0x00, 0x00, 0x00, 0x00, 0x00, 
};

unsigned char rel.data.rel.ro._ZTIN4hirt25ModelGroupForwardListenerE[16] = {
    /*0000*/ 0x00, 0x00, 0x00, 0x00, 0x02, 0x07, 0x02, 0x00, 0x04, 0x00, 0x00, 0x00, 0x02, 0x05, 0x02, 0x00, 
};

_RODATA__ZTSN4HIRT11TASKMONITORE_0000: .ascii "N4hirt11TaskMonitorE\0"


unsigned char data.rel.ro._ZTIN4hirt11TaskMonitorE[8] = {
    /*0000*/ 0x08, 0x00, 0x00, 0x00, 0x00, 0x00, 0x00, 0x00, 
};

unsigned char rel.data.rel.ro._ZTIN4hirt11TaskMonitorE[16] = {
    /*0000*/ 0x00, 0x00, 0x00, 0x00, 0x02, 0x07, 0x02, 0x00, 0x04, 0x00, 0x00, 0x00, 0x02, 0x08, 0x02, 0x00, 
};

_RODATA__ZTS23SVPMODELFORWARDLISTENER_0000: .ascii "23SvpModelForwardListener\0"


unsigned char data.rel.ro._ZTI23SvpModelForwardListener[12] = {
    /*0000*/ 0x08, 0x00, 0x00, 0x00, 0x00, 0x00, 0x00, 0x00, 0x00, 0x00, 0x00, 0x00, 
};

unsigned char rel.data.rel.ro._ZTI23SvpModelForwardListener[24] = {
    /*0000*/ 0x00, 0x00, 0x00, 0x00, 0x02, 0x0c, 0x02, 0x00, 0x04, 0x00, 0x00, 0x00, 0x02, 0x0a, 0x02, 0x00, 
    /*0010*/ 0x08, 0x00, 0x00, 0x00, 0x02, 0x06, 0x02, 0x00, 
};

unsigned char data.rel.ro.local._ZTVN4hirt11TaskMonitorE[16] = {
    /*0000*/ 0x00, 0x00, 0x00, 0x00, 0x00, 0x00, 0x00, 0x00, 0x00, 0x00, 0x00, 0x00, 0x00, 0x00, 0x00, 0x00, 
};

unsigned char rel.data.rel.ro.local._ZTVN4hirt11TaskMonitorE[24] = {
    /*0000*/ 0x04, 0x00, 0x00, 0x00, 0x02, 0x09, 0x02, 0x00, 0x08, 0x00, 0x00, 0x00, 0x02, 0x9d, 0x01, 0x00, 
    /*0010*/ 0x0c, 0x00, 0x00, 0x00, 0x02, 0x9e, 0x01, 0x00, 
};

unsigned char data.rel.ro.local._ZTV23SvpModelForwardListener[20] = {
    /*0000*/ 0x00, 0x00, 0x00, 0x00, 0x00, 0x00, 0x00, 0x00, 0x00, 0x00, 0x00, 0x00, 0x00, 0x00, 0x00, 0x00, 
    /*0010*/ 0x00, 0x00, 0x00, 0x00, 
};

unsigned char rel.data.rel.ro.local._ZTV23SvpModelForwardListener[32] = {
    /*0000*/ 0x04, 0x00, 0x00, 0x00, 0x02, 0x0b, 0x02, 0x00, 0x08, 0x00, 0x00, 0x00, 0x02, 0xbe, 0x01, 0x00, 
    /*0010*/ 0x0c, 0x00, 0x00, 0x00, 0x02, 0x92, 0x01, 0x00, 0x10, 0x00, 0x00, 0x00, 0x02, 0x98, 0x01, 0x00, 
};

unsigned char bss._ZL11s_InitMutex[24];

unsigned char bss._ZL11s_bIsInited[4];

unsigned char bss._ZL11s_stMemCtrl[12];

unsigned char bss._ZL12s_CpuThreads[12];

unsigned char bss._ZL13LOG_LEVEL_MAP[24];

unsigned char bss._ZL13s_NNIEThreads[12];

unsigned char bss._ZL14s_InnerFrameId[32];

unsigned char bss._ZL14s_pTaskMonitor[4];

unsigned char bss._ZL15s_AllGroupNames[24];

unsigned char bss._ZL16s_pGlobalSetting[4];

unsigned char bss._ZL17s_AllGroupHandles[24];

unsigned char bss._ZL17s_s32CpuThreadNum[4];

unsigned char bss._ZL20s_bSyncForwardFinish[4];

unsigned char bss._ZL23s_SyncForwardFinishCond[48];

unsigned char bss._ZL24s_SyncForwardFinishMutex[24];

unsigned char bss._ZL4gMux[24];

unsigned char bss._ZL8gMapTask[24];

unsigned char bss._ZStL8__ioinit[1];

_RODATA___109_0000: .ascii "\0\0\0\0",
_RODATA___109_0004: .ascii "\0\0\0\0",
_RODATA___109_0008: .ascii "\x01\0\0\0",
_RODATA___109_000c: .ascii "\x01\0\0\0",
_RODATA___109_0010: .ascii "\x02\0\0\0",
_RODATA___109_0014: .ascii "\x02\0\0\0",
_RODATA___109_0018: .ascii "\x03\0\0\0",
_RODATA___109_001c: .ascii "\x03\0\0\0",
_RODATA___109_0020: .ascii "\x04\0\0\0",
_RODATA___109_0024: .ascii "\x04\0\0\0",
_RODATA___109_0028: .ascii ""


_RODATA_HI_SVPRT_RUNTIME_FORWARDGROUPSYNC_STR1_4_0000: .ascii "param can not be HI_NULL\n\0\0\0",
_RODATA_HI_SVPRT_RUNTIME_FORWARDGROUPSYNC_STR1_4_001c: .ascii "pstSrc->u32BlobNum or pstDst->u32BlobNum can not be 0\n\0\0",
_RODATA_HI_SVPRT_RUNTIME_FORWARDGROUPSYNC_STR1_4_0054: .ascii "pstSrc->u32BlobNum or pstDst->u32BlobNum can not great than %d\0\0",
_RODATA_HI_SVPRT_RUNTIME_FORWARDGROUPSYNC_STR1_4_0094: .ascii "pstSrc->pstBlobs or pstDst->pstBlobs can not be HI_NULL\n\0"


_RODATA_HI_SVPRT_RUNTIME_INIT_STR1_4_0000: .ascii "1.1.1.0\0",
_RODATA_HI_SVPRT_RUNTIME_INIT_STR1_4_0008: .ascii "Runtime version: %s\nbuild sha1: %8.8s\ncompile date: %s %s\n\0\0",
_RODATA_HI_SVPRT_RUNTIME_INIT_STR1_4_0044: .ascii "HiRT\0\0\0\0",
_RODATA_HI_SVPRT_RUNTIME_INIT_STR1_4_004c: .ascii "20:24:00\0\0\0\0",
_RODATA_HI_SVPRT_RUNTIME_INIT_STR1_4_0058: .ascii "Jan 14 2019\0",
_RODATA_HI_SVPRT_RUNTIME_INIT_STR1_4_0064: .ascii "a9d9e59db780e545aa760ea626e0567ea3af6125\0\0\0\0",
_RODATA_HI_SVPRT_RUNTIME_INIT_STR1_4_0090: .ascii "SVPRT_Runtime is already inited\n\0\0\0\0",
_RODATA_HI_SVPRT_RUNTIME_INIT_STR1_4_00b4: .ascii "Config is wrong!\0\0\0\0",
_RODATA_HI_SVPRT_RUNTIME_INIT_STR1_4_00c8: .ascii "cpu affinities Config is wrong!\0",
_RODATA_HI_SVPRT_RUNTIME_INIT_STR1_4_00e8: .ascii "cpu thread num must between [1,20)\0\0",
_RODATA_HI_SVPRT_RUNTIME_INIT_STR1_4_010c: .ascii "monitor affinities Config is wrong!\0",
_RODATA_HI_SVPRT_RUNTIME_INIT_STR1_4_0130: .ascii "vector::_M_range_check: __n (which is %zu) >= this->size() (which is %zu)\0\0\0",
_RODATA_HI_SVPRT_RUNTIME_INIT_STR1_4_017c: .ascii "new(std::nothrow) TaskMonitor fail\0\0",
_RODATA_HI_SVPRT_RUNTIME_INIT_STR1_4_01a0: .ascii "new(std::nothrow) NNIEThread(%d) fail\0\0\0",
_RODATA_HI_SVPRT_RUNTIME_INIT_STR1_4_01c8: .ascii "new(std::nothrow) CustomerThread(%d) fail\0"


_RODATA_HI_SVPRT_RUNTIME_LOADMODELGROUP_STR1_4_0000: .ascii "param is null pointer\n\0\0",
_RODATA_HI_SVPRT_RUNTIME_LOADMODELGROUP_STR1_4_0018: .ascii "wk num too large %u\0",
_RODATA_HI_SVPRT_RUNTIME_LOADMODELGROUP_STR1_4_002c: .ascii "cop num too large %u\0\0\0\0",
_RODATA_HI_SVPRT_RUNTIME_LOADMODELGROUP_STR1_4_0044: .ascii "connector num too large %u\0\0",
_RODATA_HI_SVPRT_RUNTIME_LOADMODELGROUP_STR1_4_0060: .ascii "stWKsInfo.pstAttrs is NULL\0\0",
_RODATA_HI_SVPRT_RUNTIME_LOADMODELGROUP_STR1_4_007c: .ascii "group info wk[%u] mem size is too large %u\0\0",
_RODATA_HI_SVPRT_RUNTIME_LOADMODELGROUP_STR1_4_00a8: .ascii "stCopsAttr.pstAttrs is NULL\0",
_RODATA_HI_SVPRT_RUNTIME_LOADMODELGROUP_STR1_4_00c4: .ascii "stConnectorsAttr.pstAttrs is NULL\0\0\0",
_RODATA_HI_SVPRT_RUNTIME_LOADMODELGROUP_STR1_4_00e8: .ascii "param pstModelGroupConfig is error, please check it\0",
_RODATA_HI_SVPRT_RUNTIME_LOADMODELGROUP_STR1_4_011c: .ascii "group is already exists %s\0\0",
_RODATA_HI_SVPRT_RUNTIME_LOADMODELGROUP_STR1_4_0138: .ascii "createGroupItemList fail\0\0\0\0",
_RODATA_HI_SVPRT_RUNTIME_LOADMODELGROUP_STR1_4_0154: .ascii "addGroup fail\0"


_RODATA_HI_SVPRT_RUNTIME_UNLOADMODELGROUP_STR1_4_0000: .ascii "runtime has not be inited\0\0\0",
_RODATA_HI_SVPRT_RUNTIME_UNLOADMODELGROUP_STR1_4_001c: .ascii "hirt\0\0\0\0",
_RODATA_HI_SVPRT_RUNTIME_UNLOADMODELGROUP_STR1_4_0024: .ascii "delete group failed\0",
_RODATA_HI_SVPRT_RUNTIME_UNLOADMODELGROUP_STR1_4_0038: .ascii "the handle %p not exist\0",
_RODATA_HI_SVPRT_RUNTIME_UNLOADMODELGROUP_STR1_4_0050: .ascii ""


_RODATA__Z17MYFORWARDCALLBACK35HIRUNTIME_FORWARD_STATUS_CALLBACK_EPVYP28HIRUNTIME_GROUP_BLOB_ARRAY_S_STR1_4_0000: .ascii "Forward status of frame %lld not found\0\0",
_RODATA__Z17MYFORWARDCALLBACK35HIRUNTIME_FORWARD_STATUS_CALLBACK_EPVYP28HIRUNTIME_GROUP_BLOB_ARRAY_S_STR1_4_0028: .ascii "GroupHandle %p not found\0"


_RODATA__ZL12FORWARDGROUPPVP28HIRUNTIME_GROUP_BLOB_ARRAY_SS1_YYPFI35HIRUNTIME_FORWARD_STATUS_CALLBACK_ES_YS1_E_STR1_4_0000: .ascii "param hGroupHandle is NULL\0\0",
_RODATA__ZL12FORWARDGROUPPVP28HIRUNTIME_GROUP_BLOB_ARRAY_SS1_YYPFI35HIRUNTIME_FORWARD_STATUS_CALLBACK_ES_YS1_E_STR1_4_001c: .ascii "param pstSrc is NULL\0\0\0\0",
_RODATA__ZL12FORWARDGROUPPVP28HIRUNTIME_GROUP_BLOB_ARRAY_SS1_YYPFI35HIRUNTIME_FORWARD_STATUS_CALLBACK_ES_YS1_E_STR1_4_0034: .ascii "param pstDst is NULL\0\0\0\0",
_RODATA__ZL12FORWARDGROUPPVP28HIRUNTIME_GROUP_BLOB_ARRAY_SS1_YYPFI35HIRUNTIME_FORWARD_STATUS_CALLBACK_ES_YS1_E_STR1_4_004c: .ascii "new(std::nothrow) SvpModelLoadListener failed\0"


_RODATA__ZN23SVPMODELFORWARDLISTENER6NOTIFYEN4HIRT29_MODEL_GROUP_FORWARD_RESULT_EEPVPNS0_14MODELGROUPTASKEYP28HIRUNTIME_GROUP_BLOB_ARRAY_S_STR1_4_0000: .ascii "param model group task is NULL\0\0",
_RODATA__ZN23SVPMODELFORWARDLISTENER6NOTIFYEN4HIRT29_MODEL_GROUP_FORWARD_RESULT_EEPVPNS0_14MODELGROUPTASKEYP28HIRUNTIME_GROUP_BLOB_ARRAY_S_STR1_4_0020: .ascii "param private info is NULL\0\0",
_RODATA__ZN23SVPMODELFORWARDLISTENER6NOTIFYEN4HIRT29_MODEL_GROUP_FORWARD_RESULT_EEPVPNS0_14MODELGROUPTASKEYP28HIRUNTIME_GROUP_BLOB_ARRAY_S_STR1_4_003c: .ascii "param model group is NULL\0\0\0",
_RODATA__ZN23SVPMODELFORWARDLISTENER6NOTIFYEN4HIRT29_MODEL_GROUP_FORWARD_RESULT_EEPVPNS0_14MODELGROUPTASKEYP28HIRUNTIME_GROUP_BLOB_ARRAY_S_STR1_4_0058: .ascii "releaseMemory error, ret[%d]\0\0\0\0",
_RODATA__ZN23SVPMODELFORWARDLISTENER6NOTIFYEN4HIRT29_MODEL_GROUP_FORWARD_RESULT_EEPVPNS0_14MODELGROUPTASKEYP28HIRUNTIME_GROUP_BLOB_ARRAY_S_STR1_4_0078: .ascii "forward callback fun error, ret[%d]\0",
_RODATA__ZN23SVPMODELFORWARDLISTENER6NOTIFYEN4HIRT29_MODEL_GROUP_FORWARD_RESULT_EEPVPNS0_14MODELGROUPTASKEYP28HIRUNTIME_GROUP_BLOB_ARRAY_S_STR1_4_009c: .ascii "dont need decrease again!\n\0"


@ - - - - - - - - - - - - - - - - - - - - - - - - - - - - - 
@ .text._ZN23SvpModelForwardListenerD2Ev
@ Size: 0x4
@ - - - - - - - - - - - - - - - - - - - - - - - - - - - - - 

FUNC_BEGIN _ZN23SvpModelForwardListenerD2Ev
    /*00000000*/ BX          LR 
FUNC_END _ZN23SvpModelForwardListenerD2Ev


FUNC_BEGIN _ZN23SvpModelForwardListenerD1Ev
    /*00000000*/ BX          LR 
FUNC_END _ZN23SvpModelForwardListenerD1Ev


@ - - - - - - - - - - - - - - - - - - - - - - - - - - - - - 
@ .text._ZNSt6vectorIPN4hirt10NNIEThreadESaIS2_EED2Ev
@ Size: 0x2c
@ - - - - - - - - - - - - - - - - - - - - - - - - - - - - - 

FUNC_BEGIN _ZNSt6vectorIPN4hirt10NNIEThreadESaIS2_EED2Ev
    /*00000000*/ MOV         IP, #16384                  @ 0x4000 
    /*00000004*/ PUSH        {R4, LR} 
    /*00000008*/ SUB         IP, SP, IP 
    /*0000000c*/ STR         R0, [IP, #4088]             @ 0xff8 
    /*00000010*/ MOV         R4, R0 
    /*00000014*/ LDR         R0, [R0] 
    /*00000018*/ CMP         R0, #0 
    /*0000001c*/ BEQ         _ZNSt6vectorIPN4hirt10NNIEThreadESaIS2_EED2Ev_x24
    /*00000020*/ BL          _ZdlPv
    _ZNSt6vectorIPN4hirt10NNIEThreadESaIS2_EED2Ev_x24:
    /*00000024*/ MOV         R0, R4 
    /*00000028*/ POP         {R4, PC} 
FUNC_END _ZNSt6vectorIPN4hirt10NNIEThreadESaIS2_EED2Ev


FUNC_BEGIN _ZNSt6vectorIPN4hirt10NNIEThreadESaIS2_EED1Ev
    /*00000000*/ MOV         IP, #16384                  @ 0x4000 
    /*00000004*/ PUSH        {R4, LR} 
    /*00000008*/ SUB         IP, SP, IP 
    /*0000000c*/ STR         R0, [IP, #4088]             @ 0xff8 
    /*00000010*/ MOV         R4, R0 
    /*00000014*/ LDR         R0, [R0] 
    /*00000018*/ CMP         R0, #0 
    /*0000001c*/ BEQ         _ZNSt6vectorIPN4hirt10NNIEThreadESaIS2_EED1Ev_x24
    /*00000020*/ BL          _ZdlPv
    _ZNSt6vectorIPN4hirt10NNIEThreadESaIS2_EED1Ev_x24:
    /*00000024*/ MOV         R0, R4 
    /*00000028*/ POP         {R4, PC} 
FUNC_END _ZNSt6vectorIPN4hirt10NNIEThreadESaIS2_EED1Ev


@ - - - - - - - - - - - - - - - - - - - - - - - - - - - - - 
@ .text._ZNSt6vectorIPN4hirt14CustomerThreadESaIS2_EED2Ev
@ Size: 0x2c
@ - - - - - - - - - - - - - - - - - - - - - - - - - - - - - 

FUNC_BEGIN _ZNSt6vectorIPN4hirt14CustomerThreadESaIS2_EED2Ev
    /*00000000*/ MOV         IP, #16384                  @ 0x4000 
    /*00000004*/ PUSH        {R4, LR} 
    /*00000008*/ SUB         IP, SP, IP 
    /*0000000c*/ STR         R0, [IP, #4088]             @ 0xff8 
    /*00000010*/ MOV         R4, R0 
    /*00000014*/ LDR         R0, [R0] 
    /*00000018*/ CMP         R0, #0 
    /*0000001c*/ BEQ         _ZNSt6vectorIPN4hirt14CustomerThreadESaIS2_EED2Ev_x24
    /*00000020*/ BL          _ZdlPv
    _ZNSt6vectorIPN4hirt14CustomerThreadESaIS2_EED2Ev_x24:
    /*00000024*/ MOV         R0, R4 
    /*00000028*/ POP         {R4, PC} 
FUNC_END _ZNSt6vectorIPN4hirt14CustomerThreadESaIS2_EED2Ev


FUNC_BEGIN _ZNSt6vectorIPN4hirt14CustomerThreadESaIS2_EED1Ev
    /*00000000*/ MOV         IP, #16384                  @ 0x4000 
    /*00000004*/ PUSH        {R4, LR} 
    /*00000008*/ SUB         IP, SP, IP 
    /*0000000c*/ STR         R0, [IP, #4088]             @ 0xff8 
    /*00000010*/ MOV         R4, R0 
    /*00000014*/ LDR         R0, [R0] 
    /*00000018*/ CMP         R0, #0 
    /*0000001c*/ BEQ         _ZNSt6vectorIPN4hirt14CustomerThreadESaIS2_EED1Ev_x24
    /*00000020*/ BL          _ZdlPv
    _ZNSt6vectorIPN4hirt14CustomerThreadESaIS2_EED1Ev_x24:
    /*00000024*/ MOV         R0, R4 
    /*00000028*/ POP         {R4, PC} 
FUNC_END _ZNSt6vectorIPN4hirt14CustomerThreadESaIS2_EED1Ev


@ - - - - - - - - - - - - - - - - - - - - - - - - - - - - - 
@ .text._ZN23SvpModelForwardListenerD0Ev
@ Size: 0x24
@ - - - - - - - - - - - - - - - - - - - - - - - - - - - - - 

FUNC_BEGIN _ZN23SvpModelForwardListenerD0Ev
    /*00000000*/ MOV         IP, #16384                  @ 0x4000 
    /*00000004*/ PUSH        {R4, LR} 
    /*00000008*/ SUB         IP, SP, IP 
    /*0000000c*/ STR         R0, [IP, #4088]             @ 0xff8 
    /*00000010*/ MOV         R1, #8 
    /*00000014*/ MOV         R4, R0 
    /*00000018*/ BL          _ZdlPvj
    /*0000001c*/ MOV         R0, R4 
    /*00000020*/ POP         {R4, PC} 
FUNC_END _ZN23SvpModelForwardListenerD0Ev


@ - - - - - - - - - - - - - - - - - - - - - - - - - - - - - 
@ .text._ZN4hirt11TaskMonitorD2Ev
@ Size: 0x54
@ - - - - - - - - - - - - - - - - - - - - - - - - - - - - - 

FUNC_BEGIN _ZN4hirt11TaskMonitorD2Ev
    /*00000000*/ MOV         IP, #16384                  @ 0x4000 
    /*00000004*/ PUSH        {R4, LR} 
    /*00000008*/ SUB         IP, SP, IP 
    /*0000000c*/ STR         R0, [IP, #4088]             @ 0xff8 
    /*00000010*/ LDR         R3, WORD_0050               @ LDR         R3, [PC, #56]               @ 0x0000000000000050 
    /*00000014*/ MOV         R4, R0 
    /*00000018*/ LDR         R0, [R0, #4] 
    /*0000001c*/ ADD         R3, PC, R3 
    /*00000020*/ CMP         R0, #0 
    /*00000024*/ ADD         R3, R3, #8 
    /*00000028*/ STR         R3, [R4] 
    /*0000002c*/ BEQ         _ZN4hirt11TaskMonitorD2Ev_x44
    /*00000030*/ LDR         R3, [R0] 
    /*00000034*/ CMP         R3, #0 
    /*00000038*/ BNE         _ZN4hirt11TaskMonitorD2Ev_x4c
    /*0000003c*/ MOV         R1, #4 
    /*00000040*/ BL          _ZdlPvj
    _ZN4hirt11TaskMonitorD2Ev_x44:
    /*00000044*/ MOV         R0, R4 
    /*00000048*/ POP         {R4, PC} 
    _ZN4hirt11TaskMonitorD2Ev_x4c:
    /*0000004c*/ BL          _ZSt9terminatev
    /*00000050*/ WORD_0050: .word 0x0000002c
FUNC_END _ZN4hirt11TaskMonitorD2Ev


FUNC_BEGIN _ZN4hirt11TaskMonitorD1Ev
    /*00000000*/ MOV         IP, #16384                  @ 0x4000 
    /*00000004*/ PUSH        {R4, LR} 
    /*00000008*/ SUB         IP, SP, IP 
    /*0000000c*/ STR         R0, [IP, #4088]             @ 0xff8 
    /*00000010*/ LDR         R3, WORD_0050               @ LDR         R3, [PC, #56]               @ 0x0000000000000050 
    /*00000014*/ MOV         R4, R0 
    /*00000018*/ LDR         R0, [R0, #4] 
    /*0000001c*/ ADD         R3, PC, R3 
    /*00000020*/ CMP         R0, #0 
    /*00000024*/ ADD         R3, R3, #8 
    /*00000028*/ STR         R3, [R4] 
    /*0000002c*/ BEQ         _ZN4hirt11TaskMonitorD1Ev_x44
    /*00000030*/ LDR         R3, [R0] 
    /*00000034*/ CMP         R3, #0 
    /*00000038*/ BNE         _ZN4hirt11TaskMonitorD1Ev_x4c
    /*0000003c*/ MOV         R1, #4 
    /*00000040*/ BL          _ZdlPvj
    _ZN4hirt11TaskMonitorD1Ev_x44:
    /*00000044*/ MOV         R0, R4 
    /*00000048*/ POP         {R4, PC} 
    _ZN4hirt11TaskMonitorD1Ev_x4c:
    /*0000004c*/ BL          _ZSt9terminatev
    /*00000050*/ WORD_0050: .word 0x0000002c
FUNC_END _ZN4hirt11TaskMonitorD1Ev


@ - - - - - - - - - - - - - - - - - - - - - - - - - - - - - 
@ .text._ZN4hirt11TaskMonitorD0Ev
@ Size: 0x60
@ - - - - - - - - - - - - - - - - - - - - - - - - - - - - - 

FUNC_BEGIN _ZN4hirt11TaskMonitorD0Ev
    /*00000000*/ MOV         IP, #16384                  @ 0x4000 
    /*00000004*/ PUSH        {R4, LR} 
    /*00000008*/ SUB         IP, SP, IP 
    /*0000000c*/ STR         R0, [IP, #4088]             @ 0xff8 
    /*00000010*/ LDR         R3, WORD_005c               @ LDR         R3, [PC, #68]               @ 0x000000000000005c 
    /*00000014*/ MOV         R4, R0 
    /*00000018*/ LDR         R0, [R0, #4] 
    /*0000001c*/ ADD         R3, PC, R3 
    /*00000020*/ CMP         R0, #0 
    /*00000024*/ ADD         R3, R3, #8 
    /*00000028*/ STR         R3, [R4] 
    /*0000002c*/ BEQ         _ZN4hirt11TaskMonitorD0Ev_x44
    /*00000030*/ LDR         R3, [R0] 
    /*00000034*/ CMP         R3, #0 
    /*00000038*/ BNE         _ZN4hirt11TaskMonitorD0Ev_x58
    /*0000003c*/ MOV         R1, #4 
    /*00000040*/ BL          _ZdlPvj
    _ZN4hirt11TaskMonitorD0Ev_x44:
    /*00000044*/ MOV         R0, R4 
    /*00000048*/ MOV         R1, #136                    @ 0x88 
    /*0000004c*/ BL          _ZdlPvj
    /*00000050*/ MOV         R0, R4 
    /*00000054*/ POP         {R4, PC} 
    _ZN4hirt11TaskMonitorD0Ev_x58:
    /*00000058*/ BL          _ZSt9terminatev
    /*0000005c*/ WORD_005c: .word 0x00000038
FUNC_END _ZN4hirt11TaskMonitorD0Ev


@ - - - - - - - - - - - - - - - - - - - - - - - - - - - - - 
@ .text._ZNSt8_Rb_treeIySt4pairIKy35hiRUNTIME_FORWARD_STATUS_CALLBACK_EESt10_Select1stIS3_ESt4lessIyESaIS3_EE22_M_emplace_hint_uniqueIJRKSt21piecewise_construct_tSt5tupleIJRS1_EESE_IJEEEEESt17_Rb_tree_iteratorIS3_ESt23_Rb_tree_const_iteratorIS3_EDpOT_.isra.168
@ Size: 0x2a4
@ - - - - - - - - - - - - - - - - - - - - - - - - - - - - - 

FUNC_BEGIN _ZNSt8_Rb_treeIySt4pairIKy35hiRUNTIME_FORWARD_STATUS_CALLBACK_EESt10_Select1stIS3_ESt4lessIyESaIS3_EE22_M_emplace_hint_uniqueIJRKSt21piecewise_construct_tSt5tupleIJRS1_EESE_IJEEEEESt17_Rb_tree_iteratorIS3_ESt23_Rb_tree_const_iteratorIS3_EDpOT_.isra.168
    /*00000000*/ MOV         IP, #16384                  @ 0x4000 
    /*00000004*/ PUSH        {R4, R5, R6, R7, R8, R9, SL, FP, LR} 
    /*00000008*/ SUB         IP, SP, IP 
    /*0000000c*/ STR         R0, [IP, #4048]             @ 0xfd0 
    /*00000010*/ MOV         R4, R3 
    /*00000014*/ MOV         R9, R0 
    /*00000018*/ SUB         SP, SP, #12 
    /*0000001c*/ MOV         R0, #32 
    /*00000020*/ MOV         R8, R2 
    /*00000024*/ BL          _Znwj
    /*00000028*/ LDR         R3, [R4] 
    /*0000002c*/ ADD         SL, R9, #4 
    /*00000030*/ CMP         R8, SL 
    /*00000034*/ MOV         IP, #0 
    /*00000038*/ LDRD        R6, [R3] 
    /*0000003c*/ STR         IP, [R0, #24] 
    /*00000040*/ MOV         R5, R0 
    /*00000044*/ STRD        R6, [R0, #16] 
    /*00000048*/ BEQ         _ZNSt8_Rb_treeIySt4pairIKy35hiRUNTIME_FORWARD_STATUS_CALLBACK_EESt10_Select1stIS3_ESt4lessIyESaIS3_EE22_M_emplace_hint_uniqueIJRKSt21piecewise_construct_tSt5tupleIJRS1_EESE_IJEEEEESt17_Rb_tree_iteratorIS3_ESt23_Rb_tree_const_iteratorIS3_EDpOT_.isra.168_x19c
    /*0000004c*/ LDRD        R2, [R8, #16] 
    /*00000050*/ CMP         R3, R7 
    /*00000054*/ CMPEQ       R2, R6 
    /*00000058*/ BLS         _ZNSt8_Rb_treeIySt4pairIKy35hiRUNTIME_FORWARD_STATUS_CALLBACK_EESt10_Select1stIS3_ESt4lessIyESaIS3_EE22_M_emplace_hint_uniqueIJRKSt21piecewise_construct_tSt5tupleIJRS1_EESE_IJEEEEESt17_Rb_tree_iteratorIS3_ESt23_Rb_tree_const_iteratorIS3_EDpOT_.isra.168_xe8
    /*0000005c*/ LDR         FP, [R9, #12] 
    /*00000060*/ CMP         R8, FP 
    /*00000064*/ BEQ         _ZNSt8_Rb_treeIySt4pairIKy35hiRUNTIME_FORWARD_STATUS_CALLBACK_EESt10_Select1stIS3_ESt4lessIyESaIS3_EE22_M_emplace_hint_uniqueIJRKSt21piecewise_construct_tSt5tupleIJRS1_EESE_IJEEEEESt17_Rb_tree_iteratorIS3_ESt23_Rb_tree_const_iteratorIS3_EDpOT_.isra.168_x90
    /*00000068*/ MOV         R0, R8 
    /*0000006c*/ BL          _ZSt18_Rb_tree_decrementPSt18_Rb_tree_node_base
    /*00000070*/ MOV         R2, R0 
    /*00000074*/ LDRD        R0, [R0, #16] 
    /*00000078*/ CMP         R1, R7 
    /*0000007c*/ CMPEQ       R0, R6 
    /*00000080*/ BCS         _ZNSt8_Rb_treeIySt4pairIKy35hiRUNTIME_FORWARD_STATUS_CALLBACK_EESt10_Select1stIS3_ESt4lessIyESaIS3_EE22_M_emplace_hint_uniqueIJRKSt21piecewise_construct_tSt5tupleIJRS1_EESE_IJEEEEESt17_Rb_tree_iteratorIS3_ESt23_Rb_tree_const_iteratorIS3_EDpOT_.isra.168_x128
    /*00000084*/ LDR         R0, [R2, #12] 
    /*00000088*/ CMP         R0, #0 
    /*0000008c*/ BEQ         _ZNSt8_Rb_treeIySt4pairIKy35hiRUNTIME_FORWARD_STATUS_CALLBACK_EESt10_Select1stIS3_ESt4lessIyESaIS3_EE22_M_emplace_hint_uniqueIJRKSt21piecewise_construct_tSt5tupleIJRS1_EESE_IJEEEEESt17_Rb_tree_iteratorIS3_ESt23_Rb_tree_const_iteratorIS3_EDpOT_.isra.168_x98
    _ZNSt8_Rb_treeIySt4pairIKy35hiRUNTIME_FORWARD_STATUS_CALLBACK_EESt10_Select1stIS3_ESt4lessIyESaIS3_EE22_M_emplace_hint_uniqueIJRKSt21piecewise_construct_tSt5tupleIJRS1_EESE_IJEEEEESt17_Rb_tree_iteratorIS3_ESt23_Rb_tree_const_iteratorIS3_EDpOT_.isra.168_x90:
    /*00000090*/ MOV         R2, R8 
    /*00000094*/ MOV         R0, R8 
    _ZNSt8_Rb_treeIySt4pairIKy35hiRUNTIME_FORWARD_STATUS_CALLBACK_EESt10_Select1stIS3_ESt4lessIyESaIS3_EE22_M_emplace_hint_uniqueIJRKSt21piecewise_construct_tSt5tupleIJRS1_EESE_IJEEEEESt17_Rb_tree_iteratorIS3_ESt23_Rb_tree_const_iteratorIS3_EDpOT_.isra.168_x98:
    /*00000098*/ ADDS        R0, R0, #0 
    /*0000009c*/ MOVNE       R0, #1 
    /*000000a0*/ CMP         SL, R2 
    /*000000a4*/ ORREQ       R0, R0, #1 
    /*000000a8*/ CMP         R0, #0 
    /*000000ac*/ BNE         _ZNSt8_Rb_treeIySt4pairIKy35hiRUNTIME_FORWARD_STATUS_CALLBACK_EESt10_Select1stIS3_ESt4lessIyESaIS3_EE22_M_emplace_hint_uniqueIJRKSt21piecewise_construct_tSt5tupleIJRS1_EESE_IJEEEEESt17_Rb_tree_iteratorIS3_ESt23_Rb_tree_const_iteratorIS3_EDpOT_.isra.168_xc4
    _ZNSt8_Rb_treeIySt4pairIKy35hiRUNTIME_FORWARD_STATUS_CALLBACK_EESt10_Select1stIS3_ESt4lessIyESaIS3_EE22_M_emplace_hint_uniqueIJRKSt21piecewise_construct_tSt5tupleIJRS1_EESE_IJEEEEESt17_Rb_tree_iteratorIS3_ESt23_Rb_tree_const_iteratorIS3_EDpOT_.isra.168_xb0:
    /*000000b0*/ LDRD        R0, [R2, #16] 
    /*000000b4*/ CMP         R7, R1 
    /*000000b8*/ CMPEQ       R6, R0 
    /*000000bc*/ MOVCC       R0, #1 
    /*000000c0*/ MOVCS       R0, #0 
    _ZNSt8_Rb_treeIySt4pairIKy35hiRUNTIME_FORWARD_STATUS_CALLBACK_EESt10_Select1stIS3_ESt4lessIyESaIS3_EE22_M_emplace_hint_uniqueIJRKSt21piecewise_construct_tSt5tupleIJRS1_EESE_IJEEEEESt17_Rb_tree_iteratorIS3_ESt23_Rb_tree_const_iteratorIS3_EDpOT_.isra.168_xc4:
    /*000000c4*/ MOV         R3, SL 
    /*000000c8*/ MOV         R1, R5 
    /*000000cc*/ BL          _ZSt29_Rb_tree_insert_and_rebalancebPSt18_Rb_tree_node_baseS0_RS_
    /*000000d0*/ LDR         R3, [R9, #20] 
    /*000000d4*/ MOV         R0, R5 
    /*000000d8*/ ADD         R3, R3, #1 
    /*000000dc*/ STR         R3, [R9, #20] 
    /*000000e0*/ ADD         SP, SP, #12 
    /*000000e4*/ POP         {R4, R5, R6, R7, R8, R9, SL, FP, PC} 
    _ZNSt8_Rb_treeIySt4pairIKy35hiRUNTIME_FORWARD_STATUS_CALLBACK_EESt10_Select1stIS3_ESt4lessIyESaIS3_EE22_M_emplace_hint_uniqueIJRKSt21piecewise_construct_tSt5tupleIJRS1_EESE_IJEEEEESt17_Rb_tree_iteratorIS3_ESt23_Rb_tree_const_iteratorIS3_EDpOT_.isra.168_xe8:
    /*000000e8*/ BCS         _ZNSt8_Rb_treeIySt4pairIKy35hiRUNTIME_FORWARD_STATUS_CALLBACK_EESt10_Select1stIS3_ESt4lessIyESaIS3_EE22_M_emplace_hint_uniqueIJRKSt21piecewise_construct_tSt5tupleIJRS1_EESE_IJEEEEESt17_Rb_tree_iteratorIS3_ESt23_Rb_tree_const_iteratorIS3_EDpOT_.isra.168_x188
    /*000000ec*/ LDR         R3, [R9, #16] 
    /*000000f0*/ CMP         R8, R3 
    /*000000f4*/ BEQ         _ZNSt8_Rb_treeIySt4pairIKy35hiRUNTIME_FORWARD_STATUS_CALLBACK_EESt10_Select1stIS3_ESt4lessIyESaIS3_EE22_M_emplace_hint_uniqueIJRKSt21piecewise_construct_tSt5tupleIJRS1_EESE_IJEEEEESt17_Rb_tree_iteratorIS3_ESt23_Rb_tree_const_iteratorIS3_EDpOT_.isra.168_x120
    /*000000f8*/ MOV         R0, R8 
    /*000000fc*/ BL          _ZSt18_Rb_tree_incrementPSt18_Rb_tree_node_base
    /*00000100*/ LDRD        R2, [R0, #16] 
    /*00000104*/ CMP         R3, R7 
    /*00000108*/ CMPEQ       R2, R6 
    /*0000010c*/ BLS         _ZNSt8_Rb_treeIySt4pairIKy35hiRUNTIME_FORWARD_STATUS_CALLBACK_EESt10_Select1stIS3_ESt4lessIyESaIS3_EE22_M_emplace_hint_uniqueIJRKSt21piecewise_construct_tSt5tupleIJRS1_EESE_IJEEEEESt17_Rb_tree_iteratorIS3_ESt23_Rb_tree_const_iteratorIS3_EDpOT_.isra.168_x240
    /*00000110*/ LDR         R3, [R8, #12] 
    /*00000114*/ CMP         R3, #0 
    /*00000118*/ MOVNE       R2, R0 
    /*0000011c*/ BNE         _ZNSt8_Rb_treeIySt4pairIKy35hiRUNTIME_FORWARD_STATUS_CALLBACK_EESt10_Select1stIS3_ESt4lessIyESaIS3_EE22_M_emplace_hint_uniqueIJRKSt21piecewise_construct_tSt5tupleIJRS1_EESE_IJEEEEESt17_Rb_tree_iteratorIS3_ESt23_Rb_tree_const_iteratorIS3_EDpOT_.isra.168_x98
    _ZNSt8_Rb_treeIySt4pairIKy35hiRUNTIME_FORWARD_STATUS_CALLBACK_EESt10_Select1stIS3_ESt4lessIyESaIS3_EE22_M_emplace_hint_uniqueIJRKSt21piecewise_construct_tSt5tupleIJRS1_EESE_IJEEEEESt17_Rb_tree_iteratorIS3_ESt23_Rb_tree_const_iteratorIS3_EDpOT_.isra.168_x120:
    /*00000120*/ MOV         R2, R8 
    /*00000124*/ B           _ZNSt8_Rb_treeIySt4pairIKy35hiRUNTIME_FORWARD_STATUS_CALLBACK_EESt10_Select1stIS3_ESt4lessIyESaIS3_EE22_M_emplace_hint_uniqueIJRKSt21piecewise_construct_tSt5tupleIJRS1_EESE_IJEEEEESt17_Rb_tree_iteratorIS3_ESt23_Rb_tree_const_iteratorIS3_EDpOT_.isra.168_xb0
    _ZNSt8_Rb_treeIySt4pairIKy35hiRUNTIME_FORWARD_STATUS_CALLBACK_EESt10_Select1stIS3_ESt4lessIyESaIS3_EE22_M_emplace_hint_uniqueIJRKSt21piecewise_construct_tSt5tupleIJRS1_EESE_IJEEEEESt17_Rb_tree_iteratorIS3_ESt23_Rb_tree_const_iteratorIS3_EDpOT_.isra.168_x128:
    /*00000128*/ LDR         R4, [R9, #8] 
    /*0000012c*/ CMP         R4, #0 
    /*00000130*/ BNE         _ZNSt8_Rb_treeIySt4pairIKy35hiRUNTIME_FORWARD_STATUS_CALLBACK_EESt10_Select1stIS3_ESt4lessIyESaIS3_EE22_M_emplace_hint_uniqueIJRKSt21piecewise_construct_tSt5tupleIJRS1_EESE_IJEEEEESt17_Rb_tree_iteratorIS3_ESt23_Rb_tree_const_iteratorIS3_EDpOT_.isra.168_x13c
    /*00000134*/ B           _ZNSt8_Rb_treeIySt4pairIKy35hiRUNTIME_FORWARD_STATUS_CALLBACK_EESt10_Select1stIS3_ESt4lessIyESaIS3_EE22_M_emplace_hint_uniqueIJRKSt21piecewise_construct_tSt5tupleIJRS1_EESE_IJEEEEESt17_Rb_tree_iteratorIS3_ESt23_Rb_tree_const_iteratorIS3_EDpOT_.isra.168_x230
    _ZNSt8_Rb_treeIySt4pairIKy35hiRUNTIME_FORWARD_STATUS_CALLBACK_EESt10_Select1stIS3_ESt4lessIyESaIS3_EE22_M_emplace_hint_uniqueIJRKSt21piecewise_construct_tSt5tupleIJRS1_EESE_IJEEEEESt17_Rb_tree_iteratorIS3_ESt23_Rb_tree_const_iteratorIS3_EDpOT_.isra.168_x138:
    /*00000138*/ MOV         R4, R3 
    _ZNSt8_Rb_treeIySt4pairIKy35hiRUNTIME_FORWARD_STATUS_CALLBACK_EESt10_Select1stIS3_ESt4lessIyESaIS3_EE22_M_emplace_hint_uniqueIJRKSt21piecewise_construct_tSt5tupleIJRS1_EESE_IJEEEEESt17_Rb_tree_iteratorIS3_ESt23_Rb_tree_const_iteratorIS3_EDpOT_.isra.168_x13c:
    /*0000013c*/ LDRD        R0, [R4, #16] 
    /*00000140*/ MOV         R2, #1 
    /*00000144*/ CMP         R7, R1 
    /*00000148*/ CMPEQ       R6, R0 
    /*0000014c*/ MOVCS       R2, #0 
    /*00000150*/ LDRCC       R3, [R4, #8] 
    /*00000154*/ LDRCS       R3, [R4, #12] 
    /*00000158*/ CMP         R3, #0 
    /*0000015c*/ BNE         _ZNSt8_Rb_treeIySt4pairIKy35hiRUNTIME_FORWARD_STATUS_CALLBACK_EESt10_Select1stIS3_ESt4lessIyESaIS3_EE22_M_emplace_hint_uniqueIJRKSt21piecewise_construct_tSt5tupleIJRS1_EESE_IJEEEEESt17_Rb_tree_iteratorIS3_ESt23_Rb_tree_const_iteratorIS3_EDpOT_.isra.168_x138
    /*00000160*/ CMP         R2, #0 
    /*00000164*/ MOV         R2, R4 
    /*00000168*/ BNE         _ZNSt8_Rb_treeIySt4pairIKy35hiRUNTIME_FORWARD_STATUS_CALLBACK_EESt10_Select1stIS3_ESt4lessIyESaIS3_EE22_M_emplace_hint_uniqueIJRKSt21piecewise_construct_tSt5tupleIJRS1_EESE_IJEEEEESt17_Rb_tree_iteratorIS3_ESt23_Rb_tree_const_iteratorIS3_EDpOT_.isra.168_x234
    _ZNSt8_Rb_treeIySt4pairIKy35hiRUNTIME_FORWARD_STATUS_CALLBACK_EESt10_Select1stIS3_ESt4lessIyESaIS3_EE22_M_emplace_hint_uniqueIJRKSt21piecewise_construct_tSt5tupleIJRS1_EESE_IJEEEEESt17_Rb_tree_iteratorIS3_ESt23_Rb_tree_const_iteratorIS3_EDpOT_.isra.168_x16c:
    /*0000016c*/ MOV         R8, R2 
    _ZNSt8_Rb_treeIySt4pairIKy35hiRUNTIME_FORWARD_STATUS_CALLBACK_EESt10_Select1stIS3_ESt4lessIyESaIS3_EE22_M_emplace_hint_uniqueIJRKSt21piecewise_construct_tSt5tupleIJRS1_EESE_IJEEEEESt17_Rb_tree_iteratorIS3_ESt23_Rb_tree_const_iteratorIS3_EDpOT_.isra.168_x170:
    /*00000170*/ CMP         R7, R1 
    /*00000174*/ CMPEQ       R6, R0 
    /*00000178*/ BLS         _ZNSt8_Rb_treeIySt4pairIKy35hiRUNTIME_FORWARD_STATUS_CALLBACK_EESt10_Select1stIS3_ESt4lessIyESaIS3_EE22_M_emplace_hint_uniqueIJRKSt21piecewise_construct_tSt5tupleIJRS1_EESE_IJEEEEESt17_Rb_tree_iteratorIS3_ESt23_Rb_tree_const_iteratorIS3_EDpOT_.isra.168_x188
    _ZNSt8_Rb_treeIySt4pairIKy35hiRUNTIME_FORWARD_STATUS_CALLBACK_EESt10_Select1stIS3_ESt4lessIyESaIS3_EE22_M_emplace_hint_uniqueIJRKSt21piecewise_construct_tSt5tupleIJRS1_EESE_IJEEEEESt17_Rb_tree_iteratorIS3_ESt23_Rb_tree_const_iteratorIS3_EDpOT_.isra.168_x17c:
    /*0000017c*/ CMP         R2, #0 
    /*00000180*/ BNE         _ZNSt8_Rb_treeIySt4pairIKy35hiRUNTIME_FORWARD_STATUS_CALLBACK_EESt10_Select1stIS3_ESt4lessIyESaIS3_EE22_M_emplace_hint_uniqueIJRKSt21piecewise_construct_tSt5tupleIJRS1_EESE_IJEEEEESt17_Rb_tree_iteratorIS3_ESt23_Rb_tree_const_iteratorIS3_EDpOT_.isra.168_x228
    /*00000184*/ MOV         R8, R2 
    _ZNSt8_Rb_treeIySt4pairIKy35hiRUNTIME_FORWARD_STATUS_CALLBACK_EESt10_Select1stIS3_ESt4lessIyESaIS3_EE22_M_emplace_hint_uniqueIJRKSt21piecewise_construct_tSt5tupleIJRS1_EESE_IJEEEEESt17_Rb_tree_iteratorIS3_ESt23_Rb_tree_const_iteratorIS3_EDpOT_.isra.168_x188:
    /*00000188*/ MOV         R0, R5 
    /*0000018c*/ BL          _ZdlPv
    /*00000190*/ MOV         R0, R8 
    /*00000194*/ ADD         SP, SP, #12 
    /*00000198*/ POP         {R4, R5, R6, R7, R8, R9, SL, FP, PC} 
    _ZNSt8_Rb_treeIySt4pairIKy35hiRUNTIME_FORWARD_STATUS_CALLBACK_EESt10_Select1stIS3_ESt4lessIyESaIS3_EE22_M_emplace_hint_uniqueIJRKSt21piecewise_construct_tSt5tupleIJRS1_EESE_IJEEEEESt17_Rb_tree_iteratorIS3_ESt23_Rb_tree_const_iteratorIS3_EDpOT_.isra.168_x19c:
    /*0000019c*/ LDR         R3, [R9, #20] 
    /*000001a0*/ CMP         R3, IP 
    /*000001a4*/ BEQ         _ZNSt8_Rb_treeIySt4pairIKy35hiRUNTIME_FORWARD_STATUS_CALLBACK_EESt10_Select1stIS3_ESt4lessIyESaIS3_EE22_M_emplace_hint_uniqueIJRKSt21piecewise_construct_tSt5tupleIJRS1_EESE_IJEEEEESt17_Rb_tree_iteratorIS3_ESt23_Rb_tree_const_iteratorIS3_EDpOT_.isra.168_x1bc
    /*000001a8*/ LDR         R2, [R9, #16] 
    /*000001ac*/ LDRD        R0, [R2, #16] 
    /*000001b0*/ CMP         R1, R7 
    /*000001b4*/ CMPEQ       R0, R6 
    /*000001b8*/ BCC         _ZNSt8_Rb_treeIySt4pairIKy35hiRUNTIME_FORWARD_STATUS_CALLBACK_EESt10_Select1stIS3_ESt4lessIyESaIS3_EE22_M_emplace_hint_uniqueIJRKSt21piecewise_construct_tSt5tupleIJRS1_EESE_IJEEEEESt17_Rb_tree_iteratorIS3_ESt23_Rb_tree_const_iteratorIS3_EDpOT_.isra.168_x228
    _ZNSt8_Rb_treeIySt4pairIKy35hiRUNTIME_FORWARD_STATUS_CALLBACK_EESt10_Select1stIS3_ESt4lessIyESaIS3_EE22_M_emplace_hint_uniqueIJRKSt21piecewise_construct_tSt5tupleIJRS1_EESE_IJEEEEESt17_Rb_tree_iteratorIS3_ESt23_Rb_tree_const_iteratorIS3_EDpOT_.isra.168_x1bc:
    /*000001bc*/ LDR         R4, [R9, #8] 
    /*000001c0*/ CMP         R4, #0 
    /*000001c4*/ BNE         _ZNSt8_Rb_treeIySt4pairIKy35hiRUNTIME_FORWARD_STATUS_CALLBACK_EESt10_Select1stIS3_ESt4lessIyESaIS3_EE22_M_emplace_hint_uniqueIJRKSt21piecewise_construct_tSt5tupleIJRS1_EESE_IJEEEEESt17_Rb_tree_iteratorIS3_ESt23_Rb_tree_const_iteratorIS3_EDpOT_.isra.168_x1d0
    /*000001c8*/ B           _ZNSt8_Rb_treeIySt4pairIKy35hiRUNTIME_FORWARD_STATUS_CALLBACK_EESt10_Select1stIS3_ESt4lessIyESaIS3_EE22_M_emplace_hint_uniqueIJRKSt21piecewise_construct_tSt5tupleIJRS1_EESE_IJEEEEESt17_Rb_tree_iteratorIS3_ESt23_Rb_tree_const_iteratorIS3_EDpOT_.isra.168_x294
    _ZNSt8_Rb_treeIySt4pairIKy35hiRUNTIME_FORWARD_STATUS_CALLBACK_EESt10_Select1stIS3_ESt4lessIyESaIS3_EE22_M_emplace_hint_uniqueIJRKSt21piecewise_construct_tSt5tupleIJRS1_EESE_IJEEEEESt17_Rb_tree_iteratorIS3_ESt23_Rb_tree_const_iteratorIS3_EDpOT_.isra.168_x1cc:
    /*000001cc*/ MOV         R4, R3 
    _ZNSt8_Rb_treeIySt4pairIKy35hiRUNTIME_FORWARD_STATUS_CALLBACK_EESt10_Select1stIS3_ESt4lessIyESaIS3_EE22_M_emplace_hint_uniqueIJRKSt21piecewise_construct_tSt5tupleIJRS1_EESE_IJEEEEESt17_Rb_tree_iteratorIS3_ESt23_Rb_tree_const_iteratorIS3_EDpOT_.isra.168_x1d0:
    /*000001d0*/ LDRD        R0, [R4, #16] 
    /*000001d4*/ MOV         R2, #1 
    /*000001d8*/ CMP         R7, R1 
    /*000001dc*/ CMPEQ       R6, R0 
    /*000001e0*/ MOVCS       R2, #0 
    /*000001e4*/ LDRCC       R3, [R4, #8] 
    /*000001e8*/ LDRCS       R3, [R4, #12] 
    /*000001ec*/ CMP         R3, #0 
    /*000001f0*/ BNE         _ZNSt8_Rb_treeIySt4pairIKy35hiRUNTIME_FORWARD_STATUS_CALLBACK_EESt10_Select1stIS3_ESt4lessIyESaIS3_EE22_M_emplace_hint_uniqueIJRKSt21piecewise_construct_tSt5tupleIJRS1_EESE_IJEEEEESt17_Rb_tree_iteratorIS3_ESt23_Rb_tree_const_iteratorIS3_EDpOT_.isra.168_x1cc
    /*000001f4*/ CMP         R2, #0 
    /*000001f8*/ MOV         R2, R4 
    /*000001fc*/ BEQ         _ZNSt8_Rb_treeIySt4pairIKy35hiRUNTIME_FORWARD_STATUS_CALLBACK_EESt10_Select1stIS3_ESt4lessIyESaIS3_EE22_M_emplace_hint_uniqueIJRKSt21piecewise_construct_tSt5tupleIJRS1_EESE_IJEEEEESt17_Rb_tree_iteratorIS3_ESt23_Rb_tree_const_iteratorIS3_EDpOT_.isra.168_x16c
    _ZNSt8_Rb_treeIySt4pairIKy35hiRUNTIME_FORWARD_STATUS_CALLBACK_EESt10_Select1stIS3_ESt4lessIyESaIS3_EE22_M_emplace_hint_uniqueIJRKSt21piecewise_construct_tSt5tupleIJRS1_EESE_IJEEEEESt17_Rb_tree_iteratorIS3_ESt23_Rb_tree_const_iteratorIS3_EDpOT_.isra.168_x200:
    /*00000200*/ LDR         R3, [R9, #12] 
    /*00000204*/ CMP         R3, R2 
    /*00000208*/ BEQ         _ZNSt8_Rb_treeIySt4pairIKy35hiRUNTIME_FORWARD_STATUS_CALLBACK_EESt10_Select1stIS3_ESt4lessIyESaIS3_EE22_M_emplace_hint_uniqueIJRKSt21piecewise_construct_tSt5tupleIJRS1_EESE_IJEEEEESt17_Rb_tree_iteratorIS3_ESt23_Rb_tree_const_iteratorIS3_EDpOT_.isra.168_x228
    _ZNSt8_Rb_treeIySt4pairIKy35hiRUNTIME_FORWARD_STATUS_CALLBACK_EESt10_Select1stIS3_ESt4lessIyESaIS3_EE22_M_emplace_hint_uniqueIJRKSt21piecewise_construct_tSt5tupleIJRS1_EESE_IJEEEEESt17_Rb_tree_iteratorIS3_ESt23_Rb_tree_const_iteratorIS3_EDpOT_.isra.168_x20c:
    /*0000020c*/ STR         R2, [SP, #4] 
    /*00000210*/ MOV         R0, R2 
    /*00000214*/ BL          _ZSt18_Rb_tree_decrementPSt18_Rb_tree_node_base
    /*00000218*/ LDR         R2, [SP, #4] 
    /*0000021c*/ MOV         R8, R0 
    /*00000220*/ LDRD        R0, [R0, #16] 
    /*00000224*/ B           _ZNSt8_Rb_treeIySt4pairIKy35hiRUNTIME_FORWARD_STATUS_CALLBACK_EESt10_Select1stIS3_ESt4lessIyESaIS3_EE22_M_emplace_hint_uniqueIJRKSt21piecewise_construct_tSt5tupleIJRS1_EESE_IJEEEEESt17_Rb_tree_iteratorIS3_ESt23_Rb_tree_const_iteratorIS3_EDpOT_.isra.168_x170
    _ZNSt8_Rb_treeIySt4pairIKy35hiRUNTIME_FORWARD_STATUS_CALLBACK_EESt10_Select1stIS3_ESt4lessIyESaIS3_EE22_M_emplace_hint_uniqueIJRKSt21piecewise_construct_tSt5tupleIJRS1_EESE_IJEEEEESt17_Rb_tree_iteratorIS3_ESt23_Rb_tree_const_iteratorIS3_EDpOT_.isra.168_x228:
    /*00000228*/ MOV         R0, #0 
    /*0000022c*/ B           _ZNSt8_Rb_treeIySt4pairIKy35hiRUNTIME_FORWARD_STATUS_CALLBACK_EESt10_Select1stIS3_ESt4lessIyESaIS3_EE22_M_emplace_hint_uniqueIJRKSt21piecewise_construct_tSt5tupleIJRS1_EESE_IJEEEEESt17_Rb_tree_iteratorIS3_ESt23_Rb_tree_const_iteratorIS3_EDpOT_.isra.168_x98
    _ZNSt8_Rb_treeIySt4pairIKy35hiRUNTIME_FORWARD_STATUS_CALLBACK_EESt10_Select1stIS3_ESt4lessIyESaIS3_EE22_M_emplace_hint_uniqueIJRKSt21piecewise_construct_tSt5tupleIJRS1_EESE_IJEEEEESt17_Rb_tree_iteratorIS3_ESt23_Rb_tree_const_iteratorIS3_EDpOT_.isra.168_x230:
    /*00000230*/ MOV         R2, SL 
    _ZNSt8_Rb_treeIySt4pairIKy35hiRUNTIME_FORWARD_STATUS_CALLBACK_EESt10_Select1stIS3_ESt4lessIyESaIS3_EE22_M_emplace_hint_uniqueIJRKSt21piecewise_construct_tSt5tupleIJRS1_EESE_IJEEEEESt17_Rb_tree_iteratorIS3_ESt23_Rb_tree_const_iteratorIS3_EDpOT_.isra.168_x234:
    /*00000234*/ CMP         FP, R2 
    /*00000238*/ BNE         _ZNSt8_Rb_treeIySt4pairIKy35hiRUNTIME_FORWARD_STATUS_CALLBACK_EESt10_Select1stIS3_ESt4lessIyESaIS3_EE22_M_emplace_hint_uniqueIJRKSt21piecewise_construct_tSt5tupleIJRS1_EESE_IJEEEEESt17_Rb_tree_iteratorIS3_ESt23_Rb_tree_const_iteratorIS3_EDpOT_.isra.168_x20c
    /*0000023c*/ B           _ZNSt8_Rb_treeIySt4pairIKy35hiRUNTIME_FORWARD_STATUS_CALLBACK_EESt10_Select1stIS3_ESt4lessIyESaIS3_EE22_M_emplace_hint_uniqueIJRKSt21piecewise_construct_tSt5tupleIJRS1_EESE_IJEEEEESt17_Rb_tree_iteratorIS3_ESt23_Rb_tree_const_iteratorIS3_EDpOT_.isra.168_x17c
    _ZNSt8_Rb_treeIySt4pairIKy35hiRUNTIME_FORWARD_STATUS_CALLBACK_EESt10_Select1stIS3_ESt4lessIyESaIS3_EE22_M_emplace_hint_uniqueIJRKSt21piecewise_construct_tSt5tupleIJRS1_EESE_IJEEEEESt17_Rb_tree_iteratorIS3_ESt23_Rb_tree_const_iteratorIS3_EDpOT_.isra.168_x240:
    /*00000240*/ LDR         R4, [R9, #8] 
    /*00000244*/ CMP         R4, #0 
    /*00000248*/ BNE         _ZNSt8_Rb_treeIySt4pairIKy35hiRUNTIME_FORWARD_STATUS_CALLBACK_EESt10_Select1stIS3_ESt4lessIyESaIS3_EE22_M_emplace_hint_uniqueIJRKSt21piecewise_construct_tSt5tupleIJRS1_EESE_IJEEEEESt17_Rb_tree_iteratorIS3_ESt23_Rb_tree_const_iteratorIS3_EDpOT_.isra.168_x254
    /*0000024c*/ B           _ZNSt8_Rb_treeIySt4pairIKy35hiRUNTIME_FORWARD_STATUS_CALLBACK_EESt10_Select1stIS3_ESt4lessIyESaIS3_EE22_M_emplace_hint_uniqueIJRKSt21piecewise_construct_tSt5tupleIJRS1_EESE_IJEEEEESt17_Rb_tree_iteratorIS3_ESt23_Rb_tree_const_iteratorIS3_EDpOT_.isra.168_x29c
    _ZNSt8_Rb_treeIySt4pairIKy35hiRUNTIME_FORWARD_STATUS_CALLBACK_EESt10_Select1stIS3_ESt4lessIyESaIS3_EE22_M_emplace_hint_uniqueIJRKSt21piecewise_construct_tSt5tupleIJRS1_EESE_IJEEEEESt17_Rb_tree_iteratorIS3_ESt23_Rb_tree_const_iteratorIS3_EDpOT_.isra.168_x250:
    /*00000250*/ MOV         R4, R3 
    _ZNSt8_Rb_treeIySt4pairIKy35hiRUNTIME_FORWARD_STATUS_CALLBACK_EESt10_Select1stIS3_ESt4lessIyESaIS3_EE22_M_emplace_hint_uniqueIJRKSt21piecewise_construct_tSt5tupleIJRS1_EESE_IJEEEEESt17_Rb_tree_iteratorIS3_ESt23_Rb_tree_const_iteratorIS3_EDpOT_.isra.168_x254:
    /*00000254*/ LDRD        R0, [R4, #16] 
    /*00000258*/ MOV         R2, #1 
    /*0000025c*/ CMP         R7, R1 
    /*00000260*/ CMPEQ       R6, R0 
    /*00000264*/ MOVCS       R2, #0 
    /*00000268*/ LDRCC       R3, [R4, #8] 
    /*0000026c*/ LDRCS       R3, [R4, #12] 
    /*00000270*/ CMP         R3, #0 
    /*00000274*/ BNE         _ZNSt8_Rb_treeIySt4pairIKy35hiRUNTIME_FORWARD_STATUS_CALLBACK_EESt10_Select1stIS3_ESt4lessIyESaIS3_EE22_M_emplace_hint_uniqueIJRKSt21piecewise_construct_tSt5tupleIJRS1_EESE_IJEEEEESt17_Rb_tree_iteratorIS3_ESt23_Rb_tree_const_iteratorIS3_EDpOT_.isra.168_x250
    /*00000278*/ CMP         R2, #0 
    /*0000027c*/ MOV         R2, R4 
    /*00000280*/ BEQ         _ZNSt8_Rb_treeIySt4pairIKy35hiRUNTIME_FORWARD_STATUS_CALLBACK_EESt10_Select1stIS3_ESt4lessIyESaIS3_EE22_M_emplace_hint_uniqueIJRKSt21piecewise_construct_tSt5tupleIJRS1_EESE_IJEEEEESt17_Rb_tree_iteratorIS3_ESt23_Rb_tree_const_iteratorIS3_EDpOT_.isra.168_x16c
    _ZNSt8_Rb_treeIySt4pairIKy35hiRUNTIME_FORWARD_STATUS_CALLBACK_EESt10_Select1stIS3_ESt4lessIyESaIS3_EE22_M_emplace_hint_uniqueIJRKSt21piecewise_construct_tSt5tupleIJRS1_EESE_IJEEEEESt17_Rb_tree_iteratorIS3_ESt23_Rb_tree_const_iteratorIS3_EDpOT_.isra.168_x284:
    /*00000284*/ LDR         R3, [R9, #12] 
    /*00000288*/ CMP         R3, R2 
    /*0000028c*/ BNE         _ZNSt8_Rb_treeIySt4pairIKy35hiRUNTIME_FORWARD_STATUS_CALLBACK_EESt10_Select1stIS3_ESt4lessIyESaIS3_EE22_M_emplace_hint_uniqueIJRKSt21piecewise_construct_tSt5tupleIJRS1_EESE_IJEEEEESt17_Rb_tree_iteratorIS3_ESt23_Rb_tree_const_iteratorIS3_EDpOT_.isra.168_x20c
    /*00000290*/ B           _ZNSt8_Rb_treeIySt4pairIKy35hiRUNTIME_FORWARD_STATUS_CALLBACK_EESt10_Select1stIS3_ESt4lessIyESaIS3_EE22_M_emplace_hint_uniqueIJRKSt21piecewise_construct_tSt5tupleIJRS1_EESE_IJEEEEESt17_Rb_tree_iteratorIS3_ESt23_Rb_tree_const_iteratorIS3_EDpOT_.isra.168_x17c
    _ZNSt8_Rb_treeIySt4pairIKy35hiRUNTIME_FORWARD_STATUS_CALLBACK_EESt10_Select1stIS3_ESt4lessIyESaIS3_EE22_M_emplace_hint_uniqueIJRKSt21piecewise_construct_tSt5tupleIJRS1_EESE_IJEEEEESt17_Rb_tree_iteratorIS3_ESt23_Rb_tree_const_iteratorIS3_EDpOT_.isra.168_x294:
    /*00000294*/ MOV         R2, SL 
    /*00000298*/ B           _ZNSt8_Rb_treeIySt4pairIKy35hiRUNTIME_FORWARD_STATUS_CALLBACK_EESt10_Select1stIS3_ESt4lessIyESaIS3_EE22_M_emplace_hint_uniqueIJRKSt21piecewise_construct_tSt5tupleIJRS1_EESE_IJEEEEESt17_Rb_tree_iteratorIS3_ESt23_Rb_tree_const_iteratorIS3_EDpOT_.isra.168_x200
    _ZNSt8_Rb_treeIySt4pairIKy35hiRUNTIME_FORWARD_STATUS_CALLBACK_EESt10_Select1stIS3_ESt4lessIyESaIS3_EE22_M_emplace_hint_uniqueIJRKSt21piecewise_construct_tSt5tupleIJRS1_EESE_IJEEEEESt17_Rb_tree_iteratorIS3_ESt23_Rb_tree_const_iteratorIS3_EDpOT_.isra.168_x29c:
    /*0000029c*/ MOV         R2, SL 
    /*000002a0*/ B           _ZNSt8_Rb_treeIySt4pairIKy35hiRUNTIME_FORWARD_STATUS_CALLBACK_EESt10_Select1stIS3_ESt4lessIyESaIS3_EE22_M_emplace_hint_uniqueIJRKSt21piecewise_construct_tSt5tupleIJRS1_EESE_IJEEEEESt17_Rb_tree_iteratorIS3_ESt23_Rb_tree_const_iteratorIS3_EDpOT_.isra.168_x284
FUNC_END _ZNSt8_Rb_treeIySt4pairIKy35hiRUNTIME_FORWARD_STATUS_CALLBACK_EESt10_Select1stIS3_ESt4lessIyESaIS3_EE22_M_emplace_hint_uniqueIJRKSt21piecewise_construct_tSt5tupleIJRS1_EESE_IJEEEEESt17_Rb_tree_iteratorIS3_ESt23_Rb_tree_const_iteratorIS3_EDpOT_.isra.168


@ - - - - - - - - - - - - - - - - - - - - - - - - - - - - - 
@ .text.HIRT_Utils_AllocMem
@ Size: 0x24
@ - - - - - - - - - - - - - - - - - - - - - - - - - - - - - 

FUNC_BEGIN HIRT_Utils_AllocMem
    /*00000000*/ LDR         R3, WORD_0020               @ LDR         R3, [PC, #24]               @ 0x0000000000000020 
    /*00000004*/ ADD         R3, PC, R3 
    /*00000008*/ LDR         R3, [R3] 
    /*0000000c*/ CMP         R3, #0 
    /*00000010*/ BEQ         HIRT_Utils_AllocMem_x18
    /*00000014*/ BX          R3 
    HIRT_Utils_AllocMem_x18:
    /*00000018*/ MVN         R0, #0 
    /*0000001c*/ BX          LR 
    /*00000020*/ WORD_0020: .word 0x00000014
FUNC_END HIRT_Utils_AllocMem


@ - - - - - - - - - - - - - - - - - - - - - - - - - - - - - 
@ .text.HIRT_Utils_FlushCache
@ Size: 0x24
@ - - - - - - - - - - - - - - - - - - - - - - - - - - - - - 

FUNC_BEGIN HIRT_Utils_FlushCache
    /*00000000*/ LDR         R3, WORD_0020               @ LDR         R3, [PC, #24]               @ 0x0000000000000020 
    /*00000004*/ ADD         R3, PC, R3 
    /*00000008*/ LDR         R3, [R3, #4] 
    /*0000000c*/ CMP         R3, #0 
    /*00000010*/ BEQ         HIRT_Utils_FlushCache_x18
    /*00000014*/ BX          R3 
    HIRT_Utils_FlushCache_x18:
    /*00000018*/ MVN         R0, #0 
    /*0000001c*/ BX          LR 
    /*00000020*/ WORD_0020: .word 0x00000014
FUNC_END HIRT_Utils_FlushCache


@ - - - - - - - - - - - - - - - - - - - - - - - - - - - - - 
@ .text.HIRT_Utils_FreeMem
@ Size: 0x24
@ - - - - - - - - - - - - - - - - - - - - - - - - - - - - - 

FUNC_BEGIN HIRT_Utils_FreeMem
    /*00000000*/ LDR         R3, WORD_0020               @ LDR         R3, [PC, #24]               @ 0x0000000000000020 
    /*00000004*/ ADD         R3, PC, R3 
    /*00000008*/ LDR         R3, [R3, #8] 
    /*0000000c*/ CMP         R3, #0 
    /*00000010*/ BEQ         HIRT_Utils_FreeMem_x18
    /*00000014*/ BX          R3 
    HIRT_Utils_FreeMem_x18:
    /*00000018*/ MVN         R0, #0 
    /*0000001c*/ BX          LR 
    /*00000020*/ WORD_0020: .word 0x00000014
FUNC_END HIRT_Utils_FreeMem


@ - - - - - - - - - - - - - - - - - - - - - - - - - - - - - 
@ .text.HI_SVPRT_RUNTIME_UnloadModelGroup
@ Size: 0x3c4
@ - - - - - - - - - - - - - - - - - - - - - - - - - - - - - 

FUNC_BEGIN HI_SVPRT_RUNTIME_UnloadModelGroup
    /*00000000*/ MOV         IP, #16384                  @ 0x4000 
    /*00000004*/ PUSH        {R4, R5, R6, R7, R8, R9, SL, FP, LR} 
    /*00000008*/ SUB         IP, SP, IP 
    /*0000000c*/ STR         R0, [IP, #4008]             @ 0xfa8 
    /*00000010*/ LDR         R3, WORD_0364               @ LDR         R3, [PC, #844]              @ 0x0000000000000364 
    /*00000014*/ SUB         SP, SP, #52                 @ 0x34 
    /*00000018*/ LDR         R1, WORD_0368               @ LDR         R1, [PC, #840]              @ 0x0000000000000368 
    /*0000001c*/ MOV         IP, #0 
    /*00000020*/ ADD         R3, PC, R3 
    /*00000024*/ ADD         R6, SP, #28 
    /*00000028*/ LDR         R2, WORD_036c               @ LDR         R2, [PC, #828]              @ 0x000000000000036c 
    /*0000002c*/ MOV         R4, R0 
    /*00000030*/ LDR         R7, [R3, R1] 
    /*00000034*/ STR         R6, [SP, #20] 
    /*00000038*/ LDR         R1, [R7] 
    /*0000003c*/ STR         IP, [SP, #24] 
    /*00000040*/ STR         R1, [SP, #44]               @ 0x2c 
    /*00000044*/ STRB        IP, [SP, #28] 
    /*00000048*/ LDR         R5, [R3, R2] 
    /*0000004c*/ CMP         R5, IP 
    /*00000050*/ BEQ         HI_SVPRT_RUNTIME_UnloadModelGroup_x68
    /*00000054*/ LDR         R0, WORD_0370               @ LDR         R0, [PC, #788]              @ 0x0000000000000370 
    /*00000058*/ ADD         R0, PC, R0 
    /*0000005c*/ BL          pthread_mutex_lock
    /*00000060*/ CMP         R0, #0 
    /*00000064*/ BNE         HI_SVPRT_RUNTIME_UnloadModelGroup_x318
    HI_SVPRT_RUNTIME_UnloadModelGroup_x68:
    /*00000068*/ LDR         R3, WORD_0374               @ LDR         R3, [PC, #772]              @ 0x0000000000000374 
    /*0000006c*/ ADD         R3, PC, R3 
    /*00000070*/ LDR         R3, [R3] 
    /*00000074*/ CMP         R3, #0 
    /*00000078*/ BEQ         HI_SVPRT_RUNTIME_UnloadModelGroup_x2c8
    /*0000007c*/ LDR         R8, WORD_0378               @ LDR         R8, [PC, #756]              @ 0x0000000000000378 
    /*00000080*/ ADD         R8, PC, R8 
    /*00000084*/ ADD         R8, R8, #4 
    /*00000088*/ LDR         R0, [R8, #8] 
    /*0000008c*/ CMP         R0, R8 
    /*00000090*/ BEQ         HI_SVPRT_RUNTIME_UnloadModelGroup_x274
    /*00000094*/ LDR         R3, [R0, #16] 
    /*00000098*/ CMP         R4, R3 
    /*0000009c*/ BEQ         HI_SVPRT_RUNTIME_UnloadModelGroup_xb8
    HI_SVPRT_RUNTIME_UnloadModelGroup_xa0:
    /*000000a0*/ BL          _ZSt18_Rb_tree_incrementPKSt18_Rb_tree_node_base
    /*000000a4*/ CMP         R0, R8 
    /*000000a8*/ BEQ         HI_SVPRT_RUNTIME_UnloadModelGroup_x274
    /*000000ac*/ LDR         R3, [R0, #16] 
    /*000000b0*/ CMP         R3, R4 
    /*000000b4*/ BNE         HI_SVPRT_RUNTIME_UnloadModelGroup_xa0
    HI_SVPRT_RUNTIME_UnloadModelGroup_xb8:
    /*000000b8*/ CMP         R5, #0 
    /*000000bc*/ BEQ         HI_SVPRT_RUNTIME_UnloadModelGroup_xcc
    /*000000c0*/ LDR         R0, WORD_037c               @ LDR         R0, [PC, #692]              @ 0x000000000000037c 
    /*000000c4*/ ADD         R0, PC, R0 
    /*000000c8*/ BL          pthread_mutex_unlock
    HI_SVPRT_RUNTIME_UnloadModelGroup_xcc:
    /*000000cc*/ BL          _ZN4hirt17ModelGroupManager11getInstanceEv
    /*000000d0*/ MOV         R1, R4 
    /*000000d4*/ BL          _ZN4hirt17ModelGroupManager8delGroupEPv
    /*000000d8*/ SUBS        R8, R0, #0 
    /*000000dc*/ BNE         HI_SVPRT_RUNTIME_UnloadModelGroup_x2ec
    HI_SVPRT_RUNTIME_UnloadModelGroup_xe0:
    /*000000e0*/ CMP         R5, #0 
    /*000000e4*/ BEQ         HI_SVPRT_RUNTIME_UnloadModelGroup_xfc
    /*000000e8*/ LDR         R0, WORD_0380               @ LDR         R0, [PC, #656]              @ 0x0000000000000380 
    /*000000ec*/ ADD         R0, PC, R0 
    /*000000f0*/ BL          pthread_mutex_lock
    /*000000f4*/ CMP         R0, #0 
    /*000000f8*/ BNE         HI_SVPRT_RUNTIME_UnloadModelGroup_x330
    HI_SVPRT_RUNTIME_UnloadModelGroup_xfc:
    /*000000fc*/ LDR         R9, WORD_0384               @ LDR         R9, [PC, #640]              @ 0x0000000000000384 
    /*00000100*/ ADD         R9, PC, R9 
    /*00000104*/ ADD         R9, R9, #4 
    /*00000108*/ LDR         R0, [R9, #8] 
    /*0000010c*/ CMP         R0, R9 
    /*00000110*/ BEQ         HI_SVPRT_RUNTIME_UnloadModelGroup_x158
    /*00000114*/ LDR         R3, [R0, #16] 
    /*00000118*/ CMP         R4, R3 
    /*0000011c*/ BEQ         HI_SVPRT_RUNTIME_UnloadModelGroup_x138
    HI_SVPRT_RUNTIME_UnloadModelGroup_x120:
    /*00000120*/ BL          _ZSt18_Rb_tree_incrementPKSt18_Rb_tree_node_base
    /*00000124*/ CMP         R0, R9 
    /*00000128*/ BEQ         HI_SVPRT_RUNTIME_UnloadModelGroup_x158
    /*0000012c*/ LDR         R3, [R0, #16] 
    /*00000130*/ CMP         R3, R4 
    /*00000134*/ BNE         HI_SVPRT_RUNTIME_UnloadModelGroup_x120
    HI_SVPRT_RUNTIME_UnloadModelGroup_x138:
    /*00000138*/ LDR         R9, WORD_0388               @ LDR         R9, [PC, #584]              @ 0x0000000000000388 
    /*0000013c*/ ADD         R9, PC, R9 
    /*00000140*/ ADD         R1, R9, #4 
    /*00000144*/ BL          _ZSt28_Rb_tree_rebalance_for_erasePSt18_Rb_tree_node_baseRS_
    /*00000148*/ BL          _ZdlPv
    /*0000014c*/ LDR         R3, [R9, #20] 
    /*00000150*/ SUB         R3, R3, #1 
    /*00000154*/ STR         R3, [R9, #20] 
    HI_SVPRT_RUNTIME_UnloadModelGroup_x158:
    /*00000158*/ MOV         R0, R4 
    /*0000015c*/ BL          strlen
    /*00000160*/ STR         R0, [SP] 
    /*00000164*/ MOV         R3, R4 
    /*00000168*/ LDR         R2, [SP, #24] 
    /*0000016c*/ MOV         R1, #0 
    /*00000170*/ ADD         R0, SP, #20 
    /*00000174*/ BL          _ZNSt7__cxx1112basic_stringIcSt11char_traitsIcESaIcEE10_M_replaceEjjPKcj
    /*00000178*/ LDR         R2, WORD_038c               @ LDR         R2, [PC, #524]              @ 0x000000000000038c 
    /*0000017c*/ ADD         R2, PC, R2 
    /*00000180*/ ADD         R2, R2, #4 
    /*00000184*/ LDR         R3, [R2, #8] 
    /*00000188*/ CMP         R3, R2 
    /*0000018c*/ BEQ         HI_SVPRT_RUNTIME_UnloadModelGroup_x220
    /*00000190*/ LDR         SL, WORD_0390               @ LDR         SL, [PC, #504]              @ 0x0000000000000390 
    /*00000194*/ MOV         FP, R3 
    /*00000198*/ LDR         R3, [SP, #20] 
    /*0000019c*/ ADD         SL, PC, SL 
    /*000001a0*/ LDR         R9, [SP, #24] 
    /*000001a4*/ ADD         SL, SL, #4 
    /*000001a8*/ STR         R3, [SP, #12] 
    /*000001ac*/ B           HI_SVPRT_RUNTIME_UnloadModelGroup_x1c4
    HI_SVPRT_RUNTIME_UnloadModelGroup_x1b0:
    /*000001b0*/ MOV         R0, FP 
    /*000001b4*/ BL          _ZSt18_Rb_tree_incrementPKSt18_Rb_tree_node_base
    /*000001b8*/ CMP         R0, SL 
    /*000001bc*/ MOV         FP, R0 
    /*000001c0*/ BEQ         HI_SVPRT_RUNTIME_UnloadModelGroup_x220
    HI_SVPRT_RUNTIME_UnloadModelGroup_x1c4:
    /*000001c4*/ LDR         R2, [FP, #20] 
    /*000001c8*/ CMP         R9, R2 
    /*000001cc*/ BNE         HI_SVPRT_RUNTIME_UnloadModelGroup_x1b0
    /*000001d0*/ CMP         R9, #0 
    /*000001d4*/ BNE         HI_SVPRT_RUNTIME_UnloadModelGroup_x2ac
    HI_SVPRT_RUNTIME_UnloadModelGroup_x1d8:
    /*000001d8*/ LDR         R1, WORD_0394               @ LDR         R1, [PC, #436]              @ 0x0000000000000394 
    /*000001dc*/ MOV         R0, FP 
    /*000001e0*/ ADD         R1, PC, R1 
    /*000001e4*/ ADD         R1, R1, #4 
    /*000001e8*/ BL          _ZSt28_Rb_tree_rebalance_for_erasePSt18_Rb_tree_node_baseRS_
    /*000001ec*/ MOV         R9, R0 
    /*000001f0*/ LDR         R0, [R0, #16] 
    /*000001f4*/ ADD         R3, R9, #24 
    /*000001f8*/ CMP         R0, R3 
    /*000001fc*/ BEQ         HI_SVPRT_RUNTIME_UnloadModelGroup_x204
    /*00000200*/ BL          _ZdlPv
    HI_SVPRT_RUNTIME_UnloadModelGroup_x204:
    /*00000204*/ MOV         R0, R9 
    /*00000208*/ BL          _ZdlPv
    /*0000020c*/ LDR         R2, WORD_0398               @ LDR         R2, [PC, #388]              @ 0x0000000000000398 
    /*00000210*/ ADD         R2, PC, R2 
    /*00000214*/ LDR         R3, [R2, #20] 
    /*00000218*/ SUB         R3, R3, #1 
    /*0000021c*/ STR         R3, [R2, #20] 
    HI_SVPRT_RUNTIME_UnloadModelGroup_x220:
    /*00000220*/ CMP         R5, #0 
    /*00000224*/ BEQ         HI_SVPRT_RUNTIME_UnloadModelGroup_x234
    /*00000228*/ LDR         R0, WORD_039c               @ LDR         R0, [PC, #364]              @ 0x000000000000039c 
    /*0000022c*/ ADD         R0, PC, R0 
    /*00000230*/ BL          pthread_mutex_unlock
    HI_SVPRT_RUNTIME_UnloadModelGroup_x234:
    /*00000234*/ MOV         R0, R4 
    /*00000238*/ BL          _ZN4hirt17ModelGroupSetting20destroyGroupPrivInfoEP22HIRT_GROUP_PRIV_INFO_S
    /*0000023c*/ ADDS        R8, R8, #0 
    /*00000240*/ MOVNE       R8, #1 
    /*00000244*/ RSB         R8, R8, #0 
    HI_SVPRT_RUNTIME_UnloadModelGroup_x248:
    /*00000248*/ LDR         R0, [SP, #20] 
    /*0000024c*/ CMP         R0, R6 
    /*00000250*/ BEQ         HI_SVPRT_RUNTIME_UnloadModelGroup_x258
    /*00000254*/ BL          _ZdlPv
    HI_SVPRT_RUNTIME_UnloadModelGroup_x258:
    /*00000258*/ LDR         R2, [SP, #44]               @ 0x2c 
    /*0000025c*/ MOV         R0, R8 
    /*00000260*/ LDR         R3, [R7] 
    /*00000264*/ CMP         R2, R3 
    /*00000268*/ BNE         HI_SVPRT_RUNTIME_UnloadModelGroup_x314
    /*0000026c*/ ADD         SP, SP, #52                 @ 0x34 
    /*00000270*/ POP         {R4, R5, R6, R7, R8, R9, SL, FP, PC} 
    HI_SVPRT_RUNTIME_UnloadModelGroup_x274:
    /*00000274*/ LDR         R2, WORD_03a0               @ LDR         R2, [PC, #292]              @ 0x00000000000003a0 
    /*00000278*/ MOV         R3, R4 
    /*0000027c*/ LDR         R0, WORD_03a4               @ LDR         R0, [PC, #288]              @ 0x00000000000003a4 
    /*00000280*/ MOV         R1, #4 
    /*00000284*/ ADD         R2, PC, R2 
    /*00000288*/ ADD         R0, PC, R0 
    /*0000028c*/ BL          _Z15HIRT_LOG_PrintfPKc19tagHIRT_LOG_LEVEL_ES0_z
    /*00000290*/ MVN         R8, #0 
    HI_SVPRT_RUNTIME_UnloadModelGroup_x294:
    /*00000294*/ CMP         R5, #0 
    /*00000298*/ BEQ         HI_SVPRT_RUNTIME_UnloadModelGroup_x248
    /*0000029c*/ LDR         R0, WORD_03a8               @ LDR         R0, [PC, #260]              @ 0x00000000000003a8 
    /*000002a0*/ ADD         R0, PC, R0 
    /*000002a4*/ BL          pthread_mutex_unlock
    /*000002a8*/ B           HI_SVPRT_RUNTIME_UnloadModelGroup_x248
    HI_SVPRT_RUNTIME_UnloadModelGroup_x2ac:
    /*000002ac*/ LDR         R0, [FP, #16] 
    /*000002b0*/ MOV         R2, R9 
    /*000002b4*/ LDR         R1, [SP, #12] 
    /*000002b8*/ BL          memcmp
    /*000002bc*/ CMP         R0, #0 
    /*000002c0*/ BNE         HI_SVPRT_RUNTIME_UnloadModelGroup_x1b0
    /*000002c4*/ B           HI_SVPRT_RUNTIME_UnloadModelGroup_x1d8
    HI_SVPRT_RUNTIME_UnloadModelGroup_x2c8:
    /*000002c8*/ LDR         R2, WORD_03ac               @ LDR         R2, [PC, #220]              @ 0x00000000000003ac 
    /*000002cc*/ MOV         R1, #4 
    /*000002d0*/ LDR         R0, WORD_03b0               @ LDR         R0, [PC, #216]              @ 0x00000000000003b0 
    /*000002d4*/ ADD         R2, PC, R2 
    /*000002d8*/ ADD         R0, PC, R0 
    /*000002dc*/ BL          _Z15HIRT_LOG_PrintfPKc19tagHIRT_LOG_LEVEL_ES0_z
    /*000002e0*/ MOVW        R8, #3841                   @ 0xf01 
    /*000002e4*/ MOVT        R8, #65280                  @ 0xff00 
    /*000002e8*/ B           HI_SVPRT_RUNTIME_UnloadModelGroup_x294
    HI_SVPRT_RUNTIME_UnloadModelGroup_x2ec:
    /*000002ec*/ LDR         R2, WORD_03b4               @ LDR         R2, [PC, #192]              @ 0x00000000000003b4 
    /*000002f0*/ MOV         R1, #4 
    /*000002f4*/ LDR         R0, WORD_03b8               @ LDR         R0, [PC, #188]              @ 0x00000000000003b8 
    /*000002f8*/ ADD         R2, PC, R2 
    /*000002fc*/ ADD         R0, PC, R0 
    /*00000300*/ BL          _Z15HIRT_LOG_PrintfPKc19tagHIRT_LOG_LEVEL_ES0_z
    /*00000304*/ CMN         R8, #100                    @ 0x64 
    /*00000308*/ BNE         HI_SVPRT_RUNTIME_UnloadModelGroup_xe0
    /*0000030c*/ MVN         R8, #0 
    /*00000310*/ B           HI_SVPRT_RUNTIME_UnloadModelGroup_x248
    HI_SVPRT_RUNTIME_UnloadModelGroup_x314:
    /*00000314*/ BL          __stack_chk_fail
    HI_SVPRT_RUNTIME_UnloadModelGroup_x318:
    /*00000318*/ BL          _ZSt20__throw_system_errori
    HI_SVPRT_RUNTIME_UnloadModelGroup_x31c:
    /*0000031c*/ LDR         R0, [SP, #20] 
    /*00000320*/ CMP         R0, R6 
    /*00000324*/ BEQ         HI_SVPRT_RUNTIME_UnloadModelGroup_x32c
    /*00000328*/ BL          _ZdlPv
    HI_SVPRT_RUNTIME_UnloadModelGroup_x32c:
    /*0000032c*/ BL          __cxa_end_cleanup
    HI_SVPRT_RUNTIME_UnloadModelGroup_x330:
    /*00000330*/ BL          _ZSt20__throw_system_errori
    /*00000334*/ CMP         R5, #0 
    /*00000338*/ BEQ         HI_SVPRT_RUNTIME_UnloadModelGroup_x31c
    /*0000033c*/ LDR         R0, WORD_03bc               @ LDR         R0, [PC, #120]              @ 0x00000000000003bc 
    /*00000340*/ ADD         R0, PC, R0 
    /*00000344*/ BL          pthread_mutex_unlock
    /*00000348*/ B           HI_SVPRT_RUNTIME_UnloadModelGroup_x31c
    /*0000034c*/ CMP         R5, #0 
    /*00000350*/ BEQ         HI_SVPRT_RUNTIME_UnloadModelGroup_x31c
    /*00000354*/ LDR         R0, WORD_03c0               @ LDR         R0, [PC, #100]              @ 0x00000000000003c0 
    /*00000358*/ ADD         R0, PC, R0 
    /*0000035c*/ BL          pthread_mutex_unlock
    /*00000360*/ B           HI_SVPRT_RUNTIME_UnloadModelGroup_x31c
    /*00000364*/ WORD_0364: .word 0x0000033c
    /*00000368*/ WORD_0368: .word 0x00000000
    /*0000036c*/ WORD_036c: .word 0x00000000
    /*00000370*/ WORD_0370: .word 0x00000310
    /*00000374*/ WORD_0374: .word 0x00000300
    /*00000378*/ WORD_0378: .word 0x000002f0
    /*0000037c*/ WORD_037c: .word 0x000002b0
    /*00000380*/ WORD_0380: .word 0x0000028c
    /*00000384*/ WORD_0384: .word 0x0000027c
    /*00000388*/ WORD_0388: .word 0x00000244
    /*0000038c*/ WORD_038c: .word 0x00000208
    /*00000390*/ WORD_0390: .word 0x000001ec
    /*00000394*/ WORD_0394: .word 0x000001ac
    /*00000398*/ WORD_0398: .word 0x00000180
    /*0000039c*/ WORD_039c: .word 0x00000168
    /*000003a0*/ WORD_03a0: .word 0x00000114
    /*000003a4*/ WORD_03a4: .word 0x00000114
    /*000003a8*/ WORD_03a8: .word 0x00000100
    /*000003ac*/ WORD_03ac: .word 0x000000d0
    /*000003b0*/ WORD_03b0: .word 0x000000d0
    /*000003b4*/ WORD_03b4: .word 0x000000b4
    /*000003b8*/ WORD_03b8: .word 0x000000b4
    /*000003bc*/ WORD_03bc: .word 0x00000074
    /*000003c0*/ WORD_03c0: .word 0x00000060
FUNC_END HI_SVPRT_RUNTIME_UnloadModelGroup


@ - - - - - - - - - - - - - - - - - - - - - - - - - - - - - 
@ .ARM.extab.text.HI_SVPRT_RUNTIME_UnloadModelGroup
@ Size: 0x35
@ - - - - - - - - - - - - - - - - - - - - - - - - - - - - - 

@ - - - - - - - - - - - - - - - - - - - - - - - - - - - - - 
@ .text.HI_SVPRT_RUNTIME_DeInit
@ Size: 0x268
@ - - - - - - - - - - - - - - - - - - - - - - - - - - - - - 

FUNC_BEGIN HI_SVPRT_RUNTIME_DeInit
    /*00000000*/ MOV         IP, #16384                  @ 0x4000 
    /*00000004*/ PUSH        {R4, R5, R6, R7, R8, LR} 
    /*00000008*/ SUB         IP, SP, IP 
    /*0000000c*/ STR         R0, [IP, #4072]             @ 0xfe8 
    /*00000010*/ LDR         R3, WORD_0214               @ LDR         R3, [PC, #508]              @ 0x0000000000000214 
    /*00000014*/ LDR         R2, WORD_0218               @ LDR         R2, [PC, #508]              @ 0x0000000000000218 
    /*00000018*/ ADD         R3, PC, R3 
    /*0000001c*/ LDR         R6, [R3, R2] 
    /*00000020*/ CMP         R6, #0 
    /*00000024*/ BEQ         HI_SVPRT_RUNTIME_DeInit_x3c
    /*00000028*/ LDR         R0, WORD_021c               @ LDR         R0, [PC, #492]              @ 0x000000000000021c 
    /*0000002c*/ ADD         R0, PC, R0 
    /*00000030*/ BL          pthread_mutex_lock
    /*00000034*/ CMP         R0, #0 
    /*00000038*/ BNE         HI_SVPRT_RUNTIME_DeInit_x1f4
    HI_SVPRT_RUNTIME_DeInit_x3c:
    /*0000003c*/ LDR         R3, WORD_0220               @ LDR         R3, [PC, #476]              @ 0x0000000000000220 
    /*00000040*/ ADD         R3, PC, R3 
    /*00000044*/ LDR         R3, [R3] 
    /*00000048*/ CMP         R3, #0 
    /*0000004c*/ BEQ         HI_SVPRT_RUNTIME_DeInit_x1c4
    /*00000050*/ LDR         R3, WORD_0224               @ LDR         R3, [PC, #460]              @ 0x0000000000000224 
    /*00000054*/ ADD         R3, PC, R3 
    /*00000058*/ LDM         R3, {R5, R8} 
    /*0000005c*/ CMP         R5, R8 
    /*00000060*/ BEQ         HI_SVPRT_RUNTIME_DeInit_x98
    HI_SVPRT_RUNTIME_DeInit_x64:
    /*00000064*/ LDR         R4, [R5], #4 
    /*00000068*/ LDR         R3, [R4] 
    /*0000006c*/ MOV         R0, R4 
    /*00000070*/ LDR         R3, [R3, #12] 
    /*00000074*/ BLX         R3 
    /*00000078*/ LDR         R3, [R4] 
    /*0000007c*/ MOV         R0, R4 
    /*00000080*/ LDR         R3, [R3, #4] 
    /*00000084*/ BLX         R3 
    /*00000088*/ CMP         R8, R5 
    /*0000008c*/ BNE         HI_SVPRT_RUNTIME_DeInit_x64
    /*00000090*/ LDR         R3, WORD_0228               @ LDR         R3, [PC, #400]              @ 0x0000000000000228 
    /*00000094*/ LDR         R8, [PC, R3] 
    HI_SVPRT_RUNTIME_DeInit_x98:
    /*00000098*/ LDR         R3, WORD_022c               @ LDR         R3, [PC, #396]              @ 0x000000000000022c 
    /*0000009c*/ LDR         R2, WORD_0230               @ LDR         R2, [PC, #396]              @ 0x0000000000000230 
    /*000000a0*/ ADD         R3, PC, R3 
    /*000000a4*/ ADD         R2, PC, R2 
    /*000000a8*/ LDM         R3, {R5, R7} 
    /*000000ac*/ STR         R8, [R2, #4] 
    /*000000b0*/ CMP         R7, R5 
    /*000000b4*/ BEQ         HI_SVPRT_RUNTIME_DeInit_xec
    HI_SVPRT_RUNTIME_DeInit_xb8:
    /*000000b8*/ LDR         R4, [R5], #4 
    /*000000bc*/ LDR         R3, [R4] 
    /*000000c0*/ MOV         R0, R4 
    /*000000c4*/ LDR         R3, [R3, #12] 
    /*000000c8*/ BLX         R3 
    /*000000cc*/ LDR         R3, [R4] 
    /*000000d0*/ MOV         R0, R4 
    /*000000d4*/ LDR         R3, [R3, #4] 
    /*000000d8*/ BLX         R3 
    /*000000dc*/ CMP         R7, R5 
    /*000000e0*/ BNE         HI_SVPRT_RUNTIME_DeInit_xb8
    /*000000e4*/ LDR         R3, WORD_0234               @ LDR         R3, [PC, #328]              @ 0x0000000000000234 
    /*000000e8*/ LDR         R5, [PC, R3] 
    HI_SVPRT_RUNTIME_DeInit_xec:
    /*000000ec*/ LDR         R2, WORD_0238               @ LDR         R2, [PC, #324]              @ 0x0000000000000238 
    /*000000f0*/ LDR         R3, WORD_023c               @ LDR         R3, [PC, #324]              @ 0x000000000000023c 
    /*000000f4*/ ADD         R2, PC, R2 
    /*000000f8*/ ADD         R3, PC, R3 
    /*000000fc*/ LDR         R0, [R2] 
    /*00000100*/ STR         R5, [R3, #4] 
    /*00000104*/ BL          _ZN4hirt11TaskMonitor21stopTaskMonitorThreadEv
    /*00000108*/ LDR         R3, WORD_0240               @ LDR         R3, [PC, #304]              @ 0x0000000000000240 
    /*0000010c*/ LDR         R4, [PC, R3] 
    /*00000110*/ CMP         R4, #0 
    /*00000114*/ BEQ         HI_SVPRT_RUNTIME_DeInit_x17c
    /*00000118*/ LDR         R2, [R4] 
    /*0000011c*/ LDR         R3, WORD_0244               @ LDR         R3, [PC, #288]              @ 0x0000000000000244 
    /*00000120*/ LDR         R2, [R2, #4] 
    /*00000124*/ ADD         R3, PC, R3 
    /*00000128*/ CMP         R2, R3 
    /*0000012c*/ BNE         HI_SVPRT_RUNTIME_DeInit_x1e8
    /*00000130*/ LDR         R0, [R4, #4] 
    /*00000134*/ LDR         R3, WORD_0248               @ LDR         R3, [PC, #268]              @ 0x0000000000000248 
    /*00000138*/ CMP         R0, #0 
    /*0000013c*/ ADD         R3, PC, R3 
    /*00000140*/ ADD         R3, R3, #8 
    /*00000144*/ STR         R3, [R4] 
    /*00000148*/ BEQ         HI_SVPRT_RUNTIME_DeInit_x160
    /*0000014c*/ LDR         R3, [R0] 
    /*00000150*/ CMP         R3, #0 
    /*00000154*/ BNE         HI_SVPRT_RUNTIME_DeInit_x1f8
    /*00000158*/ MOV         R1, #4 
    /*0000015c*/ BL          _ZdlPvj
    HI_SVPRT_RUNTIME_DeInit_x160:
    /*00000160*/ MOV         R0, R4 
    /*00000164*/ MOV         R1, #136                    @ 0x88 
    /*00000168*/ BL          _ZdlPvj
    HI_SVPRT_RUNTIME_DeInit_x16c:
    /*0000016c*/ LDR         R3, WORD_024c               @ LDR         R3, [PC, #216]              @ 0x000000000000024c 
    /*00000170*/ MOV         R2, #0 
    /*00000174*/ ADD         R3, PC, R3 
    /*00000178*/ STR         R2, [R3] 
    HI_SVPRT_RUNTIME_DeInit_x17c:
    /*0000017c*/ LDR         R3, WORD_0250               @ LDR         R3, [PC, #204]              @ 0x0000000000000250 
    /*00000180*/ LDR         R0, [PC, R3] 
    /*00000184*/ BL          _ZN4hirt13GlobalSetting20destroyGlobalSettingEPS0_
    /*00000188*/ BL          _ZN4hirt11ProcManager11getInstanceEv
    /*0000018c*/ BL          _ZN4hirt11ProcManager10deinitProcEv
    /*00000190*/ BL          _ZN4hirt11ProcManager11getInstanceEv
    /*00000194*/ BL          _ZN4hirt11ProcManager19removeTaskProcEntryEv
    /*00000198*/ LDR         R3, WORD_0254               @ LDR         R3, [PC, #180]              @ 0x0000000000000254 
    /*0000019c*/ MOV         R4, #0 
    /*000001a0*/ ADD         R3, PC, R3 
    /*000001a4*/ STR         R4, [R3] 
    HI_SVPRT_RUNTIME_DeInit_x1a8:
    /*000001a8*/ CMP         R6, #0 
    /*000001ac*/ BEQ         HI_SVPRT_RUNTIME_DeInit_x1bc
    /*000001b0*/ LDR         R0, WORD_0258               @ LDR         R0, [PC, #160]              @ 0x0000000000000258 
    /*000001b4*/ ADD         R0, PC, R0 
    /*000001b8*/ BL          pthread_mutex_unlock
    HI_SVPRT_RUNTIME_DeInit_x1bc:
    /*000001bc*/ MOV         R0, R4 
    /*000001c0*/ POP         {R4, R5, R6, R7, R8, PC} 
    HI_SVPRT_RUNTIME_DeInit_x1c4:
    /*000001c4*/ LDR         R2, WORD_025c               @ LDR         R2, [PC, #144]              @ 0x000000000000025c 
    /*000001c8*/ MOV         R1, #4 
    /*000001cc*/ LDR         R0, WORD_0260               @ LDR         R0, [PC, #140]              @ 0x0000000000000260 
    /*000001d0*/ ADD         R2, PC, R2 
    /*000001d4*/ ADD         R0, PC, R0 
    /*000001d8*/ BL          _Z15HIRT_LOG_PrintfPKc19tagHIRT_LOG_LEVEL_ES0_z
    /*000001dc*/ MOVW        R4, #3841                   @ 0xf01 
    /*000001e0*/ MOVT        R4, #65280                  @ 0xff00 
    /*000001e4*/ B           HI_SVPRT_RUNTIME_DeInit_x1a8
    HI_SVPRT_RUNTIME_DeInit_x1e8:
    /*000001e8*/ MOV         R0, R4 
    /*000001ec*/ BLX         R2 
    /*000001f0*/ B           HI_SVPRT_RUNTIME_DeInit_x16c
    HI_SVPRT_RUNTIME_DeInit_x1f4:
    /*000001f4*/ BL          _ZSt20__throw_system_errori
    HI_SVPRT_RUNTIME_DeInit_x1f8:
    /*000001f8*/ BL          _ZSt9terminatev
    /*000001fc*/ CMP         R6, #0 
    /*00000200*/ BEQ         HI_SVPRT_RUNTIME_DeInit_x210
    /*00000204*/ LDR         R0, WORD_0264               @ LDR         R0, [PC, #88]               @ 0x0000000000000264 
    /*00000208*/ ADD         R0, PC, R0 
    /*0000020c*/ BL          pthread_mutex_unlock
    HI_SVPRT_RUNTIME_DeInit_x210:
    /*00000210*/ BL          __cxa_end_cleanup
    /*00000214*/ WORD_0214: .word 0x000001f4
    /*00000218*/ WORD_0218: .word 0x00000000
    /*0000021c*/ WORD_021c: .word 0x000001e8
    /*00000220*/ WORD_0220: .word 0x000001d8
    /*00000224*/ WORD_0224: .word 0x000001c8
    /*00000228*/ WORD_0228: .word 0x0000018c
    /*0000022c*/ WORD_022c: .word 0x00000184
    /*00000230*/ WORD_0230: .word 0x00000184
    /*00000234*/ WORD_0234: .word 0x00000144
    /*00000238*/ WORD_0238: .word 0x0000013c
    /*0000023c*/ WORD_023c: .word 0x0000013c
    /*00000240*/ WORD_0240: .word 0x0000012c
    /*00000244*/ WORD_0244: .word 0x00000118
    /*00000248*/ WORD_0248: .word 0x00000104
    /*0000024c*/ WORD_024c: .word 0x000000d0
    /*00000250*/ WORD_0250: .word 0x000000c8
    /*00000254*/ WORD_0254: .word 0x000000ac
    /*00000258*/ WORD_0258: .word 0x0000009c
    /*0000025c*/ WORD_025c: .word 0x00000084
    /*00000260*/ WORD_0260: .word 0x00000084
    /*00000264*/ WORD_0264: .word 0x00000054
FUNC_END HI_SVPRT_RUNTIME_DeInit


@ - - - - - - - - - - - - - - - - - - - - - - - - - - - - - 
@ .ARM.extab.text.HI_SVPRT_RUNTIME_DeInit
@ Size: 0x17
@ - - - - - - - - - - - - - - - - - - - - - - - - - - - - - 

@ - - - - - - - - - - - - - - - - - - - - - - - - - - - - - 
@ .text._ZNSt11unique_lockISt5mutexE6unlockEv
@ Size: 0x64
@ - - - - - - - - - - - - - - - - - - - - - - - - - - - - - 

FUNC_BEGIN _ZNSt11unique_lockISt5mutexE6unlockEv
    /*00000000*/ MOV         IP, #16384                  @ 0x4000 
    /*00000004*/ PUSH        {R4, LR} 
    /*00000008*/ SUB         IP, SP, IP 
    /*0000000c*/ STR         R0, [IP, #4088]             @ 0xff8 
    /*00000010*/ LDRB        R2, [R0, #4] 
    /*00000014*/ LDR         R3, WORD_005c               @ LDR         R3, [PC, #64]               @ 0x000000000000005c 
    /*00000018*/ CMP         R2, #0 
    /*0000001c*/ ADD         R3, PC, R3 
    /*00000020*/ BEQ         _ZNSt11unique_lockISt5mutexE6unlockEv_x54
    /*00000024*/ MOV         R4, R0 
    /*00000028*/ LDR         R0, [R0] 
    /*0000002c*/ CMP         R0, #0 
    /*00000030*/ POPEQ       {R4, PC} 
    /*00000034*/ LDR         R2, WORD_0060               @ LDR         R2, [PC, #36]               @ 0x0000000000000060 
    /*00000038*/ LDR         R3, [R3, R2] 
    /*0000003c*/ CMP         R3, #0 
    /*00000040*/ BEQ         _ZNSt11unique_lockISt5mutexE6unlockEv_x48
    /*00000044*/ BL          pthread_mutex_unlock
    _ZNSt11unique_lockISt5mutexE6unlockEv_x48:
    /*00000048*/ MOV         R3, #0 
    /*0000004c*/ STRB        R3, [R4, #4] 
    /*00000050*/ POP         {R4, PC} 
    _ZNSt11unique_lockISt5mutexE6unlockEv_x54:
    /*00000054*/ MOV         R0, #1 
    /*00000058*/ BL          _ZSt20__throw_system_errori
    /*0000005c*/ WORD_005c: .word 0x00000038
    /*00000060*/ WORD_0060: .word 0x00000000
FUNC_END _ZNSt11unique_lockISt5mutexE6unlockEv


@ - - - - - - - - - - - - - - - - - - - - - - - - - - - - - 
@ .text._ZN23SvpModelForwardListener6notifyEN4hirt29_MODEL_GROUP_FORWARD_RESULT_EEPvPNS0_14ModelGroupTaskEyP28hiRUNTIME_GROUP_BLOB_ARRAY_S
@ Size: 0x2b4
@ - - - - - - - - - - - - - - - - - - - - - - - - - - - - - 

FUNC_BEGIN _ZN23SvpModelForwardListener6notifyEN4hirt29_MODEL_GROUP_FORWARD_RESULT_EEPvPNS0_14ModelGroupTaskEyP28hiRUNTIME_GROUP_BLOB_ARRAY_S
    /*00000000*/ MOV         IP, #16384                  @ 0x4000 
    /*00000004*/ PUSH        {R4, R5, R6, R7, R8, LR} 
    /*00000008*/ SUB         IP, SP, IP 
    /*0000000c*/ STR         R0, [IP, #4056]             @ 0xfd8 
    /*00000010*/ LDR         R6, WORD_0268               @ LDR         R6, [PC, #592]              @ 0x0000000000000268 
    /*00000014*/ SUBS        R7, R3, #0 
    /*00000018*/ SUB         SP, SP, #16 
    /*0000001c*/ ADD         R6, PC, R6 
    /*00000020*/ BEQ         _ZN23SvpModelForwardListener6notifyEN4hirt29_MODEL_GROUP_FORWARD_RESULT_EEPvPNS0_14ModelGroupTaskEyP28hiRUNTIME_GROUP_BLOB_ARRAY_S_x210
    /*00000024*/ CMP         R2, #0 
    /*00000028*/ MOV         R4, R2 
    /*0000002c*/ BEQ         _ZN23SvpModelForwardListener6notifyEN4hirt29_MODEL_GROUP_FORWARD_RESULT_EEPvPNS0_14ModelGroupTaskEyP28hiRUNTIME_GROUP_BLOB_ARRAY_S_x22c
    /*00000030*/ LDR         R5, [R2, #68]               @ 0x44 
    /*00000034*/ CMP         R5, #0 
    /*00000038*/ BEQ         _ZN23SvpModelForwardListener6notifyEN4hirt29_MODEL_GROUP_FORWARD_RESULT_EEPvPNS0_14ModelGroupTaskEyP28hiRUNTIME_GROUP_BLOB_ARRAY_S_x1f4
    /*0000003c*/ MOV         R8, R0 
    /*00000040*/ BL          _ZN4hirt22AuxiliaryMemoryManager11getInstanceEv
    /*00000044*/ LDR         R1, [R4, #68]               @ 0x44 
    /*00000048*/ BL          _ZN4hirt22AuxiliaryMemoryManager22getMemoryPoolbyHandlerEPv
    /*0000004c*/ CMP         R0, #0 
    /*00000050*/ BEQ         _ZN23SvpModelForwardListener6notifyEN4hirt29_MODEL_GROUP_FORWARD_RESULT_EEPvPNS0_14ModelGroupTaskEyP28hiRUNTIME_GROUP_BLOB_ARRAY_S_x68
    /*00000054*/ MOV         R2, #0 
    /*00000058*/ MOV         R1, R7 
    /*0000005c*/ BL          _ZN4hirt10MemoryPool13releaseMemoryEPv7HI_BOOL
    /*00000060*/ SUBS        R3, R0, #0 
    /*00000064*/ BNE         _ZN23SvpModelForwardListener6notifyEN4hirt29_MODEL_GROUP_FORWARD_RESULT_EEPvPNS0_14ModelGroupTaskEyP28hiRUNTIME_GROUP_BLOB_ARRAY_S_x1d8
    _ZN23SvpModelForwardListener6notifyEN4hirt29_MODEL_GROUP_FORWARD_RESULT_EEPvPNS0_14ModelGroupTaskEyP28hiRUNTIME_GROUP_BLOB_ARRAY_S_x68:
    /*00000068*/ LDR         R3, [R7, #4] 
    /*0000006c*/ MOV         R1, R4 
    /*00000070*/ CMN         R3, #1 
    /*00000074*/ LDR         R3, [SP, #48]               @ 0x30 
    /*00000078*/ MOVEQ       R0, #1 
    /*0000007c*/ MOVNE       R0, #0 
    /*00000080*/ STR         R3, [SP] 
    /*00000084*/ LDRD        R2, [SP, #40]               @ 0x28 
    /*00000088*/ LDR         R4, [R8, #4] 
    /*0000008c*/ BLX         R4 
    /*00000090*/ CMP         R0, #0 
    /*00000094*/ BNE         _ZN23SvpModelForwardListener6notifyEN4hirt29_MODEL_GROUP_FORWARD_RESULT_EEPvPNS0_14ModelGroupTaskEyP28hiRUNTIME_GROUP_BLOB_ARRAY_S_x1b8
    _ZN23SvpModelForwardListener6notifyEN4hirt29_MODEL_GROUP_FORWARD_RESULT_EEPvPNS0_14ModelGroupTaskEyP28hiRUNTIME_GROUP_BLOB_ARRAY_S_x98:
    /*00000098*/ LDR         R0, WORD_026c               @ LDR         R0, [PC, #460]              @ 0x000000000000026c 
    /*0000009c*/ MOV         R2, #0 
    /*000000a0*/ LDR         R3, WORD_0270               @ LDR         R3, [PC, #456]              @ 0x0000000000000270 
    /*000000a4*/ ADD         R0, PC, R0 
    /*000000a8*/ STR         R0, [SP, #8] 
    /*000000ac*/ STRB        R2, [SP, #12] 
    /*000000b0*/ LDR         R4, [R6, R3] 
    /*000000b4*/ CMP         R4, R2 
    /*000000b8*/ BEQ         _ZN23SvpModelForwardListener6notifyEN4hirt29_MODEL_GROUP_FORWARD_RESULT_EEPvPNS0_14ModelGroupTaskEyP28hiRUNTIME_GROUP_BLOB_ARRAY_S_x12c
    /*000000bc*/ BL          pthread_mutex_lock
    /*000000c0*/ CMP         R0, #0 
    /*000000c4*/ BNE         _ZN23SvpModelForwardListener6notifyEN4hirt29_MODEL_GROUP_FORWARD_RESULT_EEPvPNS0_14ModelGroupTaskEyP28hiRUNTIME_GROUP_BLOB_ARRAY_S_x264
    /*000000c8*/ LDR         R3, WORD_0274               @ LDR         R3, [PC, #420]              @ 0x0000000000000274 
    /*000000cc*/ MOV         R2, #1 
    /*000000d0*/ LDR         R0, WORD_0278               @ LDR         R0, [PC, #416]              @ 0x0000000000000278 
    /*000000d4*/ ADD         R6, R5, #136                @ 0x88 
    /*000000d8*/ ADD         R3, PC, R3 
    /*000000dc*/ ADD         R0, PC, R0 
    /*000000e0*/ STR         R2, [R3] 
    /*000000e4*/ STRB        R2, [SP, #12] 
    /*000000e8*/ BL          _ZNSt18condition_variable10notify_allEv
    /*000000ec*/ MOV         R0, R6 
    /*000000f0*/ BL          pthread_mutex_lock
    /*000000f4*/ CMP         R0, #0 
    /*000000f8*/ BNE         _ZN23SvpModelForwardListener6notifyEN4hirt29_MODEL_GROUP_FORWARD_RESULT_EEPvPNS0_14ModelGroupTaskEyP28hiRUNTIME_GROUP_BLOB_ARRAY_S_x248
    /*000000fc*/ LDR         R3, [R5, #160]              @ 0xa0 
    /*00000100*/ CMP         R3, #0 
    /*00000104*/ BEQ         _ZN23SvpModelForwardListener6notifyEN4hirt29_MODEL_GROUP_FORWARD_RESULT_EEPvPNS0_14ModelGroupTaskEyP28hiRUNTIME_GROUP_BLOB_ARRAY_S_x164
    /*00000108*/ SUB         R3, R3, #1 
    /*0000010c*/ MOV         R0, R6 
    /*00000110*/ STR         R3, [R5, #160]              @ 0xa0 
    /*00000114*/ BL          pthread_mutex_unlock
    _ZN23SvpModelForwardListener6notifyEN4hirt29_MODEL_GROUP_FORWARD_RESULT_EEPvPNS0_14ModelGroupTaskEyP28hiRUNTIME_GROUP_BLOB_ARRAY_S_x118:
    /*00000118*/ LDRB        R3, [SP, #12] 
    /*0000011c*/ CMP         R3, #0 
    /*00000120*/ BNE         _ZN23SvpModelForwardListener6notifyEN4hirt29_MODEL_GROUP_FORWARD_RESULT_EEPvPNS0_14ModelGroupTaskEyP28hiRUNTIME_GROUP_BLOB_ARRAY_S_x198
    _ZN23SvpModelForwardListener6notifyEN4hirt29_MODEL_GROUP_FORWARD_RESULT_EEPvPNS0_14ModelGroupTaskEyP28hiRUNTIME_GROUP_BLOB_ARRAY_S_x124:
    /*00000124*/ ADD         SP, SP, #16 
    /*00000128*/ POP         {R4, R5, R6, R7, R8, PC} 
    _ZN23SvpModelForwardListener6notifyEN4hirt29_MODEL_GROUP_FORWARD_RESULT_EEPvPNS0_14ModelGroupTaskEyP28hiRUNTIME_GROUP_BLOB_ARRAY_S_x12c:
    /*0000012c*/ LDR         R3, WORD_027c               @ LDR         R3, [PC, #328]              @ 0x000000000000027c 
    /*00000130*/ MOV         R2, #1 
    /*00000134*/ LDR         R0, WORD_0280               @ LDR         R0, [PC, #324]              @ 0x0000000000000280 
    /*00000138*/ ADD         R3, PC, R3 
    /*0000013c*/ ADD         R0, PC, R0 
    /*00000140*/ STR         R2, [R3] 
    /*00000144*/ STRB        R2, [SP, #12] 
    /*00000148*/ BL          _ZNSt18condition_variable10notify_allEv
    /*0000014c*/ LDR         R3, [R5, #160]              @ 0xa0 
    /*00000150*/ CMP         R3, #0 
    /*00000154*/ SUBNE       R3, R3, #1 
    /*00000158*/ STRNE       R3, [R5, #160]              @ 0xa0 
    /*0000015c*/ BNE         _ZN23SvpModelForwardListener6notifyEN4hirt29_MODEL_GROUP_FORWARD_RESULT_EEPvPNS0_14ModelGroupTaskEyP28hiRUNTIME_GROUP_BLOB_ARRAY_S_x118
    /*00000160*/ ADD         R6, R5, #136                @ 0x88 
    _ZN23SvpModelForwardListener6notifyEN4hirt29_MODEL_GROUP_FORWARD_RESULT_EEPvPNS0_14ModelGroupTaskEyP28hiRUNTIME_GROUP_BLOB_ARRAY_S_x164:
    /*00000164*/ LDR         R2, WORD_0284               @ LDR         R2, [PC, #280]              @ 0x0000000000000284 
    /*00000168*/ MOV         R1, #4 
    /*0000016c*/ LDR         R0, WORD_0288               @ LDR         R0, [PC, #276]              @ 0x0000000000000288 
    /*00000170*/ ADD         R2, PC, R2 
    /*00000174*/ ADD         R0, PC, R0 
    /*00000178*/ BL          _Z15HIRT_LOG_PrintfPKc19tagHIRT_LOG_LEVEL_ES0_z
    /*0000017c*/ CMP         R4, #0 
    /*00000180*/ BEQ         _ZN23SvpModelForwardListener6notifyEN4hirt29_MODEL_GROUP_FORWARD_RESULT_EEPvPNS0_14ModelGroupTaskEyP28hiRUNTIME_GROUP_BLOB_ARRAY_S_x118
    /*00000184*/ MOV         R0, R6 
    /*00000188*/ BL          pthread_mutex_unlock
    /*0000018c*/ LDRB        R3, [SP, #12] 
    /*00000190*/ CMP         R3, #0 
    /*00000194*/ BEQ         _ZN23SvpModelForwardListener6notifyEN4hirt29_MODEL_GROUP_FORWARD_RESULT_EEPvPNS0_14ModelGroupTaskEyP28hiRUNTIME_GROUP_BLOB_ARRAY_S_x124
    _ZN23SvpModelForwardListener6notifyEN4hirt29_MODEL_GROUP_FORWARD_RESULT_EEPvPNS0_14ModelGroupTaskEyP28hiRUNTIME_GROUP_BLOB_ARRAY_S_x198:
    /*00000198*/ LDR         R0, [SP, #8] 
    /*0000019c*/ CMP         R0, #0 
    /*000001a0*/ BEQ         _ZN23SvpModelForwardListener6notifyEN4hirt29_MODEL_GROUP_FORWARD_RESULT_EEPvPNS0_14ModelGroupTaskEyP28hiRUNTIME_GROUP_BLOB_ARRAY_S_x124
    /*000001a4*/ CMP         R4, #0 
    /*000001a8*/ BEQ         _ZN23SvpModelForwardListener6notifyEN4hirt29_MODEL_GROUP_FORWARD_RESULT_EEPvPNS0_14ModelGroupTaskEyP28hiRUNTIME_GROUP_BLOB_ARRAY_S_x124
    /*000001ac*/ BL          pthread_mutex_unlock
    /*000001b0*/ ADD         SP, SP, #16 
    /*000001b4*/ POP         {R4, R5, R6, R7, R8, PC} 
    _ZN23SvpModelForwardListener6notifyEN4hirt29_MODEL_GROUP_FORWARD_RESULT_EEPvPNS0_14ModelGroupTaskEyP28hiRUNTIME_GROUP_BLOB_ARRAY_S_x1b8:
    /*000001b8*/ LDR         R2, WORD_028c               @ LDR         R2, [PC, #204]              @ 0x000000000000028c 
    /*000001bc*/ MOV         R3, R0 
    /*000001c0*/ LDR         R0, WORD_0290               @ LDR         R0, [PC, #200]              @ 0x0000000000000290 
    /*000001c4*/ MOV         R1, #4 
    /*000001c8*/ ADD         R2, PC, R2 
    /*000001cc*/ ADD         R0, PC, R0 
    /*000001d0*/ BL          _Z15HIRT_LOG_PrintfPKc19tagHIRT_LOG_LEVEL_ES0_z
    /*000001d4*/ B           _ZN23SvpModelForwardListener6notifyEN4hirt29_MODEL_GROUP_FORWARD_RESULT_EEPvPNS0_14ModelGroupTaskEyP28hiRUNTIME_GROUP_BLOB_ARRAY_S_x98
    _ZN23SvpModelForwardListener6notifyEN4hirt29_MODEL_GROUP_FORWARD_RESULT_EEPvPNS0_14ModelGroupTaskEyP28hiRUNTIME_GROUP_BLOB_ARRAY_S_x1d8:
    /*000001d8*/ LDR         R2, WORD_0294               @ LDR         R2, [PC, #180]              @ 0x0000000000000294 
    /*000001dc*/ MOV         R1, #4 
    /*000001e0*/ LDR         R0, WORD_0298               @ LDR         R0, [PC, #176]              @ 0x0000000000000298 
    /*000001e4*/ ADD         R2, PC, R2 
    /*000001e8*/ ADD         R0, PC, R0 
    /*000001ec*/ BL          _Z15HIRT_LOG_PrintfPKc19tagHIRT_LOG_LEVEL_ES0_z
    /*000001f0*/ B           _ZN23SvpModelForwardListener6notifyEN4hirt29_MODEL_GROUP_FORWARD_RESULT_EEPvPNS0_14ModelGroupTaskEyP28hiRUNTIME_GROUP_BLOB_ARRAY_S_x68
    _ZN23SvpModelForwardListener6notifyEN4hirt29_MODEL_GROUP_FORWARD_RESULT_EEPvPNS0_14ModelGroupTaskEyP28hiRUNTIME_GROUP_BLOB_ARRAY_S_x1f4:
    /*000001f4*/ LDR         R2, WORD_029c               @ LDR         R2, [PC, #160]              @ 0x000000000000029c 
    /*000001f8*/ MOV         R1, #4 
    /*000001fc*/ LDR         R0, WORD_02a0               @ LDR         R0, [PC, #156]              @ 0x00000000000002a0 
    /*00000200*/ ADD         R2, PC, R2 
    /*00000204*/ ADD         R0, PC, R0 
    /*00000208*/ BL          _Z15HIRT_LOG_PrintfPKc19tagHIRT_LOG_LEVEL_ES0_z
    /*0000020c*/ B           _ZN23SvpModelForwardListener6notifyEN4hirt29_MODEL_GROUP_FORWARD_RESULT_EEPvPNS0_14ModelGroupTaskEyP28hiRUNTIME_GROUP_BLOB_ARRAY_S_x124
    _ZN23SvpModelForwardListener6notifyEN4hirt29_MODEL_GROUP_FORWARD_RESULT_EEPvPNS0_14ModelGroupTaskEyP28hiRUNTIME_GROUP_BLOB_ARRAY_S_x210:
    /*00000210*/ LDR         R2, WORD_02a4               @ LDR         R2, [PC, #140]              @ 0x00000000000002a4 
    /*00000214*/ MOV         R1, #4 
    /*00000218*/ LDR         R0, WORD_02a8               @ LDR         R0, [PC, #136]              @ 0x00000000000002a8 
    /*0000021c*/ ADD         R2, PC, R2 
    /*00000220*/ ADD         R0, PC, R0 
    /*00000224*/ BL          _Z15HIRT_LOG_PrintfPKc19tagHIRT_LOG_LEVEL_ES0_z
    /*00000228*/ B           _ZN23SvpModelForwardListener6notifyEN4hirt29_MODEL_GROUP_FORWARD_RESULT_EEPvPNS0_14ModelGroupTaskEyP28hiRUNTIME_GROUP_BLOB_ARRAY_S_x124
    _ZN23SvpModelForwardListener6notifyEN4hirt29_MODEL_GROUP_FORWARD_RESULT_EEPvPNS0_14ModelGroupTaskEyP28hiRUNTIME_GROUP_BLOB_ARRAY_S_x22c:
    /*0000022c*/ LDR         R2, WORD_02ac               @ LDR         R2, [PC, #120]              @ 0x00000000000002ac 
    /*00000230*/ MOV         R1, #4 
    /*00000234*/ LDR         R0, WORD_02b0               @ LDR         R0, [PC, #116]              @ 0x00000000000002b0 
    /*00000238*/ ADD         R2, PC, R2 
    /*0000023c*/ ADD         R0, PC, R0 
    /*00000240*/ BL          _Z15HIRT_LOG_PrintfPKc19tagHIRT_LOG_LEVEL_ES0_z
    /*00000244*/ B           _ZN23SvpModelForwardListener6notifyEN4hirt29_MODEL_GROUP_FORWARD_RESULT_EEPvPNS0_14ModelGroupTaskEyP28hiRUNTIME_GROUP_BLOB_ARRAY_S_x124
    _ZN23SvpModelForwardListener6notifyEN4hirt29_MODEL_GROUP_FORWARD_RESULT_EEPvPNS0_14ModelGroupTaskEyP28hiRUNTIME_GROUP_BLOB_ARRAY_S_x248:
    /*00000248*/ BL          _ZSt20__throw_system_errori
    /*0000024c*/ LDRB        R3, [SP, #12] 
    /*00000250*/ CMP         R3, #0 
    /*00000254*/ BEQ         _ZN23SvpModelForwardListener6notifyEN4hirt29_MODEL_GROUP_FORWARD_RESULT_EEPvPNS0_14ModelGroupTaskEyP28hiRUNTIME_GROUP_BLOB_ARRAY_S_x260
    /*00000258*/ ADD         R0, SP, #8 
    /*0000025c*/ BL          _ZNSt11unique_lockISt5mutexE6unlockEv
    _ZN23SvpModelForwardListener6notifyEN4hirt29_MODEL_GROUP_FORWARD_RESULT_EEPvPNS0_14ModelGroupTaskEyP28hiRUNTIME_GROUP_BLOB_ARRAY_S_x260:
    /*00000260*/ BL          __cxa_end_cleanup
    _ZN23SvpModelForwardListener6notifyEN4hirt29_MODEL_GROUP_FORWARD_RESULT_EEPvPNS0_14ModelGroupTaskEyP28hiRUNTIME_GROUP_BLOB_ARRAY_S_x264:
    /*00000264*/ BL          _ZSt20__throw_system_errori
    /*00000268*/ WORD_0268: .word 0x00000244
    /*0000026c*/ WORD_026c: .word 0x000001c0
    /*00000270*/ WORD_0270: .word 0x00000000
    /*00000274*/ WORD_0274: .word 0x00000194
    /*00000278*/ WORD_0278: .word 0x00000194
    /*0000027c*/ WORD_027c: .word 0x0000013c
    /*00000280*/ WORD_0280: .word 0x0000013c
    /*00000284*/ WORD_0284: .word 0x0000010c
    /*00000288*/ WORD_0288: .word 0x0000010c
    /*0000028c*/ WORD_028c: .word 0x000000bc
    /*00000290*/ WORD_0290: .word 0x000000bc
    /*00000294*/ WORD_0294: .word 0x000000a8
    /*00000298*/ WORD_0298: .word 0x000000a8
    /*0000029c*/ WORD_029c: .word 0x00000094
    /*000002a0*/ WORD_02a0: .word 0x00000094
    /*000002a4*/ WORD_02a4: .word 0x00000080
    /*000002a8*/ WORD_02a8: .word 0x00000080
    /*000002ac*/ WORD_02ac: .word 0x0000006c
    /*000002b0*/ WORD_02b0: .word 0x0000006c
FUNC_END _ZN23SvpModelForwardListener6notifyEN4hirt29_MODEL_GROUP_FORWARD_RESULT_EEPvPNS0_14ModelGroupTaskEyP28hiRUNTIME_GROUP_BLOB_ARRAY_S


@ - - - - - - - - - - - - - - - - - - - - - - - - - - - - - 
@ .ARM.extab.text._ZN23SvpModelForwardListener6notifyEN4hirt29_MODEL_GROUP_FORWARD_RESULT_EEPvPNS0_14ModelGroupTaskEyP28hiRUNTIME_GROUP_BLOB_ARRAY_S
@ Size: 0x26
@ - - - - - - - - - - - - - - - - - - - - - - - - - - - - - 

@ - - - - - - - - - - - - - - - - - - - - - - - - - - - - - 
@ .text._ZNSt8_Rb_treeIN10hirtparser20HiRTSetting_LogLevelESt4pairIKS1_19tagHIRT_LOG_LEVEL_EESt10_Select1stIS5_ESt4lessIS1_ESaIS5_EE8_M_eraseEPSt13_Rb_tree_nodeIS5_E
@ Size: 0x178
@ - - - - - - - - - - - - - - - - - - - - - - - - - - - - - 

FUNC_BEGIN _ZNSt8_Rb_treeIN10hirtparser20HiRTSetting_LogLevelESt4pairIKS1_19tagHIRT_LOG_LEVEL_EESt10_Select1stIS5_ESt4lessIS1_ESaIS5_EE8_M_eraseEPSt13_Rb_tree_nodeIS5_E
    /*00000000*/ MOV         IP, #16384                  @ 0x4000 
    /*00000004*/ PUSH        {R4, R5, R6, R7, R8, R9, SL, FP, LR} 
    /*00000008*/ SUB         IP, SP, IP 
    /*0000000c*/ STR         R0, [IP, #4040]             @ 0xfc8 
    /*00000010*/ SUB         SP, SP, #20 
    /*00000014*/ SUBS        R3, R1, #0 
    /*00000018*/ STR         R3, [SP, #12] 
    /*0000001c*/ BEQ         _ZNSt8_Rb_treeIN10hirtparser20HiRTSetting_LogLevelESt4pairIKS1_19tagHIRT_LOG_LEVEL_EESt10_Select1stIS5_ESt4lessIS1_ESaIS5_EE8_M_eraseEPSt13_Rb_tree_nodeIS5_E_x170
    /*00000020*/ MOV         R4, R0 
    _ZNSt8_Rb_treeIN10hirtparser20HiRTSetting_LogLevelESt4pairIKS1_19tagHIRT_LOG_LEVEL_EESt10_Select1stIS5_ESt4lessIS1_ESaIS5_EE8_M_eraseEPSt13_Rb_tree_nodeIS5_E_x24:
    /*00000024*/ LDR         R7, [R3, #12] 
    /*00000028*/ CMP         R7, #0 
    /*0000002c*/ STRNE       R7, [SP, #4] 
    /*00000030*/ MOVNE       R3, R7 
    /*00000034*/ BEQ         _ZNSt8_Rb_treeIN10hirtparser20HiRTSetting_LogLevelESt4pairIKS1_19tagHIRT_LOG_LEVEL_EESt10_Select1stIS5_ESt4lessIS1_ESaIS5_EE8_M_eraseEPSt13_Rb_tree_nodeIS5_E_x158
    _ZNSt8_Rb_treeIN10hirtparser20HiRTSetting_LogLevelESt4pairIKS1_19tagHIRT_LOG_LEVEL_EESt10_Select1stIS5_ESt4lessIS1_ESaIS5_EE8_M_eraseEPSt13_Rb_tree_nodeIS5_E_x38:
    /*00000038*/ LDR         R8, [R3, #12] 
    /*0000003c*/ CMP         R8, #0 
    /*00000040*/ STRNE       R8, [SP, #8] 
    /*00000044*/ MOVNE       R3, R8 
    /*00000048*/ BEQ         _ZNSt8_Rb_treeIN10hirtparser20HiRTSetting_LogLevelESt4pairIKS1_19tagHIRT_LOG_LEVEL_EESt10_Select1stIS5_ESt4lessIS1_ESaIS5_EE8_M_eraseEPSt13_Rb_tree_nodeIS5_E_x13c
    _ZNSt8_Rb_treeIN10hirtparser20HiRTSetting_LogLevelESt4pairIKS1_19tagHIRT_LOG_LEVEL_EESt10_Select1stIS5_ESt4lessIS1_ESaIS5_EE8_M_eraseEPSt13_Rb_tree_nodeIS5_E_x4c:
    /*0000004c*/ LDR         R9, [R3, #12] 
    /*00000050*/ CMP         R9, #0 
    /*00000054*/ BEQ         _ZNSt8_Rb_treeIN10hirtparser20HiRTSetting_LogLevelESt4pairIKS1_19tagHIRT_LOG_LEVEL_EESt10_Select1stIS5_ESt4lessIS1_ESaIS5_EE8_M_eraseEPSt13_Rb_tree_nodeIS5_E_x120
    _ZNSt8_Rb_treeIN10hirtparser20HiRTSetting_LogLevelESt4pairIKS1_19tagHIRT_LOG_LEVEL_EESt10_Select1stIS5_ESt4lessIS1_ESaIS5_EE8_M_eraseEPSt13_Rb_tree_nodeIS5_E_x58:
    /*00000058*/ LDR         SL, [R9, #12] 
    /*0000005c*/ CMP         SL, #0 
    /*00000060*/ BEQ         _ZNSt8_Rb_treeIN10hirtparser20HiRTSetting_LogLevelESt4pairIKS1_19tagHIRT_LOG_LEVEL_EESt10_Select1stIS5_ESt4lessIS1_ESaIS5_EE8_M_eraseEPSt13_Rb_tree_nodeIS5_E_x108
    _ZNSt8_Rb_treeIN10hirtparser20HiRTSetting_LogLevelESt4pairIKS1_19tagHIRT_LOG_LEVEL_EESt10_Select1stIS5_ESt4lessIS1_ESaIS5_EE8_M_eraseEPSt13_Rb_tree_nodeIS5_E_x64:
    /*00000064*/ LDR         FP, [SL, #12] 
    /*00000068*/ CMP         FP, #0 
    /*0000006c*/ BEQ         _ZNSt8_Rb_treeIN10hirtparser20HiRTSetting_LogLevelESt4pairIKS1_19tagHIRT_LOG_LEVEL_EESt10_Select1stIS5_ESt4lessIS1_ESaIS5_EE8_M_eraseEPSt13_Rb_tree_nodeIS5_E_xf4
    _ZNSt8_Rb_treeIN10hirtparser20HiRTSetting_LogLevelESt4pairIKS1_19tagHIRT_LOG_LEVEL_EESt10_Select1stIS5_ESt4lessIS1_ESaIS5_EE8_M_eraseEPSt13_Rb_tree_nodeIS5_E_x70:
    /*00000070*/ LDR         R6, [FP, #12] 
    /*00000074*/ CMP         R6, #0 
    /*00000078*/ BEQ         _ZNSt8_Rb_treeIN10hirtparser20HiRTSetting_LogLevelESt4pairIKS1_19tagHIRT_LOG_LEVEL_EESt10_Select1stIS5_ESt4lessIS1_ESaIS5_EE8_M_eraseEPSt13_Rb_tree_nodeIS5_E_xe0
    _ZNSt8_Rb_treeIN10hirtparser20HiRTSetting_LogLevelESt4pairIKS1_19tagHIRT_LOG_LEVEL_EESt10_Select1stIS5_ESt4lessIS1_ESaIS5_EE8_M_eraseEPSt13_Rb_tree_nodeIS5_E_x7c:
    /*0000007c*/ LDR         R5, [R6, #12] 
    /*00000080*/ CMP         R5, #0 
    /*00000084*/ BEQ         _ZNSt8_Rb_treeIN10hirtparser20HiRTSetting_LogLevelESt4pairIKS1_19tagHIRT_LOG_LEVEL_EESt10_Select1stIS5_ESt4lessIS1_ESaIS5_EE8_M_eraseEPSt13_Rb_tree_nodeIS5_E_xcc
    _ZNSt8_Rb_treeIN10hirtparser20HiRTSetting_LogLevelESt4pairIKS1_19tagHIRT_LOG_LEVEL_EESt10_Select1stIS5_ESt4lessIS1_ESaIS5_EE8_M_eraseEPSt13_Rb_tree_nodeIS5_E_x88:
    /*00000088*/ LDR         R3, [R5, #12] 
    /*0000008c*/ CMP         R3, #0 
    /*00000090*/ MOVNE       R7, R3 
    /*00000094*/ BEQ         _ZNSt8_Rb_treeIN10hirtparser20HiRTSetting_LogLevelESt4pairIKS1_19tagHIRT_LOG_LEVEL_EESt10_Select1stIS5_ESt4lessIS1_ESaIS5_EE8_M_eraseEPSt13_Rb_tree_nodeIS5_E_xb8
    _ZNSt8_Rb_treeIN10hirtparser20HiRTSetting_LogLevelESt4pairIKS1_19tagHIRT_LOG_LEVEL_EESt10_Select1stIS5_ESt4lessIS1_ESaIS5_EE8_M_eraseEPSt13_Rb_tree_nodeIS5_E_x98:
    /*00000098*/ LDR         R1, [R7, #12] 
    /*0000009c*/ MOV         R0, R4 
    /*000000a0*/ BL          _ZNSt8_Rb_treeIN10hirtparser20HiRTSetting_LogLevelESt4pairIKS1_19tagHIRT_LOG_LEVEL_EESt10_Select1stIS5_ESt4lessIS1_ESaIS5_EE8_M_eraseEPSt13_Rb_tree_nodeIS5_E
    /*000000a4*/ LDR         R8, [R7, #8] 
    /*000000a8*/ MOV         R0, R7 
    /*000000ac*/ BL          _ZdlPv
    /*000000b0*/ SUBS        R7, R8, #0 
    /*000000b4*/ BNE         _ZNSt8_Rb_treeIN10hirtparser20HiRTSetting_LogLevelESt4pairIKS1_19tagHIRT_LOG_LEVEL_EESt10_Select1stIS5_ESt4lessIS1_ESaIS5_EE8_M_eraseEPSt13_Rb_tree_nodeIS5_E_x98
    _ZNSt8_Rb_treeIN10hirtparser20HiRTSetting_LogLevelESt4pairIKS1_19tagHIRT_LOG_LEVEL_EESt10_Select1stIS5_ESt4lessIS1_ESaIS5_EE8_M_eraseEPSt13_Rb_tree_nodeIS5_E_xb8:
    /*000000b8*/ LDR         R7, [R5, #8] 
    /*000000bc*/ MOV         R0, R5 
    /*000000c0*/ BL          _ZdlPv
    /*000000c4*/ SUBS        R5, R7, #0 
    /*000000c8*/ BNE         _ZNSt8_Rb_treeIN10hirtparser20HiRTSetting_LogLevelESt4pairIKS1_19tagHIRT_LOG_LEVEL_EESt10_Select1stIS5_ESt4lessIS1_ESaIS5_EE8_M_eraseEPSt13_Rb_tree_nodeIS5_E_x88
    _ZNSt8_Rb_treeIN10hirtparser20HiRTSetting_LogLevelESt4pairIKS1_19tagHIRT_LOG_LEVEL_EESt10_Select1stIS5_ESt4lessIS1_ESaIS5_EE8_M_eraseEPSt13_Rb_tree_nodeIS5_E_xcc:
    /*000000cc*/ LDR         R5, [R6, #8] 
    /*000000d0*/ MOV         R0, R6 
    /*000000d4*/ BL          _ZdlPv
    /*000000d8*/ SUBS        R6, R5, #0 
    /*000000dc*/ BNE         _ZNSt8_Rb_treeIN10hirtparser20HiRTSetting_LogLevelESt4pairIKS1_19tagHIRT_LOG_LEVEL_EESt10_Select1stIS5_ESt4lessIS1_ESaIS5_EE8_M_eraseEPSt13_Rb_tree_nodeIS5_E_x7c
    _ZNSt8_Rb_treeIN10hirtparser20HiRTSetting_LogLevelESt4pairIKS1_19tagHIRT_LOG_LEVEL_EESt10_Select1stIS5_ESt4lessIS1_ESaIS5_EE8_M_eraseEPSt13_Rb_tree_nodeIS5_E_xe0:
    /*000000e0*/ LDR         R5, [FP, #8] 
    /*000000e4*/ MOV         R0, FP 
    /*000000e8*/ BL          _ZdlPv
    /*000000ec*/ SUBS        FP, R5, #0 
    /*000000f0*/ BNE         _ZNSt8_Rb_treeIN10hirtparser20HiRTSetting_LogLevelESt4pairIKS1_19tagHIRT_LOG_LEVEL_EESt10_Select1stIS5_ESt4lessIS1_ESaIS5_EE8_M_eraseEPSt13_Rb_tree_nodeIS5_E_x70
    _ZNSt8_Rb_treeIN10hirtparser20HiRTSetting_LogLevelESt4pairIKS1_19tagHIRT_LOG_LEVEL_EESt10_Select1stIS5_ESt4lessIS1_ESaIS5_EE8_M_eraseEPSt13_Rb_tree_nodeIS5_E_xf4:
    /*000000f4*/ LDR         R5, [SL, #8] 
    /*000000f8*/ MOV         R0, SL 
    /*000000fc*/ BL          _ZdlPv
    /*00000100*/ SUBS        SL, R5, #0 
    /*00000104*/ BNE         _ZNSt8_Rb_treeIN10hirtparser20HiRTSetting_LogLevelESt4pairIKS1_19tagHIRT_LOG_LEVEL_EESt10_Select1stIS5_ESt4lessIS1_ESaIS5_EE8_M_eraseEPSt13_Rb_tree_nodeIS5_E_x64
    _ZNSt8_Rb_treeIN10hirtparser20HiRTSetting_LogLevelESt4pairIKS1_19tagHIRT_LOG_LEVEL_EESt10_Select1stIS5_ESt4lessIS1_ESaIS5_EE8_M_eraseEPSt13_Rb_tree_nodeIS5_E_x108:
    /*00000108*/ LDR         R5, [R9, #8] 
    /*0000010c*/ MOV         R0, R9 
    /*00000110*/ BL          _ZdlPv
    /*00000114*/ SUBS        R9, R5, #0 
    /*00000118*/ BNE         _ZNSt8_Rb_treeIN10hirtparser20HiRTSetting_LogLevelESt4pairIKS1_19tagHIRT_LOG_LEVEL_EESt10_Select1stIS5_ESt4lessIS1_ESaIS5_EE8_M_eraseEPSt13_Rb_tree_nodeIS5_E_x58
    /*0000011c*/ LDR         R3, [SP, #8] 
    _ZNSt8_Rb_treeIN10hirtparser20HiRTSetting_LogLevelESt4pairIKS1_19tagHIRT_LOG_LEVEL_EESt10_Select1stIS5_ESt4lessIS1_ESaIS5_EE8_M_eraseEPSt13_Rb_tree_nodeIS5_E_x120:
    /*00000120*/ LDR         R5, [R3, #8] 
    /*00000124*/ MOV         R0, R3 
    /*00000128*/ BL          _ZdlPv
    /*0000012c*/ SUBS        R3, R5, #0 
    /*00000130*/ STR         R3, [SP, #8] 
    /*00000134*/ BNE         _ZNSt8_Rb_treeIN10hirtparser20HiRTSetting_LogLevelESt4pairIKS1_19tagHIRT_LOG_LEVEL_EESt10_Select1stIS5_ESt4lessIS1_ESaIS5_EE8_M_eraseEPSt13_Rb_tree_nodeIS5_E_x4c
    /*00000138*/ LDR         R3, [SP, #4] 
    _ZNSt8_Rb_treeIN10hirtparser20HiRTSetting_LogLevelESt4pairIKS1_19tagHIRT_LOG_LEVEL_EESt10_Select1stIS5_ESt4lessIS1_ESaIS5_EE8_M_eraseEPSt13_Rb_tree_nodeIS5_E_x13c:
    /*0000013c*/ LDR         R5, [R3, #8] 
    /*00000140*/ MOV         R0, R3 
    /*00000144*/ BL          _ZdlPv
    /*00000148*/ SUBS        R3, R5, #0 
    /*0000014c*/ STR         R3, [SP, #4] 
    /*00000150*/ BNE         _ZNSt8_Rb_treeIN10hirtparser20HiRTSetting_LogLevelESt4pairIKS1_19tagHIRT_LOG_LEVEL_EESt10_Select1stIS5_ESt4lessIS1_ESaIS5_EE8_M_eraseEPSt13_Rb_tree_nodeIS5_E_x38
    /*00000154*/ LDR         R3, [SP, #12] 
    _ZNSt8_Rb_treeIN10hirtparser20HiRTSetting_LogLevelESt4pairIKS1_19tagHIRT_LOG_LEVEL_EESt10_Select1stIS5_ESt4lessIS1_ESaIS5_EE8_M_eraseEPSt13_Rb_tree_nodeIS5_E_x158:
    /*00000158*/ LDR         R5, [R3, #8] 
    /*0000015c*/ MOV         R0, R3 
    /*00000160*/ BL          _ZdlPv
    /*00000164*/ SUBS        R3, R5, #0 
    /*00000168*/ STR         R3, [SP, #12] 
    /*0000016c*/ BNE         _ZNSt8_Rb_treeIN10hirtparser20HiRTSetting_LogLevelESt4pairIKS1_19tagHIRT_LOG_LEVEL_EESt10_Select1stIS5_ESt4lessIS1_ESaIS5_EE8_M_eraseEPSt13_Rb_tree_nodeIS5_E_x24
    _ZNSt8_Rb_treeIN10hirtparser20HiRTSetting_LogLevelESt4pairIKS1_19tagHIRT_LOG_LEVEL_EESt10_Select1stIS5_ESt4lessIS1_ESaIS5_EE8_M_eraseEPSt13_Rb_tree_nodeIS5_E_x170:
    /*00000170*/ ADD         SP, SP, #20 
    /*00000174*/ POP         {R4, R5, R6, R7, R8, R9, SL, FP, PC} 
FUNC_END _ZNSt8_Rb_treeIN10hirtparser20HiRTSetting_LogLevelESt4pairIKS1_19tagHIRT_LOG_LEVEL_EESt10_Select1stIS5_ESt4lessIS1_ESaIS5_EE8_M_eraseEPSt13_Rb_tree_nodeIS5_E


@ - - - - - - - - - - - - - - - - - - - - - - - - - - - - - 
@ .text._ZNSt3mapIN10hirtparser20HiRTSetting_LogLevelE19tagHIRT_LOG_LEVEL_ESt4lessIS1_ESaISt4pairIKS1_S2_EEED2Ev
@ Size: 0x48
@ - - - - - - - - - - - - - - - - - - - - - - - - - - - - - 

FUNC_BEGIN _ZNSt3mapIN10hirtparser20HiRTSetting_LogLevelE19tagHIRT_LOG_LEVEL_ESt4lessIS1_ESaISt4pairIKS1_S2_EEED2Ev
    /*00000000*/ MOV         IP, #16384                  @ 0x4000 
    /*00000004*/ PUSH        {R4, R5, R6, LR} 
    /*00000008*/ SUB         IP, SP, IP 
    /*0000000c*/ STR         R0, [IP, #4080]             @ 0xff0 
    /*00000010*/ LDR         R4, [R0, #8] 
    /*00000014*/ MOV         R6, R0 
    /*00000018*/ CMP         R4, #0 
    /*0000001c*/ BEQ         _ZNSt3mapIN10hirtparser20HiRTSetting_LogLevelE19tagHIRT_LOG_LEVEL_ESt4lessIS1_ESaISt4pairIKS1_S2_EEED2Ev_x40
    _ZNSt3mapIN10hirtparser20HiRTSetting_LogLevelE19tagHIRT_LOG_LEVEL_ESt4lessIS1_ESaISt4pairIKS1_S2_EEED2Ev_x20:
    /*00000020*/ LDR         R1, [R4, #12] 
    /*00000024*/ MOV         R0, R6 
    /*00000028*/ BL          _ZNSt8_Rb_treeIN10hirtparser20HiRTSetting_LogLevelESt4pairIKS1_19tagHIRT_LOG_LEVEL_EESt10_Select1stIS5_ESt4lessIS1_ESaIS5_EE8_M_eraseEPSt13_Rb_tree_nodeIS5_E
    /*0000002c*/ LDR         R5, [R4, #8] 
    /*00000030*/ MOV         R0, R4 
    /*00000034*/ BL          _ZdlPv
    /*00000038*/ SUBS        R4, R5, #0 
    /*0000003c*/ BNE         _ZNSt3mapIN10hirtparser20HiRTSetting_LogLevelE19tagHIRT_LOG_LEVEL_ESt4lessIS1_ESaISt4pairIKS1_S2_EEED2Ev_x20
    _ZNSt3mapIN10hirtparser20HiRTSetting_LogLevelE19tagHIRT_LOG_LEVEL_ESt4lessIS1_ESaISt4pairIKS1_S2_EEED2Ev_x40:
    /*00000040*/ MOV         R0, R6 
    /*00000044*/ POP         {R4, R5, R6, PC} 
FUNC_END _ZNSt3mapIN10hirtparser20HiRTSetting_LogLevelE19tagHIRT_LOG_LEVEL_ESt4lessIS1_ESaISt4pairIKS1_S2_EEED2Ev


FUNC_BEGIN _ZNSt3mapIN10hirtparser20HiRTSetting_LogLevelE19tagHIRT_LOG_LEVEL_ESt4lessIS1_ESaISt4pairIKS1_S2_EEED1Ev
    /*00000000*/ MOV         IP, #16384                  @ 0x4000 
    /*00000004*/ PUSH        {R4, R5, R6, LR} 
    /*00000008*/ SUB         IP, SP, IP 
    /*0000000c*/ STR         R0, [IP, #4080]             @ 0xff0 
    /*00000010*/ LDR         R4, [R0, #8] 
    /*00000014*/ MOV         R6, R0 
    /*00000018*/ CMP         R4, #0 
    /*0000001c*/ BEQ         _ZNSt3mapIN10hirtparser20HiRTSetting_LogLevelE19tagHIRT_LOG_LEVEL_ESt4lessIS1_ESaISt4pairIKS1_S2_EEED1Ev_x40
    _ZNSt3mapIN10hirtparser20HiRTSetting_LogLevelE19tagHIRT_LOG_LEVEL_ESt4lessIS1_ESaISt4pairIKS1_S2_EEED1Ev_x20:
    /*00000020*/ LDR         R1, [R4, #12] 
    /*00000024*/ MOV         R0, R6 
    /*00000028*/ BL          _ZNSt8_Rb_treeIN10hirtparser20HiRTSetting_LogLevelESt4pairIKS1_19tagHIRT_LOG_LEVEL_EESt10_Select1stIS5_ESt4lessIS1_ESaIS5_EE8_M_eraseEPSt13_Rb_tree_nodeIS5_E
    /*0000002c*/ LDR         R5, [R4, #8] 
    /*00000030*/ MOV         R0, R4 
    /*00000034*/ BL          _ZdlPv
    /*00000038*/ SUBS        R4, R5, #0 
    /*0000003c*/ BNE         _ZNSt3mapIN10hirtparser20HiRTSetting_LogLevelE19tagHIRT_LOG_LEVEL_ESt4lessIS1_ESaISt4pairIKS1_S2_EEED1Ev_x20
    _ZNSt3mapIN10hirtparser20HiRTSetting_LogLevelE19tagHIRT_LOG_LEVEL_ESt4lessIS1_ESaISt4pairIKS1_S2_EEED1Ev_x40:
    /*00000040*/ MOV         R0, R6 
    /*00000044*/ POP         {R4, R5, R6, PC} 
FUNC_END _ZNSt3mapIN10hirtparser20HiRTSetting_LogLevelE19tagHIRT_LOG_LEVEL_ESt4lessIS1_ESaISt4pairIKS1_S2_EEED1Ev


@ - - - - - - - - - - - - - - - - - - - - - - - - - - - - - 
@ .text._ZNSt6vectorIPN4hirt10NNIEThreadESaIS2_EE19_M_emplace_back_auxIJRKS2_EEEvDpOT_
@ Size: 0xd4
@ - - - - - - - - - - - - - - - - - - - - - - - - - - - - - 

FUNC_BEGIN _ZNSt6vectorIPN4hirt10NNIEThreadESaIS2_EE19_M_emplace_back_auxIJRKS2_EEEvDpOT_
    /*00000000*/ MOV         IP, #16384                  @ 0x4000 
    /*00000004*/ PUSH        {R4, R5, R6, R7, R8, R9, SL, LR} 
    /*00000008*/ SUB         IP, SP, IP 
    /*0000000c*/ STR         R0, [IP, #4064]             @ 0xfe0 
    /*00000010*/ LDM         R0, {R2, R3} 
    /*00000014*/ MOV         R6, R0 
    /*00000018*/ MOV         R9, R1 
    /*0000001c*/ SUB         R3, R3, R2 
    /*00000020*/ ASRS        R3, R3, #2 
    /*00000024*/ BEQ         _ZNSt6vectorIPN4hirt10NNIEThreadESaIS2_EE19_M_emplace_back_auxIJRKS2_EEEvDpOT__x3c
    /*00000028*/ LSL         R5, R3, #1 
    /*0000002c*/ CMP         R3, R5 
    /*00000030*/ BLS         _ZNSt6vectorIPN4hirt10NNIEThreadESaIS2_EE19_M_emplace_back_auxIJRKS2_EEEvDpOT__xb8
    _ZNSt6vectorIPN4hirt10NNIEThreadESaIS2_EE19_M_emplace_back_auxIJRKS2_EEEvDpOT__x34:
    /*00000034*/ MVN         R5, #3 
    /*00000038*/ B           _ZNSt6vectorIPN4hirt10NNIEThreadESaIS2_EE19_M_emplace_back_auxIJRKS2_EEEvDpOT__x40
    _ZNSt6vectorIPN4hirt10NNIEThreadESaIS2_EE19_M_emplace_back_auxIJRKS2_EEEvDpOT__x3c:
    /*0000003c*/ MOV         R5, #4 
    _ZNSt6vectorIPN4hirt10NNIEThreadESaIS2_EE19_M_emplace_back_auxIJRKS2_EEEvDpOT__x40:
    /*00000040*/ MOV         R0, R5 
    /*00000044*/ BL          _Znwj
    /*00000048*/ MOV         R7, R0 
    _ZNSt6vectorIPN4hirt10NNIEThreadESaIS2_EE19_M_emplace_back_auxIJRKS2_EEEvDpOT__x4c:
    /*0000004c*/ LDR         R8, [R6] 
    /*00000050*/ LDR         R4, [R6, #4] 
    /*00000054*/ LDR         R2, [R9] 
    /*00000058*/ SUB         R4, R4, R8 
    /*0000005c*/ CMN         R7, R4 
    /*00000060*/ ASR         R3, R4, #2 
    /*00000064*/ STRNE       R2, [R7, R4] 
    /*00000068*/ CMP         R3, #0 
    /*0000006c*/ BNE         _ZNSt6vectorIPN4hirt10NNIEThreadESaIS2_EE19_M_emplace_back_auxIJRKS2_EEEvDpOT__x9c
    /*00000070*/ CMP         R8, #0 
    /*00000074*/ ADD         R4, R4, #4 
    /*00000078*/ ADD         R4, R7, R4 
    /*0000007c*/ BEQ         _ZNSt6vectorIPN4hirt10NNIEThreadESaIS2_EE19_M_emplace_back_auxIJRKS2_EEEvDpOT__x88
    _ZNSt6vectorIPN4hirt10NNIEThreadESaIS2_EE19_M_emplace_back_auxIJRKS2_EEEvDpOT__x80:
    /*00000080*/ MOV         R0, R8 
    /*00000084*/ BL          _ZdlPv
    _ZNSt6vectorIPN4hirt10NNIEThreadESaIS2_EE19_M_emplace_back_auxIJRKS2_EEEvDpOT__x88:
    /*00000088*/ ADD         R5, R7, R5 
    /*0000008c*/ STR         R5, [R6, #8] 
    /*00000090*/ STR         R7, [R6] 
    /*00000094*/ STR         R4, [R6, #4] 
    /*00000098*/ POP         {R4, R5, R6, R7, R8, R9, SL, PC} 
    _ZNSt6vectorIPN4hirt10NNIEThreadESaIS2_EE19_M_emplace_back_auxIJRKS2_EEEvDpOT__x9c:
    /*0000009c*/ MOV         R2, R4 
    /*000000a0*/ MOV         R1, R8 
    /*000000a4*/ MOV         R0, R7 
    /*000000a8*/ ADD         R4, R4, #4 
    /*000000ac*/ ADD         R4, R7, R4 
    /*000000b0*/ BL          memmove
    /*000000b4*/ B           _ZNSt6vectorIPN4hirt10NNIEThreadESaIS2_EE19_M_emplace_back_auxIJRKS2_EEEvDpOT__x80
    _ZNSt6vectorIPN4hirt10NNIEThreadESaIS2_EE19_M_emplace_back_auxIJRKS2_EEEvDpOT__xb8:
    /*000000b8*/ CMN         R5, #-1073741823            @ 0xc0000001 
    /*000000bc*/ BHI         _ZNSt6vectorIPN4hirt10NNIEThreadESaIS2_EE19_M_emplace_back_auxIJRKS2_EEEvDpOT__x34
    /*000000c0*/ CMP         R5, #0 
    /*000000c4*/ LSLNE       R5, R3, #3 
    /*000000c8*/ BNE         _ZNSt6vectorIPN4hirt10NNIEThreadESaIS2_EE19_M_emplace_back_auxIJRKS2_EEEvDpOT__x40
    /*000000cc*/ MOV         R7, R5 
    /*000000d0*/ B           _ZNSt6vectorIPN4hirt10NNIEThreadESaIS2_EE19_M_emplace_back_auxIJRKS2_EEEvDpOT__x4c
FUNC_END _ZNSt6vectorIPN4hirt10NNIEThreadESaIS2_EE19_M_emplace_back_auxIJRKS2_EEEvDpOT_


@ - - - - - - - - - - - - - - - - - - - - - - - - - - - - - 
@ .text._ZNSt6vectorIPN4hirt14CustomerThreadESaIS2_EE19_M_emplace_back_auxIJRKS2_EEEvDpOT_
@ Size: 0xd4
@ - - - - - - - - - - - - - - - - - - - - - - - - - - - - - 

FUNC_BEGIN _ZNSt6vectorIPN4hirt14CustomerThreadESaIS2_EE19_M_emplace_back_auxIJRKS2_EEEvDpOT_
    /*00000000*/ MOV         IP, #16384                  @ 0x4000 
    /*00000004*/ PUSH        {R4, R5, R6, R7, R8, R9, SL, LR} 
    /*00000008*/ SUB         IP, SP, IP 
    /*0000000c*/ STR         R0, [IP, #4064]             @ 0xfe0 
    /*00000010*/ LDM         R0, {R2, R3} 
    /*00000014*/ MOV         R6, R0 
    /*00000018*/ MOV         R9, R1 
    /*0000001c*/ SUB         R3, R3, R2 
    /*00000020*/ ASRS        R3, R3, #2 
    /*00000024*/ BEQ         _ZNSt6vectorIPN4hirt14CustomerThreadESaIS2_EE19_M_emplace_back_auxIJRKS2_EEEvDpOT__x3c
    /*00000028*/ LSL         R5, R3, #1 
    /*0000002c*/ CMP         R3, R5 
    /*00000030*/ BLS         _ZNSt6vectorIPN4hirt14CustomerThreadESaIS2_EE19_M_emplace_back_auxIJRKS2_EEEvDpOT__xb8
    _ZNSt6vectorIPN4hirt14CustomerThreadESaIS2_EE19_M_emplace_back_auxIJRKS2_EEEvDpOT__x34:
    /*00000034*/ MVN         R5, #3 
    /*00000038*/ B           _ZNSt6vectorIPN4hirt14CustomerThreadESaIS2_EE19_M_emplace_back_auxIJRKS2_EEEvDpOT__x40
    _ZNSt6vectorIPN4hirt14CustomerThreadESaIS2_EE19_M_emplace_back_auxIJRKS2_EEEvDpOT__x3c:
    /*0000003c*/ MOV         R5, #4 
    _ZNSt6vectorIPN4hirt14CustomerThreadESaIS2_EE19_M_emplace_back_auxIJRKS2_EEEvDpOT__x40:
    /*00000040*/ MOV         R0, R5 
    /*00000044*/ BL          _Znwj
    /*00000048*/ MOV         R7, R0 
    _ZNSt6vectorIPN4hirt14CustomerThreadESaIS2_EE19_M_emplace_back_auxIJRKS2_EEEvDpOT__x4c:
    /*0000004c*/ LDR         R8, [R6] 
    /*00000050*/ LDR         R4, [R6, #4] 
    /*00000054*/ LDR         R2, [R9] 
    /*00000058*/ SUB         R4, R4, R8 
    /*0000005c*/ CMN         R7, R4 
    /*00000060*/ ASR         R3, R4, #2 
    /*00000064*/ STRNE       R2, [R7, R4] 
    /*00000068*/ CMP         R3, #0 
    /*0000006c*/ BNE         _ZNSt6vectorIPN4hirt14CustomerThreadESaIS2_EE19_M_emplace_back_auxIJRKS2_EEEvDpOT__x9c
    /*00000070*/ CMP         R8, #0 
    /*00000074*/ ADD         R4, R4, #4 
    /*00000078*/ ADD         R4, R7, R4 
    /*0000007c*/ BEQ         _ZNSt6vectorIPN4hirt14CustomerThreadESaIS2_EE19_M_emplace_back_auxIJRKS2_EEEvDpOT__x88
    _ZNSt6vectorIPN4hirt14CustomerThreadESaIS2_EE19_M_emplace_back_auxIJRKS2_EEEvDpOT__x80:
    /*00000080*/ MOV         R0, R8 
    /*00000084*/ BL          _ZdlPv
    _ZNSt6vectorIPN4hirt14CustomerThreadESaIS2_EE19_M_emplace_back_auxIJRKS2_EEEvDpOT__x88:
    /*00000088*/ ADD         R5, R7, R5 
    /*0000008c*/ STR         R5, [R6, #8] 
    /*00000090*/ STR         R7, [R6] 
    /*00000094*/ STR         R4, [R6, #4] 
    /*00000098*/ POP         {R4, R5, R6, R7, R8, R9, SL, PC} 
    _ZNSt6vectorIPN4hirt14CustomerThreadESaIS2_EE19_M_emplace_back_auxIJRKS2_EEEvDpOT__x9c:
    /*0000009c*/ MOV         R2, R4 
    /*000000a0*/ MOV         R1, R8 
    /*000000a4*/ MOV         R0, R7 
    /*000000a8*/ ADD         R4, R4, #4 
    /*000000ac*/ ADD         R4, R7, R4 
    /*000000b0*/ BL          memmove
    /*000000b4*/ B           _ZNSt6vectorIPN4hirt14CustomerThreadESaIS2_EE19_M_emplace_back_auxIJRKS2_EEEvDpOT__x80
    _ZNSt6vectorIPN4hirt14CustomerThreadESaIS2_EE19_M_emplace_back_auxIJRKS2_EEEvDpOT__xb8:
    /*000000b8*/ CMN         R5, #-1073741823            @ 0xc0000001 
    /*000000bc*/ BHI         _ZNSt6vectorIPN4hirt14CustomerThreadESaIS2_EE19_M_emplace_back_auxIJRKS2_EEEvDpOT__x34
    /*000000c0*/ CMP         R5, #0 
    /*000000c4*/ LSLNE       R5, R3, #3 
    /*000000c8*/ BNE         _ZNSt6vectorIPN4hirt14CustomerThreadESaIS2_EE19_M_emplace_back_auxIJRKS2_EEEvDpOT__x40
    /*000000cc*/ MOV         R7, R5 
    /*000000d0*/ B           _ZNSt6vectorIPN4hirt14CustomerThreadESaIS2_EE19_M_emplace_back_auxIJRKS2_EEEvDpOT__x4c
FUNC_END _ZNSt6vectorIPN4hirt14CustomerThreadESaIS2_EE19_M_emplace_back_auxIJRKS2_EEEvDpOT_


@ - - - - - - - - - - - - - - - - - - - - - - - - - - - - - 
@ .text._ZNSt8_Rb_treeINSt7__cxx1112basic_stringIcSt11char_traitsIcESaIcEEES5_St9_IdentityIS5_ESt4lessIS5_ESaIS5_EE16_M_insert_uniqueIS5_EESt4pairISt17_Rb_tree_iteratorIS5_EbEOT_
@ Size: 0x26c
@ - - - - - - - - - - - - - - - - - - - - - - - - - - - - - 

FUNC_BEGIN _ZNSt8_Rb_treeINSt7__cxx1112basic_stringIcSt11char_traitsIcESaIcEEES5_St9_IdentityIS5_ESt4lessIS5_ESaIS5_EE16_M_insert_uniqueIS5_EESt4pairISt17_Rb_tree_iteratorIS5_EbEOT_
    /*00000000*/ MOV         IP, #16384                  @ 0x4000 
    /*00000004*/ PUSH        {R4, R5, R6, R7, R8, R9, SL, FP, LR} 
    /*00000008*/ SUB         IP, SP, IP 
    /*0000000c*/ STR         R0, [IP, #4048]             @ 0xfd0 
    /*00000010*/ LDR         R4, [R1, #8] 
    /*00000014*/ SUB         SP, SP, #12 
    /*00000018*/ ADD         R3, R1, #4 
    /*0000001c*/ MOV         SL, R1 
    /*00000020*/ STR         R0, [SP] 
    /*00000024*/ CMP         R4, #0 
    /*00000028*/ STR         R3, [SP, #4] 
    /*0000002c*/ MOV         R9, R2 
    /*00000030*/ BEQ         _ZNSt8_Rb_treeINSt7__cxx1112basic_stringIcSt11char_traitsIcESaIcEEES5_St9_IdentityIS5_ESt4lessIS5_ESaIS5_EE16_M_insert_uniqueIS5_EESt4pairISt17_Rb_tree_iteratorIS5_EbEOT__xd8
    /*00000034*/ LDR         R7, [R2, #4] 
    /*00000038*/ LDR         FP, [R2] 
    /*0000003c*/ B           _ZNSt8_Rb_treeINSt7__cxx1112basic_stringIcSt11char_traitsIcESaIcEEES5_St9_IdentityIS5_ESt4lessIS5_ESaIS5_EE16_M_insert_uniqueIS5_EESt4pairISt17_Rb_tree_iteratorIS5_EbEOT__x6c
    _ZNSt8_Rb_treeINSt7__cxx1112basic_stringIcSt11char_traitsIcESaIcEEES5_St9_IdentityIS5_ESt4lessIS5_ESaIS5_EE16_M_insert_uniqueIS5_EESt4pairISt17_Rb_tree_iteratorIS5_EbEOT__x40:
    /*00000040*/ BL          memcmp
    /*00000044*/ CMP         R0, #0 
    /*00000048*/ BEQ         _ZNSt8_Rb_treeINSt7__cxx1112basic_stringIcSt11char_traitsIcESaIcEEES5_St9_IdentityIS5_ESt4lessIS5_ESaIS5_EE16_M_insert_uniqueIS5_EESt4pairISt17_Rb_tree_iteratorIS5_EbEOT__x90
    _ZNSt8_Rb_treeINSt7__cxx1112basic_stringIcSt11char_traitsIcESaIcEEES5_St9_IdentityIS5_ESt4lessIS5_ESaIS5_EE16_M_insert_uniqueIS5_EESt4pairISt17_Rb_tree_iteratorIS5_EbEOT__x4c:
    /*0000004c*/ CMP         R0, #0 
    /*00000050*/ MOV         R1, #0 
    /*00000054*/ MOVLT       R1, #1 
    /*00000058*/ LDRLT       R3, [R4, #8] 
    /*0000005c*/ LDRGE       R3, [R4, #12] 
    /*00000060*/ CMP         R3, #0 
    /*00000064*/ BEQ         _ZNSt8_Rb_treeINSt7__cxx1112basic_stringIcSt11char_traitsIcESaIcEEES5_St9_IdentityIS5_ESt4lessIS5_ESaIS5_EE16_M_insert_uniqueIS5_EESt4pairISt17_Rb_tree_iteratorIS5_EbEOT__x98
    /*00000068*/ MOV         R4, R3 
    _ZNSt8_Rb_treeINSt7__cxx1112basic_stringIcSt11char_traitsIcESaIcEEES5_St9_IdentityIS5_ESt4lessIS5_ESaIS5_EE16_M_insert_uniqueIS5_EESt4pairISt17_Rb_tree_iteratorIS5_EbEOT__x6c:
    /*0000006c*/ LDR         R5, [R4, #20] 
    /*00000070*/ MOV         R0, FP 
    /*00000074*/ LDR         R8, [R4, #16] 
    /*00000078*/ CMP         R7, R5 
    /*0000007c*/ MOVCC       R6, R7 
    /*00000080*/ MOVCS       R6, R5 
    /*00000084*/ SUBS        R2, R6, #0 
    /*00000088*/ MOV         R1, R8 
    /*0000008c*/ BNE         _ZNSt8_Rb_treeINSt7__cxx1112basic_stringIcSt11char_traitsIcESaIcEEES5_St9_IdentityIS5_ESt4lessIS5_ESaIS5_EE16_M_insert_uniqueIS5_EESt4pairISt17_Rb_tree_iteratorIS5_EbEOT__x40
    _ZNSt8_Rb_treeINSt7__cxx1112basic_stringIcSt11char_traitsIcESaIcEEES5_St9_IdentityIS5_ESt4lessIS5_ESaIS5_EE16_M_insert_uniqueIS5_EESt4pairISt17_Rb_tree_iteratorIS5_EbEOT__x90:
    /*00000090*/ SUB         R0, R7, R5 
    /*00000094*/ B           _ZNSt8_Rb_treeINSt7__cxx1112basic_stringIcSt11char_traitsIcESaIcEEES5_St9_IdentityIS5_ESt4lessIS5_ESaIS5_EE16_M_insert_uniqueIS5_EESt4pairISt17_Rb_tree_iteratorIS5_EbEOT__x4c
    _ZNSt8_Rb_treeINSt7__cxx1112basic_stringIcSt11char_traitsIcESaIcEEES5_St9_IdentityIS5_ESt4lessIS5_ESaIS5_EE16_M_insert_uniqueIS5_EESt4pairISt17_Rb_tree_iteratorIS5_EbEOT__x98:
    /*00000098*/ CMP         R1, #0 
    /*0000009c*/ MOVEQ       R2, R6 
    /*000000a0*/ MOVEQ       R6, R4 
    /*000000a4*/ BNE         _ZNSt8_Rb_treeINSt7__cxx1112basic_stringIcSt11char_traitsIcESaIcEEES5_St9_IdentityIS5_ESt4lessIS5_ESaIS5_EE16_M_insert_uniqueIS5_EESt4pairISt17_Rb_tree_iteratorIS5_EbEOT__xdc
    /*000000a8*/ CMP         R2, #0 
    /*000000ac*/ BNE         _ZNSt8_Rb_treeINSt7__cxx1112basic_stringIcSt11char_traitsIcESaIcEEES5_St9_IdentityIS5_ESt4lessIS5_ESaIS5_EE16_M_insert_uniqueIS5_EESt4pairISt17_Rb_tree_iteratorIS5_EbEOT__x118
    _ZNSt8_Rb_treeINSt7__cxx1112basic_stringIcSt11char_traitsIcESaIcEEES5_St9_IdentityIS5_ESt4lessIS5_ESaIS5_EE16_M_insert_uniqueIS5_EESt4pairISt17_Rb_tree_iteratorIS5_EbEOT__xb0:
    /*000000b0*/ SUB         R0, R5, R7 
    /*000000b4*/ CMP         R0, #0 
    /*000000b8*/ BLT         _ZNSt8_Rb_treeINSt7__cxx1112basic_stringIcSt11char_traitsIcESaIcEEES5_St9_IdentityIS5_ESt4lessIS5_ESaIS5_EE16_M_insert_uniqueIS5_EESt4pairISt17_Rb_tree_iteratorIS5_EbEOT__x134
    _ZNSt8_Rb_treeINSt7__cxx1112basic_stringIcSt11char_traitsIcESaIcEEES5_St9_IdentityIS5_ESt4lessIS5_ESaIS5_EE16_M_insert_uniqueIS5_EESt4pairISt17_Rb_tree_iteratorIS5_EbEOT__xbc:
    /*000000bc*/ LDR         R2, [SP] 
    /*000000c0*/ MOV         R3, #0 
    /*000000c4*/ STR         R6, [R2] 
    /*000000c8*/ MOV         R0, R2 
    /*000000cc*/ STRB        R3, [R2, #4] 
    /*000000d0*/ ADD         SP, SP, #12 
    /*000000d4*/ POP         {R4, R5, R6, R7, R8, R9, SL, FP, PC} 
    _ZNSt8_Rb_treeINSt7__cxx1112basic_stringIcSt11char_traitsIcESaIcEEES5_St9_IdentityIS5_ESt4lessIS5_ESaIS5_EE16_M_insert_uniqueIS5_EESt4pairISt17_Rb_tree_iteratorIS5_EbEOT__xd8:
    /*000000d8*/ ADD         R4, R1, #4 
    _ZNSt8_Rb_treeINSt7__cxx1112basic_stringIcSt11char_traitsIcESaIcEEES5_St9_IdentityIS5_ESt4lessIS5_ESaIS5_EE16_M_insert_uniqueIS5_EESt4pairISt17_Rb_tree_iteratorIS5_EbEOT__xdc:
    /*000000dc*/ LDR         R3, [SL, #12] 
    /*000000e0*/ CMP         R3, R4 
    /*000000e4*/ BEQ         _ZNSt8_Rb_treeINSt7__cxx1112basic_stringIcSt11char_traitsIcESaIcEEES5_St9_IdentityIS5_ESt4lessIS5_ESaIS5_EE16_M_insert_uniqueIS5_EESt4pairISt17_Rb_tree_iteratorIS5_EbEOT__x13c
    /*000000e8*/ MOV         R0, R4 
    /*000000ec*/ BL          _ZSt18_Rb_tree_decrementPSt18_Rb_tree_node_base
    /*000000f0*/ LDR         R5, [R0, #20] 
    /*000000f4*/ MOV         R6, R0 
    /*000000f8*/ LDR         R7, [R9, #4] 
    /*000000fc*/ LDR         R8, [R0, #16] 
    /*00000100*/ CMP         R7, R5 
    /*00000104*/ LDR         FP, [R9] 
    /*00000108*/ MOVCC       R2, R7 
    /*0000010c*/ MOVCS       R2, R5 
    /*00000110*/ CMP         R2, #0 
    /*00000114*/ BEQ         _ZNSt8_Rb_treeINSt7__cxx1112basic_stringIcSt11char_traitsIcESaIcEEES5_St9_IdentityIS5_ESt4lessIS5_ESaIS5_EE16_M_insert_uniqueIS5_EESt4pairISt17_Rb_tree_iteratorIS5_EbEOT__xb0
    _ZNSt8_Rb_treeINSt7__cxx1112basic_stringIcSt11char_traitsIcESaIcEEES5_St9_IdentityIS5_ESt4lessIS5_ESaIS5_EE16_M_insert_uniqueIS5_EESt4pairISt17_Rb_tree_iteratorIS5_EbEOT__x118:
    /*00000118*/ MOV         R1, FP 
    /*0000011c*/ MOV         R0, R8 
    /*00000120*/ BL          memcmp
    /*00000124*/ CMP         R0, #0 
    /*00000128*/ BEQ         _ZNSt8_Rb_treeINSt7__cxx1112basic_stringIcSt11char_traitsIcESaIcEEES5_St9_IdentityIS5_ESt4lessIS5_ESaIS5_EE16_M_insert_uniqueIS5_EESt4pairISt17_Rb_tree_iteratorIS5_EbEOT__xb0
    /*0000012c*/ CMP         R0, #0 
    /*00000130*/ BGE         _ZNSt8_Rb_treeINSt7__cxx1112basic_stringIcSt11char_traitsIcESaIcEEES5_St9_IdentityIS5_ESt4lessIS5_ESaIS5_EE16_M_insert_uniqueIS5_EESt4pairISt17_Rb_tree_iteratorIS5_EbEOT__xbc
    _ZNSt8_Rb_treeINSt7__cxx1112basic_stringIcSt11char_traitsIcESaIcEEES5_St9_IdentityIS5_ESt4lessIS5_ESaIS5_EE16_M_insert_uniqueIS5_EESt4pairISt17_Rb_tree_iteratorIS5_EbEOT__x134:
    /*00000134*/ CMP         R4, #0 
    /*00000138*/ BEQ         _ZNSt8_Rb_treeINSt7__cxx1112basic_stringIcSt11char_traitsIcESaIcEEES5_St9_IdentityIS5_ESt4lessIS5_ESaIS5_EE16_M_insert_uniqueIS5_EESt4pairISt17_Rb_tree_iteratorIS5_EbEOT__x264
    _ZNSt8_Rb_treeINSt7__cxx1112basic_stringIcSt11char_traitsIcESaIcEEES5_St9_IdentityIS5_ESt4lessIS5_ESaIS5_EE16_M_insert_uniqueIS5_EESt4pairISt17_Rb_tree_iteratorIS5_EbEOT__x13c:
    /*0000013c*/ LDR         R3, [SP, #4] 
    /*00000140*/ CMP         R3, R4 
    /*00000144*/ BEQ         _ZNSt8_Rb_treeINSt7__cxx1112basic_stringIcSt11char_traitsIcESaIcEEES5_St9_IdentityIS5_ESt4lessIS5_ESaIS5_EE16_M_insert_uniqueIS5_EESt4pairISt17_Rb_tree_iteratorIS5_EbEOT__x238
    /*00000148*/ LDR         R5, [R9, #4] 
    /*0000014c*/ LDR         R6, [R4, #20] 
    /*00000150*/ CMP         R5, R6 
    /*00000154*/ MOVCC       R2, R5 
    /*00000158*/ MOVCS       R2, R6 
    /*0000015c*/ CMP         R2, #0 
    /*00000160*/ BEQ         _ZNSt8_Rb_treeINSt7__cxx1112basic_stringIcSt11char_traitsIcESaIcEEES5_St9_IdentityIS5_ESt4lessIS5_ESaIS5_EE16_M_insert_uniqueIS5_EESt4pairISt17_Rb_tree_iteratorIS5_EbEOT__x190
    /*00000164*/ LDR         R1, [R4, #16] 
    /*00000168*/ LDR         R0, [R9] 
    /*0000016c*/ BL          memcmp
    /*00000170*/ CMP         R0, #0 
    /*00000174*/ BEQ         _ZNSt8_Rb_treeINSt7__cxx1112basic_stringIcSt11char_traitsIcESaIcEEES5_St9_IdentityIS5_ESt4lessIS5_ESaIS5_EE16_M_insert_uniqueIS5_EESt4pairISt17_Rb_tree_iteratorIS5_EbEOT__x190
    /*00000178*/ BLT         _ZNSt8_Rb_treeINSt7__cxx1112basic_stringIcSt11char_traitsIcESaIcEEES5_St9_IdentityIS5_ESt4lessIS5_ESaIS5_EE16_M_insert_uniqueIS5_EESt4pairISt17_Rb_tree_iteratorIS5_EbEOT__x238
    /*0000017c*/ MOV         R0, #40                     @ 0x28 
    /*00000180*/ MOV         R6, #0 
    /*00000184*/ BL          _Znwj
    /*00000188*/ MOV         R5, R0 
    /*0000018c*/ B           _ZNSt8_Rb_treeINSt7__cxx1112basic_stringIcSt11char_traitsIcESaIcEEES5_St9_IdentityIS5_ESt4lessIS5_ESaIS5_EE16_M_insert_uniqueIS5_EESt4pairISt17_Rb_tree_iteratorIS5_EbEOT__x1ac
    _ZNSt8_Rb_treeINSt7__cxx1112basic_stringIcSt11char_traitsIcESaIcEEES5_St9_IdentityIS5_ESt4lessIS5_ESaIS5_EE16_M_insert_uniqueIS5_EESt4pairISt17_Rb_tree_iteratorIS5_EbEOT__x190:
    /*00000190*/ SUB         R5, R5, R6 
    /*00000194*/ CMP         R5, #0 
    /*00000198*/ MOVGE       R6, #0 
    /*0000019c*/ BLT         _ZNSt8_Rb_treeINSt7__cxx1112basic_stringIcSt11char_traitsIcESaIcEEES5_St9_IdentityIS5_ESt4lessIS5_ESaIS5_EE16_M_insert_uniqueIS5_EESt4pairISt17_Rb_tree_iteratorIS5_EbEOT__x224
    _ZNSt8_Rb_treeINSt7__cxx1112basic_stringIcSt11char_traitsIcESaIcEEES5_St9_IdentityIS5_ESt4lessIS5_ESaIS5_EE16_M_insert_uniqueIS5_EESt4pairISt17_Rb_tree_iteratorIS5_EbEOT__x1a0:
    /*000001a0*/ MOV         R0, #40                     @ 0x28 
    /*000001a4*/ BL          _Znwj
    /*000001a8*/ MOV         R5, R0 
    _ZNSt8_Rb_treeINSt7__cxx1112basic_stringIcSt11char_traitsIcESaIcEEES5_St9_IdentityIS5_ESt4lessIS5_ESaIS5_EE16_M_insert_uniqueIS5_EESt4pairISt17_Rb_tree_iteratorIS5_EbEOT__x1ac:
    /*000001ac*/ MOV         R2, R9 
    /*000001b0*/ ADD         R1, R5, #24 
    /*000001b4*/ STR         R1, [R5, #16] 
    /*000001b8*/ LDR         R3, [R2], #8 
    /*000001bc*/ CMP         R3, R2 
    /*000001c0*/ STRNE       R3, [R5, #16] 
    /*000001c4*/ LDRNE       R1, [R9, #8] 
    /*000001c8*/ STRNE       R1, [R5, #24] 
    /*000001cc*/ BEQ         _ZNSt8_Rb_treeINSt7__cxx1112basic_stringIcSt11char_traitsIcESaIcEEES5_St9_IdentityIS5_ESt4lessIS5_ESaIS5_EE16_M_insert_uniqueIS5_EESt4pairISt17_Rb_tree_iteratorIS5_EbEOT__x240
    _ZNSt8_Rb_treeINSt7__cxx1112basic_stringIcSt11char_traitsIcESaIcEEES5_St9_IdentityIS5_ESt4lessIS5_ESaIS5_EE16_M_insert_uniqueIS5_EESt4pairISt17_Rb_tree_iteratorIS5_EbEOT__x1d0:
    /*000001d0*/ LDR         R0, [R9, #4] 
    /*000001d4*/ MOV         R1, #0 
    /*000001d8*/ LDR         R3, [SP, #4] 
    /*000001dc*/ STR         R2, [R9] 
    /*000001e0*/ MOV         R2, R4 
    /*000001e4*/ STR         R0, [R5, #20] 
    /*000001e8*/ MOV         R0, R6 
    /*000001ec*/ STR         R1, [R9, #4] 
    /*000001f0*/ STRB        R1, [R9, #8] 
    /*000001f4*/ MOV         R1, R5 
    /*000001f8*/ BL          _ZSt29_Rb_tree_insert_and_rebalancebPSt18_Rb_tree_node_baseS0_RS_
    /*000001fc*/ LDR         R3, [SL, #20] 
    /*00000200*/ MOV         R2, #1 
    /*00000204*/ LDR         R1, [SP] 
    /*00000208*/ ADD         R3, R3, R2 
    /*0000020c*/ STR         R5, [R1] 
    /*00000210*/ MOV         R0, R1 
    /*00000214*/ STRB        R2, [R1, #4] 
    /*00000218*/ STR         R3, [SL, #20] 
    /*0000021c*/ ADD         SP, SP, #12 
    /*00000220*/ POP         {R4, R5, R6, R7, R8, R9, SL, FP, PC} 
    _ZNSt8_Rb_treeINSt7__cxx1112basic_stringIcSt11char_traitsIcESaIcEEES5_St9_IdentityIS5_ESt4lessIS5_ESaIS5_EE16_M_insert_uniqueIS5_EESt4pairISt17_Rb_tree_iteratorIS5_EbEOT__x224:
    /*00000224*/ MOV         R0, #40                     @ 0x28 
    /*00000228*/ MOV         R6, #1 
    /*0000022c*/ BL          _Znwj
    /*00000230*/ MOV         R5, R0 
    /*00000234*/ B           _ZNSt8_Rb_treeINSt7__cxx1112basic_stringIcSt11char_traitsIcESaIcEEES5_St9_IdentityIS5_ESt4lessIS5_ESaIS5_EE16_M_insert_uniqueIS5_EESt4pairISt17_Rb_tree_iteratorIS5_EbEOT__x1ac
    _ZNSt8_Rb_treeINSt7__cxx1112basic_stringIcSt11char_traitsIcESaIcEEES5_St9_IdentityIS5_ESt4lessIS5_ESaIS5_EE16_M_insert_uniqueIS5_EESt4pairISt17_Rb_tree_iteratorIS5_EbEOT__x238:
    /*00000238*/ MOV         R6, #1 
    /*0000023c*/ B           _ZNSt8_Rb_treeINSt7__cxx1112basic_stringIcSt11char_traitsIcESaIcEEES5_St9_IdentityIS5_ESt4lessIS5_ESaIS5_EE16_M_insert_uniqueIS5_EESt4pairISt17_Rb_tree_iteratorIS5_EbEOT__x1a0
    _ZNSt8_Rb_treeINSt7__cxx1112basic_stringIcSt11char_traitsIcESaIcEEES5_St9_IdentityIS5_ESt4lessIS5_ESaIS5_EE16_M_insert_uniqueIS5_EESt4pairISt17_Rb_tree_iteratorIS5_EbEOT__x240:
    /*00000240*/ LDR         R0, [R2] 
    /*00000244*/ LDR         R3, [R2, #4] 
    /*00000248*/ STR         R0, [R5, #24] 
    /*0000024c*/ STR         R3, [R5, #28] 
    /*00000250*/ LDR         R0, [R2, #8] 
    /*00000254*/ LDR         R3, [R2, #12] 
    /*00000258*/ STR         R0, [R5, #32] 
    /*0000025c*/ STR         R3, [R5, #36]               @ 0x24 
    /*00000260*/ B           _ZNSt8_Rb_treeINSt7__cxx1112basic_stringIcSt11char_traitsIcESaIcEEES5_St9_IdentityIS5_ESt4lessIS5_ESaIS5_EE16_M_insert_uniqueIS5_EESt4pairISt17_Rb_tree_iteratorIS5_EbEOT__x1d0
    _ZNSt8_Rb_treeINSt7__cxx1112basic_stringIcSt11char_traitsIcESaIcEEES5_St9_IdentityIS5_ESt4lessIS5_ESaIS5_EE16_M_insert_uniqueIS5_EESt4pairISt17_Rb_tree_iteratorIS5_EbEOT__x264:
    /*00000264*/ MOV         R6, R4 
    /*00000268*/ B           _ZNSt8_Rb_treeINSt7__cxx1112basic_stringIcSt11char_traitsIcESaIcEEES5_St9_IdentityIS5_ESt4lessIS5_ESaIS5_EE16_M_insert_uniqueIS5_EESt4pairISt17_Rb_tree_iteratorIS5_EbEOT__xbc
FUNC_END _ZNSt8_Rb_treeINSt7__cxx1112basic_stringIcSt11char_traitsIcESaIcEEES5_St9_IdentityIS5_ESt4lessIS5_ESaIS5_EE16_M_insert_uniqueIS5_EESt4pairISt17_Rb_tree_iteratorIS5_EbEOT_


@ - - - - - - - - - - - - - - - - - - - - - - - - - - - - - 
@ .text._ZNSt8_Rb_treeIPvS0_St9_IdentityIS0_ESt4lessIS0_ESaIS0_EE16_M_insert_uniqueIRKS0_EESt4pairISt17_Rb_tree_iteratorIS0_EbEOT_
@ Size: 0x120
@ - - - - - - - - - - - - - - - - - - - - - - - - - - - - - 

FUNC_BEGIN _ZNSt8_Rb_treeIPvS0_St9_IdentityIS0_ESt4lessIS0_ESaIS0_EE16_M_insert_uniqueIRKS0_EESt4pairISt17_Rb_tree_iteratorIS0_EbEOT_
    /*00000000*/ MOV         IP, #16384                  @ 0x4000 
    /*00000004*/ PUSH        {R4, R5, R6, R7, R8, R9, SL, LR} 
    /*00000008*/ SUB         IP, SP, IP 
    /*0000000c*/ STR         R0, [IP, #4064]             @ 0xfe0 
    /*00000010*/ MOV         R6, R0 
    /*00000014*/ MOV         R5, R1 
    /*00000018*/ LDR         R0, [R1, #8] 
    /*0000001c*/ MOV         R8, R2 
    /*00000020*/ ADD         R7, R1, #4 
    /*00000024*/ CMP         R0, #0 
    /*00000028*/ BEQ         _ZNSt8_Rb_treeIPvS0_St9_IdentityIS0_ESt4lessIS0_ESaIS0_EE16_M_insert_uniqueIRKS0_EESt4pairISt17_Rb_tree_iteratorIS0_EbEOT__x80
    /*0000002c*/ LDR         LR, [R2] 
    /*00000030*/ B           _ZNSt8_Rb_treeIPvS0_St9_IdentityIS0_ESt4lessIS0_ESaIS0_EE16_M_insert_uniqueIRKS0_EESt4pairISt17_Rb_tree_iteratorIS0_EbEOT__x38
    _ZNSt8_Rb_treeIPvS0_St9_IdentityIS0_ESt4lessIS0_ESaIS0_EE16_M_insert_uniqueIRKS0_EESt4pairISt17_Rb_tree_iteratorIS0_EbEOT__x34:
    /*00000034*/ MOV         R0, R3 
    _ZNSt8_Rb_treeIPvS0_St9_IdentityIS0_ESt4lessIS0_ESaIS0_EE16_M_insert_uniqueIRKS0_EESt4pairISt17_Rb_tree_iteratorIS0_EbEOT__x38:
    /*00000038*/ LDR         R1, [R0, #16] 
    /*0000003c*/ MOV         IP, #1 
    /*00000040*/ CMP         R1, LR 
    /*00000044*/ MOVLS       IP, #0 
    /*00000048*/ LDRHI       R3, [R0, #8] 
    /*0000004c*/ LDRLS       R3, [R0, #12] 
    /*00000050*/ CMP         R3, #0 
    /*00000054*/ BNE         _ZNSt8_Rb_treeIPvS0_St9_IdentityIS0_ESt4lessIS0_ESaIS0_EE16_M_insert_uniqueIRKS0_EESt4pairISt17_Rb_tree_iteratorIS0_EbEOT__x34
    /*00000058*/ CMP         IP, #0 
    /*0000005c*/ MOV         R4, R0 
    /*00000060*/ BNE         _ZNSt8_Rb_treeIPvS0_St9_IdentityIS0_ESt4lessIS0_ESaIS0_EE16_M_insert_uniqueIRKS0_EESt4pairISt17_Rb_tree_iteratorIS0_EbEOT__x84
    /*00000064*/ CMP         R1, LR 
    /*00000068*/ BCC         _ZNSt8_Rb_treeIPvS0_St9_IdentityIS0_ESt4lessIS0_ESaIS0_EE16_M_insert_uniqueIRKS0_EESt4pairISt17_Rb_tree_iteratorIS0_EbEOT__xa8
    _ZNSt8_Rb_treeIPvS0_St9_IdentityIS0_ESt4lessIS0_ESaIS0_EE16_M_insert_uniqueIRKS0_EESt4pairISt17_Rb_tree_iteratorIS0_EbEOT__x6c:
    /*0000006c*/ STR         R0, [R6] 
    /*00000070*/ MOV         R3, #0 
    /*00000074*/ STRB        R3, [R6, #4] 
    /*00000078*/ MOV         R0, R6 
    /*0000007c*/ POP         {R4, R5, R6, R7, R8, R9, SL, PC} 
    _ZNSt8_Rb_treeIPvS0_St9_IdentityIS0_ESt4lessIS0_ESaIS0_EE16_M_insert_uniqueIRKS0_EESt4pairISt17_Rb_tree_iteratorIS0_EbEOT__x80:
    /*00000080*/ MOV         R4, R7 
    _ZNSt8_Rb_treeIPvS0_St9_IdentityIS0_ESt4lessIS0_ESaIS0_EE16_M_insert_uniqueIRKS0_EESt4pairISt17_Rb_tree_iteratorIS0_EbEOT__x84:
    /*00000084*/ LDR         R3, [R5, #12] 
    /*00000088*/ CMP         R3, R4 
    /*0000008c*/ BEQ         _ZNSt8_Rb_treeIPvS0_St9_IdentityIS0_ESt4lessIS0_ESaIS0_EE16_M_insert_uniqueIRKS0_EESt4pairISt17_Rb_tree_iteratorIS0_EbEOT__xb0
    /*00000090*/ MOV         R0, R4 
    /*00000094*/ BL          _ZSt18_Rb_tree_decrementPSt18_Rb_tree_node_base
    /*00000098*/ LDR         R1, [R0, #16] 
    /*0000009c*/ LDR         LR, [R8] 
    /*000000a0*/ CMP         R1, LR 
    /*000000a4*/ BCS         _ZNSt8_Rb_treeIPvS0_St9_IdentityIS0_ESt4lessIS0_ESaIS0_EE16_M_insert_uniqueIRKS0_EESt4pairISt17_Rb_tree_iteratorIS0_EbEOT__x6c
    _ZNSt8_Rb_treeIPvS0_St9_IdentityIS0_ESt4lessIS0_ESaIS0_EE16_M_insert_uniqueIRKS0_EESt4pairISt17_Rb_tree_iteratorIS0_EbEOT__xa8:
    /*000000a8*/ CMP         R4, #0 
    /*000000ac*/ BEQ         _ZNSt8_Rb_treeIPvS0_St9_IdentityIS0_ESt4lessIS0_ESaIS0_EE16_M_insert_uniqueIRKS0_EESt4pairISt17_Rb_tree_iteratorIS0_EbEOT__x118
    _ZNSt8_Rb_treeIPvS0_St9_IdentityIS0_ESt4lessIS0_ESaIS0_EE16_M_insert_uniqueIRKS0_EESt4pairISt17_Rb_tree_iteratorIS0_EbEOT__xb0:
    /*000000b0*/ CMP         R7, R4 
    /*000000b4*/ MOVEQ       SL, #1 
    /*000000b8*/ BEQ         _ZNSt8_Rb_treeIPvS0_St9_IdentityIS0_ESt4lessIS0_ESaIS0_EE16_M_insert_uniqueIRKS0_EESt4pairISt17_Rb_tree_iteratorIS0_EbEOT__xd0
    /*000000bc*/ LDR         SL, [R8] 
    /*000000c0*/ LDR         R3, [R4, #16] 
    /*000000c4*/ CMP         SL, R3 
    /*000000c8*/ MOVCS       SL, #0 
    /*000000cc*/ MOVCC       SL, #1 
    _ZNSt8_Rb_treeIPvS0_St9_IdentityIS0_ESt4lessIS0_ESaIS0_EE16_M_insert_uniqueIRKS0_EESt4pairISt17_Rb_tree_iteratorIS0_EbEOT__xd0:
    /*000000d0*/ MOV         R0, #20 
    /*000000d4*/ BL          _Znwj
    /*000000d8*/ LDR         R2, [R8] 
    /*000000dc*/ MOV         R9, R0 
    /*000000e0*/ MOV         R3, R7 
    /*000000e4*/ MOV         R0, SL 
    /*000000e8*/ STR         R2, [R9, #16] 
    /*000000ec*/ MOV         R1, R9 
    /*000000f0*/ MOV         R2, R4 
    /*000000f4*/ BL          _ZSt29_Rb_tree_insert_and_rebalancebPSt18_Rb_tree_node_baseS0_RS_
    /*000000f8*/ LDR         R3, [R5, #20] 
    /*000000fc*/ MOV         R2, #1 
    /*00000100*/ STR         R9, [R6] 
    /*00000104*/ MOV         R0, R6 
    /*00000108*/ ADD         R3, R3, R2 
    /*0000010c*/ STRB        R2, [R6, #4] 
    /*00000110*/ STR         R3, [R5, #20] 
    /*00000114*/ POP         {R4, R5, R6, R7, R8, R9, SL, PC} 
    _ZNSt8_Rb_treeIPvS0_St9_IdentityIS0_ESt4lessIS0_ESaIS0_EE16_M_insert_uniqueIRKS0_EESt4pairISt17_Rb_tree_iteratorIS0_EbEOT__x118:
    /*00000118*/ MOV         R0, R4 
    /*0000011c*/ B           _ZNSt8_Rb_treeIPvS0_St9_IdentityIS0_ESt4lessIS0_ESaIS0_EE16_M_insert_uniqueIRKS0_EESt4pairISt17_Rb_tree_iteratorIS0_EbEOT__x6c
FUNC_END _ZNSt8_Rb_treeIPvS0_St9_IdentityIS0_ESt4lessIS0_ESaIS0_EE16_M_insert_uniqueIRKS0_EESt4pairISt17_Rb_tree_iteratorIS0_EbEOT_


@ - - - - - - - - - - - - - - - - - - - - - - - - - - - - - 
@ .text.HI_SVPRT_RUNTIME_LoadModelGroup
@ Size: 0x774
@ - - - - - - - - - - - - - - - - - - - - - - - - - - - - - 

FUNC_BEGIN HI_SVPRT_RUNTIME_LoadModelGroup
    /*00000000*/ MOV         IP, #16384                  @ 0x4000 
    /*00000004*/ PUSH        {R4, R5, R6, R7, R8, R9, SL, FP, LR} 
    /*00000008*/ SUB         IP, SP, IP 
    /*0000000c*/ STR         R0, [IP, #3960]             @ 0xf78 
    /*00000010*/ LDR         LR, WORD_06b4               @ LDR         LR, [PC, #1692]             @ 0x00000000000006b4 
    /*00000014*/ MOV         R5, #0 
    /*00000018*/ LDR         IP, WORD_06b8               @ LDR         IP, [PC, #1688]             @ 0x00000000000006b8 
    /*0000001c*/ SUB         SP, SP, #100                @ 0x64 
    /*00000020*/ CMP         R2, R5 
    /*00000024*/ CMPNE       R1, R5 
    /*00000028*/ ADD         LR, PC, LR 
    /*0000002c*/ MOVEQ       R3, #1 
    /*00000030*/ STR         R2, [SP, #20] 
    /*00000034*/ MOVNE       R3, #0 
    /*00000038*/ LDR         R2, [LR, IP] 
    /*0000003c*/ CMP         R0, R5 
    /*00000040*/ ORREQ       R3, R3, #1 
    /*00000044*/ STR         R2, [SP, #16] 
    /*00000048*/ CMP         R3, R5 
    /*0000004c*/ LDR         R2, [R2] 
    /*00000050*/ STR         R5, [SP, #24] 
    /*00000054*/ STR         R2, [SP, #92]               @ 0x5c 
    /*00000058*/ BNE         HI_SVPRT_RUNTIME_LoadModelGroup_x4e8
    /*0000005c*/ LDR         R3, WORD_06bc               @ LDR         R3, [PC, #1624]             @ 0x00000000000006bc 
    /*00000060*/ MOV         R6, R1 
    /*00000064*/ MOV         R4, R0 
    /*00000068*/ LDR         R3, [LR, R3] 
    /*0000006c*/ STR         R3, [SP, #12] 
    /*00000070*/ CMP         R3, #0 
    /*00000074*/ BEQ         HI_SVPRT_RUNTIME_LoadModelGroup_x234
    /*00000078*/ LDR         R5, WORD_06c0               @ LDR         R5, [PC, #1600]             @ 0x00000000000006c0 
    /*0000007c*/ ADD         R5, PC, R5 
    /*00000080*/ MOV         R0, R5 
    /*00000084*/ BL          pthread_mutex_lock
    /*00000088*/ CMP         R0, #0 
    /*0000008c*/ BNE         HI_SVPRT_RUNTIME_LoadModelGroup_x61c
    /*00000090*/ LDR         R3, WORD_06c4               @ LDR         R3, [PC, #1580]             @ 0x00000000000006c4 
    /*00000094*/ ADD         R3, PC, R3 
    /*00000098*/ LDR         R3, [R3] 
    /*0000009c*/ CMP         R3, #0 
    /*000000a0*/ BEQ         HI_SVPRT_RUNTIME_LoadModelGroup_x248
    /*000000a4*/ MOV         R0, R5 
    /*000000a8*/ BL          pthread_mutex_unlock
    HI_SVPRT_RUNTIME_LoadModelGroup_xac:
    /*000000ac*/ LDR         R0, [R6] 
    /*000000b0*/ MOVW        R2, #10000                  @ 0x2710 
    /*000000b4*/ CMP         R0, R2 
    /*000000b8*/ BHI         HI_SVPRT_RUNTIME_LoadModelGroup_x50c
    /*000000bc*/ LDR         IP, [R6, #8] 
    /*000000c0*/ CMP         IP, R2 
    /*000000c4*/ BHI         HI_SVPRT_RUNTIME_LoadModelGroup_x534
    /*000000c8*/ LDR         LR, [R6, #16] 
    /*000000cc*/ CMP         LR, R2 
    /*000000d0*/ BHI         HI_SVPRT_RUNTIME_LoadModelGroup_x55c
    /*000000d4*/ CMP         R0, #0 
    /*000000d8*/ BEQ         HI_SVPRT_RUNTIME_LoadModelGroup_x108
    /*000000dc*/ LDR         R2, [R6, #4] 
    /*000000e0*/ CMP         R2, #0 
    /*000000e4*/ MOVNE       R3, #0 
    /*000000e8*/ BEQ         HI_SVPRT_RUNTIME_LoadModelGroup_x5b0
    HI_SVPRT_RUNTIME_LoadModelGroup_xec:
    /*000000ec*/ LDR         R1, [R2, #88]               @ 0x58 
    /*000000f0*/ CMP         R1, #-1073741824            @ 0xc0000000 
    /*000000f4*/ BHI         HI_SVPRT_RUNTIME_LoadModelGroup_x364
    /*000000f8*/ ADD         R3, R3, #1 
    /*000000fc*/ ADD         R2, R2, #96                 @ 0x60 
    /*00000100*/ CMP         R0, R3 
    /*00000104*/ BNE         HI_SVPRT_RUNTIME_LoadModelGroup_xec
    HI_SVPRT_RUNTIME_LoadModelGroup_x108:
    /*00000108*/ CMP         IP, #0 
    /*0000010c*/ BEQ         HI_SVPRT_RUNTIME_LoadModelGroup_x11c
    /*00000110*/ LDR         R3, [R6, #12] 
    /*00000114*/ CMP         R3, #0 
    /*00000118*/ BEQ         HI_SVPRT_RUNTIME_LoadModelGroup_x5f8
    HI_SVPRT_RUNTIME_LoadModelGroup_x11c:
    /*0000011c*/ CMP         LR, #0 
    /*00000120*/ BEQ         HI_SVPRT_RUNTIME_LoadModelGroup_x130
    /*00000124*/ LDR         R3, [R6, #20] 
    /*00000128*/ CMP         R3, #0 
    /*0000012c*/ BEQ         HI_SVPRT_RUNTIME_LoadModelGroup_x5d4
    HI_SVPRT_RUNTIME_LoadModelGroup_x130:
    /*00000130*/ ADD         R9, SP, #76                 @ 0x4c 
    /*00000134*/ MOV         R0, R4 
    /*00000138*/ STR         R9, [SP, #68]               @ 0x44 
    /*0000013c*/ BL          strlen
    /*00000140*/ STR         R0, [SP, #36]               @ 0x24 
    /*00000144*/ CMP         R0, #15 
    /*00000148*/ MOV         R5, R0 
    /*0000014c*/ ADD         SL, SP, #68                 @ 0x44 
    /*00000150*/ BHI         HI_SVPRT_RUNTIME_LoadModelGroup_x3d4
    /*00000154*/ CMP         R0, #1 
    /*00000158*/ BEQ         HI_SVPRT_RUNTIME_LoadModelGroup_x408
    /*0000015c*/ CMP         R0, #0 
    /*00000160*/ MOVEQ       R3, R9 
    /*00000164*/ BNE         HI_SVPRT_RUNTIME_LoadModelGroup_x584
    HI_SVPRT_RUNTIME_LoadModelGroup_x168:
    /*00000168*/ STR         R5, [SP, #72]               @ 0x48 
    /*0000016c*/ MOV         R2, #0 
    /*00000170*/ STRB        R2, [R3, R5] 
    /*00000174*/ MOV         R0, SL 
    /*00000178*/ BL          _ZN4hirt17ModelGroupSetting23createModelGroupSettingERKNSt7__cxx1112basic_stringIcSt11char_traitsIcESaIcEEE
    /*0000017c*/ MOV         R8, R0 
    /*00000180*/ LDR         R0, [SP, #68]               @ 0x44 
    /*00000184*/ CMP         R0, R9 
    /*00000188*/ BEQ         HI_SVPRT_RUNTIME_LoadModelGroup_x190
    /*0000018c*/ BL          _ZdlPv
    HI_SVPRT_RUNTIME_LoadModelGroup_x190:
    /*00000190*/ CMP         R8, #0 
    /*00000194*/ BEQ         HI_SVPRT_RUNTIME_LoadModelGroup_x58c
    /*00000198*/ LDR         R3, [SP, #12] 
    /*0000019c*/ CMP         R3, #0 
    /*000001a0*/ BEQ         HI_SVPRT_RUNTIME_LoadModelGroup_x1b8
    /*000001a4*/ LDR         R0, WORD_06c8               @ LDR         R0, [PC, #1308]             @ 0x00000000000006c8 
    /*000001a8*/ ADD         R0, PC, R0 
    /*000001ac*/ BL          pthread_mutex_lock
    /*000001b0*/ CMP         R0, #0 
    /*000001b4*/ BNE         HI_SVPRT_RUNTIME_LoadModelGroup_x61c
    HI_SVPRT_RUNTIME_LoadModelGroup_x1b8:
    /*000001b8*/ LDR         R3, WORD_06cc               @ LDR         R3, [PC, #1292]             @ 0x00000000000006cc 
    /*000001bc*/ MOV         R1, R8 
    /*000001c0*/ ADD         R0, SP, #44                 @ 0x2c 
    /*000001c4*/ ADD         R3, PC, R3 
    /*000001c8*/ LDR         FP, [R3, #12] 
    /*000001cc*/ BL          _ZN4hirt17ModelGroupSetting7getNameB5cxx11Ev
    /*000001d0*/ LDR         R3, WORD_06d0               @ LDR         R3, [PC, #1272]             @ 0x00000000000006d0 
    /*000001d4*/ ADD         R3, PC, R3 
    /*000001d8*/ ADD         R3, R3, #4 
    /*000001dc*/ CMP         FP, R3 
    /*000001e0*/ BEQ         HI_SVPRT_RUNTIME_LoadModelGroup_x2a0
    /*000001e4*/ LDR         R5, WORD_06d4               @ LDR         R5, [PC, #1256]             @ 0x00000000000006d4 
    /*000001e8*/ LDR         R4, [SP, #48]               @ 0x30 
    /*000001ec*/ ADD         R5, PC, R5 
    /*000001f0*/ LDR         R7, [SP, #44]               @ 0x2c 
    /*000001f4*/ ADD         R5, R5, #4 
    /*000001f8*/ B           HI_SVPRT_RUNTIME_LoadModelGroup_x210
    HI_SVPRT_RUNTIME_LoadModelGroup_x1fc:
    /*000001fc*/ MOV         R0, FP 
    /*00000200*/ BL          _ZSt18_Rb_tree_incrementPKSt18_Rb_tree_node_base
    /*00000204*/ CMP         R0, R5 
    /*00000208*/ MOV         FP, R0 
    /*0000020c*/ BEQ         HI_SVPRT_RUNTIME_LoadModelGroup_x2a4
    HI_SVPRT_RUNTIME_LoadModelGroup_x210:
    /*00000210*/ LDR         R3, [FP, #20] 
    /*00000214*/ CMP         R3, R4 
    /*00000218*/ BNE         HI_SVPRT_RUNTIME_LoadModelGroup_x1fc
    /*0000021c*/ CMP         R4, #0 
    /*00000220*/ BNE         HI_SVPRT_RUNTIME_LoadModelGroup_x284
    HI_SVPRT_RUNTIME_LoadModelGroup_x224:
    /*00000224*/ ADD         R2, SP, #52                 @ 0x34 
    /*00000228*/ CMP         R7, R2 
    /*0000022c*/ BNE         HI_SVPRT_RUNTIME_LoadModelGroup_x2bc
    /*00000230*/ B           HI_SVPRT_RUNTIME_LoadModelGroup_x2d8
    HI_SVPRT_RUNTIME_LoadModelGroup_x234:
    /*00000234*/ LDR         R3, WORD_06d8               @ LDR         R3, [PC, #1180]             @ 0x00000000000006d8 
    /*00000238*/ ADD         R3, PC, R3 
    /*0000023c*/ LDR         R3, [R3] 
    /*00000240*/ CMP         R3, #0 
    /*00000244*/ BNE         HI_SVPRT_RUNTIME_LoadModelGroup_xac
    HI_SVPRT_RUNTIME_LoadModelGroup_x248:
    /*00000248*/ LDR         R2, WORD_06dc               @ LDR         R2, [PC, #1164]             @ 0x00000000000006dc 
    /*0000024c*/ MOV         R1, #4 
    /*00000250*/ LDR         R0, WORD_06e0               @ LDR         R0, [PC, #1160]             @ 0x00000000000006e0 
    /*00000254*/ ADD         R2, PC, R2 
    /*00000258*/ ADD         R0, PC, R0 
    /*0000025c*/ BL          _Z15HIRT_LOG_PrintfPKc19tagHIRT_LOG_LEVEL_ES0_z
    /*00000260*/ LDR         R3, [SP, #12] 
    /*00000264*/ CMP         R3, #0 
    /*00000268*/ BEQ         HI_SVPRT_RUNTIME_LoadModelGroup_x358
    /*0000026c*/ LDR         R0, WORD_06e4               @ LDR         R0, [PC, #1136]             @ 0x00000000000006e4 
    /*00000270*/ MOVW        R4, #3841                   @ 0xf01 
    /*00000274*/ MOVT        R4, #65280                  @ 0xff00 
    /*00000278*/ ADD         R0, PC, R0 
    /*0000027c*/ BL          pthread_mutex_unlock
    /*00000280*/ B           HI_SVPRT_RUNTIME_LoadModelGroup_x338
    HI_SVPRT_RUNTIME_LoadModelGroup_x284:
    /*00000284*/ LDR         R0, [FP, #16] 
    /*00000288*/ MOV         R2, R4 
    /*0000028c*/ MOV         R1, R7 
    /*00000290*/ BL          memcmp
    /*00000294*/ CMP         R0, #0 
    /*00000298*/ BNE         HI_SVPRT_RUNTIME_LoadModelGroup_x1fc
    /*0000029c*/ B           HI_SVPRT_RUNTIME_LoadModelGroup_x224
    HI_SVPRT_RUNTIME_LoadModelGroup_x2a0:
    /*000002a0*/ LDR         R7, [SP, #44]               @ 0x2c 
    HI_SVPRT_RUNTIME_LoadModelGroup_x2a4:
    /*000002a4*/ ADD         R3, SP, #52                 @ 0x34 
    /*000002a8*/ CMP         R7, R3 
    /*000002ac*/ BEQ         HI_SVPRT_RUNTIME_LoadModelGroup_x388
    /*000002b0*/ LDR         R3, WORD_06e8               @ LDR         R3, [PC, #1072]             @ 0x00000000000006e8 
    /*000002b4*/ ADD         R3, PC, R3 
    /*000002b8*/ ADD         FP, R3, #4 
    HI_SVPRT_RUNTIME_LoadModelGroup_x2bc:
    /*000002bc*/ MOV         R0, R7 
    /*000002c0*/ BL          _ZdlPv
    /*000002c4*/ LDR         R2, WORD_06ec               @ LDR         R2, [PC, #1056]             @ 0x00000000000006ec 
    /*000002c8*/ ADD         R2, PC, R2 
    /*000002cc*/ ADD         R2, R2, #4 
    /*000002d0*/ CMP         FP, R2 
    /*000002d4*/ BEQ         HI_SVPRT_RUNTIME_LoadModelGroup_x388
    HI_SVPRT_RUNTIME_LoadModelGroup_x2d8:
    /*000002d8*/ MOV         R0, SL 
    /*000002dc*/ MOV         R1, R8 
    /*000002e0*/ BL          _ZN4hirt17ModelGroupSetting7getNameB5cxx11Ev
    /*000002e4*/ LDR         R2, WORD_06f0               @ LDR         R2, [PC, #1028]             @ 0x00000000000006f0 
    /*000002e8*/ MOV         R1, #4 
    /*000002ec*/ LDR         R0, WORD_06f4               @ LDR         R0, [PC, #1024]             @ 0x00000000000006f4 
    /*000002f0*/ LDR         R3, [SP, #68]               @ 0x44 
    /*000002f4*/ ADD         R2, PC, R2 
    /*000002f8*/ ADD         R0, PC, R0 
    /*000002fc*/ BL          _Z15HIRT_LOG_PrintfPKc19tagHIRT_LOG_LEVEL_ES0_z
    /*00000300*/ LDR         R0, [SP, #68]               @ 0x44 
    /*00000304*/ CMP         R0, R9 
    /*00000308*/ BEQ         HI_SVPRT_RUNTIME_LoadModelGroup_x310
    /*0000030c*/ BL          _ZdlPv
    HI_SVPRT_RUNTIME_LoadModelGroup_x310:
    /*00000310*/ LDR         R3, [SP, #12] 
    /*00000314*/ CMP         R3, #0 
    /*00000318*/ MVNEQ       R4, #0 
    /*0000031c*/ BEQ         HI_SVPRT_RUNTIME_LoadModelGroup_x330
    /*00000320*/ LDR         R0, WORD_06f8               @ LDR         R0, [PC, #976]              @ 0x00000000000006f8 
    /*00000324*/ MVN         R4, #0 
    /*00000328*/ ADD         R0, PC, R0 
    /*0000032c*/ BL          pthread_mutex_unlock
    HI_SVPRT_RUNTIME_LoadModelGroup_x330:
    /*00000330*/ MOV         R0, R8 
    /*00000334*/ BL          _ZN4hirt17ModelGroupSetting24destroyModelGroupSettingEPS0_
    HI_SVPRT_RUNTIME_LoadModelGroup_x338:
    /*00000338*/ LDR         R3, [SP, #16] 
    /*0000033c*/ MOV         R0, R4 
    /*00000340*/ LDR         R2, [SP, #92]               @ 0x5c 
    /*00000344*/ LDR         R3, [R3] 
    /*00000348*/ CMP         R2, R3 
    /*0000034c*/ BNE         HI_SVPRT_RUNTIME_LoadModelGroup_x620
    /*00000350*/ ADD         SP, SP, #100                @ 0x64 
    /*00000354*/ POP         {R4, R5, R6, R7, R8, R9, SL, FP, PC} 
    HI_SVPRT_RUNTIME_LoadModelGroup_x358:
    /*00000358*/ MOVW        R4, #3841                   @ 0xf01 
    /*0000035c*/ MOVT        R4, #65280                  @ 0xff00 
    /*00000360*/ B           HI_SVPRT_RUNTIME_LoadModelGroup_x338
    HI_SVPRT_RUNTIME_LoadModelGroup_x364:
    /*00000364*/ LDR         R2, WORD_06fc               @ LDR         R2, [PC, #912]              @ 0x00000000000006fc 
    /*00000368*/ MVN         R4, #0 
    /*0000036c*/ LDR         R0, WORD_0700               @ LDR         R0, [PC, #908]              @ 0x0000000000000700 
    /*00000370*/ STR         R1, [SP] 
    /*00000374*/ MOV         R1, #4 
    /*00000378*/ ADD         R2, PC, R2 
    /*0000037c*/ ADD         R0, PC, R0 
    /*00000380*/ BL          _Z15HIRT_LOG_PrintfPKc19tagHIRT_LOG_LEVEL_ES0_z
    /*00000384*/ B           HI_SVPRT_RUNTIME_LoadModelGroup_x338
    HI_SVPRT_RUNTIME_LoadModelGroup_x388:
    /*00000388*/ LDR         R3, [SP, #12] 
    /*0000038c*/ CMP         R3, #0 
    /*00000390*/ BEQ         HI_SVPRT_RUNTIME_LoadModelGroup_x3a0
    /*00000394*/ LDR         R0, WORD_0704               @ LDR         R0, [PC, #872]              @ 0x0000000000000704 
    /*00000398*/ ADD         R0, PC, R0 
    /*0000039c*/ BL          pthread_mutex_unlock
    HI_SVPRT_RUNTIME_LoadModelGroup_x3a0:
    /*000003a0*/ MOV         R1, R6 
    /*000003a4*/ ADD         R2, SP, #24 
    /*000003a8*/ MOV         R0, R8 
    /*000003ac*/ BL          _ZN4hirt17ModelGroupSetting19createGroupPrivInfoEP22hiRUNTIME_GROUP_INFO_SPP22HIRT_GROUP_PRIV_INFO_S
    /*000003b0*/ SUBS        R4, R0, #0 
    /*000003b4*/ BEQ         HI_SVPRT_RUNTIME_LoadModelGroup_x418
    /*000003b8*/ LDR         R2, WORD_0708               @ LDR         R2, [PC, #840]              @ 0x0000000000000708 
    /*000003bc*/ MOV         R1, #4 
    /*000003c0*/ LDR         R0, WORD_070c               @ LDR         R0, [PC, #836]              @ 0x000000000000070c 
    /*000003c4*/ ADD         R2, PC, R2 
    /*000003c8*/ ADD         R0, PC, R0 
    /*000003cc*/ BL          _Z15HIRT_LOG_PrintfPKc19tagHIRT_LOG_LEVEL_ES0_z
    /*000003d0*/ B           HI_SVPRT_RUNTIME_LoadModelGroup_x330
    HI_SVPRT_RUNTIME_LoadModelGroup_x3d4:
    /*000003d4*/ MOV         R2, #0 
    /*000003d8*/ ADD         R1, SP, #36                 @ 0x24 
    /*000003dc*/ MOV         R0, SL 
    /*000003e0*/ BL          _ZNSt7__cxx1112basic_stringIcSt11char_traitsIcESaIcEE9_M_createERjj
    /*000003e4*/ LDR         R3, [SP, #36]               @ 0x24 
    /*000003e8*/ STR         R0, [SP, #68]               @ 0x44 
    /*000003ec*/ STR         R3, [SP, #76]               @ 0x4c 
    HI_SVPRT_RUNTIME_LoadModelGroup_x3f0:
    /*000003f0*/ MOV         R2, R5 
    /*000003f4*/ MOV         R1, R4 
    /*000003f8*/ BL          memcpy
    /*000003fc*/ LDR         R5, [SP, #36]               @ 0x24 
    /*00000400*/ LDR         R3, [SP, #68]               @ 0x44 
    /*00000404*/ B           HI_SVPRT_RUNTIME_LoadModelGroup_x168
    HI_SVPRT_RUNTIME_LoadModelGroup_x408:
    /*00000408*/ LDRB        R2, [R4] 
    /*0000040c*/ MOV         R3, R9 
    /*00000410*/ STRB        R2, [SP, #76]               @ 0x4c 
    /*00000414*/ B           HI_SVPRT_RUNTIME_LoadModelGroup_x168
    HI_SVPRT_RUNTIME_LoadModelGroup_x418:
    /*00000418*/ BL          _ZN4hirt17ModelGroupManager11getInstanceEv
    /*0000041c*/ LDR         R1, [SP, #24] 
    /*00000420*/ BL          _ZN4hirt17ModelGroupManager8addGroupEPv
    /*00000424*/ SUBS        R4, R0, #0 
    /*00000428*/ BNE         HI_SVPRT_RUNTIME_LoadModelGroup_x4c4
    /*0000042c*/ LDR         R2, [SP, #12] 
    /*00000430*/ LDR         R3, [SP, #24] 
    /*00000434*/ CMP         R2, #0 
    /*00000438*/ LDR         R2, [SP, #20] 
    /*0000043c*/ STR         R3, [R2] 
    /*00000440*/ BEQ         HI_SVPRT_RUNTIME_LoadModelGroup_x458
    /*00000444*/ LDR         R0, WORD_0710               @ LDR         R0, [PC, #708]              @ 0x0000000000000710 
    /*00000448*/ ADD         R0, PC, R0 
    /*0000044c*/ BL          pthread_mutex_lock
    /*00000450*/ CMP         R0, #0 
    /*00000454*/ BNE         HI_SVPRT_RUNTIME_LoadModelGroup_x61c
    HI_SVPRT_RUNTIME_LoadModelGroup_x458:
    /*00000458*/ MOV         R1, R8 
    /*0000045c*/ MOV         R0, SL 
    /*00000460*/ BL          _ZN4hirt17ModelGroupSetting7getNameB5cxx11Ev
    /*00000464*/ LDR         R1, WORD_0714               @ LDR         R1, [PC, #680]              @ 0x0000000000000714 
    /*00000468*/ MOV         R2, SL 
    /*0000046c*/ ADD         R0, SP, #28 
    /*00000470*/ ADD         R1, PC, R1 
    /*00000474*/ BL          _ZNSt8_Rb_treeINSt7__cxx1112basic_stringIcSt11char_traitsIcESaIcEEES5_St9_IdentityIS5_ESt4lessIS5_ESaIS5_EE16_M_insert_uniqueIS5_EESt4pairISt17_Rb_tree_iteratorIS5_EbEOT_
    /*00000478*/ LDR         R0, [SP, #68]               @ 0x44 
    /*0000047c*/ CMP         R0, R9 
    /*00000480*/ BEQ         HI_SVPRT_RUNTIME_LoadModelGroup_x488
    /*00000484*/ BL          _ZdlPv
    HI_SVPRT_RUNTIME_LoadModelGroup_x488:
    /*00000488*/ LDR         R1, WORD_0718               @ LDR         R1, [PC, #648]              @ 0x0000000000000718 
    /*0000048c*/ ADD         R0, SP, #36                 @ 0x24 
    /*00000490*/ LDR         R2, [SP, #20] 
    /*00000494*/ ADD         R1, PC, R1 
    /*00000498*/ BL          _ZNSt8_Rb_treeIPvS0_St9_IdentityIS0_ESt4lessIS0_ESaIS0_EE16_M_insert_uniqueIRKS0_EESt4pairISt17_Rb_tree_iteratorIS0_EbEOT_
    /*0000049c*/ LDR         R3, [SP, #12] 
    /*000004a0*/ CMP         R3, #0 
    /*000004a4*/ BEQ         HI_SVPRT_RUNTIME_LoadModelGroup_x4b4
    /*000004a8*/ LDR         R0, WORD_071c               @ LDR         R0, [PC, #620]              @ 0x000000000000071c 
    /*000004ac*/ ADD         R0, PC, R0 
    /*000004b0*/ BL          pthread_mutex_unlock
    HI_SVPRT_RUNTIME_LoadModelGroup_x4b4:
    /*000004b4*/ MOV         R0, R8 
    /*000004b8*/ MOV         R4, #0 
    /*000004bc*/ BL          _ZN4hirt17ModelGroupSetting24destroyModelGroupSettingEPS0_
    /*000004c0*/ B           HI_SVPRT_RUNTIME_LoadModelGroup_x338
    HI_SVPRT_RUNTIME_LoadModelGroup_x4c4:
    /*000004c4*/ LDR         R2, WORD_0720               @ LDR         R2, [PC, #596]              @ 0x0000000000000720 
    /*000004c8*/ MOV         R1, #4 
    /*000004cc*/ LDR         R0, WORD_0724               @ LDR         R0, [PC, #592]              @ 0x0000000000000724 
    /*000004d0*/ ADD         R2, PC, R2 
    /*000004d4*/ ADD         R0, PC, R0 
    /*000004d8*/ BL          _Z15HIRT_LOG_PrintfPKc19tagHIRT_LOG_LEVEL_ES0_z
    /*000004dc*/ LDR         R0, [SP, #24] 
    /*000004e0*/ BL          _ZN4hirt17ModelGroupSetting20destroyGroupPrivInfoEP22HIRT_GROUP_PRIV_INFO_S
    /*000004e4*/ B           HI_SVPRT_RUNTIME_LoadModelGroup_x330
    HI_SVPRT_RUNTIME_LoadModelGroup_x4e8:
    /*000004e8*/ LDR         R2, WORD_0728               @ LDR         R2, [PC, #568]              @ 0x0000000000000728 
    /*000004ec*/ MOV         R1, #4 
    /*000004f0*/ LDR         R0, WORD_072c               @ LDR         R0, [PC, #564]              @ 0x000000000000072c 
    /*000004f4*/ MOVW        R4, #3843                   @ 0xf03 
    /*000004f8*/ ADD         R2, PC, R2 
    /*000004fc*/ ADD         R0, PC, R0 
    /*00000500*/ MOVT        R4, #65280                  @ 0xff00 
    /*00000504*/ BL          _Z15HIRT_LOG_PrintfPKc19tagHIRT_LOG_LEVEL_ES0_z
    /*00000508*/ B           HI_SVPRT_RUNTIME_LoadModelGroup_x338
    HI_SVPRT_RUNTIME_LoadModelGroup_x50c:
    /*0000050c*/ LDR         R2, WORD_0730               @ LDR         R2, [PC, #540]              @ 0x0000000000000730 
    /*00000510*/ MOV         R3, R0 
    /*00000514*/ LDR         R0, WORD_0734               @ LDR         R0, [PC, #536]              @ 0x0000000000000734 
    /*00000518*/ MOV         R1, #4 
    /*0000051c*/ ADD         R2, PC, R2 
    /*00000520*/ MOVW        R4, #3844                   @ 0xf04 
    /*00000524*/ ADD         R0, PC, R0 
    /*00000528*/ MOVT        R4, #65280                  @ 0xff00 
    /*0000052c*/ BL          _Z15HIRT_LOG_PrintfPKc19tagHIRT_LOG_LEVEL_ES0_z
    /*00000530*/ B           HI_SVPRT_RUNTIME_LoadModelGroup_x338
    HI_SVPRT_RUNTIME_LoadModelGroup_x534:
    /*00000534*/ LDR         R2, WORD_0738               @ LDR         R2, [PC, #508]              @ 0x0000000000000738 
    /*00000538*/ MOV         R3, IP 
    /*0000053c*/ LDR         R0, WORD_073c               @ LDR         R0, [PC, #504]              @ 0x000000000000073c 
    /*00000540*/ MOV         R1, #4 
    /*00000544*/ ADD         R2, PC, R2 
    /*00000548*/ MOVW        R4, #3844                   @ 0xf04 
    /*0000054c*/ ADD         R0, PC, R0 
    /*00000550*/ MOVT        R4, #65280                  @ 0xff00 
    /*00000554*/ BL          _Z15HIRT_LOG_PrintfPKc19tagHIRT_LOG_LEVEL_ES0_z
    /*00000558*/ B           HI_SVPRT_RUNTIME_LoadModelGroup_x338
    HI_SVPRT_RUNTIME_LoadModelGroup_x55c:
    /*0000055c*/ LDR         R2, WORD_0740               @ LDR         R2, [PC, #476]              @ 0x0000000000000740 
    /*00000560*/ MOV         R3, LR 
    /*00000564*/ LDR         R0, WORD_0744               @ LDR         R0, [PC, #472]              @ 0x0000000000000744 
    /*00000568*/ MOV         R1, #4 
    /*0000056c*/ ADD         R2, PC, R2 
    /*00000570*/ MOVW        R4, #3844                   @ 0xf04 
    /*00000574*/ ADD         R0, PC, R0 
    /*00000578*/ MOVT        R4, #65280                  @ 0xff00 
    /*0000057c*/ BL          _Z15HIRT_LOG_PrintfPKc19tagHIRT_LOG_LEVEL_ES0_z
    /*00000580*/ B           HI_SVPRT_RUNTIME_LoadModelGroup_x338
    HI_SVPRT_RUNTIME_LoadModelGroup_x584:
    /*00000584*/ MOV         R0, R9 
    /*00000588*/ B           HI_SVPRT_RUNTIME_LoadModelGroup_x3f0
    HI_SVPRT_RUNTIME_LoadModelGroup_x58c:
    /*0000058c*/ LDR         R2, WORD_0748               @ LDR         R2, [PC, #436]              @ 0x0000000000000748 
    /*00000590*/ MOV         R1, #4 
    /*00000594*/ LDR         R0, WORD_074c               @ LDR         R0, [PC, #432]              @ 0x000000000000074c 
    /*00000598*/ MOVW        R4, #3844                   @ 0xf04 
    /*0000059c*/ ADD         R2, PC, R2 
    /*000005a0*/ ADD         R0, PC, R0 
    /*000005a4*/ MOVT        R4, #65280                  @ 0xff00 
    /*000005a8*/ BL          _Z15HIRT_LOG_PrintfPKc19tagHIRT_LOG_LEVEL_ES0_z
    /*000005ac*/ B           HI_SVPRT_RUNTIME_LoadModelGroup_x338
    HI_SVPRT_RUNTIME_LoadModelGroup_x5b0:
    /*000005b0*/ LDR         R2, WORD_0750               @ LDR         R2, [PC, #408]              @ 0x0000000000000750 
    /*000005b4*/ MOV         R1, #4 
    /*000005b8*/ LDR         R0, WORD_0754               @ LDR         R0, [PC, #404]              @ 0x0000000000000754 
    /*000005bc*/ MOVW        R4, #3844                   @ 0xf04 
    /*000005c0*/ ADD         R2, PC, R2 
    /*000005c4*/ ADD         R0, PC, R0 
    /*000005c8*/ MOVT        R4, #65280                  @ 0xff00 
    /*000005cc*/ BL          _Z15HIRT_LOG_PrintfPKc19tagHIRT_LOG_LEVEL_ES0_z
    /*000005d0*/ B           HI_SVPRT_RUNTIME_LoadModelGroup_x338
    HI_SVPRT_RUNTIME_LoadModelGroup_x5d4:
    /*000005d4*/ LDR         R2, WORD_0758               @ LDR         R2, [PC, #380]              @ 0x0000000000000758 
    /*000005d8*/ MOV         R1, #4 
    /*000005dc*/ LDR         R0, WORD_075c               @ LDR         R0, [PC, #376]              @ 0x000000000000075c 
    /*000005e0*/ MOVW        R4, #3844                   @ 0xf04 
    /*000005e4*/ ADD         R2, PC, R2 
    /*000005e8*/ ADD         R0, PC, R0 
    /*000005ec*/ MOVT        R4, #65280                  @ 0xff00 
    /*000005f0*/ BL          _Z15HIRT_LOG_PrintfPKc19tagHIRT_LOG_LEVEL_ES0_z
    /*000005f4*/ B           HI_SVPRT_RUNTIME_LoadModelGroup_x338
    HI_SVPRT_RUNTIME_LoadModelGroup_x5f8:
    /*000005f8*/ LDR         R2, WORD_0760               @ LDR         R2, [PC, #352]              @ 0x0000000000000760 
    /*000005fc*/ MOV         R1, #4 
    /*00000600*/ LDR         R0, WORD_0764               @ LDR         R0, [PC, #348]              @ 0x0000000000000764 
    /*00000604*/ MOVW        R4, #3844                   @ 0xf04 
    /*00000608*/ ADD         R2, PC, R2 
    /*0000060c*/ ADD         R0, PC, R0 
    /*00000610*/ MOVT        R4, #65280                  @ 0xff00 
    /*00000614*/ BL          _Z15HIRT_LOG_PrintfPKc19tagHIRT_LOG_LEVEL_ES0_z
    /*00000618*/ B           HI_SVPRT_RUNTIME_LoadModelGroup_x338
    HI_SVPRT_RUNTIME_LoadModelGroup_x61c:
    /*0000061c*/ BL          _ZSt20__throw_system_errori
    HI_SVPRT_RUNTIME_LoadModelGroup_x620:
    /*00000620*/ BL          __stack_chk_fail
    /*00000624*/ LDR         R0, [SP, #68]               @ 0x44 
    /*00000628*/ CMP         R0, R9 
    /*0000062c*/ BEQ         HI_SVPRT_RUNTIME_LoadModelGroup_x634
    /*00000630*/ BL          _ZdlPv
    HI_SVPRT_RUNTIME_LoadModelGroup_x634:
    /*00000634*/ LDR         R3, [SP, #12] 
    /*00000638*/ CMP         R3, #0 
    /*0000063c*/ BEQ         HI_SVPRT_RUNTIME_LoadModelGroup_x64c
    /*00000640*/ LDR         R0, WORD_0768               @ LDR         R0, [PC, #288]              @ 0x0000000000000768 
    /*00000644*/ ADD         R0, PC, R0 
    /*00000648*/ BL          pthread_mutex_unlock
    HI_SVPRT_RUNTIME_LoadModelGroup_x64c:
    /*0000064c*/ BL          __cxa_end_cleanup
    /*00000650*/ LDR         R0, [SP, #68]               @ 0x44 
    /*00000654*/ CMP         R0, R9 
    /*00000658*/ BEQ         HI_SVPRT_RUNTIME_LoadModelGroup_x64c
    /*0000065c*/ BL          _ZdlPv
    /*00000660*/ B           HI_SVPRT_RUNTIME_LoadModelGroup_x64c
    /*00000664*/ LDR         R0, [SP, #68]               @ 0x44 
    /*00000668*/ CMP         R0, R9 
    /*0000066c*/ BEQ         HI_SVPRT_RUNTIME_LoadModelGroup_x674
    /*00000670*/ BL          _ZdlPv
    HI_SVPRT_RUNTIME_LoadModelGroup_x674:
    /*00000674*/ LDR         R3, [SP, #12] 
    /*00000678*/ CMP         R3, #0 
    /*0000067c*/ BEQ         HI_SVPRT_RUNTIME_LoadModelGroup_x64c
    /*00000680*/ LDR         R0, WORD_076c               @ LDR         R0, [PC, #228]              @ 0x000000000000076c 
    /*00000684*/ ADD         R0, PC, R0 
    /*00000688*/ BL          pthread_mutex_unlock
    /*0000068c*/ B           HI_SVPRT_RUNTIME_LoadModelGroup_x64c
    /*00000690*/ B           HI_SVPRT_RUNTIME_LoadModelGroup_x674
    /*00000694*/ B           HI_SVPRT_RUNTIME_LoadModelGroup_x634
    /*00000698*/ LDR         R3, [SP, #12] 
    /*0000069c*/ CMP         R3, #0 
    /*000006a0*/ BEQ         HI_SVPRT_RUNTIME_LoadModelGroup_x64c
    /*000006a4*/ LDR         R0, WORD_0770               @ LDR         R0, [PC, #196]              @ 0x0000000000000770 
    /*000006a8*/ ADD         R0, PC, R0 
    /*000006ac*/ BL          pthread_mutex_unlock
    /*000006b0*/ B           HI_SVPRT_RUNTIME_LoadModelGroup_x64c
    /*000006b4*/ WORD_06b4: .word 0x00000684
    /*000006b8*/ WORD_06b8: .word 0x00000000
    /*000006bc*/ WORD_06bc: .word 0x00000000
    /*000006c0*/ WORD_06c0: .word 0x0000063c
    /*000006c4*/ WORD_06c4: .word 0x00000628
    /*000006c8*/ WORD_06c8: .word 0x00000518
    /*000006cc*/ WORD_06cc: .word 0x00000500
    /*000006d0*/ WORD_06d0: .word 0x000004f4
    /*000006d4*/ WORD_06d4: .word 0x000004e0
    /*000006d8*/ WORD_06d8: .word 0x00000498
    /*000006dc*/ WORD_06dc: .word 0x00000480
    /*000006e0*/ WORD_06e0: .word 0x00000480
    /*000006e4*/ WORD_06e4: .word 0x00000464
    /*000006e8*/ WORD_06e8: .word 0x0000042c
    /*000006ec*/ WORD_06ec: .word 0x0000041c
    /*000006f0*/ WORD_06f0: .word 0x000003f4
    /*000006f4*/ WORD_06f4: .word 0x000003f4
    /*000006f8*/ WORD_06f8: .word 0x000003c8
    /*000006fc*/ WORD_06fc: .word 0x0000037c
    /*00000700*/ WORD_0700: .word 0x0000037c
    /*00000704*/ WORD_0704: .word 0x00000364
    /*00000708*/ WORD_0708: .word 0x0000033c
    /*0000070c*/ WORD_070c: .word 0x0000033c
    /*00000710*/ WORD_0710: .word 0x000002c0
    /*00000714*/ WORD_0714: .word 0x0000029c
    /*00000718*/ WORD_0718: .word 0x0000027c
    /*0000071c*/ WORD_071c: .word 0x00000268
    /*00000720*/ WORD_0720: .word 0x00000248
    /*00000724*/ WORD_0724: .word 0x00000248
    /*00000728*/ WORD_0728: .word 0x00000228
    /*0000072c*/ WORD_072c: .word 0x00000228
    /*00000730*/ WORD_0730: .word 0x0000020c
    /*00000734*/ WORD_0734: .word 0x00000208
    /*00000738*/ WORD_0738: .word 0x000001ec
    /*0000073c*/ WORD_073c: .word 0x000001e8
    /*00000740*/ WORD_0740: .word 0x000001cc
    /*00000744*/ WORD_0744: .word 0x000001c8
    /*00000748*/ WORD_0748: .word 0x000001a4
    /*0000074c*/ WORD_074c: .word 0x000001a4
    /*00000750*/ WORD_0750: .word 0x00000188
    /*00000754*/ WORD_0754: .word 0x00000188
    /*00000758*/ WORD_0758: .word 0x0000016c
    /*0000075c*/ WORD_075c: .word 0x0000016c
    /*00000760*/ WORD_0760: .word 0x00000150
    /*00000764*/ WORD_0764: .word 0x00000150
    /*00000768*/ WORD_0768: .word 0x0000011c
    /*0000076c*/ WORD_076c: .word 0x000000e0
    /*00000770*/ WORD_0770: .word 0x000000c0
FUNC_END HI_SVPRT_RUNTIME_LoadModelGroup


@ - - - - - - - - - - - - - - - - - - - - - - - - - - - - - 
@ .ARM.extab.text.HI_SVPRT_RUNTIME_LoadModelGroup
@ Size: 0x48
@ - - - - - - - - - - - - - - - - - - - - - - - - - - - - - 

@ - - - - - - - - - - - - - - - - - - - - - - - - - - - - - 
@ .text._ZNSt8_Rb_treeIySt4pairIKy35hiRUNTIME_FORWARD_STATUS_CALLBACK_EESt10_Select1stIS3_ESt4lessIyESaIS3_EE8_M_eraseEPSt13_Rb_tree_nodeIS3_E
@ Size: 0x178
@ - - - - - - - - - - - - - - - - - - - - - - - - - - - - - 

FUNC_BEGIN _ZNSt8_Rb_treeIySt4pairIKy35hiRUNTIME_FORWARD_STATUS_CALLBACK_EESt10_Select1stIS3_ESt4lessIyESaIS3_EE8_M_eraseEPSt13_Rb_tree_nodeIS3_E
    /*00000000*/ MOV         IP, #16384                  @ 0x4000 
    /*00000004*/ PUSH        {R4, R5, R6, R7, R8, R9, SL, FP, LR} 
    /*00000008*/ SUB         IP, SP, IP 
    /*0000000c*/ STR         R0, [IP, #4040]             @ 0xfc8 
    /*00000010*/ SUB         SP, SP, #20 
    /*00000014*/ SUBS        R3, R1, #0 
    /*00000018*/ STR         R3, [SP, #12] 
    /*0000001c*/ BEQ         _ZNSt8_Rb_treeIySt4pairIKy35hiRUNTIME_FORWARD_STATUS_CALLBACK_EESt10_Select1stIS3_ESt4lessIyESaIS3_EE8_M_eraseEPSt13_Rb_tree_nodeIS3_E_x170
    /*00000020*/ MOV         R4, R0 
    _ZNSt8_Rb_treeIySt4pairIKy35hiRUNTIME_FORWARD_STATUS_CALLBACK_EESt10_Select1stIS3_ESt4lessIyESaIS3_EE8_M_eraseEPSt13_Rb_tree_nodeIS3_E_x24:
    /*00000024*/ LDR         R7, [R3, #12] 
    /*00000028*/ CMP         R7, #0 
    /*0000002c*/ STRNE       R7, [SP, #4] 
    /*00000030*/ MOVNE       R3, R7 
    /*00000034*/ BEQ         _ZNSt8_Rb_treeIySt4pairIKy35hiRUNTIME_FORWARD_STATUS_CALLBACK_EESt10_Select1stIS3_ESt4lessIyESaIS3_EE8_M_eraseEPSt13_Rb_tree_nodeIS3_E_x158
    _ZNSt8_Rb_treeIySt4pairIKy35hiRUNTIME_FORWARD_STATUS_CALLBACK_EESt10_Select1stIS3_ESt4lessIyESaIS3_EE8_M_eraseEPSt13_Rb_tree_nodeIS3_E_x38:
    /*00000038*/ LDR         R8, [R3, #12] 
    /*0000003c*/ CMP         R8, #0 
    /*00000040*/ STRNE       R8, [SP, #8] 
    /*00000044*/ MOVNE       R3, R8 
    /*00000048*/ BEQ         _ZNSt8_Rb_treeIySt4pairIKy35hiRUNTIME_FORWARD_STATUS_CALLBACK_EESt10_Select1stIS3_ESt4lessIyESaIS3_EE8_M_eraseEPSt13_Rb_tree_nodeIS3_E_x13c
    _ZNSt8_Rb_treeIySt4pairIKy35hiRUNTIME_FORWARD_STATUS_CALLBACK_EESt10_Select1stIS3_ESt4lessIyESaIS3_EE8_M_eraseEPSt13_Rb_tree_nodeIS3_E_x4c:
    /*0000004c*/ LDR         R9, [R3, #12] 
    /*00000050*/ CMP         R9, #0 
    /*00000054*/ BEQ         _ZNSt8_Rb_treeIySt4pairIKy35hiRUNTIME_FORWARD_STATUS_CALLBACK_EESt10_Select1stIS3_ESt4lessIyESaIS3_EE8_M_eraseEPSt13_Rb_tree_nodeIS3_E_x120
    _ZNSt8_Rb_treeIySt4pairIKy35hiRUNTIME_FORWARD_STATUS_CALLBACK_EESt10_Select1stIS3_ESt4lessIyESaIS3_EE8_M_eraseEPSt13_Rb_tree_nodeIS3_E_x58:
    /*00000058*/ LDR         SL, [R9, #12] 
    /*0000005c*/ CMP         SL, #0 
    /*00000060*/ BEQ         _ZNSt8_Rb_treeIySt4pairIKy35hiRUNTIME_FORWARD_STATUS_CALLBACK_EESt10_Select1stIS3_ESt4lessIyESaIS3_EE8_M_eraseEPSt13_Rb_tree_nodeIS3_E_x108
    _ZNSt8_Rb_treeIySt4pairIKy35hiRUNTIME_FORWARD_STATUS_CALLBACK_EESt10_Select1stIS3_ESt4lessIyESaIS3_EE8_M_eraseEPSt13_Rb_tree_nodeIS3_E_x64:
    /*00000064*/ LDR         FP, [SL, #12] 
    /*00000068*/ CMP         FP, #0 
    /*0000006c*/ BEQ         _ZNSt8_Rb_treeIySt4pairIKy35hiRUNTIME_FORWARD_STATUS_CALLBACK_EESt10_Select1stIS3_ESt4lessIyESaIS3_EE8_M_eraseEPSt13_Rb_tree_nodeIS3_E_xf4
    _ZNSt8_Rb_treeIySt4pairIKy35hiRUNTIME_FORWARD_STATUS_CALLBACK_EESt10_Select1stIS3_ESt4lessIyESaIS3_EE8_M_eraseEPSt13_Rb_tree_nodeIS3_E_x70:
    /*00000070*/ LDR         R6, [FP, #12] 
    /*00000074*/ CMP         R6, #0 
    /*00000078*/ BEQ         _ZNSt8_Rb_treeIySt4pairIKy35hiRUNTIME_FORWARD_STATUS_CALLBACK_EESt10_Select1stIS3_ESt4lessIyESaIS3_EE8_M_eraseEPSt13_Rb_tree_nodeIS3_E_xe0
    _ZNSt8_Rb_treeIySt4pairIKy35hiRUNTIME_FORWARD_STATUS_CALLBACK_EESt10_Select1stIS3_ESt4lessIyESaIS3_EE8_M_eraseEPSt13_Rb_tree_nodeIS3_E_x7c:
    /*0000007c*/ LDR         R5, [R6, #12] 
    /*00000080*/ CMP         R5, #0 
    /*00000084*/ BEQ         _ZNSt8_Rb_treeIySt4pairIKy35hiRUNTIME_FORWARD_STATUS_CALLBACK_EESt10_Select1stIS3_ESt4lessIyESaIS3_EE8_M_eraseEPSt13_Rb_tree_nodeIS3_E_xcc
    _ZNSt8_Rb_treeIySt4pairIKy35hiRUNTIME_FORWARD_STATUS_CALLBACK_EESt10_Select1stIS3_ESt4lessIyESaIS3_EE8_M_eraseEPSt13_Rb_tree_nodeIS3_E_x88:
    /*00000088*/ LDR         R3, [R5, #12] 
    /*0000008c*/ CMP         R3, #0 
    /*00000090*/ MOVNE       R7, R3 
    /*00000094*/ BEQ         _ZNSt8_Rb_treeIySt4pairIKy35hiRUNTIME_FORWARD_STATUS_CALLBACK_EESt10_Select1stIS3_ESt4lessIyESaIS3_EE8_M_eraseEPSt13_Rb_tree_nodeIS3_E_xb8
    _ZNSt8_Rb_treeIySt4pairIKy35hiRUNTIME_FORWARD_STATUS_CALLBACK_EESt10_Select1stIS3_ESt4lessIyESaIS3_EE8_M_eraseEPSt13_Rb_tree_nodeIS3_E_x98:
    /*00000098*/ LDR         R1, [R7, #12] 
    /*0000009c*/ MOV         R0, R4 
    /*000000a0*/ BL          _ZNSt8_Rb_treeIySt4pairIKy35hiRUNTIME_FORWARD_STATUS_CALLBACK_EESt10_Select1stIS3_ESt4lessIyESaIS3_EE8_M_eraseEPSt13_Rb_tree_nodeIS3_E
    /*000000a4*/ LDR         R8, [R7, #8] 
    /*000000a8*/ MOV         R0, R7 
    /*000000ac*/ BL          _ZdlPv
    /*000000b0*/ SUBS        R7, R8, #0 
    /*000000b4*/ BNE         _ZNSt8_Rb_treeIySt4pairIKy35hiRUNTIME_FORWARD_STATUS_CALLBACK_EESt10_Select1stIS3_ESt4lessIyESaIS3_EE8_M_eraseEPSt13_Rb_tree_nodeIS3_E_x98
    _ZNSt8_Rb_treeIySt4pairIKy35hiRUNTIME_FORWARD_STATUS_CALLBACK_EESt10_Select1stIS3_ESt4lessIyESaIS3_EE8_M_eraseEPSt13_Rb_tree_nodeIS3_E_xb8:
    /*000000b8*/ LDR         R7, [R5, #8] 
    /*000000bc*/ MOV         R0, R5 
    /*000000c0*/ BL          _ZdlPv
    /*000000c4*/ SUBS        R5, R7, #0 
    /*000000c8*/ BNE         _ZNSt8_Rb_treeIySt4pairIKy35hiRUNTIME_FORWARD_STATUS_CALLBACK_EESt10_Select1stIS3_ESt4lessIyESaIS3_EE8_M_eraseEPSt13_Rb_tree_nodeIS3_E_x88
    _ZNSt8_Rb_treeIySt4pairIKy35hiRUNTIME_FORWARD_STATUS_CALLBACK_EESt10_Select1stIS3_ESt4lessIyESaIS3_EE8_M_eraseEPSt13_Rb_tree_nodeIS3_E_xcc:
    /*000000cc*/ LDR         R5, [R6, #8] 
    /*000000d0*/ MOV         R0, R6 
    /*000000d4*/ BL          _ZdlPv
    /*000000d8*/ SUBS        R6, R5, #0 
    /*000000dc*/ BNE         _ZNSt8_Rb_treeIySt4pairIKy35hiRUNTIME_FORWARD_STATUS_CALLBACK_EESt10_Select1stIS3_ESt4lessIyESaIS3_EE8_M_eraseEPSt13_Rb_tree_nodeIS3_E_x7c
    _ZNSt8_Rb_treeIySt4pairIKy35hiRUNTIME_FORWARD_STATUS_CALLBACK_EESt10_Select1stIS3_ESt4lessIyESaIS3_EE8_M_eraseEPSt13_Rb_tree_nodeIS3_E_xe0:
    /*000000e0*/ LDR         R5, [FP, #8] 
    /*000000e4*/ MOV         R0, FP 
    /*000000e8*/ BL          _ZdlPv
    /*000000ec*/ SUBS        FP, R5, #0 
    /*000000f0*/ BNE         _ZNSt8_Rb_treeIySt4pairIKy35hiRUNTIME_FORWARD_STATUS_CALLBACK_EESt10_Select1stIS3_ESt4lessIyESaIS3_EE8_M_eraseEPSt13_Rb_tree_nodeIS3_E_x70
    _ZNSt8_Rb_treeIySt4pairIKy35hiRUNTIME_FORWARD_STATUS_CALLBACK_EESt10_Select1stIS3_ESt4lessIyESaIS3_EE8_M_eraseEPSt13_Rb_tree_nodeIS3_E_xf4:
    /*000000f4*/ LDR         R5, [SL, #8] 
    /*000000f8*/ MOV         R0, SL 
    /*000000fc*/ BL          _ZdlPv
    /*00000100*/ SUBS        SL, R5, #0 
    /*00000104*/ BNE         _ZNSt8_Rb_treeIySt4pairIKy35hiRUNTIME_FORWARD_STATUS_CALLBACK_EESt10_Select1stIS3_ESt4lessIyESaIS3_EE8_M_eraseEPSt13_Rb_tree_nodeIS3_E_x64
    _ZNSt8_Rb_treeIySt4pairIKy35hiRUNTIME_FORWARD_STATUS_CALLBACK_EESt10_Select1stIS3_ESt4lessIyESaIS3_EE8_M_eraseEPSt13_Rb_tree_nodeIS3_E_x108:
    /*00000108*/ LDR         R5, [R9, #8] 
    /*0000010c*/ MOV         R0, R9 
    /*00000110*/ BL          _ZdlPv
    /*00000114*/ SUBS        R9, R5, #0 
    /*00000118*/ BNE         _ZNSt8_Rb_treeIySt4pairIKy35hiRUNTIME_FORWARD_STATUS_CALLBACK_EESt10_Select1stIS3_ESt4lessIyESaIS3_EE8_M_eraseEPSt13_Rb_tree_nodeIS3_E_x58
    /*0000011c*/ LDR         R3, [SP, #8] 
    _ZNSt8_Rb_treeIySt4pairIKy35hiRUNTIME_FORWARD_STATUS_CALLBACK_EESt10_Select1stIS3_ESt4lessIyESaIS3_EE8_M_eraseEPSt13_Rb_tree_nodeIS3_E_x120:
    /*00000120*/ LDR         R5, [R3, #8] 
    /*00000124*/ MOV         R0, R3 
    /*00000128*/ BL          _ZdlPv
    /*0000012c*/ SUBS        R3, R5, #0 
    /*00000130*/ STR         R3, [SP, #8] 
    /*00000134*/ BNE         _ZNSt8_Rb_treeIySt4pairIKy35hiRUNTIME_FORWARD_STATUS_CALLBACK_EESt10_Select1stIS3_ESt4lessIyESaIS3_EE8_M_eraseEPSt13_Rb_tree_nodeIS3_E_x4c
    /*00000138*/ LDR         R3, [SP, #4] 
    _ZNSt8_Rb_treeIySt4pairIKy35hiRUNTIME_FORWARD_STATUS_CALLBACK_EESt10_Select1stIS3_ESt4lessIyESaIS3_EE8_M_eraseEPSt13_Rb_tree_nodeIS3_E_x13c:
    /*0000013c*/ LDR         R5, [R3, #8] 
    /*00000140*/ MOV         R0, R3 
    /*00000144*/ BL          _ZdlPv
    /*00000148*/ SUBS        R3, R5, #0 
    /*0000014c*/ STR         R3, [SP, #4] 
    /*00000150*/ BNE         _ZNSt8_Rb_treeIySt4pairIKy35hiRUNTIME_FORWARD_STATUS_CALLBACK_EESt10_Select1stIS3_ESt4lessIyESaIS3_EE8_M_eraseEPSt13_Rb_tree_nodeIS3_E_x38
    /*00000154*/ LDR         R3, [SP, #12] 
    _ZNSt8_Rb_treeIySt4pairIKy35hiRUNTIME_FORWARD_STATUS_CALLBACK_EESt10_Select1stIS3_ESt4lessIyESaIS3_EE8_M_eraseEPSt13_Rb_tree_nodeIS3_E_x158:
    /*00000158*/ LDR         R5, [R3, #8] 
    /*0000015c*/ MOV         R0, R3 
    /*00000160*/ BL          _ZdlPv
    /*00000164*/ SUBS        R3, R5, #0 
    /*00000168*/ STR         R3, [SP, #12] 
    /*0000016c*/ BNE         _ZNSt8_Rb_treeIySt4pairIKy35hiRUNTIME_FORWARD_STATUS_CALLBACK_EESt10_Select1stIS3_ESt4lessIyESaIS3_EE8_M_eraseEPSt13_Rb_tree_nodeIS3_E_x24
    _ZNSt8_Rb_treeIySt4pairIKy35hiRUNTIME_FORWARD_STATUS_CALLBACK_EESt10_Select1stIS3_ESt4lessIyESaIS3_EE8_M_eraseEPSt13_Rb_tree_nodeIS3_E_x170:
    /*00000170*/ ADD         SP, SP, #20 
    /*00000174*/ POP         {R4, R5, R6, R7, R8, R9, SL, FP, PC} 
FUNC_END _ZNSt8_Rb_treeIySt4pairIKy35hiRUNTIME_FORWARD_STATUS_CALLBACK_EESt10_Select1stIS3_ESt4lessIyESaIS3_EE8_M_eraseEPSt13_Rb_tree_nodeIS3_E


@ - - - - - - - - - - - - - - - - - - - - - - - - - - - - - 
@ .text._ZNSt8_Rb_treeIKPvSt4pairIS1_St3mapIy35hiRUNTIME_FORWARD_STATUS_CALLBACK_ESt4lessIyESaIS2_IKyS4_EEEESt10_Select1stISB_ES5_IS1_ESaISB_EE22_M_emplace_hint_uniqueIJRKSt21piecewise_construct_tSt5tupleIJRS1_EESL_IJEEEEESt17_Rb_tree_iteratorISB_ESt23_Rb_tree_const_iteratorISB_EDpOT_.isra.163
@ Size: 0x294
@ - - - - - - - - - - - - - - - - - - - - - - - - - - - - - 

FUNC_BEGIN _ZNSt8_Rb_treeIKPvSt4pairIS1_St3mapIy35hiRUNTIME_FORWARD_STATUS_CALLBACK_ESt4lessIyESaIS2_IKyS4_EEEESt10_Select1stISB_ES5_IS1_ESaISB_EE22_M_emplace_hint_uniqueIJRKSt21piecewise_construct_tSt5tupleIJRS1_EESL_IJEEEEESt17_Rb_tree_iteratorISB_ESt23_Rb_tree_const_iteratorISB_EDpOT_.isra.163
    /*00000000*/ MOV         IP, #16384                  @ 0x4000 
    /*00000004*/ PUSH        {R4, R5, R6, R7, R8, R9, LR} 
    /*00000008*/ SUB         IP, SP, IP 
    /*0000000c*/ STR         R0, [IP, #4056]             @ 0xfd8 
    /*00000010*/ MOV         R6, R2 
    /*00000014*/ MOV         R5, R0 
    /*00000018*/ SUB         SP, SP, #12 
    /*0000001c*/ MOV         R0, #44                     @ 0x2c 
    /*00000020*/ MOV         R8, R1 
    /*00000024*/ BL          _Znwj
    /*00000028*/ LDR         R3, [R6] 
    /*0000002c*/ ADD         R7, R5, #4 
    /*00000030*/ VMOV.I32    Q8, #0                      @ 0x00000000 
    /*00000034*/ LDR         R6, [R3] 
    /*00000038*/ MOV         R4, R0 
    /*0000003c*/ CMP         R8, R7 
    /*00000040*/ ADD         R3, R0, #24 
    /*00000044*/ STR         R6, [R4, #16] 
    /*00000048*/ MOV         R0, #0 
    /*0000004c*/ VST1.8      {D16-D17}, [R3] 
    /*00000050*/ STR         R3, [R4, #32] 
    /*00000054*/ STR         R3, [R4, #36]               @ 0x24 
    /*00000058*/ STR         R0, [R4, #40]               @ 0x28 
    /*0000005c*/ BEQ         _ZNSt8_Rb_treeIKPvSt4pairIS1_St3mapIy35hiRUNTIME_FORWARD_STATUS_CALLBACK_ESt4lessIyESaIS2_IKyS4_EEEESt10_Select1stISB_ES5_IS1_ESaISB_EE22_M_emplace_hint_uniqueIJRKSt21piecewise_construct_tSt5tupleIJRS1_EESL_IJEEEEESt17_Rb_tree_iteratorISB_ESt23_Rb_tree_const_iteratorISB_EDpOT_.isra.163_x150
    /*00000060*/ LDR         R3, [R8, #16] 
    /*00000064*/ CMP         R3, R6 
    /*00000068*/ BLS         _ZNSt8_Rb_treeIKPvSt4pairIS1_St3mapIy35hiRUNTIME_FORWARD_STATUS_CALLBACK_ESt4lessIyESaIS2_IKyS4_EEEESt10_Select1stISB_ES5_IS1_ESaISB_EE22_M_emplace_hint_uniqueIJRKSt21piecewise_construct_tSt5tupleIJRS1_EESL_IJEEEEESt17_Rb_tree_iteratorISB_ESt23_Rb_tree_const_iteratorISB_EDpOT_.isra.163_xf0
    /*0000006c*/ LDR         R9, [R5, #12] 
    /*00000070*/ CMP         R8, R9 
    /*00000074*/ BEQ         _ZNSt8_Rb_treeIKPvSt4pairIS1_St3mapIy35hiRUNTIME_FORWARD_STATUS_CALLBACK_ESt4lessIyESaIS2_IKyS4_EEEESt10_Select1stISB_ES5_IS1_ESaISB_EE22_M_emplace_hint_uniqueIJRKSt21piecewise_construct_tSt5tupleIJRS1_EESL_IJEEEEESt17_Rb_tree_iteratorISB_ESt23_Rb_tree_const_iteratorISB_EDpOT_.isra.163_x9c
    /*00000078*/ MOV         R0, R8 
    /*0000007c*/ BL          _ZSt18_Rb_tree_decrementPSt18_Rb_tree_node_base
    /*00000080*/ LDR         R3, [R0, #16] 
    /*00000084*/ MOV         R2, R0 
    /*00000088*/ CMP         R3, R6 
    /*0000008c*/ BCS         _ZNSt8_Rb_treeIKPvSt4pairIS1_St3mapIy35hiRUNTIME_FORWARD_STATUS_CALLBACK_ESt4lessIyESaIS2_IKyS4_EEEESt10_Select1stISB_ES5_IS1_ESaISB_EE22_M_emplace_hint_uniqueIJRKSt21piecewise_construct_tSt5tupleIJRS1_EESL_IJEEEEESt17_Rb_tree_iteratorISB_ESt23_Rb_tree_const_iteratorISB_EDpOT_.isra.163_x1d0
    /*00000090*/ LDR         R0, [R0, #12] 
    /*00000094*/ CMP         R0, #0 
    /*00000098*/ BEQ         _ZNSt8_Rb_treeIKPvSt4pairIS1_St3mapIy35hiRUNTIME_FORWARD_STATUS_CALLBACK_ESt4lessIyESaIS2_IKyS4_EEEESt10_Select1stISB_ES5_IS1_ESaISB_EE22_M_emplace_hint_uniqueIJRKSt21piecewise_construct_tSt5tupleIJRS1_EESL_IJEEEEESt17_Rb_tree_iteratorISB_ESt23_Rb_tree_const_iteratorISB_EDpOT_.isra.163_xa4
    _ZNSt8_Rb_treeIKPvSt4pairIS1_St3mapIy35hiRUNTIME_FORWARD_STATUS_CALLBACK_ESt4lessIyESaIS2_IKyS4_EEEESt10_Select1stISB_ES5_IS1_ESaISB_EE22_M_emplace_hint_uniqueIJRKSt21piecewise_construct_tSt5tupleIJRS1_EESL_IJEEEEESt17_Rb_tree_iteratorISB_ESt23_Rb_tree_const_iteratorISB_EDpOT_.isra.163_x9c:
    /*0000009c*/ MOV         R2, R8 
    /*000000a0*/ MOV         R0, R8 
    _ZNSt8_Rb_treeIKPvSt4pairIS1_St3mapIy35hiRUNTIME_FORWARD_STATUS_CALLBACK_ESt4lessIyESaIS2_IKyS4_EEEESt10_Select1stISB_ES5_IS1_ESaISB_EE22_M_emplace_hint_uniqueIJRKSt21piecewise_construct_tSt5tupleIJRS1_EESL_IJEEEEESt17_Rb_tree_iteratorISB_ESt23_Rb_tree_const_iteratorISB_EDpOT_.isra.163_xa4:
    /*000000a4*/ ADDS        R0, R0, #0 
    /*000000a8*/ MOVNE       R0, #1 
    /*000000ac*/ CMP         R7, R2 
    /*000000b0*/ ORREQ       R0, R0, #1 
    /*000000b4*/ CMP         R0, #0 
    /*000000b8*/ BNE         _ZNSt8_Rb_treeIKPvSt4pairIS1_St3mapIy35hiRUNTIME_FORWARD_STATUS_CALLBACK_ESt4lessIyESaIS2_IKyS4_EEEESt10_Select1stISB_ES5_IS1_ESaISB_EE22_M_emplace_hint_uniqueIJRKSt21piecewise_construct_tSt5tupleIJRS1_EESL_IJEEEEESt17_Rb_tree_iteratorISB_ESt23_Rb_tree_const_iteratorISB_EDpOT_.isra.163_xcc
    _ZNSt8_Rb_treeIKPvSt4pairIS1_St3mapIy35hiRUNTIME_FORWARD_STATUS_CALLBACK_ESt4lessIyESaIS2_IKyS4_EEEESt10_Select1stISB_ES5_IS1_ESaISB_EE22_M_emplace_hint_uniqueIJRKSt21piecewise_construct_tSt5tupleIJRS1_EESL_IJEEEEESt17_Rb_tree_iteratorISB_ESt23_Rb_tree_const_iteratorISB_EDpOT_.isra.163_xbc:
    /*000000bc*/ LDR         R0, [R2, #16] 
    /*000000c0*/ CMP         R6, R0 
    /*000000c4*/ MOVCS       R0, #0 
    /*000000c8*/ MOVCC       R0, #1 
    _ZNSt8_Rb_treeIKPvSt4pairIS1_St3mapIy35hiRUNTIME_FORWARD_STATUS_CALLBACK_ESt4lessIyESaIS2_IKyS4_EEEESt10_Select1stISB_ES5_IS1_ESaISB_EE22_M_emplace_hint_uniqueIJRKSt21piecewise_construct_tSt5tupleIJRS1_EESL_IJEEEEESt17_Rb_tree_iteratorISB_ESt23_Rb_tree_const_iteratorISB_EDpOT_.isra.163_xcc:
    /*000000cc*/ MOV         R3, R7 
    /*000000d0*/ MOV         R1, R4 
    /*000000d4*/ BL          _ZSt29_Rb_tree_insert_and_rebalancebPSt18_Rb_tree_node_baseS0_RS_
    /*000000d8*/ LDR         R3, [R5, #20] 
    /*000000dc*/ MOV         R0, R4 
    /*000000e0*/ ADD         R3, R3, #1 
    /*000000e4*/ STR         R3, [R5, #20] 
    /*000000e8*/ ADD         SP, SP, #12 
    /*000000ec*/ POP         {R4, R5, R6, R7, R8, R9, PC} 
    _ZNSt8_Rb_treeIKPvSt4pairIS1_St3mapIy35hiRUNTIME_FORWARD_STATUS_CALLBACK_ESt4lessIyESaIS2_IKyS4_EEEESt10_Select1stISB_ES5_IS1_ESaISB_EE22_M_emplace_hint_uniqueIJRKSt21piecewise_construct_tSt5tupleIJRS1_EESL_IJEEEEESt17_Rb_tree_iteratorISB_ESt23_Rb_tree_const_iteratorISB_EDpOT_.isra.163_xf0:
    /*000000f0*/ BCS         _ZNSt8_Rb_treeIKPvSt4pairIS1_St3mapIy35hiRUNTIME_FORWARD_STATUS_CALLBACK_ESt4lessIyESaIS2_IKyS4_EEEESt10_Select1stISB_ES5_IS1_ESaISB_EE22_M_emplace_hint_uniqueIJRKSt21piecewise_construct_tSt5tupleIJRS1_EESL_IJEEEEESt17_Rb_tree_iteratorISB_ESt23_Rb_tree_const_iteratorISB_EDpOT_.isra.163_x130
    /*000000f4*/ LDR         R3, [R5, #16] 
    /*000000f8*/ CMP         R8, R3 
    /*000000fc*/ BEQ         _ZNSt8_Rb_treeIKPvSt4pairIS1_St3mapIy35hiRUNTIME_FORWARD_STATUS_CALLBACK_ESt4lessIyESaIS2_IKyS4_EEEESt10_Select1stISB_ES5_IS1_ESaISB_EE22_M_emplace_hint_uniqueIJRKSt21piecewise_construct_tSt5tupleIJRS1_EESL_IJEEEEESt17_Rb_tree_iteratorISB_ESt23_Rb_tree_const_iteratorISB_EDpOT_.isra.163_x124
    /*00000100*/ MOV         R0, R8 
    /*00000104*/ BL          _ZSt18_Rb_tree_incrementPSt18_Rb_tree_node_base
    /*00000108*/ LDR         R3, [R0, #16] 
    /*0000010c*/ CMP         R3, R6 
    /*00000110*/ BLS         _ZNSt8_Rb_treeIKPvSt4pairIS1_St3mapIy35hiRUNTIME_FORWARD_STATUS_CALLBACK_ESt4lessIyESaIS2_IKyS4_EEEESt10_Select1stISB_ES5_IS1_ESaISB_EE22_M_emplace_hint_uniqueIJRKSt21piecewise_construct_tSt5tupleIJRS1_EESL_IJEEEEESt17_Rb_tree_iteratorISB_ESt23_Rb_tree_const_iteratorISB_EDpOT_.isra.163_x238
    /*00000114*/ LDR         R3, [R8, #12] 
    /*00000118*/ CMP         R3, #0 
    /*0000011c*/ MOVNE       R2, R0 
    /*00000120*/ BNE         _ZNSt8_Rb_treeIKPvSt4pairIS1_St3mapIy35hiRUNTIME_FORWARD_STATUS_CALLBACK_ESt4lessIyESaIS2_IKyS4_EEEESt10_Select1stISB_ES5_IS1_ESaISB_EE22_M_emplace_hint_uniqueIJRKSt21piecewise_construct_tSt5tupleIJRS1_EESL_IJEEEEESt17_Rb_tree_iteratorISB_ESt23_Rb_tree_const_iteratorISB_EDpOT_.isra.163_xa4
    _ZNSt8_Rb_treeIKPvSt4pairIS1_St3mapIy35hiRUNTIME_FORWARD_STATUS_CALLBACK_ESt4lessIyESaIS2_IKyS4_EEEESt10_Select1stISB_ES5_IS1_ESaISB_EE22_M_emplace_hint_uniqueIJRKSt21piecewise_construct_tSt5tupleIJRS1_EESL_IJEEEEESt17_Rb_tree_iteratorISB_ESt23_Rb_tree_const_iteratorISB_EDpOT_.isra.163_x124:
    /*00000124*/ MOV         R2, R8 
    /*00000128*/ B           _ZNSt8_Rb_treeIKPvSt4pairIS1_St3mapIy35hiRUNTIME_FORWARD_STATUS_CALLBACK_ESt4lessIyESaIS2_IKyS4_EEEESt10_Select1stISB_ES5_IS1_ESaISB_EE22_M_emplace_hint_uniqueIJRKSt21piecewise_construct_tSt5tupleIJRS1_EESL_IJEEEEESt17_Rb_tree_iteratorISB_ESt23_Rb_tree_const_iteratorISB_EDpOT_.isra.163_xbc
    _ZNSt8_Rb_treeIKPvSt4pairIS1_St3mapIy35hiRUNTIME_FORWARD_STATUS_CALLBACK_ESt4lessIyESaIS2_IKyS4_EEEESt10_Select1stISB_ES5_IS1_ESaISB_EE22_M_emplace_hint_uniqueIJRKSt21piecewise_construct_tSt5tupleIJRS1_EESL_IJEEEEESt17_Rb_tree_iteratorISB_ESt23_Rb_tree_const_iteratorISB_EDpOT_.isra.163_x12c:
    /*0000012c*/ MOV         R8, R2 
    _ZNSt8_Rb_treeIKPvSt4pairIS1_St3mapIy35hiRUNTIME_FORWARD_STATUS_CALLBACK_ESt4lessIyESaIS2_IKyS4_EEEESt10_Select1stISB_ES5_IS1_ESaISB_EE22_M_emplace_hint_uniqueIJRKSt21piecewise_construct_tSt5tupleIJRS1_EESL_IJEEEEESt17_Rb_tree_iteratorISB_ESt23_Rb_tree_const_iteratorISB_EDpOT_.isra.163_x130:
    /*00000130*/ LDR         R1, [R4, #28] 
    /*00000134*/ ADD         R0, R4, #20 
    /*00000138*/ BL          _ZNSt8_Rb_treeIySt4pairIKy35hiRUNTIME_FORWARD_STATUS_CALLBACK_EESt10_Select1stIS3_ESt4lessIyESaIS3_EE8_M_eraseEPSt13_Rb_tree_nodeIS3_E
    /*0000013c*/ MOV         R0, R4 
    /*00000140*/ BL          _ZdlPv
    /*00000144*/ MOV         R0, R8 
    /*00000148*/ ADD         SP, SP, #12 
    /*0000014c*/ POP         {R4, R5, R6, R7, R8, R9, PC} 
    _ZNSt8_Rb_treeIKPvSt4pairIS1_St3mapIy35hiRUNTIME_FORWARD_STATUS_CALLBACK_ESt4lessIyESaIS2_IKyS4_EEEESt10_Select1stISB_ES5_IS1_ESaISB_EE22_M_emplace_hint_uniqueIJRKSt21piecewise_construct_tSt5tupleIJRS1_EESL_IJEEEEESt17_Rb_tree_iteratorISB_ESt23_Rb_tree_const_iteratorISB_EDpOT_.isra.163_x150:
    /*00000150*/ LDR         R3, [R5, #20] 
    /*00000154*/ CMP         R3, R0 
    /*00000158*/ BEQ         _ZNSt8_Rb_treeIKPvSt4pairIS1_St3mapIy35hiRUNTIME_FORWARD_STATUS_CALLBACK_ESt4lessIyESaIS2_IKyS4_EEEESt10_Select1stISB_ES5_IS1_ESaISB_EE22_M_emplace_hint_uniqueIJRKSt21piecewise_construct_tSt5tupleIJRS1_EESL_IJEEEEESt17_Rb_tree_iteratorISB_ESt23_Rb_tree_const_iteratorISB_EDpOT_.isra.163_x16c
    /*0000015c*/ LDR         R2, [R5, #16] 
    /*00000160*/ LDR         R3, [R2, #16] 
    /*00000164*/ CMP         R3, R6 
    /*00000168*/ BCC         _ZNSt8_Rb_treeIKPvSt4pairIS1_St3mapIy35hiRUNTIME_FORWARD_STATUS_CALLBACK_ESt4lessIyESaIS2_IKyS4_EEEESt10_Select1stISB_ES5_IS1_ESaISB_EE22_M_emplace_hint_uniqueIJRKSt21piecewise_construct_tSt5tupleIJRS1_EESL_IJEEEEESt17_Rb_tree_iteratorISB_ESt23_Rb_tree_const_iteratorISB_EDpOT_.isra.163_xa4
    _ZNSt8_Rb_treeIKPvSt4pairIS1_St3mapIy35hiRUNTIME_FORWARD_STATUS_CALLBACK_ESt4lessIyESaIS2_IKyS4_EEEESt10_Select1stISB_ES5_IS1_ESaISB_EE22_M_emplace_hint_uniqueIJRKSt21piecewise_construct_tSt5tupleIJRS1_EESL_IJEEEEESt17_Rb_tree_iteratorISB_ESt23_Rb_tree_const_iteratorISB_EDpOT_.isra.163_x16c:
    /*0000016c*/ LDR         R2, [R5, #8] 
    /*00000170*/ CMP         R2, #0 
    /*00000174*/ BNE         _ZNSt8_Rb_treeIKPvSt4pairIS1_St3mapIy35hiRUNTIME_FORWARD_STATUS_CALLBACK_ESt4lessIyESaIS2_IKyS4_EEEESt10_Select1stISB_ES5_IS1_ESaISB_EE22_M_emplace_hint_uniqueIJRKSt21piecewise_construct_tSt5tupleIJRS1_EESL_IJEEEEESt17_Rb_tree_iteratorISB_ESt23_Rb_tree_const_iteratorISB_EDpOT_.isra.163_x180
    /*00000178*/ B           _ZNSt8_Rb_treeIKPvSt4pairIS1_St3mapIy35hiRUNTIME_FORWARD_STATUS_CALLBACK_ESt4lessIyESaIS2_IKyS4_EEEESt10_Select1stISB_ES5_IS1_ESaISB_EE22_M_emplace_hint_uniqueIJRKSt21piecewise_construct_tSt5tupleIJRS1_EESL_IJEEEEESt17_Rb_tree_iteratorISB_ESt23_Rb_tree_const_iteratorISB_EDpOT_.isra.163_x284
    _ZNSt8_Rb_treeIKPvSt4pairIS1_St3mapIy35hiRUNTIME_FORWARD_STATUS_CALLBACK_ESt4lessIyESaIS2_IKyS4_EEEESt10_Select1stISB_ES5_IS1_ESaISB_EE22_M_emplace_hint_uniqueIJRKSt21piecewise_construct_tSt5tupleIJRS1_EESL_IJEEEEESt17_Rb_tree_iteratorISB_ESt23_Rb_tree_const_iteratorISB_EDpOT_.isra.163_x17c:
    /*0000017c*/ MOV         R2, R3 
    _ZNSt8_Rb_treeIKPvSt4pairIS1_St3mapIy35hiRUNTIME_FORWARD_STATUS_CALLBACK_ESt4lessIyESaIS2_IKyS4_EEEESt10_Select1stISB_ES5_IS1_ESaISB_EE22_M_emplace_hint_uniqueIJRKSt21piecewise_construct_tSt5tupleIJRS1_EESL_IJEEEEESt17_Rb_tree_iteratorISB_ESt23_Rb_tree_const_iteratorISB_EDpOT_.isra.163_x180:
    /*00000180*/ LDR         R1, [R2, #16] 
    /*00000184*/ MOV         R0, #1 
    /*00000188*/ CMP         R6, R1 
    /*0000018c*/ MOVCS       R0, #0 
    /*00000190*/ LDRCC       R3, [R2, #8] 
    /*00000194*/ LDRCS       R3, [R2, #12] 
    /*00000198*/ CMP         R3, #0 
    /*0000019c*/ BNE         _ZNSt8_Rb_treeIKPvSt4pairIS1_St3mapIy35hiRUNTIME_FORWARD_STATUS_CALLBACK_ESt4lessIyESaIS2_IKyS4_EEEESt10_Select1stISB_ES5_IS1_ESaISB_EE22_M_emplace_hint_uniqueIJRKSt21piecewise_construct_tSt5tupleIJRS1_EESL_IJEEEEESt17_Rb_tree_iteratorISB_ESt23_Rb_tree_const_iteratorISB_EDpOT_.isra.163_x17c
    /*000001a0*/ CMP         R0, #0 
    /*000001a4*/ BEQ         _ZNSt8_Rb_treeIKPvSt4pairIS1_St3mapIy35hiRUNTIME_FORWARD_STATUS_CALLBACK_ESt4lessIyESaIS2_IKyS4_EEEESt10_Select1stISB_ES5_IS1_ESaISB_EE22_M_emplace_hint_uniqueIJRKSt21piecewise_construct_tSt5tupleIJRS1_EESL_IJEEEEESt17_Rb_tree_iteratorISB_ESt23_Rb_tree_const_iteratorISB_EDpOT_.isra.163_x20c
    _ZNSt8_Rb_treeIKPvSt4pairIS1_St3mapIy35hiRUNTIME_FORWARD_STATUS_CALLBACK_ESt4lessIyESaIS2_IKyS4_EEEESt10_Select1stISB_ES5_IS1_ESaISB_EE22_M_emplace_hint_uniqueIJRKSt21piecewise_construct_tSt5tupleIJRS1_EESL_IJEEEEESt17_Rb_tree_iteratorISB_ESt23_Rb_tree_const_iteratorISB_EDpOT_.isra.163_x1a8:
    /*000001a8*/ LDR         R3, [R5, #12] 
    /*000001ac*/ CMP         R3, R2 
    /*000001b0*/ BEQ         _ZNSt8_Rb_treeIKPvSt4pairIS1_St3mapIy35hiRUNTIME_FORWARD_STATUS_CALLBACK_ESt4lessIyESaIS2_IKyS4_EEEESt10_Select1stISB_ES5_IS1_ESaISB_EE22_M_emplace_hint_uniqueIJRKSt21piecewise_construct_tSt5tupleIJRS1_EESL_IJEEEEESt17_Rb_tree_iteratorISB_ESt23_Rb_tree_const_iteratorISB_EDpOT_.isra.163_x220
    _ZNSt8_Rb_treeIKPvSt4pairIS1_St3mapIy35hiRUNTIME_FORWARD_STATUS_CALLBACK_ESt4lessIyESaIS2_IKyS4_EEEESt10_Select1stISB_ES5_IS1_ESaISB_EE22_M_emplace_hint_uniqueIJRKSt21piecewise_construct_tSt5tupleIJRS1_EESL_IJEEEEESt17_Rb_tree_iteratorISB_ESt23_Rb_tree_const_iteratorISB_EDpOT_.isra.163_x1b4:
    /*000001b4*/ STR         R2, [SP, #4] 
    /*000001b8*/ MOV         R0, R2 
    /*000001bc*/ BL          _ZSt18_Rb_tree_decrementPSt18_Rb_tree_node_base
    /*000001c0*/ LDR         R1, [R0, #16] 
    /*000001c4*/ MOV         R8, R0 
    /*000001c8*/ LDR         R2, [SP, #4] 
    /*000001cc*/ B           _ZNSt8_Rb_treeIKPvSt4pairIS1_St3mapIy35hiRUNTIME_FORWARD_STATUS_CALLBACK_ESt4lessIyESaIS2_IKyS4_EEEESt10_Select1stISB_ES5_IS1_ESaISB_EE22_M_emplace_hint_uniqueIJRKSt21piecewise_construct_tSt5tupleIJRS1_EESL_IJEEEEESt17_Rb_tree_iteratorISB_ESt23_Rb_tree_const_iteratorISB_EDpOT_.isra.163_x210
    _ZNSt8_Rb_treeIKPvSt4pairIS1_St3mapIy35hiRUNTIME_FORWARD_STATUS_CALLBACK_ESt4lessIyESaIS2_IKyS4_EEEESt10_Select1stISB_ES5_IS1_ESaISB_EE22_M_emplace_hint_uniqueIJRKSt21piecewise_construct_tSt5tupleIJRS1_EESL_IJEEEEESt17_Rb_tree_iteratorISB_ESt23_Rb_tree_const_iteratorISB_EDpOT_.isra.163_x1d0:
    /*000001d0*/ LDR         R2, [R5, #8] 
    /*000001d4*/ CMP         R2, #0 
    /*000001d8*/ BNE         _ZNSt8_Rb_treeIKPvSt4pairIS1_St3mapIy35hiRUNTIME_FORWARD_STATUS_CALLBACK_ESt4lessIyESaIS2_IKyS4_EEEESt10_Select1stISB_ES5_IS1_ESaISB_EE22_M_emplace_hint_uniqueIJRKSt21piecewise_construct_tSt5tupleIJRS1_EESL_IJEEEEESt17_Rb_tree_iteratorISB_ESt23_Rb_tree_const_iteratorISB_EDpOT_.isra.163_x1e4
    /*000001dc*/ B           _ZNSt8_Rb_treeIKPvSt4pairIS1_St3mapIy35hiRUNTIME_FORWARD_STATUS_CALLBACK_ESt4lessIyESaIS2_IKyS4_EEEESt10_Select1stISB_ES5_IS1_ESaISB_EE22_M_emplace_hint_uniqueIJRKSt21piecewise_construct_tSt5tupleIJRS1_EESL_IJEEEEESt17_Rb_tree_iteratorISB_ESt23_Rb_tree_const_iteratorISB_EDpOT_.isra.163_x228
    _ZNSt8_Rb_treeIKPvSt4pairIS1_St3mapIy35hiRUNTIME_FORWARD_STATUS_CALLBACK_ESt4lessIyESaIS2_IKyS4_EEEESt10_Select1stISB_ES5_IS1_ESaISB_EE22_M_emplace_hint_uniqueIJRKSt21piecewise_construct_tSt5tupleIJRS1_EESL_IJEEEEESt17_Rb_tree_iteratorISB_ESt23_Rb_tree_const_iteratorISB_EDpOT_.isra.163_x1e0:
    /*000001e0*/ MOV         R2, R3 
    _ZNSt8_Rb_treeIKPvSt4pairIS1_St3mapIy35hiRUNTIME_FORWARD_STATUS_CALLBACK_ESt4lessIyESaIS2_IKyS4_EEEESt10_Select1stISB_ES5_IS1_ESaISB_EE22_M_emplace_hint_uniqueIJRKSt21piecewise_construct_tSt5tupleIJRS1_EESL_IJEEEEESt17_Rb_tree_iteratorISB_ESt23_Rb_tree_const_iteratorISB_EDpOT_.isra.163_x1e4:
    /*000001e4*/ LDR         R1, [R2, #16] 
    /*000001e8*/ MOV         R0, #1 
    /*000001ec*/ CMP         R6, R1 
    /*000001f0*/ MOVCS       R0, #0 
    /*000001f4*/ LDRCC       R3, [R2, #8] 
    /*000001f8*/ LDRCS       R3, [R2, #12] 
    /*000001fc*/ CMP         R3, #0 
    /*00000200*/ BNE         _ZNSt8_Rb_treeIKPvSt4pairIS1_St3mapIy35hiRUNTIME_FORWARD_STATUS_CALLBACK_ESt4lessIyESaIS2_IKyS4_EEEESt10_Select1stISB_ES5_IS1_ESaISB_EE22_M_emplace_hint_uniqueIJRKSt21piecewise_construct_tSt5tupleIJRS1_EESL_IJEEEEESt17_Rb_tree_iteratorISB_ESt23_Rb_tree_const_iteratorISB_EDpOT_.isra.163_x1e0
    /*00000204*/ CMP         R0, #0 
    /*00000208*/ BNE         _ZNSt8_Rb_treeIKPvSt4pairIS1_St3mapIy35hiRUNTIME_FORWARD_STATUS_CALLBACK_ESt4lessIyESaIS2_IKyS4_EEEESt10_Select1stISB_ES5_IS1_ESaISB_EE22_M_emplace_hint_uniqueIJRKSt21piecewise_construct_tSt5tupleIJRS1_EESL_IJEEEEESt17_Rb_tree_iteratorISB_ESt23_Rb_tree_const_iteratorISB_EDpOT_.isra.163_x22c
    _ZNSt8_Rb_treeIKPvSt4pairIS1_St3mapIy35hiRUNTIME_FORWARD_STATUS_CALLBACK_ESt4lessIyESaIS2_IKyS4_EEEESt10_Select1stISB_ES5_IS1_ESaISB_EE22_M_emplace_hint_uniqueIJRKSt21piecewise_construct_tSt5tupleIJRS1_EESL_IJEEEEESt17_Rb_tree_iteratorISB_ESt23_Rb_tree_const_iteratorISB_EDpOT_.isra.163_x20c:
    /*0000020c*/ MOV         R8, R2 
    _ZNSt8_Rb_treeIKPvSt4pairIS1_St3mapIy35hiRUNTIME_FORWARD_STATUS_CALLBACK_ESt4lessIyESaIS2_IKyS4_EEEESt10_Select1stISB_ES5_IS1_ESaISB_EE22_M_emplace_hint_uniqueIJRKSt21piecewise_construct_tSt5tupleIJRS1_EESL_IJEEEEESt17_Rb_tree_iteratorISB_ESt23_Rb_tree_const_iteratorISB_EDpOT_.isra.163_x210:
    /*00000210*/ CMP         R6, R1 
    /*00000214*/ BLS         _ZNSt8_Rb_treeIKPvSt4pairIS1_St3mapIy35hiRUNTIME_FORWARD_STATUS_CALLBACK_ESt4lessIyESaIS2_IKyS4_EEEESt10_Select1stISB_ES5_IS1_ESaISB_EE22_M_emplace_hint_uniqueIJRKSt21piecewise_construct_tSt5tupleIJRS1_EESL_IJEEEEESt17_Rb_tree_iteratorISB_ESt23_Rb_tree_const_iteratorISB_EDpOT_.isra.163_x130
    _ZNSt8_Rb_treeIKPvSt4pairIS1_St3mapIy35hiRUNTIME_FORWARD_STATUS_CALLBACK_ESt4lessIyESaIS2_IKyS4_EEEESt10_Select1stISB_ES5_IS1_ESaISB_EE22_M_emplace_hint_uniqueIJRKSt21piecewise_construct_tSt5tupleIJRS1_EESL_IJEEEEESt17_Rb_tree_iteratorISB_ESt23_Rb_tree_const_iteratorISB_EDpOT_.isra.163_x218:
    /*00000218*/ CMP         R2, #0 
    /*0000021c*/ BEQ         _ZNSt8_Rb_treeIKPvSt4pairIS1_St3mapIy35hiRUNTIME_FORWARD_STATUS_CALLBACK_ESt4lessIyESaIS2_IKyS4_EEEESt10_Select1stISB_ES5_IS1_ESaISB_EE22_M_emplace_hint_uniqueIJRKSt21piecewise_construct_tSt5tupleIJRS1_EESL_IJEEEEESt17_Rb_tree_iteratorISB_ESt23_Rb_tree_const_iteratorISB_EDpOT_.isra.163_x12c
    _ZNSt8_Rb_treeIKPvSt4pairIS1_St3mapIy35hiRUNTIME_FORWARD_STATUS_CALLBACK_ESt4lessIyESaIS2_IKyS4_EEEESt10_Select1stISB_ES5_IS1_ESaISB_EE22_M_emplace_hint_uniqueIJRKSt21piecewise_construct_tSt5tupleIJRS1_EESL_IJEEEEESt17_Rb_tree_iteratorISB_ESt23_Rb_tree_const_iteratorISB_EDpOT_.isra.163_x220:
    /*00000220*/ MOV         R0, #0 
    /*00000224*/ B           _ZNSt8_Rb_treeIKPvSt4pairIS1_St3mapIy35hiRUNTIME_FORWARD_STATUS_CALLBACK_ESt4lessIyESaIS2_IKyS4_EEEESt10_Select1stISB_ES5_IS1_ESaISB_EE22_M_emplace_hint_uniqueIJRKSt21piecewise_construct_tSt5tupleIJRS1_EESL_IJEEEEESt17_Rb_tree_iteratorISB_ESt23_Rb_tree_const_iteratorISB_EDpOT_.isra.163_xa4
    _ZNSt8_Rb_treeIKPvSt4pairIS1_St3mapIy35hiRUNTIME_FORWARD_STATUS_CALLBACK_ESt4lessIyESaIS2_IKyS4_EEEESt10_Select1stISB_ES5_IS1_ESaISB_EE22_M_emplace_hint_uniqueIJRKSt21piecewise_construct_tSt5tupleIJRS1_EESL_IJEEEEESt17_Rb_tree_iteratorISB_ESt23_Rb_tree_const_iteratorISB_EDpOT_.isra.163_x228:
    /*00000228*/ MOV         R2, R7 
    _ZNSt8_Rb_treeIKPvSt4pairIS1_St3mapIy35hiRUNTIME_FORWARD_STATUS_CALLBACK_ESt4lessIyESaIS2_IKyS4_EEEESt10_Select1stISB_ES5_IS1_ESaISB_EE22_M_emplace_hint_uniqueIJRKSt21piecewise_construct_tSt5tupleIJRS1_EESL_IJEEEEESt17_Rb_tree_iteratorISB_ESt23_Rb_tree_const_iteratorISB_EDpOT_.isra.163_x22c:
    /*0000022c*/ CMP         R9, R2 
    /*00000230*/ BNE         _ZNSt8_Rb_treeIKPvSt4pairIS1_St3mapIy35hiRUNTIME_FORWARD_STATUS_CALLBACK_ESt4lessIyESaIS2_IKyS4_EEEESt10_Select1stISB_ES5_IS1_ESaISB_EE22_M_emplace_hint_uniqueIJRKSt21piecewise_construct_tSt5tupleIJRS1_EESL_IJEEEEESt17_Rb_tree_iteratorISB_ESt23_Rb_tree_const_iteratorISB_EDpOT_.isra.163_x1b4
    /*00000234*/ B           _ZNSt8_Rb_treeIKPvSt4pairIS1_St3mapIy35hiRUNTIME_FORWARD_STATUS_CALLBACK_ESt4lessIyESaIS2_IKyS4_EEEESt10_Select1stISB_ES5_IS1_ESaISB_EE22_M_emplace_hint_uniqueIJRKSt21piecewise_construct_tSt5tupleIJRS1_EESL_IJEEEEESt17_Rb_tree_iteratorISB_ESt23_Rb_tree_const_iteratorISB_EDpOT_.isra.163_x218
    _ZNSt8_Rb_treeIKPvSt4pairIS1_St3mapIy35hiRUNTIME_FORWARD_STATUS_CALLBACK_ESt4lessIyESaIS2_IKyS4_EEEESt10_Select1stISB_ES5_IS1_ESaISB_EE22_M_emplace_hint_uniqueIJRKSt21piecewise_construct_tSt5tupleIJRS1_EESL_IJEEEEESt17_Rb_tree_iteratorISB_ESt23_Rb_tree_const_iteratorISB_EDpOT_.isra.163_x238:
    /*00000238*/ LDR         R2, [R5, #8] 
    /*0000023c*/ CMP         R2, #0 
    /*00000240*/ BNE         _ZNSt8_Rb_treeIKPvSt4pairIS1_St3mapIy35hiRUNTIME_FORWARD_STATUS_CALLBACK_ESt4lessIyESaIS2_IKyS4_EEEESt10_Select1stISB_ES5_IS1_ESaISB_EE22_M_emplace_hint_uniqueIJRKSt21piecewise_construct_tSt5tupleIJRS1_EESL_IJEEEEESt17_Rb_tree_iteratorISB_ESt23_Rb_tree_const_iteratorISB_EDpOT_.isra.163_x24c
    /*00000244*/ B           _ZNSt8_Rb_treeIKPvSt4pairIS1_St3mapIy35hiRUNTIME_FORWARD_STATUS_CALLBACK_ESt4lessIyESaIS2_IKyS4_EEEESt10_Select1stISB_ES5_IS1_ESaISB_EE22_M_emplace_hint_uniqueIJRKSt21piecewise_construct_tSt5tupleIJRS1_EESL_IJEEEEESt17_Rb_tree_iteratorISB_ESt23_Rb_tree_const_iteratorISB_EDpOT_.isra.163_x28c
    _ZNSt8_Rb_treeIKPvSt4pairIS1_St3mapIy35hiRUNTIME_FORWARD_STATUS_CALLBACK_ESt4lessIyESaIS2_IKyS4_EEEESt10_Select1stISB_ES5_IS1_ESaISB_EE22_M_emplace_hint_uniqueIJRKSt21piecewise_construct_tSt5tupleIJRS1_EESL_IJEEEEESt17_Rb_tree_iteratorISB_ESt23_Rb_tree_const_iteratorISB_EDpOT_.isra.163_x248:
    /*00000248*/ MOV         R2, R3 
    _ZNSt8_Rb_treeIKPvSt4pairIS1_St3mapIy35hiRUNTIME_FORWARD_STATUS_CALLBACK_ESt4lessIyESaIS2_IKyS4_EEEESt10_Select1stISB_ES5_IS1_ESaISB_EE22_M_emplace_hint_uniqueIJRKSt21piecewise_construct_tSt5tupleIJRS1_EESL_IJEEEEESt17_Rb_tree_iteratorISB_ESt23_Rb_tree_const_iteratorISB_EDpOT_.isra.163_x24c:
    /*0000024c*/ LDR         R1, [R2, #16] 
    /*00000250*/ MOV         R0, #1 
    /*00000254*/ CMP         R6, R1 
    /*00000258*/ MOVCS       R0, #0 
    /*0000025c*/ LDRCC       R3, [R2, #8] 
    /*00000260*/ LDRCS       R3, [R2, #12] 
    /*00000264*/ CMP         R3, #0 
    /*00000268*/ BNE         _ZNSt8_Rb_treeIKPvSt4pairIS1_St3mapIy35hiRUNTIME_FORWARD_STATUS_CALLBACK_ESt4lessIyESaIS2_IKyS4_EEEESt10_Select1stISB_ES5_IS1_ESaISB_EE22_M_emplace_hint_uniqueIJRKSt21piecewise_construct_tSt5tupleIJRS1_EESL_IJEEEEESt17_Rb_tree_iteratorISB_ESt23_Rb_tree_const_iteratorISB_EDpOT_.isra.163_x248
    /*0000026c*/ CMP         R0, #0 
    /*00000270*/ BEQ         _ZNSt8_Rb_treeIKPvSt4pairIS1_St3mapIy35hiRUNTIME_FORWARD_STATUS_CALLBACK_ESt4lessIyESaIS2_IKyS4_EEEESt10_Select1stISB_ES5_IS1_ESaISB_EE22_M_emplace_hint_uniqueIJRKSt21piecewise_construct_tSt5tupleIJRS1_EESL_IJEEEEESt17_Rb_tree_iteratorISB_ESt23_Rb_tree_const_iteratorISB_EDpOT_.isra.163_x20c
    _ZNSt8_Rb_treeIKPvSt4pairIS1_St3mapIy35hiRUNTIME_FORWARD_STATUS_CALLBACK_ESt4lessIyESaIS2_IKyS4_EEEESt10_Select1stISB_ES5_IS1_ESaISB_EE22_M_emplace_hint_uniqueIJRKSt21piecewise_construct_tSt5tupleIJRS1_EESL_IJEEEEESt17_Rb_tree_iteratorISB_ESt23_Rb_tree_const_iteratorISB_EDpOT_.isra.163_x274:
    /*00000274*/ LDR         R3, [R5, #12] 
    /*00000278*/ CMP         R3, R2 
    /*0000027c*/ BNE         _ZNSt8_Rb_treeIKPvSt4pairIS1_St3mapIy35hiRUNTIME_FORWARD_STATUS_CALLBACK_ESt4lessIyESaIS2_IKyS4_EEEESt10_Select1stISB_ES5_IS1_ESaISB_EE22_M_emplace_hint_uniqueIJRKSt21piecewise_construct_tSt5tupleIJRS1_EESL_IJEEEEESt17_Rb_tree_iteratorISB_ESt23_Rb_tree_const_iteratorISB_EDpOT_.isra.163_x1b4
    /*00000280*/ B           _ZNSt8_Rb_treeIKPvSt4pairIS1_St3mapIy35hiRUNTIME_FORWARD_STATUS_CALLBACK_ESt4lessIyESaIS2_IKyS4_EEEESt10_Select1stISB_ES5_IS1_ESaISB_EE22_M_emplace_hint_uniqueIJRKSt21piecewise_construct_tSt5tupleIJRS1_EESL_IJEEEEESt17_Rb_tree_iteratorISB_ESt23_Rb_tree_const_iteratorISB_EDpOT_.isra.163_x218
    _ZNSt8_Rb_treeIKPvSt4pairIS1_St3mapIy35hiRUNTIME_FORWARD_STATUS_CALLBACK_ESt4lessIyESaIS2_IKyS4_EEEESt10_Select1stISB_ES5_IS1_ESaISB_EE22_M_emplace_hint_uniqueIJRKSt21piecewise_construct_tSt5tupleIJRS1_EESL_IJEEEEESt17_Rb_tree_iteratorISB_ESt23_Rb_tree_const_iteratorISB_EDpOT_.isra.163_x284:
    /*00000284*/ MOV         R2, R7 
    /*00000288*/ B           _ZNSt8_Rb_treeIKPvSt4pairIS1_St3mapIy35hiRUNTIME_FORWARD_STATUS_CALLBACK_ESt4lessIyESaIS2_IKyS4_EEEESt10_Select1stISB_ES5_IS1_ESaISB_EE22_M_emplace_hint_uniqueIJRKSt21piecewise_construct_tSt5tupleIJRS1_EESL_IJEEEEESt17_Rb_tree_iteratorISB_ESt23_Rb_tree_const_iteratorISB_EDpOT_.isra.163_x1a8
    _ZNSt8_Rb_treeIKPvSt4pairIS1_St3mapIy35hiRUNTIME_FORWARD_STATUS_CALLBACK_ESt4lessIyESaIS2_IKyS4_EEEESt10_Select1stISB_ES5_IS1_ESaISB_EE22_M_emplace_hint_uniqueIJRKSt21piecewise_construct_tSt5tupleIJRS1_EESL_IJEEEEESt17_Rb_tree_iteratorISB_ESt23_Rb_tree_const_iteratorISB_EDpOT_.isra.163_x28c:
    /*0000028c*/ MOV         R2, R7 
    /*00000290*/ B           _ZNSt8_Rb_treeIKPvSt4pairIS1_St3mapIy35hiRUNTIME_FORWARD_STATUS_CALLBACK_ESt4lessIyESaIS2_IKyS4_EEEESt10_Select1stISB_ES5_IS1_ESaISB_EE22_M_emplace_hint_uniqueIJRKSt21piecewise_construct_tSt5tupleIJRS1_EESL_IJEEEEESt17_Rb_tree_iteratorISB_ESt23_Rb_tree_const_iteratorISB_EDpOT_.isra.163_x274
FUNC_END _ZNSt8_Rb_treeIKPvSt4pairIS1_St3mapIy35hiRUNTIME_FORWARD_STATUS_CALLBACK_ESt4lessIyESaIS2_IKyS4_EEEESt10_Select1stISB_ES5_IS1_ESaISB_EE22_M_emplace_hint_uniqueIJRKSt21piecewise_construct_tSt5tupleIJRS1_EESL_IJEEEEESt17_Rb_tree_iteratorISB_ESt23_Rb_tree_const_iteratorISB_EDpOT_.isra.163


@ - - - - - - - - - - - - - - - - - - - - - - - - - - - - - 
@ .text._Z17MyForwardCallback35hiRUNTIME_FORWARD_STATUS_CALLBACK_EPvyP28hiRUNTIME_GROUP_BLOB_ARRAY_S
@ Size: 0x254
@ - - - - - - - - - - - - - - - - - - - - - - - - - - - - - 

FUNC_BEGIN _Z17MyForwardCallback35hiRUNTIME_FORWARD_STATUS_CALLBACK_EPvyP28hiRUNTIME_GROUP_BLOB_ARRAY_S
    /*00000000*/ MOV         IP, #16384                  @ 0x4000 
    /*00000004*/ PUSH        {R4, R5, R6, R7, R8, R9, LR} 
    /*00000008*/ SUB         IP, SP, IP 
    /*0000000c*/ STR         R0, [IP, #4032]             @ 0xfc0 
    /*00000010*/ LDR         IP, WORD_0224               @ LDR         IP, [PC, #524]              @ 0x0000000000000224 
    /*00000014*/ SUB         SP, SP, #36                 @ 0x24 
    /*00000018*/ LDR         LR, WORD_0228               @ LDR         LR, [PC, #520]              @ 0x0000000000000228 
    /*0000001c*/ MOV         R8, R0 
    /*00000020*/ ADD         IP, PC, IP 
    /*00000024*/ STR         R1, [SP, #20] 
    /*00000028*/ MOV         R0, IP 
    /*0000002c*/ STRD        R2, [SP, #8] 
    /*00000030*/ LDR         R9, [IP, LR] 
    /*00000034*/ CMP         R9, #0 
    /*00000038*/ BEQ         _Z17MyForwardCallback35hiRUNTIME_FORWARD_STATUS_CALLBACK_EPvyP28hiRUNTIME_GROUP_BLOB_ARRAY_S_x50
    /*0000003c*/ LDR         R0, WORD_022c               @ LDR         R0, [PC, #488]              @ 0x000000000000022c 
    /*00000040*/ ADD         R0, PC, R0 
    /*00000044*/ BL          pthread_mutex_lock
    /*00000048*/ CMP         R0, #0 
    /*0000004c*/ BNE         _Z17MyForwardCallback35hiRUNTIME_FORWARD_STATUS_CALLBACK_EPvyP28hiRUNTIME_GROUP_BLOB_ARRAY_S_x220
    _Z17MyForwardCallback35hiRUNTIME_FORWARD_STATUS_CALLBACK_EPvyP28hiRUNTIME_GROUP_BLOB_ARRAY_S_x50:
    /*00000050*/ LDR         LR, WORD_0230               @ LDR         LR, [PC, #472]              @ 0x0000000000000230 
    /*00000054*/ LDR         R3, [SP, #20] 
    /*00000058*/ ADD         LR, PC, LR 
    /*0000005c*/ LDR         IP, [LR, #8] 
    /*00000060*/ CMP         IP, #0 
    /*00000064*/ BEQ         _Z17MyForwardCallback35hiRUNTIME_FORWARD_STATUS_CALLBACK_EPvyP28hiRUNTIME_GROUP_BLOB_ARRAY_S_xb4
    /*00000068*/ ADD         LR, LR, #4 
    /*0000006c*/ MOV         R2, IP 
    _Z17MyForwardCallback35hiRUNTIME_FORWARD_STATUS_CALLBACK_EPvyP28hiRUNTIME_GROUP_BLOB_ARRAY_S_x70:
    /*00000070*/ LDR         R1, [R2, #16] 
    /*00000074*/ CMP         R1, R3 
    /*00000078*/ MOVCS       LR, R2 
    /*0000007c*/ LDRCC       R2, [R2, #12] 
    /*00000080*/ LDRCS       R2, [R2, #8] 
    /*00000084*/ CMP         R2, #0 
    /*00000088*/ BNE         _Z17MyForwardCallback35hiRUNTIME_FORWARD_STATUS_CALLBACK_EPvyP28hiRUNTIME_GROUP_BLOB_ARRAY_S_x70
    /*0000008c*/ LDR         R0, WORD_0234               @ LDR         R0, [PC, #416]              @ 0x0000000000000234 
    /*00000090*/ ADD         R0, PC, R0 
    /*00000094*/ ADD         R0, R0, #4 
    /*00000098*/ CMP         LR, R0 
    /*0000009c*/ BEQ         _Z17MyForwardCallback35hiRUNTIME_FORWARD_STATUS_CALLBACK_EPvyP28hiRUNTIME_GROUP_BLOB_ARRAY_S_xb4
    /*000000a0*/ LDR         R2, [LR, #16] 
    /*000000a4*/ CMP         R2, R3 
    /*000000a8*/ MOVLS       R2, IP 
    /*000000ac*/ MOVLS       R1, R0 
    /*000000b0*/ BLS         _Z17MyForwardCallback35hiRUNTIME_FORWARD_STATUS_CALLBACK_EPvyP28hiRUNTIME_GROUP_BLOB_ARRAY_S_xec
    _Z17MyForwardCallback35hiRUNTIME_FORWARD_STATUS_CALLBACK_EPvyP28hiRUNTIME_GROUP_BLOB_ARRAY_S_xb4:
    /*000000b4*/ LDR         R2, WORD_0238               @ LDR         R2, [PC, #380]              @ 0x0000000000000238 
    /*000000b8*/ MOV         R1, #4 
    /*000000bc*/ LDR         R0, WORD_023c               @ LDR         R0, [PC, #376]              @ 0x000000000000023c 
    /*000000c0*/ ADD         R2, PC, R2 
    /*000000c4*/ ADD         R0, PC, R0 
    /*000000c8*/ BL          _Z15HIRT_LOG_PrintfPKc19tagHIRT_LOG_LEVEL_ES0_z
    _Z17MyForwardCallback35hiRUNTIME_FORWARD_STATUS_CALLBACK_EPvyP28hiRUNTIME_GROUP_BLOB_ARRAY_S_xcc:
    /*000000cc*/ CMP         R9, #0 
    /*000000d0*/ BEQ         _Z17MyForwardCallback35hiRUNTIME_FORWARD_STATUS_CALLBACK_EPvyP28hiRUNTIME_GROUP_BLOB_ARRAY_S_xe0
    /*000000d4*/ LDR         R0, WORD_0240               @ LDR         R0, [PC, #356]              @ 0x0000000000000240 
    /*000000d8*/ ADD         R0, PC, R0 
    /*000000dc*/ BL          pthread_mutex_unlock
    _Z17MyForwardCallback35hiRUNTIME_FORWARD_STATUS_CALLBACK_EPvyP28hiRUNTIME_GROUP_BLOB_ARRAY_S_xe0:
    /*000000e0*/ MOV         R0, #0 
    /*000000e4*/ ADD         SP, SP, #36                 @ 0x24 
    /*000000e8*/ POP         {R4, R5, R6, R7, R8, R9, PC} 
    _Z17MyForwardCallback35hiRUNTIME_FORWARD_STATUS_CALLBACK_EPvyP28hiRUNTIME_GROUP_BLOB_ARRAY_S_xec:
    /*000000ec*/ LDR         R0, [R2, #16] 
    /*000000f0*/ CMP         R0, R3 
    /*000000f4*/ MOVCS       R1, R2 
    /*000000f8*/ LDRCC       R2, [R2, #12] 
    /*000000fc*/ LDRCS       R2, [R2, #8] 
    /*00000100*/ CMP         R2, #0 
    /*00000104*/ BNE         _Z17MyForwardCallback35hiRUNTIME_FORWARD_STATUS_CALLBACK_EPvyP28hiRUNTIME_GROUP_BLOB_ARRAY_S_xec
    /*00000108*/ LDR         R2, WORD_0244               @ LDR         R2, [PC, #308]              @ 0x0000000000000244 
    /*0000010c*/ ADD         R2, PC, R2 
    /*00000110*/ ADD         R2, R2, #4 
    /*00000114*/ CMP         R1, R2 
    /*00000118*/ BEQ         _Z17MyForwardCallback35hiRUNTIME_FORWARD_STATUS_CALLBACK_EPvyP28hiRUNTIME_GROUP_BLOB_ARRAY_S_x128
    /*0000011c*/ LDR         R2, [R1, #16] 
    /*00000120*/ CMP         R2, R3 
    /*00000124*/ BLS         _Z17MyForwardCallback35hiRUNTIME_FORWARD_STATUS_CALLBACK_EPvyP28hiRUNTIME_GROUP_BLOB_ARRAY_S_x1e0
    _Z17MyForwardCallback35hiRUNTIME_FORWARD_STATUS_CALLBACK_EPvyP28hiRUNTIME_GROUP_BLOB_ARRAY_S_x128:
    /*00000128*/ LDR         R0, WORD_0248               @ LDR         R0, [PC, #280]              @ 0x0000000000000248 
    /*0000012c*/ ADD         R2, SP, #32 
    /*00000130*/ ADD         R3, SP, #20 
    /*00000134*/ ADD         R0, PC, R0 
    /*00000138*/ STR         R3, [R2, #-4]! 
    /*0000013c*/ BL          _ZNSt8_Rb_treeIKPvSt4pairIS1_St3mapIy35hiRUNTIME_FORWARD_STATUS_CALLBACK_ESt4lessIyESaIS2_IKyS4_EEEESt10_Select1stISB_ES5_IS1_ESaISB_EE22_M_emplace_hint_uniqueIJRKSt21piecewise_construct_tSt5tupleIJRS1_EESL_IJEEEEESt17_Rb_tree_iteratorISB_ESt23_Rb_tree_const_iteratorISB_EDpOT_.isra.163
    _Z17MyForwardCallback35hiRUNTIME_FORWARD_STATUS_CALLBACK_EPvyP28hiRUNTIME_GROUP_BLOB_ARRAY_S_x140:
    /*00000140*/ LDR         LR, [R0, #28] 
    /*00000144*/ ADD         R1, R0, #24 
    /*00000148*/ LDRD        R4, [SP, #8] 
    /*0000014c*/ CMP         LR, #0 
    /*00000150*/ BEQ         _Z17MyForwardCallback35hiRUNTIME_FORWARD_STATUS_CALLBACK_EPvyP28hiRUNTIME_GROUP_BLOB_ARRAY_S_x200
    /*00000154*/ MOV         R6, R1 
    /*00000158*/ MOV         IP, LR 
    _Z17MyForwardCallback35hiRUNTIME_FORWARD_STATUS_CALLBACK_EPvyP28hiRUNTIME_GROUP_BLOB_ARRAY_S_x15c:
    /*0000015c*/ LDRD        R2, [IP, #16] 
    /*00000160*/ CMP         R5, R3 
    /*00000164*/ CMPEQ       R4, R2 
    /*00000168*/ MOVLS       R6, IP 
    /*0000016c*/ LDRHI       IP, [IP, #12] 
    /*00000170*/ LDRLS       IP, [IP, #8] 
    /*00000174*/ CMP         IP, #0 
    /*00000178*/ BNE         _Z17MyForwardCallback35hiRUNTIME_FORWARD_STATUS_CALLBACK_EPvyP28hiRUNTIME_GROUP_BLOB_ARRAY_S_x15c
    /*0000017c*/ CMP         R1, R6 
    /*00000180*/ BEQ         _Z17MyForwardCallback35hiRUNTIME_FORWARD_STATUS_CALLBACK_EPvyP28hiRUNTIME_GROUP_BLOB_ARRAY_S_x200
    /*00000184*/ LDRD        R2, [R6, #16] 
    /*00000188*/ CMP         R5, R3 
    /*0000018c*/ CMPEQ       R4, R2 
    /*00000190*/ MOVCS       R3, LR 
    /*00000194*/ MOVCS       R2, R1 
    /*00000198*/ BCC         _Z17MyForwardCallback35hiRUNTIME_FORWARD_STATUS_CALLBACK_EPvyP28hiRUNTIME_GROUP_BLOB_ARRAY_S_x200
    _Z17MyForwardCallback35hiRUNTIME_FORWARD_STATUS_CALLBACK_EPvyP28hiRUNTIME_GROUP_BLOB_ARRAY_S_x19c:
    /*0000019c*/ LDRD        R6, [R3, #16] 
    /*000001a0*/ CMP         R5, R7 
    /*000001a4*/ CMPEQ       R4, R6 
    /*000001a8*/ MOVLS       R2, R3 
    /*000001ac*/ LDRHI       R3, [R3, #12] 
    /*000001b0*/ LDRLS       R3, [R3, #8] 
    /*000001b4*/ CMP         R3, #0 
    /*000001b8*/ BNE         _Z17MyForwardCallback35hiRUNTIME_FORWARD_STATUS_CALLBACK_EPvyP28hiRUNTIME_GROUP_BLOB_ARRAY_S_x19c
    /*000001bc*/ CMP         R1, R2 
    /*000001c0*/ BEQ         _Z17MyForwardCallback35hiRUNTIME_FORWARD_STATUS_CALLBACK_EPvyP28hiRUNTIME_GROUP_BLOB_ARRAY_S_x1e8
    /*000001c4*/ LDRD        R6, [R2, #16] 
    /*000001c8*/ CMP         R5, R7 
    /*000001cc*/ CMPEQ       R4, R6 
    /*000001d0*/ BCC         _Z17MyForwardCallback35hiRUNTIME_FORWARD_STATUS_CALLBACK_EPvyP28hiRUNTIME_GROUP_BLOB_ARRAY_S_x1e8
    /*000001d4*/ MOV         R0, R2 
    _Z17MyForwardCallback35hiRUNTIME_FORWARD_STATUS_CALLBACK_EPvyP28hiRUNTIME_GROUP_BLOB_ARRAY_S_x1d8:
    /*000001d8*/ STR         R8, [R0, #24] 
    /*000001dc*/ B           _Z17MyForwardCallback35hiRUNTIME_FORWARD_STATUS_CALLBACK_EPvyP28hiRUNTIME_GROUP_BLOB_ARRAY_S_xcc
    _Z17MyForwardCallback35hiRUNTIME_FORWARD_STATUS_CALLBACK_EPvyP28hiRUNTIME_GROUP_BLOB_ARRAY_S_x1e0:
    /*000001e0*/ MOV         R0, R1 
    /*000001e4*/ B           _Z17MyForwardCallback35hiRUNTIME_FORWARD_STATUS_CALLBACK_EPvyP28hiRUNTIME_GROUP_BLOB_ARRAY_S_x140
    _Z17MyForwardCallback35hiRUNTIME_FORWARD_STATUS_CALLBACK_EPvyP28hiRUNTIME_GROUP_BLOB_ARRAY_S_x1e8:
    /*000001e8*/ ADD         R3, SP, #32 
    /*000001ec*/ ADD         R1, SP, #8 
    /*000001f0*/ ADD         R0, R0, #20 
    /*000001f4*/ STR         R1, [R3, #-4]! 
    /*000001f8*/ BL          _ZNSt8_Rb_treeIySt4pairIKy35hiRUNTIME_FORWARD_STATUS_CALLBACK_EESt10_Select1stIS3_ESt4lessIyESaIS3_EE22_M_emplace_hint_uniqueIJRKSt21piecewise_construct_tSt5tupleIJRS1_EESE_IJEEEEESt17_Rb_tree_iteratorIS3_ESt23_Rb_tree_const_iteratorIS3_EDpOT_.isra.168
    /*000001fc*/ B           _Z17MyForwardCallback35hiRUNTIME_FORWARD_STATUS_CALLBACK_EPvyP28hiRUNTIME_GROUP_BLOB_ARRAY_S_x1d8
    _Z17MyForwardCallback35hiRUNTIME_FORWARD_STATUS_CALLBACK_EPvyP28hiRUNTIME_GROUP_BLOB_ARRAY_S_x200:
    /*00000200*/ LDR         R2, WORD_024c               @ LDR         R2, [PC, #68]               @ 0x000000000000024c 
    /*00000204*/ MOV         R1, #4 
    /*00000208*/ LDR         R0, WORD_0250               @ LDR         R0, [PC, #64]               @ 0x0000000000000250 
    /*0000020c*/ STRD        R4, [SP] 
    /*00000210*/ ADD         R2, PC, R2 
    /*00000214*/ ADD         R0, PC, R0 
    /*00000218*/ BL          _Z15HIRT_LOG_PrintfPKc19tagHIRT_LOG_LEVEL_ES0_z
    /*0000021c*/ B           _Z17MyForwardCallback35hiRUNTIME_FORWARD_STATUS_CALLBACK_EPvyP28hiRUNTIME_GROUP_BLOB_ARRAY_S_xcc
    _Z17MyForwardCallback35hiRUNTIME_FORWARD_STATUS_CALLBACK_EPvyP28hiRUNTIME_GROUP_BLOB_ARRAY_S_x220:
    /*00000220*/ BL          _ZSt20__throw_system_errori
    /*00000224*/ WORD_0224: .word 0x000001fc
    /*00000228*/ WORD_0228: .word 0x00000000
    /*0000022c*/ WORD_022c: .word 0x000001e4
    /*00000230*/ WORD_0230: .word 0x000001d0
    /*00000234*/ WORD_0234: .word 0x0000019c
    /*00000238*/ WORD_0238: .word 0x00000170
    /*0000023c*/ WORD_023c: .word 0x00000170
    /*00000240*/ WORD_0240: .word 0x00000160
    /*00000244*/ WORD_0244: .word 0x00000130
    /*00000248*/ WORD_0248: .word 0x0000010c
    /*0000024c*/ WORD_024c: .word 0x00000034
    /*00000250*/ WORD_0250: .word 0x00000034
FUNC_END _Z17MyForwardCallback35hiRUNTIME_FORWARD_STATUS_CALLBACK_EPvyP28hiRUNTIME_GROUP_BLOB_ARRAY_S


@ - - - - - - - - - - - - - - - - - - - - - - - - - - - - - 
@ .text._ZNSt8_Rb_treeIKPvSt4pairIS1_St3mapIy35hiRUNTIME_FORWARD_STATUS_CALLBACK_ESt4lessIyESaIS2_IKyS4_EEEESt10_Select1stISB_ES5_IS1_ESaISB_EE8_M_eraseEPSt13_Rb_tree_nodeISB_E
@ Size: 0x348
@ - - - - - - - - - - - - - - - - - - - - - - - - - - - - - 

FUNC_BEGIN _ZNSt8_Rb_treeIKPvSt4pairIS1_St3mapIy35hiRUNTIME_FORWARD_STATUS_CALLBACK_ESt4lessIyESaIS2_IKyS4_EEEESt10_Select1stISB_ES5_IS1_ESaISB_EE8_M_eraseEPSt13_Rb_tree_nodeISB_E
    /*00000000*/ MOV         IP, #16384                  @ 0x4000 
    /*00000004*/ PUSH        {R4, R5, R6, R7, R8, R9, SL, FP, LR} 
    /*00000008*/ SUB         IP, SP, IP 
    /*0000000c*/ STR         R0, [IP, #4032]             @ 0xfc0 
    /*00000010*/ SUB         SP, SP, #28 
    /*00000014*/ SUBS        R3, R1, #0 
    /*00000018*/ STR         R3, [SP, #20] 
    /*0000001c*/ BEQ         _ZNSt8_Rb_treeIKPvSt4pairIS1_St3mapIy35hiRUNTIME_FORWARD_STATUS_CALLBACK_ESt4lessIyESaIS2_IKyS4_EEEESt10_Select1stISB_ES5_IS1_ESaISB_EE8_M_eraseEPSt13_Rb_tree_nodeISB_E_x340
    /*00000020*/ MOV         R7, R0 
    _ZNSt8_Rb_treeIKPvSt4pairIS1_St3mapIy35hiRUNTIME_FORWARD_STATUS_CALLBACK_ESt4lessIyESaIS2_IKyS4_EEEESt10_Select1stISB_ES5_IS1_ESaISB_EE8_M_eraseEPSt13_Rb_tree_nodeISB_E_x24:
    /*00000024*/ LDR         R3, [R3, #12] 
    /*00000028*/ CMP         R3, #0 
    /*0000002c*/ STRNE       R3, [SP, #16] 
    /*00000030*/ BEQ         _ZNSt8_Rb_treeIKPvSt4pairIS1_St3mapIy35hiRUNTIME_FORWARD_STATUS_CALLBACK_ESt4lessIyESaIS2_IKyS4_EEEESt10_Select1stISB_ES5_IS1_ESaISB_EE8_M_eraseEPSt13_Rb_tree_nodeISB_E_x2f4
    _ZNSt8_Rb_treeIKPvSt4pairIS1_St3mapIy35hiRUNTIME_FORWARD_STATUS_CALLBACK_ESt4lessIyESaIS2_IKyS4_EEEESt10_Select1stISB_ES5_IS1_ESaISB_EE8_M_eraseEPSt13_Rb_tree_nodeISB_E_x34:
    /*00000034*/ LDR         R3, [R3, #12] 
    /*00000038*/ CMP         R3, #0 
    /*0000003c*/ STRNE       R3, [SP, #12] 
    /*00000040*/ BEQ         _ZNSt8_Rb_treeIKPvSt4pairIS1_St3mapIy35hiRUNTIME_FORWARD_STATUS_CALLBACK_ESt4lessIyESaIS2_IKyS4_EEEESt10_Select1stISB_ES5_IS1_ESaISB_EE8_M_eraseEPSt13_Rb_tree_nodeISB_E_x2a8
    _ZNSt8_Rb_treeIKPvSt4pairIS1_St3mapIy35hiRUNTIME_FORWARD_STATUS_CALLBACK_ESt4lessIyESaIS2_IKyS4_EEEESt10_Select1stISB_ES5_IS1_ESaISB_EE8_M_eraseEPSt13_Rb_tree_nodeISB_E_x44:
    /*00000044*/ LDR         R3, [R3, #12] 
    /*00000048*/ CMP         R3, #0 
    /*0000004c*/ STRNE       R3, [SP, #8] 
    /*00000050*/ BEQ         _ZNSt8_Rb_treeIKPvSt4pairIS1_St3mapIy35hiRUNTIME_FORWARD_STATUS_CALLBACK_ESt4lessIyESaIS2_IKyS4_EEEESt10_Select1stISB_ES5_IS1_ESaISB_EE8_M_eraseEPSt13_Rb_tree_nodeISB_E_x25c
    _ZNSt8_Rb_treeIKPvSt4pairIS1_St3mapIy35hiRUNTIME_FORWARD_STATUS_CALLBACK_ESt4lessIyESaIS2_IKyS4_EEEESt10_Select1stISB_ES5_IS1_ESaISB_EE8_M_eraseEPSt13_Rb_tree_nodeISB_E_x54:
    /*00000054*/ LDR         R9, [R3, #12] 
    /*00000058*/ CMP         R9, #0 
    /*0000005c*/ STRNE       R9, [SP, #4] 
    /*00000060*/ MOVNE       R3, R9 
    /*00000064*/ BEQ         _ZNSt8_Rb_treeIKPvSt4pairIS1_St3mapIy35hiRUNTIME_FORWARD_STATUS_CALLBACK_ESt4lessIyESaIS2_IKyS4_EEEESt10_Select1stISB_ES5_IS1_ESaISB_EE8_M_eraseEPSt13_Rb_tree_nodeISB_E_x214
    _ZNSt8_Rb_treeIKPvSt4pairIS1_St3mapIy35hiRUNTIME_FORWARD_STATUS_CALLBACK_ESt4lessIyESaIS2_IKyS4_EEEESt10_Select1stISB_ES5_IS1_ESaISB_EE8_M_eraseEPSt13_Rb_tree_nodeISB_E_x68:
    /*00000068*/ LDR         R9, [R3, #12] 
    /*0000006c*/ CMP         R9, #0 
    /*00000070*/ STRNE       R9, [SP] 
    /*00000074*/ MOVNE       R3, R9 
    /*00000078*/ BEQ         _ZNSt8_Rb_treeIKPvSt4pairIS1_St3mapIy35hiRUNTIME_FORWARD_STATUS_CALLBACK_ESt4lessIyESaIS2_IKyS4_EEEESt10_Select1stISB_ES5_IS1_ESaISB_EE8_M_eraseEPSt13_Rb_tree_nodeISB_E_x1c8
    _ZNSt8_Rb_treeIKPvSt4pairIS1_St3mapIy35hiRUNTIME_FORWARD_STATUS_CALLBACK_ESt4lessIyESaIS2_IKyS4_EEEESt10_Select1stISB_ES5_IS1_ESaISB_EE8_M_eraseEPSt13_Rb_tree_nodeISB_E_x7c:
    /*0000007c*/ LDR         SL, [R3, #12] 
    /*00000080*/ CMP         SL, #0 
    /*00000084*/ BEQ         _ZNSt8_Rb_treeIKPvSt4pairIS1_St3mapIy35hiRUNTIME_FORWARD_STATUS_CALLBACK_ESt4lessIyESaIS2_IKyS4_EEEESt10_Select1stISB_ES5_IS1_ESaISB_EE8_M_eraseEPSt13_Rb_tree_nodeISB_E_x17c
    _ZNSt8_Rb_treeIKPvSt4pairIS1_St3mapIy35hiRUNTIME_FORWARD_STATUS_CALLBACK_ESt4lessIyESaIS2_IKyS4_EEEESt10_Select1stISB_ES5_IS1_ESaISB_EE8_M_eraseEPSt13_Rb_tree_nodeISB_E_x88:
    /*00000088*/ LDR         R9, [SL, #12] 
    /*0000008c*/ CMP         R9, #0 
    /*00000090*/ BEQ         _ZNSt8_Rb_treeIKPvSt4pairIS1_St3mapIy35hiRUNTIME_FORWARD_STATUS_CALLBACK_ESt4lessIyESaIS2_IKyS4_EEEESt10_Select1stISB_ES5_IS1_ESaISB_EE8_M_eraseEPSt13_Rb_tree_nodeISB_E_x134
    _ZNSt8_Rb_treeIKPvSt4pairIS1_St3mapIy35hiRUNTIME_FORWARD_STATUS_CALLBACK_ESt4lessIyESaIS2_IKyS4_EEEESt10_Select1stISB_ES5_IS1_ESaISB_EE8_M_eraseEPSt13_Rb_tree_nodeISB_E_x94:
    /*00000094*/ LDR         R6, [R9, #12] 
    /*00000098*/ CMP         R6, #0 
    /*0000009c*/ BEQ         _ZNSt8_Rb_treeIKPvSt4pairIS1_St3mapIy35hiRUNTIME_FORWARD_STATUS_CALLBACK_ESt4lessIyESaIS2_IKyS4_EEEESt10_Select1stISB_ES5_IS1_ESaISB_EE8_M_eraseEPSt13_Rb_tree_nodeISB_E_xf0
    _ZNSt8_Rb_treeIKPvSt4pairIS1_St3mapIy35hiRUNTIME_FORWARD_STATUS_CALLBACK_ESt4lessIyESaIS2_IKyS4_EEEESt10_Select1stISB_ES5_IS1_ESaISB_EE8_M_eraseEPSt13_Rb_tree_nodeISB_E_xa0:
    /*000000a0*/ LDR         R1, [R6, #12] 
    /*000000a4*/ MOV         R0, R7 
    /*000000a8*/ ADD         R5, R6, #20 
    /*000000ac*/ BL          _ZNSt8_Rb_treeIKPvSt4pairIS1_St3mapIy35hiRUNTIME_FORWARD_STATUS_CALLBACK_ESt4lessIyESaIS2_IKyS4_EEEESt10_Select1stISB_ES5_IS1_ESaISB_EE8_M_eraseEPSt13_Rb_tree_nodeISB_E
    /*000000b0*/ LDR         R4, [R6, #28] 
    /*000000b4*/ LDR         R8, [R6, #8] 
    /*000000b8*/ CMP         R4, #0 
    /*000000bc*/ BEQ         _ZNSt8_Rb_treeIKPvSt4pairIS1_St3mapIy35hiRUNTIME_FORWARD_STATUS_CALLBACK_ESt4lessIyESaIS2_IKyS4_EEEESt10_Select1stISB_ES5_IS1_ESaISB_EE8_M_eraseEPSt13_Rb_tree_nodeISB_E_xe0
    _ZNSt8_Rb_treeIKPvSt4pairIS1_St3mapIy35hiRUNTIME_FORWARD_STATUS_CALLBACK_ESt4lessIyESaIS2_IKyS4_EEEESt10_Select1stISB_ES5_IS1_ESaISB_EE8_M_eraseEPSt13_Rb_tree_nodeISB_E_xc0:
    /*000000c0*/ LDR         R1, [R4, #12] 
    /*000000c4*/ MOV         R0, R5 
    /*000000c8*/ BL          _ZNSt8_Rb_treeIySt4pairIKy35hiRUNTIME_FORWARD_STATUS_CALLBACK_EESt10_Select1stIS3_ESt4lessIyESaIS3_EE8_M_eraseEPSt13_Rb_tree_nodeIS3_E
    /*000000cc*/ LDR         FP, [R4, #8] 
    /*000000d0*/ MOV         R0, R4 
    /*000000d4*/ BL          _ZdlPv
    /*000000d8*/ SUBS        R4, FP, #0 
    /*000000dc*/ BNE         _ZNSt8_Rb_treeIKPvSt4pairIS1_St3mapIy35hiRUNTIME_FORWARD_STATUS_CALLBACK_ESt4lessIyESaIS2_IKyS4_EEEESt10_Select1stISB_ES5_IS1_ESaISB_EE8_M_eraseEPSt13_Rb_tree_nodeISB_E_xc0
    _ZNSt8_Rb_treeIKPvSt4pairIS1_St3mapIy35hiRUNTIME_FORWARD_STATUS_CALLBACK_ESt4lessIyESaIS2_IKyS4_EEEESt10_Select1stISB_ES5_IS1_ESaISB_EE8_M_eraseEPSt13_Rb_tree_nodeISB_E_xe0:
    /*000000e0*/ MOV         R0, R6 
    /*000000e4*/ BL          _ZdlPv
    /*000000e8*/ SUBS        R6, R8, #0 
    /*000000ec*/ BNE         _ZNSt8_Rb_treeIKPvSt4pairIS1_St3mapIy35hiRUNTIME_FORWARD_STATUS_CALLBACK_ESt4lessIyESaIS2_IKyS4_EEEESt10_Select1stISB_ES5_IS1_ESaISB_EE8_M_eraseEPSt13_Rb_tree_nodeISB_E_xa0
    _ZNSt8_Rb_treeIKPvSt4pairIS1_St3mapIy35hiRUNTIME_FORWARD_STATUS_CALLBACK_ESt4lessIyESaIS2_IKyS4_EEEESt10_Select1stISB_ES5_IS1_ESaISB_EE8_M_eraseEPSt13_Rb_tree_nodeISB_E_xf0:
    /*000000f0*/ LDR         R4, [R9, #28] 
    /*000000f4*/ ADD         R6, R9, #20 
    /*000000f8*/ LDR         R8, [R9, #8] 
    /*000000fc*/ CMP         R4, #0 
    /*00000100*/ BEQ         _ZNSt8_Rb_treeIKPvSt4pairIS1_St3mapIy35hiRUNTIME_FORWARD_STATUS_CALLBACK_ESt4lessIyESaIS2_IKyS4_EEEESt10_Select1stISB_ES5_IS1_ESaISB_EE8_M_eraseEPSt13_Rb_tree_nodeISB_E_x124
    _ZNSt8_Rb_treeIKPvSt4pairIS1_St3mapIy35hiRUNTIME_FORWARD_STATUS_CALLBACK_ESt4lessIyESaIS2_IKyS4_EEEESt10_Select1stISB_ES5_IS1_ESaISB_EE8_M_eraseEPSt13_Rb_tree_nodeISB_E_x104:
    /*00000104*/ LDR         R1, [R4, #12] 
    /*00000108*/ MOV         R0, R6 
    /*0000010c*/ BL          _ZNSt8_Rb_treeIySt4pairIKy35hiRUNTIME_FORWARD_STATUS_CALLBACK_EESt10_Select1stIS3_ESt4lessIyESaIS3_EE8_M_eraseEPSt13_Rb_tree_nodeIS3_E
    /*00000110*/ LDR         R5, [R4, #8] 
    /*00000114*/ MOV         R0, R4 
    /*00000118*/ BL          _ZdlPv
    /*0000011c*/ SUBS        R4, R5, #0 
    /*00000120*/ BNE         _ZNSt8_Rb_treeIKPvSt4pairIS1_St3mapIy35hiRUNTIME_FORWARD_STATUS_CALLBACK_ESt4lessIyESaIS2_IKyS4_EEEESt10_Select1stISB_ES5_IS1_ESaISB_EE8_M_eraseEPSt13_Rb_tree_nodeISB_E_x104
    _ZNSt8_Rb_treeIKPvSt4pairIS1_St3mapIy35hiRUNTIME_FORWARD_STATUS_CALLBACK_ESt4lessIyESaIS2_IKyS4_EEEESt10_Select1stISB_ES5_IS1_ESaISB_EE8_M_eraseEPSt13_Rb_tree_nodeISB_E_x124:
    /*00000124*/ MOV         R0, R9 
    /*00000128*/ BL          _ZdlPv
    /*0000012c*/ SUBS        R9, R8, #0 
    /*00000130*/ BNE         _ZNSt8_Rb_treeIKPvSt4pairIS1_St3mapIy35hiRUNTIME_FORWARD_STATUS_CALLBACK_ESt4lessIyESaIS2_IKyS4_EEEESt10_Select1stISB_ES5_IS1_ESaISB_EE8_M_eraseEPSt13_Rb_tree_nodeISB_E_x94
    _ZNSt8_Rb_treeIKPvSt4pairIS1_St3mapIy35hiRUNTIME_FORWARD_STATUS_CALLBACK_ESt4lessIyESaIS2_IKyS4_EEEESt10_Select1stISB_ES5_IS1_ESaISB_EE8_M_eraseEPSt13_Rb_tree_nodeISB_E_x134:
    /*00000134*/ LDR         R4, [SL, #28] 
    /*00000138*/ ADD         R6, SL, #20 
    /*0000013c*/ LDR         R8, [SL, #8] 
    /*00000140*/ CMP         R4, #0 
    /*00000144*/ BEQ         _ZNSt8_Rb_treeIKPvSt4pairIS1_St3mapIy35hiRUNTIME_FORWARD_STATUS_CALLBACK_ESt4lessIyESaIS2_IKyS4_EEEESt10_Select1stISB_ES5_IS1_ESaISB_EE8_M_eraseEPSt13_Rb_tree_nodeISB_E_x168
    _ZNSt8_Rb_treeIKPvSt4pairIS1_St3mapIy35hiRUNTIME_FORWARD_STATUS_CALLBACK_ESt4lessIyESaIS2_IKyS4_EEEESt10_Select1stISB_ES5_IS1_ESaISB_EE8_M_eraseEPSt13_Rb_tree_nodeISB_E_x148:
    /*00000148*/ LDR         R1, [R4, #12] 
    /*0000014c*/ MOV         R0, R6 
    /*00000150*/ BL          _ZNSt8_Rb_treeIySt4pairIKy35hiRUNTIME_FORWARD_STATUS_CALLBACK_EESt10_Select1stIS3_ESt4lessIyESaIS3_EE8_M_eraseEPSt13_Rb_tree_nodeIS3_E
    /*00000154*/ LDR         R5, [R4, #8] 
    /*00000158*/ MOV         R0, R4 
    /*0000015c*/ BL          _ZdlPv
    /*00000160*/ SUBS        R4, R5, #0 
    /*00000164*/ BNE         _ZNSt8_Rb_treeIKPvSt4pairIS1_St3mapIy35hiRUNTIME_FORWARD_STATUS_CALLBACK_ESt4lessIyESaIS2_IKyS4_EEEESt10_Select1stISB_ES5_IS1_ESaISB_EE8_M_eraseEPSt13_Rb_tree_nodeISB_E_x148
    _ZNSt8_Rb_treeIKPvSt4pairIS1_St3mapIy35hiRUNTIME_FORWARD_STATUS_CALLBACK_ESt4lessIyESaIS2_IKyS4_EEEESt10_Select1stISB_ES5_IS1_ESaISB_EE8_M_eraseEPSt13_Rb_tree_nodeISB_E_x168:
    /*00000168*/ MOV         R0, SL 
    /*0000016c*/ BL          _ZdlPv
    /*00000170*/ SUBS        SL, R8, #0 
    /*00000174*/ BNE         _ZNSt8_Rb_treeIKPvSt4pairIS1_St3mapIy35hiRUNTIME_FORWARD_STATUS_CALLBACK_ESt4lessIyESaIS2_IKyS4_EEEESt10_Select1stISB_ES5_IS1_ESaISB_EE8_M_eraseEPSt13_Rb_tree_nodeISB_E_x88
    /*00000178*/ LDR         R3, [SP] 
    _ZNSt8_Rb_treeIKPvSt4pairIS1_St3mapIy35hiRUNTIME_FORWARD_STATUS_CALLBACK_ESt4lessIyESaIS2_IKyS4_EEEESt10_Select1stISB_ES5_IS1_ESaISB_EE8_M_eraseEPSt13_Rb_tree_nodeISB_E_x17c:
    /*0000017c*/ LDR         R4, [R3, #28] 
    /*00000180*/ ADD         R8, R3, #20 
    /*00000184*/ LDR         R5, [R3, #8] 
    /*00000188*/ CMP         R4, #0 
    /*0000018c*/ BEQ         _ZNSt8_Rb_treeIKPvSt4pairIS1_St3mapIy35hiRUNTIME_FORWARD_STATUS_CALLBACK_ESt4lessIyESaIS2_IKyS4_EEEESt10_Select1stISB_ES5_IS1_ESaISB_EE8_M_eraseEPSt13_Rb_tree_nodeISB_E_x1b0
    _ZNSt8_Rb_treeIKPvSt4pairIS1_St3mapIy35hiRUNTIME_FORWARD_STATUS_CALLBACK_ESt4lessIyESaIS2_IKyS4_EEEESt10_Select1stISB_ES5_IS1_ESaISB_EE8_M_eraseEPSt13_Rb_tree_nodeISB_E_x190:
    /*00000190*/ LDR         R1, [R4, #12] 
    /*00000194*/ MOV         R0, R8 
    /*00000198*/ BL          _ZNSt8_Rb_treeIySt4pairIKy35hiRUNTIME_FORWARD_STATUS_CALLBACK_EESt10_Select1stIS3_ESt4lessIyESaIS3_EE8_M_eraseEPSt13_Rb_tree_nodeIS3_E
    /*0000019c*/ LDR         R6, [R4, #8] 
    /*000001a0*/ MOV         R0, R4 
    /*000001a4*/ BL          _ZdlPv
    /*000001a8*/ SUBS        R4, R6, #0 
    /*000001ac*/ BNE         _ZNSt8_Rb_treeIKPvSt4pairIS1_St3mapIy35hiRUNTIME_FORWARD_STATUS_CALLBACK_ESt4lessIyESaIS2_IKyS4_EEEESt10_Select1stISB_ES5_IS1_ESaISB_EE8_M_eraseEPSt13_Rb_tree_nodeISB_E_x190
    _ZNSt8_Rb_treeIKPvSt4pairIS1_St3mapIy35hiRUNTIME_FORWARD_STATUS_CALLBACK_ESt4lessIyESaIS2_IKyS4_EEEESt10_Select1stISB_ES5_IS1_ESaISB_EE8_M_eraseEPSt13_Rb_tree_nodeISB_E_x1b0:
    /*000001b0*/ LDR         R0, [SP] 
    /*000001b4*/ BL          _ZdlPv
    /*000001b8*/ SUBS        R3, R5, #0 
    /*000001bc*/ STR         R3, [SP] 
    /*000001c0*/ BNE         _ZNSt8_Rb_treeIKPvSt4pairIS1_St3mapIy35hiRUNTIME_FORWARD_STATUS_CALLBACK_ESt4lessIyESaIS2_IKyS4_EEEESt10_Select1stISB_ES5_IS1_ESaISB_EE8_M_eraseEPSt13_Rb_tree_nodeISB_E_x7c
    /*000001c4*/ LDR         R3, [SP, #4] 
    _ZNSt8_Rb_treeIKPvSt4pairIS1_St3mapIy35hiRUNTIME_FORWARD_STATUS_CALLBACK_ESt4lessIyESaIS2_IKyS4_EEEESt10_Select1stISB_ES5_IS1_ESaISB_EE8_M_eraseEPSt13_Rb_tree_nodeISB_E_x1c8:
    /*000001c8*/ LDR         R4, [R3, #28] 
    /*000001cc*/ ADD         R8, R3, #20 
    /*000001d0*/ LDR         R5, [R3, #8] 
    /*000001d4*/ CMP         R4, #0 
    /*000001d8*/ BEQ         _ZNSt8_Rb_treeIKPvSt4pairIS1_St3mapIy35hiRUNTIME_FORWARD_STATUS_CALLBACK_ESt4lessIyESaIS2_IKyS4_EEEESt10_Select1stISB_ES5_IS1_ESaISB_EE8_M_eraseEPSt13_Rb_tree_nodeISB_E_x1fc
    _ZNSt8_Rb_treeIKPvSt4pairIS1_St3mapIy35hiRUNTIME_FORWARD_STATUS_CALLBACK_ESt4lessIyESaIS2_IKyS4_EEEESt10_Select1stISB_ES5_IS1_ESaISB_EE8_M_eraseEPSt13_Rb_tree_nodeISB_E_x1dc:
    /*000001dc*/ LDR         R1, [R4, #12] 
    /*000001e0*/ MOV         R0, R8 
    /*000001e4*/ BL          _ZNSt8_Rb_treeIySt4pairIKy35hiRUNTIME_FORWARD_STATUS_CALLBACK_EESt10_Select1stIS3_ESt4lessIyESaIS3_EE8_M_eraseEPSt13_Rb_tree_nodeIS3_E
    /*000001e8*/ LDR         R6, [R4, #8] 
    /*000001ec*/ MOV         R0, R4 
    /*000001f0*/ BL          _ZdlPv
    /*000001f4*/ SUBS        R4, R6, #0 
    /*000001f8*/ BNE         _ZNSt8_Rb_treeIKPvSt4pairIS1_St3mapIy35hiRUNTIME_FORWARD_STATUS_CALLBACK_ESt4lessIyESaIS2_IKyS4_EEEESt10_Select1stISB_ES5_IS1_ESaISB_EE8_M_eraseEPSt13_Rb_tree_nodeISB_E_x1dc
    _ZNSt8_Rb_treeIKPvSt4pairIS1_St3mapIy35hiRUNTIME_FORWARD_STATUS_CALLBACK_ESt4lessIyESaIS2_IKyS4_EEEESt10_Select1stISB_ES5_IS1_ESaISB_EE8_M_eraseEPSt13_Rb_tree_nodeISB_E_x1fc:
    /*000001fc*/ LDR         R0, [SP, #4] 
    /*00000200*/ BL          _ZdlPv
    /*00000204*/ SUBS        R3, R5, #0 
    /*00000208*/ STR         R3, [SP, #4] 
    /*0000020c*/ BNE         _ZNSt8_Rb_treeIKPvSt4pairIS1_St3mapIy35hiRUNTIME_FORWARD_STATUS_CALLBACK_ESt4lessIyESaIS2_IKyS4_EEEESt10_Select1stISB_ES5_IS1_ESaISB_EE8_M_eraseEPSt13_Rb_tree_nodeISB_E_x68
    /*00000210*/ LDR         R3, [SP, #8] 
    _ZNSt8_Rb_treeIKPvSt4pairIS1_St3mapIy35hiRUNTIME_FORWARD_STATUS_CALLBACK_ESt4lessIyESaIS2_IKyS4_EEEESt10_Select1stISB_ES5_IS1_ESaISB_EE8_M_eraseEPSt13_Rb_tree_nodeISB_E_x214:
    /*00000214*/ LDR         R4, [R3, #28] 
    /*00000218*/ ADD         R8, R3, #20 
    /*0000021c*/ LDR         R5, [R3, #8] 
    /*00000220*/ CMP         R4, #0 
    /*00000224*/ BEQ         _ZNSt8_Rb_treeIKPvSt4pairIS1_St3mapIy35hiRUNTIME_FORWARD_STATUS_CALLBACK_ESt4lessIyESaIS2_IKyS4_EEEESt10_Select1stISB_ES5_IS1_ESaISB_EE8_M_eraseEPSt13_Rb_tree_nodeISB_E_x248
    _ZNSt8_Rb_treeIKPvSt4pairIS1_St3mapIy35hiRUNTIME_FORWARD_STATUS_CALLBACK_ESt4lessIyESaIS2_IKyS4_EEEESt10_Select1stISB_ES5_IS1_ESaISB_EE8_M_eraseEPSt13_Rb_tree_nodeISB_E_x228:
    /*00000228*/ LDR         R1, [R4, #12] 
    /*0000022c*/ MOV         R0, R8 
    /*00000230*/ BL          _ZNSt8_Rb_treeIySt4pairIKy35hiRUNTIME_FORWARD_STATUS_CALLBACK_EESt10_Select1stIS3_ESt4lessIyESaIS3_EE8_M_eraseEPSt13_Rb_tree_nodeIS3_E
    /*00000234*/ LDR         R6, [R4, #8] 
    /*00000238*/ MOV         R0, R4 
    /*0000023c*/ BL          _ZdlPv
    /*00000240*/ SUBS        R4, R6, #0 
    /*00000244*/ BNE         _ZNSt8_Rb_treeIKPvSt4pairIS1_St3mapIy35hiRUNTIME_FORWARD_STATUS_CALLBACK_ESt4lessIyESaIS2_IKyS4_EEEESt10_Select1stISB_ES5_IS1_ESaISB_EE8_M_eraseEPSt13_Rb_tree_nodeISB_E_x228
    _ZNSt8_Rb_treeIKPvSt4pairIS1_St3mapIy35hiRUNTIME_FORWARD_STATUS_CALLBACK_ESt4lessIyESaIS2_IKyS4_EEEESt10_Select1stISB_ES5_IS1_ESaISB_EE8_M_eraseEPSt13_Rb_tree_nodeISB_E_x248:
    /*00000248*/ LDR         R0, [SP, #8] 
    /*0000024c*/ BL          _ZdlPv
    /*00000250*/ SUBS        R3, R5, #0 
    /*00000254*/ STR         R3, [SP, #8] 
    /*00000258*/ BNE         _ZNSt8_Rb_treeIKPvSt4pairIS1_St3mapIy35hiRUNTIME_FORWARD_STATUS_CALLBACK_ESt4lessIyESaIS2_IKyS4_EEEESt10_Select1stISB_ES5_IS1_ESaISB_EE8_M_eraseEPSt13_Rb_tree_nodeISB_E_x54
    _ZNSt8_Rb_treeIKPvSt4pairIS1_St3mapIy35hiRUNTIME_FORWARD_STATUS_CALLBACK_ESt4lessIyESaIS2_IKyS4_EEEESt10_Select1stISB_ES5_IS1_ESaISB_EE8_M_eraseEPSt13_Rb_tree_nodeISB_E_x25c:
    /*0000025c*/ LDR         R3, [SP, #12] 
    /*00000260*/ LDR         R4, [R3, #28] 
    /*00000264*/ ADD         R8, R3, #20 
    /*00000268*/ LDR         R5, [R3, #8] 
    /*0000026c*/ CMP         R4, #0 
    /*00000270*/ BEQ         _ZNSt8_Rb_treeIKPvSt4pairIS1_St3mapIy35hiRUNTIME_FORWARD_STATUS_CALLBACK_ESt4lessIyESaIS2_IKyS4_EEEESt10_Select1stISB_ES5_IS1_ESaISB_EE8_M_eraseEPSt13_Rb_tree_nodeISB_E_x294
    _ZNSt8_Rb_treeIKPvSt4pairIS1_St3mapIy35hiRUNTIME_FORWARD_STATUS_CALLBACK_ESt4lessIyESaIS2_IKyS4_EEEESt10_Select1stISB_ES5_IS1_ESaISB_EE8_M_eraseEPSt13_Rb_tree_nodeISB_E_x274:
    /*00000274*/ LDR         R1, [R4, #12] 
    /*00000278*/ MOV         R0, R8 
    /*0000027c*/ BL          _ZNSt8_Rb_treeIySt4pairIKy35hiRUNTIME_FORWARD_STATUS_CALLBACK_EESt10_Select1stIS3_ESt4lessIyESaIS3_EE8_M_eraseEPSt13_Rb_tree_nodeIS3_E
    /*00000280*/ LDR         R6, [R4, #8] 
    /*00000284*/ MOV         R0, R4 
    /*00000288*/ BL          _ZdlPv
    /*0000028c*/ SUBS        R4, R6, #0 
    /*00000290*/ BNE         _ZNSt8_Rb_treeIKPvSt4pairIS1_St3mapIy35hiRUNTIME_FORWARD_STATUS_CALLBACK_ESt4lessIyESaIS2_IKyS4_EEEESt10_Select1stISB_ES5_IS1_ESaISB_EE8_M_eraseEPSt13_Rb_tree_nodeISB_E_x274
    _ZNSt8_Rb_treeIKPvSt4pairIS1_St3mapIy35hiRUNTIME_FORWARD_STATUS_CALLBACK_ESt4lessIyESaIS2_IKyS4_EEEESt10_Select1stISB_ES5_IS1_ESaISB_EE8_M_eraseEPSt13_Rb_tree_nodeISB_E_x294:
    /*00000294*/ LDR         R0, [SP, #12] 
    /*00000298*/ BL          _ZdlPv
    /*0000029c*/ SUBS        R3, R5, #0 
    /*000002a0*/ STR         R3, [SP, #12] 
    /*000002a4*/ BNE         _ZNSt8_Rb_treeIKPvSt4pairIS1_St3mapIy35hiRUNTIME_FORWARD_STATUS_CALLBACK_ESt4lessIyESaIS2_IKyS4_EEEESt10_Select1stISB_ES5_IS1_ESaISB_EE8_M_eraseEPSt13_Rb_tree_nodeISB_E_x44
    _ZNSt8_Rb_treeIKPvSt4pairIS1_St3mapIy35hiRUNTIME_FORWARD_STATUS_CALLBACK_ESt4lessIyESaIS2_IKyS4_EEEESt10_Select1stISB_ES5_IS1_ESaISB_EE8_M_eraseEPSt13_Rb_tree_nodeISB_E_x2a8:
    /*000002a8*/ LDR         R3, [SP, #16] 
    /*000002ac*/ LDR         R4, [R3, #28] 
    /*000002b0*/ ADD         R8, R3, #20 
    /*000002b4*/ LDR         R5, [R3, #8] 
    /*000002b8*/ CMP         R4, #0 
    /*000002bc*/ BEQ         _ZNSt8_Rb_treeIKPvSt4pairIS1_St3mapIy35hiRUNTIME_FORWARD_STATUS_CALLBACK_ESt4lessIyESaIS2_IKyS4_EEEESt10_Select1stISB_ES5_IS1_ESaISB_EE8_M_eraseEPSt13_Rb_tree_nodeISB_E_x2e0
    _ZNSt8_Rb_treeIKPvSt4pairIS1_St3mapIy35hiRUNTIME_FORWARD_STATUS_CALLBACK_ESt4lessIyESaIS2_IKyS4_EEEESt10_Select1stISB_ES5_IS1_ESaISB_EE8_M_eraseEPSt13_Rb_tree_nodeISB_E_x2c0:
    /*000002c0*/ LDR         R1, [R4, #12] 
    /*000002c4*/ MOV         R0, R8 
    /*000002c8*/ BL          _ZNSt8_Rb_treeIySt4pairIKy35hiRUNTIME_FORWARD_STATUS_CALLBACK_EESt10_Select1stIS3_ESt4lessIyESaIS3_EE8_M_eraseEPSt13_Rb_tree_nodeIS3_E
    /*000002cc*/ LDR         R6, [R4, #8] 
    /*000002d0*/ MOV         R0, R4 
    /*000002d4*/ BL          _ZdlPv
    /*000002d8*/ SUBS        R4, R6, #0 
    /*000002dc*/ BNE         _ZNSt8_Rb_treeIKPvSt4pairIS1_St3mapIy35hiRUNTIME_FORWARD_STATUS_CALLBACK_ESt4lessIyESaIS2_IKyS4_EEEESt10_Select1stISB_ES5_IS1_ESaISB_EE8_M_eraseEPSt13_Rb_tree_nodeISB_E_x2c0
    _ZNSt8_Rb_treeIKPvSt4pairIS1_St3mapIy35hiRUNTIME_FORWARD_STATUS_CALLBACK_ESt4lessIyESaIS2_IKyS4_EEEESt10_Select1stISB_ES5_IS1_ESaISB_EE8_M_eraseEPSt13_Rb_tree_nodeISB_E_x2e0:
    /*000002e0*/ LDR         R0, [SP, #16] 
    /*000002e4*/ BL          _ZdlPv
    /*000002e8*/ SUBS        R3, R5, #0 
    /*000002ec*/ STR         R3, [SP, #16] 
    /*000002f0*/ BNE         _ZNSt8_Rb_treeIKPvSt4pairIS1_St3mapIy35hiRUNTIME_FORWARD_STATUS_CALLBACK_ESt4lessIyESaIS2_IKyS4_EEEESt10_Select1stISB_ES5_IS1_ESaISB_EE8_M_eraseEPSt13_Rb_tree_nodeISB_E_x34
    _ZNSt8_Rb_treeIKPvSt4pairIS1_St3mapIy35hiRUNTIME_FORWARD_STATUS_CALLBACK_ESt4lessIyESaIS2_IKyS4_EEEESt10_Select1stISB_ES5_IS1_ESaISB_EE8_M_eraseEPSt13_Rb_tree_nodeISB_E_x2f4:
    /*000002f4*/ LDR         R3, [SP, #20] 
    /*000002f8*/ LDR         R4, [R3, #28] 
    /*000002fc*/ ADD         R8, R3, #20 
    /*00000300*/ LDR         R5, [R3, #8] 
    /*00000304*/ CMP         R4, #0 
    /*00000308*/ BEQ         _ZNSt8_Rb_treeIKPvSt4pairIS1_St3mapIy35hiRUNTIME_FORWARD_STATUS_CALLBACK_ESt4lessIyESaIS2_IKyS4_EEEESt10_Select1stISB_ES5_IS1_ESaISB_EE8_M_eraseEPSt13_Rb_tree_nodeISB_E_x32c
    _ZNSt8_Rb_treeIKPvSt4pairIS1_St3mapIy35hiRUNTIME_FORWARD_STATUS_CALLBACK_ESt4lessIyESaIS2_IKyS4_EEEESt10_Select1stISB_ES5_IS1_ESaISB_EE8_M_eraseEPSt13_Rb_tree_nodeISB_E_x30c:
    /*0000030c*/ LDR         R1, [R4, #12] 
    /*00000310*/ MOV         R0, R8 
    /*00000314*/ BL          _ZNSt8_Rb_treeIySt4pairIKy35hiRUNTIME_FORWARD_STATUS_CALLBACK_EESt10_Select1stIS3_ESt4lessIyESaIS3_EE8_M_eraseEPSt13_Rb_tree_nodeIS3_E
    /*00000318*/ LDR         R6, [R4, #8] 
    /*0000031c*/ MOV         R0, R4 
    /*00000320*/ BL          _ZdlPv
    /*00000324*/ SUBS        R4, R6, #0 
    /*00000328*/ BNE         _ZNSt8_Rb_treeIKPvSt4pairIS1_St3mapIy35hiRUNTIME_FORWARD_STATUS_CALLBACK_ESt4lessIyESaIS2_IKyS4_EEEESt10_Select1stISB_ES5_IS1_ESaISB_EE8_M_eraseEPSt13_Rb_tree_nodeISB_E_x30c
    _ZNSt8_Rb_treeIKPvSt4pairIS1_St3mapIy35hiRUNTIME_FORWARD_STATUS_CALLBACK_ESt4lessIyESaIS2_IKyS4_EEEESt10_Select1stISB_ES5_IS1_ESaISB_EE8_M_eraseEPSt13_Rb_tree_nodeISB_E_x32c:
    /*0000032c*/ LDR         R0, [SP, #20] 
    /*00000330*/ BL          _ZdlPv
    /*00000334*/ SUBS        R3, R5, #0 
    /*00000338*/ STR         R3, [SP, #20] 
    /*0000033c*/ BNE         _ZNSt8_Rb_treeIKPvSt4pairIS1_St3mapIy35hiRUNTIME_FORWARD_STATUS_CALLBACK_ESt4lessIyESaIS2_IKyS4_EEEESt10_Select1stISB_ES5_IS1_ESaISB_EE8_M_eraseEPSt13_Rb_tree_nodeISB_E_x24
    _ZNSt8_Rb_treeIKPvSt4pairIS1_St3mapIy35hiRUNTIME_FORWARD_STATUS_CALLBACK_ESt4lessIyESaIS2_IKyS4_EEEESt10_Select1stISB_ES5_IS1_ESaISB_EE8_M_eraseEPSt13_Rb_tree_nodeISB_E_x340:
    /*00000340*/ ADD         SP, SP, #28 
    /*00000344*/ POP         {R4, R5, R6, R7, R8, R9, SL, FP, PC} 
FUNC_END _ZNSt8_Rb_treeIKPvSt4pairIS1_St3mapIy35hiRUNTIME_FORWARD_STATUS_CALLBACK_ESt4lessIyESaIS2_IKyS4_EEEESt10_Select1stISB_ES5_IS1_ESaISB_EE8_M_eraseEPSt13_Rb_tree_nodeISB_E


@ - - - - - - - - - - - - - - - - - - - - - - - - - - - - - 
@ .text._ZNSt8_Rb_treeIKPvSt4pairIS1_St3mapIy35hiRUNTIME_FORWARD_STATUS_CALLBACK_ESt4lessIyESaIS2_IKyS4_EEEESt10_Select1stISB_ES5_IS1_ESaISB_EE5eraseERS1_
@ Size: 0x1d4
@ - - - - - - - - - - - - - - - - - - - - - - - - - - - - - 

FUNC_BEGIN _ZNSt8_Rb_treeIKPvSt4pairIS1_St3mapIy35hiRUNTIME_FORWARD_STATUS_CALLBACK_ESt4lessIyESaIS2_IKyS4_EEEESt10_Select1stISB_ES5_IS1_ESaISB_EE5eraseERS1_
    /*00000000*/ MOV         IP, #16384                  @ 0x4000 
    /*00000004*/ PUSH        {R4, R5, R6, R7, R8, R9, SL, FP, LR} 
    /*00000008*/ SUB         IP, SP, IP 
    /*0000000c*/ STR         R0, [IP, #4048]             @ 0xfd0 
    /*00000010*/ LDR         LR, [R0, #8] 
    /*00000014*/ SUB         SP, SP, #12 
    /*00000018*/ MOV         R7, R0 
    /*0000001c*/ ADD         SL, R0, #4 
    /*00000020*/ CMP         LR, #0 
    /*00000024*/ BEQ         _ZNSt8_Rb_treeIKPvSt4pairIS1_St3mapIy35hiRUNTIME_FORWARD_STATUS_CALLBACK_ESt4lessIyESaIS2_IKyS4_EEEESt10_Select1stISB_ES5_IS1_ESaISB_EE5eraseERS1__x1c8
    /*00000028*/ LDR         R0, [R1] 
    /*0000002c*/ MOV         R8, SL 
    /*00000030*/ MOV         R3, LR 
    _ZNSt8_Rb_treeIKPvSt4pairIS1_St3mapIy35hiRUNTIME_FORWARD_STATUS_CALLBACK_ESt4lessIyESaIS2_IKyS4_EEEESt10_Select1stISB_ES5_IS1_ESaISB_EE5eraseERS1__x34:
    /*00000034*/ LDR         R2, [R3, #16] 
    /*00000038*/ CMP         R0, R2 
    /*0000003c*/ LDRHI       R3, [R3, #12] 
    /*00000040*/ BHI         _ZNSt8_Rb_treeIKPvSt4pairIS1_St3mapIy35hiRUNTIME_FORWARD_STATUS_CALLBACK_ESt4lessIyESaIS2_IKyS4_EEEESt10_Select1stISB_ES5_IS1_ESaISB_EE5eraseERS1__x50
    /*00000044*/ BCS         _ZNSt8_Rb_treeIKPvSt4pairIS1_St3mapIy35hiRUNTIME_FORWARD_STATUS_CALLBACK_ESt4lessIyESaIS2_IKyS4_EEEESt10_Select1stISB_ES5_IS1_ESaISB_EE5eraseERS1__xb8
    /*00000048*/ MOV         R8, R3 
    /*0000004c*/ LDR         R3, [R3, #8] 
    _ZNSt8_Rb_treeIKPvSt4pairIS1_St3mapIy35hiRUNTIME_FORWARD_STATUS_CALLBACK_ESt4lessIyESaIS2_IKyS4_EEEESt10_Select1stISB_ES5_IS1_ESaISB_EE5eraseERS1__x50:
    /*00000050*/ CMP         R3, #0 
    /*00000054*/ BNE         _ZNSt8_Rb_treeIKPvSt4pairIS1_St3mapIy35hiRUNTIME_FORWARD_STATUS_CALLBACK_ESt4lessIyESaIS2_IKyS4_EEEESt10_Select1stISB_ES5_IS1_ESaISB_EE5eraseERS1__x34
    /*00000058*/ SUB         R3, SL, R8 
    /*0000005c*/ CLZ         R3, R3 
    /*00000060*/ LSR         R3, R3, #5 
    _ZNSt8_Rb_treeIKPvSt4pairIS1_St3mapIy35hiRUNTIME_FORWARD_STATUS_CALLBACK_ESt4lessIyESaIS2_IKyS4_EEEESt10_Select1stISB_ES5_IS1_ESaISB_EE5eraseERS1__x64:
    /*00000064*/ LDR         R2, [R7, #12] 
    /*00000068*/ LDR         R1, [R7, #20] 
    /*0000006c*/ CMP         R2, R8 
    /*00000070*/ MOVNE       R8, #0 
    /*00000074*/ ANDEQ       R8, R3, #1 
    /*00000078*/ STR         R1, [SP, #4] 
    /*0000007c*/ CMP         R8, #0 
    /*00000080*/ STREQ       R8, [SP, #4] 
    /*00000084*/ MOVEQ       R0, R8 
    /*00000088*/ BEQ         _ZNSt8_Rb_treeIKPvSt4pairIS1_St3mapIy35hiRUNTIME_FORWARD_STATUS_CALLBACK_ESt4lessIyESaIS2_IKyS4_EEEESt10_Select1stISB_ES5_IS1_ESaISB_EE5eraseERS1__xb0
    _ZNSt8_Rb_treeIKPvSt4pairIS1_St3mapIy35hiRUNTIME_FORWARD_STATUS_CALLBACK_ESt4lessIyESaIS2_IKyS4_EEEESt10_Select1stISB_ES5_IS1_ESaISB_EE5eraseERS1__x8c:
    /*0000008c*/ MOV         R0, R7 
    /*00000090*/ MOV         R1, LR 
    /*00000094*/ BL          _ZNSt8_Rb_treeIKPvSt4pairIS1_St3mapIy35hiRUNTIME_FORWARD_STATUS_CALLBACK_ESt4lessIyESaIS2_IKyS4_EEEESt10_Select1stISB_ES5_IS1_ESaISB_EE8_M_eraseEPSt13_Rb_tree_nodeISB_E
    /*00000098*/ LDR         R0, [SP, #4] 
    /*0000009c*/ MOV         R3, #0 
    /*000000a0*/ STR         SL, [R7, #12] 
    /*000000a4*/ STR         SL, [R7, #16] 
    /*000000a8*/ STR         R3, [R7, #8] 
    /*000000ac*/ STR         R3, [R7, #20] 
    _ZNSt8_Rb_treeIKPvSt4pairIS1_St3mapIy35hiRUNTIME_FORWARD_STATUS_CALLBACK_ESt4lessIyESaIS2_IKyS4_EEEESt10_Select1stISB_ES5_IS1_ESaISB_EE5eraseERS1__xb0:
    /*000000b0*/ ADD         SP, SP, #12 
    /*000000b4*/ POP         {R4, R5, R6, R7, R8, R9, SL, FP, PC} 
    _ZNSt8_Rb_treeIKPvSt4pairIS1_St3mapIy35hiRUNTIME_FORWARD_STATUS_CALLBACK_ESt4lessIyESaIS2_IKyS4_EEEESt10_Select1stISB_ES5_IS1_ESaISB_EE5eraseERS1__xb8:
    /*000000b8*/ LDR         IP, [R3, #8] 
    /*000000bc*/ MOV         R4, R3 
    /*000000c0*/ LDR         R2, [R3, #12] 
    /*000000c4*/ CMP         IP, #0 
    /*000000c8*/ BEQ         _ZNSt8_Rb_treeIKPvSt4pairIS1_St3mapIy35hiRUNTIME_FORWARD_STATUS_CALLBACK_ESt4lessIyESaIS2_IKyS4_EEEESt10_Select1stISB_ES5_IS1_ESaISB_EE5eraseERS1__xec
    /*000000cc*/ MOV         R3, IP 
    _ZNSt8_Rb_treeIKPvSt4pairIS1_St3mapIy35hiRUNTIME_FORWARD_STATUS_CALLBACK_ESt4lessIyESaIS2_IKyS4_EEEESt10_Select1stISB_ES5_IS1_ESaISB_EE5eraseERS1__xd0:
    /*000000d0*/ LDR         R1, [R3, #16] 
    /*000000d4*/ CMP         R0, R1 
    /*000000d8*/ MOVLS       R4, R3 
    /*000000dc*/ LDRHI       R3, [R3, #12] 
    /*000000e0*/ LDRLS       R3, [R3, #8] 
    /*000000e4*/ CMP         R3, #0 
    /*000000e8*/ BNE         _ZNSt8_Rb_treeIKPvSt4pairIS1_St3mapIy35hiRUNTIME_FORWARD_STATUS_CALLBACK_ESt4lessIyESaIS2_IKyS4_EEEESt10_Select1stISB_ES5_IS1_ESaISB_EE5eraseERS1__xd0
    _ZNSt8_Rb_treeIKPvSt4pairIS1_St3mapIy35hiRUNTIME_FORWARD_STATUS_CALLBACK_ESt4lessIyESaIS2_IKyS4_EEEESt10_Select1stISB_ES5_IS1_ESaISB_EE5eraseERS1__xec:
    /*000000ec*/ CMP         R2, #0 
    /*000000f0*/ BEQ         _ZNSt8_Rb_treeIKPvSt4pairIS1_St3mapIy35hiRUNTIME_FORWARD_STATUS_CALLBACK_ESt4lessIyESaIS2_IKyS4_EEEESt10_Select1stISB_ES5_IS1_ESaISB_EE5eraseERS1__x114
    /*000000f4*/ MOV         R3, R2 
    _ZNSt8_Rb_treeIKPvSt4pairIS1_St3mapIy35hiRUNTIME_FORWARD_STATUS_CALLBACK_ESt4lessIyESaIS2_IKyS4_EEEESt10_Select1stISB_ES5_IS1_ESaISB_EE5eraseERS1__xf8:
    /*000000f8*/ LDR         R2, [R3, #16] 
    /*000000fc*/ CMP         R0, R2 
    /*00000100*/ MOVCC       R8, R3 
    /*00000104*/ LDRCS       R3, [R3, #12] 
    /*00000108*/ LDRCC       R3, [R3, #8] 
    /*0000010c*/ CMP         R3, #0 
    /*00000110*/ BNE         _ZNSt8_Rb_treeIKPvSt4pairIS1_St3mapIy35hiRUNTIME_FORWARD_STATUS_CALLBACK_ESt4lessIyESaIS2_IKyS4_EEEESt10_Select1stISB_ES5_IS1_ESaISB_EE5eraseERS1__xf8
    _ZNSt8_Rb_treeIKPvSt4pairIS1_St3mapIy35hiRUNTIME_FORWARD_STATUS_CALLBACK_ESt4lessIyESaIS2_IKyS4_EEEESt10_Select1stISB_ES5_IS1_ESaISB_EE5eraseERS1__x114:
    /*00000114*/ LDR         R3, [R7, #12] 
    /*00000118*/ LDR         R2, [R7, #20] 
    /*0000011c*/ CMP         R3, R4 
    /*00000120*/ CMPEQ       SL, R8 
    /*00000124*/ STR         R2, [SP, #4] 
    /*00000128*/ MOVEQ       R3, #1 
    /*0000012c*/ MOVNE       R3, #0 
    /*00000130*/ BEQ         _ZNSt8_Rb_treeIKPvSt4pairIS1_St3mapIy35hiRUNTIME_FORWARD_STATUS_CALLBACK_ESt4lessIyESaIS2_IKyS4_EEEESt10_Select1stISB_ES5_IS1_ESaISB_EE5eraseERS1__x8c
    /*00000134*/ CMP         R8, R4 
    /*00000138*/ STREQ       R3, [SP, #4] 
    /*0000013c*/ MOVEQ       R0, R3 
    /*00000140*/ BEQ         _ZNSt8_Rb_treeIKPvSt4pairIS1_St3mapIy35hiRUNTIME_FORWARD_STATUS_CALLBACK_ESt4lessIyESaIS2_IKyS4_EEEESt10_Select1stISB_ES5_IS1_ESaISB_EE5eraseERS1__xb0
    _ZNSt8_Rb_treeIKPvSt4pairIS1_St3mapIy35hiRUNTIME_FORWARD_STATUS_CALLBACK_ESt4lessIyESaIS2_IKyS4_EEEESt10_Select1stISB_ES5_IS1_ESaISB_EE5eraseERS1__x144:
    /*00000144*/ MOV         R0, R4 
    /*00000148*/ BL          _ZSt18_Rb_tree_incrementPKSt18_Rb_tree_node_base
    /*0000014c*/ MOV         R9, R0 
    /*00000150*/ MOV         R1, SL 
    /*00000154*/ MOV         R0, R4 
    /*00000158*/ BL          _ZSt28_Rb_tree_rebalance_for_erasePSt18_Rb_tree_node_baseRS_
    /*0000015c*/ LDR         R4, [R0, #28] 
    /*00000160*/ MOV         R6, R0 
    /*00000164*/ ADD         R5, R0, #20 
    /*00000168*/ CMP         R4, #0 
    /*0000016c*/ BEQ         _ZNSt8_Rb_treeIKPvSt4pairIS1_St3mapIy35hiRUNTIME_FORWARD_STATUS_CALLBACK_ESt4lessIyESaIS2_IKyS4_EEEESt10_Select1stISB_ES5_IS1_ESaISB_EE5eraseERS1__x190
    _ZNSt8_Rb_treeIKPvSt4pairIS1_St3mapIy35hiRUNTIME_FORWARD_STATUS_CALLBACK_ESt4lessIyESaIS2_IKyS4_EEEESt10_Select1stISB_ES5_IS1_ESaISB_EE5eraseERS1__x170:
    /*00000170*/ LDR         R1, [R4, #12] 
    /*00000174*/ MOV         R0, R5 
    /*00000178*/ BL          _ZNSt8_Rb_treeIySt4pairIKy35hiRUNTIME_FORWARD_STATUS_CALLBACK_EESt10_Select1stIS3_ESt4lessIyESaIS3_EE8_M_eraseEPSt13_Rb_tree_nodeIS3_E
    /*0000017c*/ LDR         FP, [R4, #8] 
    /*00000180*/ MOV         R0, R4 
    /*00000184*/ BL          _ZdlPv
    /*00000188*/ SUBS        R4, FP, #0 
    /*0000018c*/ BNE         _ZNSt8_Rb_treeIKPvSt4pairIS1_St3mapIy35hiRUNTIME_FORWARD_STATUS_CALLBACK_ESt4lessIyESaIS2_IKyS4_EEEESt10_Select1stISB_ES5_IS1_ESaISB_EE5eraseERS1__x170
    _ZNSt8_Rb_treeIKPvSt4pairIS1_St3mapIy35hiRUNTIME_FORWARD_STATUS_CALLBACK_ESt4lessIyESaIS2_IKyS4_EEEESt10_Select1stISB_ES5_IS1_ESaISB_EE5eraseERS1__x190:
    /*00000190*/ MOV         R0, R6 
    /*00000194*/ MOV         R4, R9 
    /*00000198*/ BL          _ZdlPv
    /*0000019c*/ LDR         R3, [R7, #20] 
    /*000001a0*/ CMP         R9, R8 
    /*000001a4*/ SUB         R3, R3, #1 
    /*000001a8*/ STR         R3, [R7, #20] 
    /*000001ac*/ BNE         _ZNSt8_Rb_treeIKPvSt4pairIS1_St3mapIy35hiRUNTIME_FORWARD_STATUS_CALLBACK_ESt4lessIyESaIS2_IKyS4_EEEESt10_Select1stISB_ES5_IS1_ESaISB_EE5eraseERS1__x144
    /*000001b0*/ LDR         R2, [SP, #4] 
    /*000001b4*/ SUB         R3, R2, R3 
    /*000001b8*/ STR         R3, [SP, #4] 
    /*000001bc*/ MOV         R0, R3 
    /*000001c0*/ ADD         SP, SP, #12 
    /*000001c4*/ POP         {R4, R5, R6, R7, R8, R9, SL, FP, PC} 
    _ZNSt8_Rb_treeIKPvSt4pairIS1_St3mapIy35hiRUNTIME_FORWARD_STATUS_CALLBACK_ESt4lessIyESaIS2_IKyS4_EEEESt10_Select1stISB_ES5_IS1_ESaISB_EE5eraseERS1__x1c8:
    /*000001c8*/ MOV         R8, SL 
    /*000001cc*/ MOV         R3, #1 
    /*000001d0*/ B           _ZNSt8_Rb_treeIKPvSt4pairIS1_St3mapIy35hiRUNTIME_FORWARD_STATUS_CALLBACK_ESt4lessIyESaIS2_IKyS4_EEEESt10_Select1stISB_ES5_IS1_ESaISB_EE5eraseERS1__x64
FUNC_END _ZNSt8_Rb_treeIKPvSt4pairIS1_St3mapIy35hiRUNTIME_FORWARD_STATUS_CALLBACK_ESt4lessIyESaIS2_IKyS4_EEEESt10_Select1stISB_ES5_IS1_ESaISB_EE5eraseERS1_


@ - - - - - - - - - - - - - - - - - - - - - - - - - - - - - 
@ .text._ZNSt3mapIKPvS_Iy35hiRUNTIME_FORWARD_STATUS_CALLBACK_ESt4lessIyESaISt4pairIKyS2_EEES3_IS1_ESaIS5_IS1_S9_EEED2Ev
@ Size: 0x78
@ - - - - - - - - - - - - - - - - - - - - - - - - - - - - - 

FUNC_BEGIN _ZNSt3mapIKPvS_Iy35hiRUNTIME_FORWARD_STATUS_CALLBACK_ESt4lessIyESaISt4pairIKyS2_EEES3_IS1_ESaIS5_IS1_S9_EEED2Ev
    /*00000000*/ MOV         IP, #16384                  @ 0x4000 
    /*00000004*/ PUSH        {R4, R5, R6, R7, R8, R9, SL, LR} 
    /*00000008*/ SUB         IP, SP, IP 
    /*0000000c*/ STR         R0, [IP, #4064]             @ 0xfe0 
    /*00000010*/ LDR         R7, [R0, #8] 
    /*00000014*/ MOV         R9, R0 
    /*00000018*/ CMP         R7, #0 
    /*0000001c*/ BEQ         _ZNSt3mapIKPvS_Iy35hiRUNTIME_FORWARD_STATUS_CALLBACK_ESt4lessIyESaISt4pairIKyS2_EEES3_IS1_ESaIS5_IS1_S9_EEED2Ev_x70
    _ZNSt3mapIKPvS_Iy35hiRUNTIME_FORWARD_STATUS_CALLBACK_ESt4lessIyESaISt4pairIKyS2_EEES3_IS1_ESaIS5_IS1_S9_EEED2Ev_x20:
    /*00000020*/ LDR         R1, [R7, #12] 
    /*00000024*/ MOV         R0, R9 
    /*00000028*/ ADD         R6, R7, #20 
    /*0000002c*/ BL          _ZNSt8_Rb_treeIKPvSt4pairIS1_St3mapIy35hiRUNTIME_FORWARD_STATUS_CALLBACK_ESt4lessIyESaIS2_IKyS4_EEEESt10_Select1stISB_ES5_IS1_ESaISB_EE8_M_eraseEPSt13_Rb_tree_nodeISB_E
    /*00000030*/ LDR         R4, [R7, #28] 
    /*00000034*/ LDR         R8, [R7, #8] 
    /*00000038*/ CMP         R4, #0 
    /*0000003c*/ BEQ         _ZNSt3mapIKPvS_Iy35hiRUNTIME_FORWARD_STATUS_CALLBACK_ESt4lessIyESaISt4pairIKyS2_EEES3_IS1_ESaIS5_IS1_S9_EEED2Ev_x60
    _ZNSt3mapIKPvS_Iy35hiRUNTIME_FORWARD_STATUS_CALLBACK_ESt4lessIyESaISt4pairIKyS2_EEES3_IS1_ESaIS5_IS1_S9_EEED2Ev_x40:
    /*00000040*/ LDR         R1, [R4, #12] 
    /*00000044*/ MOV         R0, R6 
    /*00000048*/ BL          _ZNSt8_Rb_treeIySt4pairIKy35hiRUNTIME_FORWARD_STATUS_CALLBACK_EESt10_Select1stIS3_ESt4lessIyESaIS3_EE8_M_eraseEPSt13_Rb_tree_nodeIS3_E
    /*0000004c*/ LDR         R5, [R4, #8] 
    /*00000050*/ MOV         R0, R4 
    /*00000054*/ BL          _ZdlPv
    /*00000058*/ SUBS        R4, R5, #0 
    /*0000005c*/ BNE         _ZNSt3mapIKPvS_Iy35hiRUNTIME_FORWARD_STATUS_CALLBACK_ESt4lessIyESaISt4pairIKyS2_EEES3_IS1_ESaIS5_IS1_S9_EEED2Ev_x40
    _ZNSt3mapIKPvS_Iy35hiRUNTIME_FORWARD_STATUS_CALLBACK_ESt4lessIyESaISt4pairIKyS2_EEES3_IS1_ESaIS5_IS1_S9_EEED2Ev_x60:
    /*00000060*/ MOV         R0, R7 
    /*00000064*/ BL          _ZdlPv
    /*00000068*/ SUBS        R7, R8, #0 
    /*0000006c*/ BNE         _ZNSt3mapIKPvS_Iy35hiRUNTIME_FORWARD_STATUS_CALLBACK_ESt4lessIyESaISt4pairIKyS2_EEES3_IS1_ESaIS5_IS1_S9_EEED2Ev_x20
    _ZNSt3mapIKPvS_Iy35hiRUNTIME_FORWARD_STATUS_CALLBACK_ESt4lessIyESaISt4pairIKyS2_EEES3_IS1_ESaIS5_IS1_S9_EEED2Ev_x70:
    /*00000070*/ MOV         R0, R9 
    /*00000074*/ POP         {R4, R5, R6, R7, R8, R9, SL, PC} 
FUNC_END _ZNSt3mapIKPvS_Iy35hiRUNTIME_FORWARD_STATUS_CALLBACK_ESt4lessIyESaISt4pairIKyS2_EEES3_IS1_ESaIS5_IS1_S9_EEED2Ev


FUNC_BEGIN _ZNSt3mapIKPvS_Iy35hiRUNTIME_FORWARD_STATUS_CALLBACK_ESt4lessIyESaISt4pairIKyS2_EEES3_IS1_ESaIS5_IS1_S9_EEED1Ev
    /*00000000*/ MOV         IP, #16384                  @ 0x4000 
    /*00000004*/ PUSH        {R4, R5, R6, R7, R8, R9, SL, LR} 
    /*00000008*/ SUB         IP, SP, IP 
    /*0000000c*/ STR         R0, [IP, #4064]             @ 0xfe0 
    /*00000010*/ LDR         R7, [R0, #8] 
    /*00000014*/ MOV         R9, R0 
    /*00000018*/ CMP         R7, #0 
    /*0000001c*/ BEQ         _ZNSt3mapIKPvS_Iy35hiRUNTIME_FORWARD_STATUS_CALLBACK_ESt4lessIyESaISt4pairIKyS2_EEES3_IS1_ESaIS5_IS1_S9_EEED1Ev_x70
    _ZNSt3mapIKPvS_Iy35hiRUNTIME_FORWARD_STATUS_CALLBACK_ESt4lessIyESaISt4pairIKyS2_EEES3_IS1_ESaIS5_IS1_S9_EEED1Ev_x20:
    /*00000020*/ LDR         R1, [R7, #12] 
    /*00000024*/ MOV         R0, R9 
    /*00000028*/ ADD         R6, R7, #20 
    /*0000002c*/ BL          _ZNSt8_Rb_treeIKPvSt4pairIS1_St3mapIy35hiRUNTIME_FORWARD_STATUS_CALLBACK_ESt4lessIyESaIS2_IKyS4_EEEESt10_Select1stISB_ES5_IS1_ESaISB_EE8_M_eraseEPSt13_Rb_tree_nodeISB_E
    /*00000030*/ LDR         R4, [R7, #28] 
    /*00000034*/ LDR         R8, [R7, #8] 
    /*00000038*/ CMP         R4, #0 
    /*0000003c*/ BEQ         _ZNSt3mapIKPvS_Iy35hiRUNTIME_FORWARD_STATUS_CALLBACK_ESt4lessIyESaISt4pairIKyS2_EEES3_IS1_ESaIS5_IS1_S9_EEED1Ev_x60
    _ZNSt3mapIKPvS_Iy35hiRUNTIME_FORWARD_STATUS_CALLBACK_ESt4lessIyESaISt4pairIKyS2_EEES3_IS1_ESaIS5_IS1_S9_EEED1Ev_x40:
    /*00000040*/ LDR         R1, [R4, #12] 
    /*00000044*/ MOV         R0, R6 
    /*00000048*/ BL          _ZNSt8_Rb_treeIySt4pairIKy35hiRUNTIME_FORWARD_STATUS_CALLBACK_EESt10_Select1stIS3_ESt4lessIyESaIS3_EE8_M_eraseEPSt13_Rb_tree_nodeIS3_E
    /*0000004c*/ LDR         R5, [R4, #8] 
    /*00000050*/ MOV         R0, R4 
    /*00000054*/ BL          _ZdlPv
    /*00000058*/ SUBS        R4, R5, #0 
    /*0000005c*/ BNE         _ZNSt3mapIKPvS_Iy35hiRUNTIME_FORWARD_STATUS_CALLBACK_ESt4lessIyESaISt4pairIKyS2_EEES3_IS1_ESaIS5_IS1_S9_EEED1Ev_x40
    _ZNSt3mapIKPvS_Iy35hiRUNTIME_FORWARD_STATUS_CALLBACK_ESt4lessIyESaISt4pairIKyS2_EEES3_IS1_ESaIS5_IS1_S9_EEED1Ev_x60:
    /*00000060*/ MOV         R0, R7 
    /*00000064*/ BL          _ZdlPv
    /*00000068*/ SUBS        R7, R8, #0 
    /*0000006c*/ BNE         _ZNSt3mapIKPvS_Iy35hiRUNTIME_FORWARD_STATUS_CALLBACK_ESt4lessIyESaISt4pairIKyS2_EEES3_IS1_ESaIS5_IS1_S9_EEED1Ev_x20
    _ZNSt3mapIKPvS_Iy35hiRUNTIME_FORWARD_STATUS_CALLBACK_ESt4lessIyESaISt4pairIKyS2_EEES3_IS1_ESaIS5_IS1_S9_EEED1Ev_x70:
    /*00000070*/ MOV         R0, R9 
    /*00000074*/ POP         {R4, R5, R6, R7, R8, R9, SL, PC} 
FUNC_END _ZNSt3mapIKPvS_Iy35hiRUNTIME_FORWARD_STATUS_CALLBACK_ESt4lessIyESaISt4pairIKyS2_EEES3_IS1_ESaIS5_IS1_S9_EEED1Ev


@ - - - - - - - - - - - - - - - - - - - - - - - - - - - - - 
@ .text._ZNSt8_Rb_treeINSt7__cxx1112basic_stringIcSt11char_traitsIcESaIcEEES5_St9_IdentityIS5_ESt4lessIS5_ESaIS5_EE8_M_eraseEPSt13_Rb_tree_nodeIS5_E
@ Size: 0x234
@ - - - - - - - - - - - - - - - - - - - - - - - - - - - - - 

FUNC_BEGIN _ZNSt8_Rb_treeINSt7__cxx1112basic_stringIcSt11char_traitsIcESaIcEEES5_St9_IdentityIS5_ESt4lessIS5_ESaIS5_EE8_M_eraseEPSt13_Rb_tree_nodeIS5_E
    /*00000000*/ MOV         IP, #16384                  @ 0x4000 
    /*00000004*/ PUSH        {R4, R5, R6, R7, R8, R9, SL, FP, LR} 
    /*00000008*/ SUB         IP, SP, IP 
    /*0000000c*/ STR         R0, [IP, #4040]             @ 0xfc8 
    /*00000010*/ SUB         SP, SP, #20 
    /*00000014*/ SUBS        R3, R1, #0 
    /*00000018*/ STR         R3, [SP, #12] 
    /*0000001c*/ BEQ         _ZNSt8_Rb_treeINSt7__cxx1112basic_stringIcSt11char_traitsIcESaIcEEES5_St9_IdentityIS5_ESt4lessIS5_ESaIS5_EE8_M_eraseEPSt13_Rb_tree_nodeIS5_E_x22c
    /*00000020*/ MOV         R5, R0 
    _ZNSt8_Rb_treeINSt7__cxx1112basic_stringIcSt11char_traitsIcESaIcEEES5_St9_IdentityIS5_ESt4lessIS5_ESaIS5_EE8_M_eraseEPSt13_Rb_tree_nodeIS5_E_x24:
    /*00000024*/ LDR         R3, [R3, #12] 
    /*00000028*/ CMP         R3, #0 
    /*0000002c*/ STRNE       R3, [SP, #8] 
    /*00000030*/ BEQ         _ZNSt8_Rb_treeINSt7__cxx1112basic_stringIcSt11char_traitsIcESaIcEEES5_St9_IdentityIS5_ESt4lessIS5_ESaIS5_EE8_M_eraseEPSt13_Rb_tree_nodeIS5_E_x1f8
    _ZNSt8_Rb_treeINSt7__cxx1112basic_stringIcSt11char_traitsIcESaIcEEES5_St9_IdentityIS5_ESt4lessIS5_ESaIS5_EE8_M_eraseEPSt13_Rb_tree_nodeIS5_E_x34:
    /*00000034*/ LDR         R8, [R3, #12] 
    /*00000038*/ CMP         R8, #0 
    /*0000003c*/ STRNE       R8, [SP, #4] 
    /*00000040*/ MOVNE       R3, R8 
    /*00000044*/ BEQ         _ZNSt8_Rb_treeINSt7__cxx1112basic_stringIcSt11char_traitsIcESaIcEEES5_St9_IdentityIS5_ESt4lessIS5_ESaIS5_EE8_M_eraseEPSt13_Rb_tree_nodeIS5_E_x1c4
    _ZNSt8_Rb_treeINSt7__cxx1112basic_stringIcSt11char_traitsIcESaIcEEES5_St9_IdentityIS5_ESt4lessIS5_ESaIS5_EE8_M_eraseEPSt13_Rb_tree_nodeIS5_E_x48:
    /*00000048*/ LDR         R9, [R3, #12] 
    /*0000004c*/ CMP         R9, #0 
    /*00000050*/ BEQ         _ZNSt8_Rb_treeINSt7__cxx1112basic_stringIcSt11char_traitsIcESaIcEEES5_St9_IdentityIS5_ESt4lessIS5_ESaIS5_EE8_M_eraseEPSt13_Rb_tree_nodeIS5_E_x190
    _ZNSt8_Rb_treeINSt7__cxx1112basic_stringIcSt11char_traitsIcESaIcEEES5_St9_IdentityIS5_ESt4lessIS5_ESaIS5_EE8_M_eraseEPSt13_Rb_tree_nodeIS5_E_x54:
    /*00000054*/ LDR         SL, [R9, #12] 
    /*00000058*/ CMP         SL, #0 
    /*0000005c*/ BEQ         _ZNSt8_Rb_treeINSt7__cxx1112basic_stringIcSt11char_traitsIcESaIcEEES5_St9_IdentityIS5_ESt4lessIS5_ESaIS5_EE8_M_eraseEPSt13_Rb_tree_nodeIS5_E_x168
    _ZNSt8_Rb_treeINSt7__cxx1112basic_stringIcSt11char_traitsIcESaIcEEES5_St9_IdentityIS5_ESt4lessIS5_ESaIS5_EE8_M_eraseEPSt13_Rb_tree_nodeIS5_E_x60:
    /*00000060*/ LDR         FP, [SL, #12] 
    /*00000064*/ CMP         FP, #0 
    /*00000068*/ BEQ         _ZNSt8_Rb_treeINSt7__cxx1112basic_stringIcSt11char_traitsIcESaIcEEES5_St9_IdentityIS5_ESt4lessIS5_ESaIS5_EE8_M_eraseEPSt13_Rb_tree_nodeIS5_E_x140
    _ZNSt8_Rb_treeINSt7__cxx1112basic_stringIcSt11char_traitsIcESaIcEEES5_St9_IdentityIS5_ESt4lessIS5_ESaIS5_EE8_M_eraseEPSt13_Rb_tree_nodeIS5_E_x6c:
    /*0000006c*/ LDR         R7, [FP, #12] 
    /*00000070*/ CMP         R7, #0 
    /*00000074*/ BEQ         _ZNSt8_Rb_treeINSt7__cxx1112basic_stringIcSt11char_traitsIcESaIcEEES5_St9_IdentityIS5_ESt4lessIS5_ESaIS5_EE8_M_eraseEPSt13_Rb_tree_nodeIS5_E_x118
    _ZNSt8_Rb_treeINSt7__cxx1112basic_stringIcSt11char_traitsIcESaIcEEES5_St9_IdentityIS5_ESt4lessIS5_ESaIS5_EE8_M_eraseEPSt13_Rb_tree_nodeIS5_E_x78:
    /*00000078*/ LDR         R6, [R7, #12] 
    /*0000007c*/ CMP         R6, #0 
    /*00000080*/ BEQ         _ZNSt8_Rb_treeINSt7__cxx1112basic_stringIcSt11char_traitsIcESaIcEEES5_St9_IdentityIS5_ESt4lessIS5_ESaIS5_EE8_M_eraseEPSt13_Rb_tree_nodeIS5_E_xf0
    _ZNSt8_Rb_treeINSt7__cxx1112basic_stringIcSt11char_traitsIcESaIcEEES5_St9_IdentityIS5_ESt4lessIS5_ESaIS5_EE8_M_eraseEPSt13_Rb_tree_nodeIS5_E_x84:
    /*00000084*/ LDR         R3, [R6, #12] 
    /*00000088*/ CMP         R3, #0 
    /*0000008c*/ MOVNE       R8, R3 
    /*00000090*/ BEQ         _ZNSt8_Rb_treeINSt7__cxx1112basic_stringIcSt11char_traitsIcESaIcEEES5_St9_IdentityIS5_ESt4lessIS5_ESaIS5_EE8_M_eraseEPSt13_Rb_tree_nodeIS5_E_xc8
    _ZNSt8_Rb_treeINSt7__cxx1112basic_stringIcSt11char_traitsIcESaIcEEES5_St9_IdentityIS5_ESt4lessIS5_ESaIS5_EE8_M_eraseEPSt13_Rb_tree_nodeIS5_E_x94:
    /*00000094*/ LDR         R1, [R8, #12] 
    /*00000098*/ MOV         R0, R5 
    /*0000009c*/ BL          _ZNSt8_Rb_treeINSt7__cxx1112basic_stringIcSt11char_traitsIcESaIcEEES5_St9_IdentityIS5_ESt4lessIS5_ESaIS5_EE8_M_eraseEPSt13_Rb_tree_nodeIS5_E
    /*000000a0*/ LDR         R0, [R8, #16] 
    /*000000a4*/ ADD         R2, R8, #24 
    /*000000a8*/ LDR         R4, [R8, #8] 
    /*000000ac*/ CMP         R0, R2 
    /*000000b0*/ BEQ         _ZNSt8_Rb_treeINSt7__cxx1112basic_stringIcSt11char_traitsIcESaIcEEES5_St9_IdentityIS5_ESt4lessIS5_ESaIS5_EE8_M_eraseEPSt13_Rb_tree_nodeIS5_E_xb8
    /*000000b4*/ BL          _ZdlPv
    _ZNSt8_Rb_treeINSt7__cxx1112basic_stringIcSt11char_traitsIcESaIcEEES5_St9_IdentityIS5_ESt4lessIS5_ESaIS5_EE8_M_eraseEPSt13_Rb_tree_nodeIS5_E_xb8:
    /*000000b8*/ MOV         R0, R8 
    /*000000bc*/ BL          _ZdlPv
    /*000000c0*/ SUBS        R8, R4, #0 
    /*000000c4*/ BNE         _ZNSt8_Rb_treeINSt7__cxx1112basic_stringIcSt11char_traitsIcESaIcEEES5_St9_IdentityIS5_ESt4lessIS5_ESaIS5_EE8_M_eraseEPSt13_Rb_tree_nodeIS5_E_x94
    _ZNSt8_Rb_treeINSt7__cxx1112basic_stringIcSt11char_traitsIcESaIcEEES5_St9_IdentityIS5_ESt4lessIS5_ESaIS5_EE8_M_eraseEPSt13_Rb_tree_nodeIS5_E_xc8:
    /*000000c8*/ LDR         R0, [R6, #16] 
    /*000000cc*/ ADD         R3, R6, #24 
    /*000000d0*/ LDR         R4, [R6, #8] 
    /*000000d4*/ CMP         R0, R3 
    /*000000d8*/ BEQ         _ZNSt8_Rb_treeINSt7__cxx1112basic_stringIcSt11char_traitsIcESaIcEEES5_St9_IdentityIS5_ESt4lessIS5_ESaIS5_EE8_M_eraseEPSt13_Rb_tree_nodeIS5_E_xe0
    /*000000dc*/ BL          _ZdlPv
    _ZNSt8_Rb_treeINSt7__cxx1112basic_stringIcSt11char_traitsIcESaIcEEES5_St9_IdentityIS5_ESt4lessIS5_ESaIS5_EE8_M_eraseEPSt13_Rb_tree_nodeIS5_E_xe0:
    /*000000e0*/ MOV         R0, R6 
    /*000000e4*/ BL          _ZdlPv
    /*000000e8*/ SUBS        R6, R4, #0 
    /*000000ec*/ BNE         _ZNSt8_Rb_treeINSt7__cxx1112basic_stringIcSt11char_traitsIcESaIcEEES5_St9_IdentityIS5_ESt4lessIS5_ESaIS5_EE8_M_eraseEPSt13_Rb_tree_nodeIS5_E_x84
    _ZNSt8_Rb_treeINSt7__cxx1112basic_stringIcSt11char_traitsIcESaIcEEES5_St9_IdentityIS5_ESt4lessIS5_ESaIS5_EE8_M_eraseEPSt13_Rb_tree_nodeIS5_E_xf0:
    /*000000f0*/ LDR         R0, [R7, #16] 
    /*000000f4*/ ADD         R3, R7, #24 
    /*000000f8*/ LDR         R4, [R7, #8] 
    /*000000fc*/ CMP         R0, R3 
    /*00000100*/ BEQ         _ZNSt8_Rb_treeINSt7__cxx1112basic_stringIcSt11char_traitsIcESaIcEEES5_St9_IdentityIS5_ESt4lessIS5_ESaIS5_EE8_M_eraseEPSt13_Rb_tree_nodeIS5_E_x108
    /*00000104*/ BL          _ZdlPv
    _ZNSt8_Rb_treeINSt7__cxx1112basic_stringIcSt11char_traitsIcESaIcEEES5_St9_IdentityIS5_ESt4lessIS5_ESaIS5_EE8_M_eraseEPSt13_Rb_tree_nodeIS5_E_x108:
    /*00000108*/ MOV         R0, R7 
    /*0000010c*/ BL          _ZdlPv
    /*00000110*/ SUBS        R7, R4, #0 
    /*00000114*/ BNE         _ZNSt8_Rb_treeINSt7__cxx1112basic_stringIcSt11char_traitsIcESaIcEEES5_St9_IdentityIS5_ESt4lessIS5_ESaIS5_EE8_M_eraseEPSt13_Rb_tree_nodeIS5_E_x78
    _ZNSt8_Rb_treeINSt7__cxx1112basic_stringIcSt11char_traitsIcESaIcEEES5_St9_IdentityIS5_ESt4lessIS5_ESaIS5_EE8_M_eraseEPSt13_Rb_tree_nodeIS5_E_x118:
    /*00000118*/ LDR         R0, [FP, #16] 
    /*0000011c*/ ADD         R3, FP, #24 
    /*00000120*/ LDR         R4, [FP, #8] 
    /*00000124*/ CMP         R0, R3 
    /*00000128*/ BEQ         _ZNSt8_Rb_treeINSt7__cxx1112basic_stringIcSt11char_traitsIcESaIcEEES5_St9_IdentityIS5_ESt4lessIS5_ESaIS5_EE8_M_eraseEPSt13_Rb_tree_nodeIS5_E_x130
    /*0000012c*/ BL          _ZdlPv
    _ZNSt8_Rb_treeINSt7__cxx1112basic_stringIcSt11char_traitsIcESaIcEEES5_St9_IdentityIS5_ESt4lessIS5_ESaIS5_EE8_M_eraseEPSt13_Rb_tree_nodeIS5_E_x130:
    /*00000130*/ MOV         R0, FP 
    /*00000134*/ BL          _ZdlPv
    /*00000138*/ SUBS        FP, R4, #0 
    /*0000013c*/ BNE         _ZNSt8_Rb_treeINSt7__cxx1112basic_stringIcSt11char_traitsIcESaIcEEES5_St9_IdentityIS5_ESt4lessIS5_ESaIS5_EE8_M_eraseEPSt13_Rb_tree_nodeIS5_E_x6c
    _ZNSt8_Rb_treeINSt7__cxx1112basic_stringIcSt11char_traitsIcESaIcEEES5_St9_IdentityIS5_ESt4lessIS5_ESaIS5_EE8_M_eraseEPSt13_Rb_tree_nodeIS5_E_x140:
    /*00000140*/ LDR         R0, [SL, #16] 
    /*00000144*/ ADD         R3, SL, #24 
    /*00000148*/ LDR         R4, [SL, #8] 
    /*0000014c*/ CMP         R0, R3 
    /*00000150*/ BEQ         _ZNSt8_Rb_treeINSt7__cxx1112basic_stringIcSt11char_traitsIcESaIcEEES5_St9_IdentityIS5_ESt4lessIS5_ESaIS5_EE8_M_eraseEPSt13_Rb_tree_nodeIS5_E_x158
    /*00000154*/ BL          _ZdlPv
    _ZNSt8_Rb_treeINSt7__cxx1112basic_stringIcSt11char_traitsIcESaIcEEES5_St9_IdentityIS5_ESt4lessIS5_ESaIS5_EE8_M_eraseEPSt13_Rb_tree_nodeIS5_E_x158:
    /*00000158*/ MOV         R0, SL 
    /*0000015c*/ BL          _ZdlPv
    /*00000160*/ SUBS        SL, R4, #0 
    /*00000164*/ BNE         _ZNSt8_Rb_treeINSt7__cxx1112basic_stringIcSt11char_traitsIcESaIcEEES5_St9_IdentityIS5_ESt4lessIS5_ESaIS5_EE8_M_eraseEPSt13_Rb_tree_nodeIS5_E_x60
    _ZNSt8_Rb_treeINSt7__cxx1112basic_stringIcSt11char_traitsIcESaIcEEES5_St9_IdentityIS5_ESt4lessIS5_ESaIS5_EE8_M_eraseEPSt13_Rb_tree_nodeIS5_E_x168:
    /*00000168*/ LDR         R0, [R9, #16] 
    /*0000016c*/ ADD         R3, R9, #24 
    /*00000170*/ LDR         R4, [R9, #8] 
    /*00000174*/ CMP         R0, R3 
    /*00000178*/ BEQ         _ZNSt8_Rb_treeINSt7__cxx1112basic_stringIcSt11char_traitsIcESaIcEEES5_St9_IdentityIS5_ESt4lessIS5_ESaIS5_EE8_M_eraseEPSt13_Rb_tree_nodeIS5_E_x180
    /*0000017c*/ BL          _ZdlPv
    _ZNSt8_Rb_treeINSt7__cxx1112basic_stringIcSt11char_traitsIcESaIcEEES5_St9_IdentityIS5_ESt4lessIS5_ESaIS5_EE8_M_eraseEPSt13_Rb_tree_nodeIS5_E_x180:
    /*00000180*/ MOV         R0, R9 
    /*00000184*/ BL          _ZdlPv
    /*00000188*/ SUBS        R9, R4, #0 
    /*0000018c*/ BNE         _ZNSt8_Rb_treeINSt7__cxx1112basic_stringIcSt11char_traitsIcESaIcEEES5_St9_IdentityIS5_ESt4lessIS5_ESaIS5_EE8_M_eraseEPSt13_Rb_tree_nodeIS5_E_x54
    _ZNSt8_Rb_treeINSt7__cxx1112basic_stringIcSt11char_traitsIcESaIcEEES5_St9_IdentityIS5_ESt4lessIS5_ESaIS5_EE8_M_eraseEPSt13_Rb_tree_nodeIS5_E_x190:
    /*00000190*/ LDR         R2, [SP, #4] 
    /*00000194*/ LDR         R0, [R2, #16] 
    /*00000198*/ ADD         R3, R2, #24 
    /*0000019c*/ LDR         R4, [R2, #8] 
    /*000001a0*/ CMP         R0, R3 
    /*000001a4*/ MOVEQ       R0, R2 
    /*000001a8*/ BEQ         _ZNSt8_Rb_treeINSt7__cxx1112basic_stringIcSt11char_traitsIcESaIcEEES5_St9_IdentityIS5_ESt4lessIS5_ESaIS5_EE8_M_eraseEPSt13_Rb_tree_nodeIS5_E_x1b4
    /*000001ac*/ BL          _ZdlPv
    /*000001b0*/ LDR         R0, [SP, #4] 
    _ZNSt8_Rb_treeINSt7__cxx1112basic_stringIcSt11char_traitsIcESaIcEEES5_St9_IdentityIS5_ESt4lessIS5_ESaIS5_EE8_M_eraseEPSt13_Rb_tree_nodeIS5_E_x1b4:
    /*000001b4*/ BL          _ZdlPv
    /*000001b8*/ SUBS        R3, R4, #0 
    /*000001bc*/ STR         R3, [SP, #4] 
    /*000001c0*/ BNE         _ZNSt8_Rb_treeINSt7__cxx1112basic_stringIcSt11char_traitsIcESaIcEEES5_St9_IdentityIS5_ESt4lessIS5_ESaIS5_EE8_M_eraseEPSt13_Rb_tree_nodeIS5_E_x48
    _ZNSt8_Rb_treeINSt7__cxx1112basic_stringIcSt11char_traitsIcESaIcEEES5_St9_IdentityIS5_ESt4lessIS5_ESaIS5_EE8_M_eraseEPSt13_Rb_tree_nodeIS5_E_x1c4:
    /*000001c4*/ LDR         R2, [SP, #8] 
    /*000001c8*/ LDR         R0, [R2, #16] 
    /*000001cc*/ ADD         R3, R2, #24 
    /*000001d0*/ LDR         R4, [R2, #8] 
    /*000001d4*/ CMP         R0, R3 
    /*000001d8*/ MOVEQ       R0, R2 
    /*000001dc*/ BEQ         _ZNSt8_Rb_treeINSt7__cxx1112basic_stringIcSt11char_traitsIcESaIcEEES5_St9_IdentityIS5_ESt4lessIS5_ESaIS5_EE8_M_eraseEPSt13_Rb_tree_nodeIS5_E_x1e8
    /*000001e0*/ BL          _ZdlPv
    /*000001e4*/ LDR         R0, [SP, #8] 
    _ZNSt8_Rb_treeINSt7__cxx1112basic_stringIcSt11char_traitsIcESaIcEEES5_St9_IdentityIS5_ESt4lessIS5_ESaIS5_EE8_M_eraseEPSt13_Rb_tree_nodeIS5_E_x1e8:
    /*000001e8*/ BL          _ZdlPv
    /*000001ec*/ SUBS        R3, R4, #0 
    /*000001f0*/ STR         R3, [SP, #8] 
    /*000001f4*/ BNE         _ZNSt8_Rb_treeINSt7__cxx1112basic_stringIcSt11char_traitsIcESaIcEEES5_St9_IdentityIS5_ESt4lessIS5_ESaIS5_EE8_M_eraseEPSt13_Rb_tree_nodeIS5_E_x34
    _ZNSt8_Rb_treeINSt7__cxx1112basic_stringIcSt11char_traitsIcESaIcEEES5_St9_IdentityIS5_ESt4lessIS5_ESaIS5_EE8_M_eraseEPSt13_Rb_tree_nodeIS5_E_x1f8:
    /*000001f8*/ LDR         R2, [SP, #12] 
    /*000001fc*/ LDR         R0, [R2, #16] 
    /*00000200*/ ADD         R3, R2, #24 
    /*00000204*/ LDR         R4, [R2, #8] 
    /*00000208*/ CMP         R0, R3 
    /*0000020c*/ MOVEQ       R0, R2 
    /*00000210*/ BEQ         _ZNSt8_Rb_treeINSt7__cxx1112basic_stringIcSt11char_traitsIcESaIcEEES5_St9_IdentityIS5_ESt4lessIS5_ESaIS5_EE8_M_eraseEPSt13_Rb_tree_nodeIS5_E_x21c
    /*00000214*/ BL          _ZdlPv
    /*00000218*/ LDR         R0, [SP, #12] 
    _ZNSt8_Rb_treeINSt7__cxx1112basic_stringIcSt11char_traitsIcESaIcEEES5_St9_IdentityIS5_ESt4lessIS5_ESaIS5_EE8_M_eraseEPSt13_Rb_tree_nodeIS5_E_x21c:
    /*0000021c*/ BL          _ZdlPv
    /*00000220*/ SUBS        R3, R4, #0 
    /*00000224*/ STR         R3, [SP, #12] 
    /*00000228*/ BNE         _ZNSt8_Rb_treeINSt7__cxx1112basic_stringIcSt11char_traitsIcESaIcEEES5_St9_IdentityIS5_ESt4lessIS5_ESaIS5_EE8_M_eraseEPSt13_Rb_tree_nodeIS5_E_x24
    _ZNSt8_Rb_treeINSt7__cxx1112basic_stringIcSt11char_traitsIcESaIcEEES5_St9_IdentityIS5_ESt4lessIS5_ESaIS5_EE8_M_eraseEPSt13_Rb_tree_nodeIS5_E_x22c:
    /*0000022c*/ ADD         SP, SP, #20 
    /*00000230*/ POP         {R4, R5, R6, R7, R8, R9, SL, FP, PC} 
FUNC_END _ZNSt8_Rb_treeINSt7__cxx1112basic_stringIcSt11char_traitsIcESaIcEEES5_St9_IdentityIS5_ESt4lessIS5_ESaIS5_EE8_M_eraseEPSt13_Rb_tree_nodeIS5_E


@ - - - - - - - - - - - - - - - - - - - - - - - - - - - - - 
@ .text._ZNSt3setINSt7__cxx1112basic_stringIcSt11char_traitsIcESaIcEEESt4lessIS5_ESaIS5_EED2Ev
@ Size: 0x5c
@ - - - - - - - - - - - - - - - - - - - - - - - - - - - - - 

FUNC_BEGIN _ZNSt3setINSt7__cxx1112basic_stringIcSt11char_traitsIcESaIcEEESt4lessIS5_ESaIS5_EED2Ev
    /*00000000*/ MOV         IP, #16384                  @ 0x4000 
    /*00000004*/ PUSH        {R4, R5, R6, LR} 
    /*00000008*/ SUB         IP, SP, IP 
    /*0000000c*/ STR         R0, [IP, #4080]             @ 0xff0 
    /*00000010*/ LDR         R4, [R0, #8] 
    /*00000014*/ MOV         R6, R0 
    /*00000018*/ CMP         R4, #0 
    /*0000001c*/ BEQ         _ZNSt3setINSt7__cxx1112basic_stringIcSt11char_traitsIcESaIcEEESt4lessIS5_ESaIS5_EED2Ev_x54
    _ZNSt3setINSt7__cxx1112basic_stringIcSt11char_traitsIcESaIcEEESt4lessIS5_ESaIS5_EED2Ev_x20:
    /*00000020*/ LDR         R1, [R4, #12] 
    /*00000024*/ MOV         R0, R6 
    /*00000028*/ BL          _ZNSt8_Rb_treeINSt7__cxx1112basic_stringIcSt11char_traitsIcESaIcEEES5_St9_IdentityIS5_ESt4lessIS5_ESaIS5_EE8_M_eraseEPSt13_Rb_tree_nodeIS5_E
    /*0000002c*/ LDR         R0, [R4, #16] 
    /*00000030*/ ADD         R3, R4, #24 
    /*00000034*/ LDR         R5, [R4, #8] 
    /*00000038*/ CMP         R0, R3 
    /*0000003c*/ BEQ         _ZNSt3setINSt7__cxx1112basic_stringIcSt11char_traitsIcESaIcEEESt4lessIS5_ESaIS5_EED2Ev_x44
    /*00000040*/ BL          _ZdlPv
    _ZNSt3setINSt7__cxx1112basic_stringIcSt11char_traitsIcESaIcEEESt4lessIS5_ESaIS5_EED2Ev_x44:
    /*00000044*/ MOV         R0, R4 
    /*00000048*/ BL          _ZdlPv
    /*0000004c*/ SUBS        R4, R5, #0 
    /*00000050*/ BNE         _ZNSt3setINSt7__cxx1112basic_stringIcSt11char_traitsIcESaIcEEESt4lessIS5_ESaIS5_EED2Ev_x20
    _ZNSt3setINSt7__cxx1112basic_stringIcSt11char_traitsIcESaIcEEESt4lessIS5_ESaIS5_EED2Ev_x54:
    /*00000054*/ MOV         R0, R6 
    /*00000058*/ POP         {R4, R5, R6, PC} 
FUNC_END _ZNSt3setINSt7__cxx1112basic_stringIcSt11char_traitsIcESaIcEEESt4lessIS5_ESaIS5_EED2Ev


FUNC_BEGIN _ZNSt3setINSt7__cxx1112basic_stringIcSt11char_traitsIcESaIcEEESt4lessIS5_ESaIS5_EED1Ev
    /*00000000*/ MOV         IP, #16384                  @ 0x4000 
    /*00000004*/ PUSH        {R4, R5, R6, LR} 
    /*00000008*/ SUB         IP, SP, IP 
    /*0000000c*/ STR         R0, [IP, #4080]             @ 0xff0 
    /*00000010*/ LDR         R4, [R0, #8] 
    /*00000014*/ MOV         R6, R0 
    /*00000018*/ CMP         R4, #0 
    /*0000001c*/ BEQ         _ZNSt3setINSt7__cxx1112basic_stringIcSt11char_traitsIcESaIcEEESt4lessIS5_ESaIS5_EED1Ev_x54
    _ZNSt3setINSt7__cxx1112basic_stringIcSt11char_traitsIcESaIcEEESt4lessIS5_ESaIS5_EED1Ev_x20:
    /*00000020*/ LDR         R1, [R4, #12] 
    /*00000024*/ MOV         R0, R6 
    /*00000028*/ BL          _ZNSt8_Rb_treeINSt7__cxx1112basic_stringIcSt11char_traitsIcESaIcEEES5_St9_IdentityIS5_ESt4lessIS5_ESaIS5_EE8_M_eraseEPSt13_Rb_tree_nodeIS5_E
    /*0000002c*/ LDR         R0, [R4, #16] 
    /*00000030*/ ADD         R3, R4, #24 
    /*00000034*/ LDR         R5, [R4, #8] 
    /*00000038*/ CMP         R0, R3 
    /*0000003c*/ BEQ         _ZNSt3setINSt7__cxx1112basic_stringIcSt11char_traitsIcESaIcEEESt4lessIS5_ESaIS5_EED1Ev_x44
    /*00000040*/ BL          _ZdlPv
    _ZNSt3setINSt7__cxx1112basic_stringIcSt11char_traitsIcESaIcEEESt4lessIS5_ESaIS5_EED1Ev_x44:
    /*00000044*/ MOV         R0, R4 
    /*00000048*/ BL          _ZdlPv
    /*0000004c*/ SUBS        R4, R5, #0 
    /*00000050*/ BNE         _ZNSt3setINSt7__cxx1112basic_stringIcSt11char_traitsIcESaIcEEESt4lessIS5_ESaIS5_EED1Ev_x20
    _ZNSt3setINSt7__cxx1112basic_stringIcSt11char_traitsIcESaIcEEESt4lessIS5_ESaIS5_EED1Ev_x54:
    /*00000054*/ MOV         R0, R6 
    /*00000058*/ POP         {R4, R5, R6, PC} 
FUNC_END _ZNSt3setINSt7__cxx1112basic_stringIcSt11char_traitsIcESaIcEEESt4lessIS5_ESaIS5_EED1Ev


@ - - - - - - - - - - - - - - - - - - - - - - - - - - - - - 
@ .text._ZNSt8_Rb_treeIPvS0_St9_IdentityIS0_ESt4lessIS0_ESaIS0_EE8_M_eraseEPSt13_Rb_tree_nodeIS0_E
@ Size: 0x178
@ - - - - - - - - - - - - - - - - - - - - - - - - - - - - - 

FUNC_BEGIN _ZNSt8_Rb_treeIPvS0_St9_IdentityIS0_ESt4lessIS0_ESaIS0_EE8_M_eraseEPSt13_Rb_tree_nodeIS0_E
    /*00000000*/ MOV         IP, #16384                  @ 0x4000 
    /*00000004*/ PUSH        {R4, R5, R6, R7, R8, R9, SL, FP, LR} 
    /*00000008*/ SUB         IP, SP, IP 
    /*0000000c*/ STR         R0, [IP, #4040]             @ 0xfc8 
    /*00000010*/ SUB         SP, SP, #20 
    /*00000014*/ SUBS        R3, R1, #0 
    /*00000018*/ STR         R3, [SP, #12] 
    /*0000001c*/ BEQ         _ZNSt8_Rb_treeIPvS0_St9_IdentityIS0_ESt4lessIS0_ESaIS0_EE8_M_eraseEPSt13_Rb_tree_nodeIS0_E_x170
    /*00000020*/ MOV         R4, R0 
    _ZNSt8_Rb_treeIPvS0_St9_IdentityIS0_ESt4lessIS0_ESaIS0_EE8_M_eraseEPSt13_Rb_tree_nodeIS0_E_x24:
    /*00000024*/ LDR         R7, [R3, #12] 
    /*00000028*/ CMP         R7, #0 
    /*0000002c*/ STRNE       R7, [SP, #4] 
    /*00000030*/ MOVNE       R3, R7 
    /*00000034*/ BEQ         _ZNSt8_Rb_treeIPvS0_St9_IdentityIS0_ESt4lessIS0_ESaIS0_EE8_M_eraseEPSt13_Rb_tree_nodeIS0_E_x158
    _ZNSt8_Rb_treeIPvS0_St9_IdentityIS0_ESt4lessIS0_ESaIS0_EE8_M_eraseEPSt13_Rb_tree_nodeIS0_E_x38:
    /*00000038*/ LDR         R8, [R3, #12] 
    /*0000003c*/ CMP         R8, #0 
    /*00000040*/ STRNE       R8, [SP, #8] 
    /*00000044*/ MOVNE       R3, R8 
    /*00000048*/ BEQ         _ZNSt8_Rb_treeIPvS0_St9_IdentityIS0_ESt4lessIS0_ESaIS0_EE8_M_eraseEPSt13_Rb_tree_nodeIS0_E_x13c
    _ZNSt8_Rb_treeIPvS0_St9_IdentityIS0_ESt4lessIS0_ESaIS0_EE8_M_eraseEPSt13_Rb_tree_nodeIS0_E_x4c:
    /*0000004c*/ LDR         R9, [R3, #12] 
    /*00000050*/ CMP         R9, #0 
    /*00000054*/ BEQ         _ZNSt8_Rb_treeIPvS0_St9_IdentityIS0_ESt4lessIS0_ESaIS0_EE8_M_eraseEPSt13_Rb_tree_nodeIS0_E_x120
    _ZNSt8_Rb_treeIPvS0_St9_IdentityIS0_ESt4lessIS0_ESaIS0_EE8_M_eraseEPSt13_Rb_tree_nodeIS0_E_x58:
    /*00000058*/ LDR         SL, [R9, #12] 
    /*0000005c*/ CMP         SL, #0 
    /*00000060*/ BEQ         _ZNSt8_Rb_treeIPvS0_St9_IdentityIS0_ESt4lessIS0_ESaIS0_EE8_M_eraseEPSt13_Rb_tree_nodeIS0_E_x108
    _ZNSt8_Rb_treeIPvS0_St9_IdentityIS0_ESt4lessIS0_ESaIS0_EE8_M_eraseEPSt13_Rb_tree_nodeIS0_E_x64:
    /*00000064*/ LDR         FP, [SL, #12] 
    /*00000068*/ CMP         FP, #0 
    /*0000006c*/ BEQ         _ZNSt8_Rb_treeIPvS0_St9_IdentityIS0_ESt4lessIS0_ESaIS0_EE8_M_eraseEPSt13_Rb_tree_nodeIS0_E_xf4
    _ZNSt8_Rb_treeIPvS0_St9_IdentityIS0_ESt4lessIS0_ESaIS0_EE8_M_eraseEPSt13_Rb_tree_nodeIS0_E_x70:
    /*00000070*/ LDR         R6, [FP, #12] 
    /*00000074*/ CMP         R6, #0 
    /*00000078*/ BEQ         _ZNSt8_Rb_treeIPvS0_St9_IdentityIS0_ESt4lessIS0_ESaIS0_EE8_M_eraseEPSt13_Rb_tree_nodeIS0_E_xe0
    _ZNSt8_Rb_treeIPvS0_St9_IdentityIS0_ESt4lessIS0_ESaIS0_EE8_M_eraseEPSt13_Rb_tree_nodeIS0_E_x7c:
    /*0000007c*/ LDR         R5, [R6, #12] 
    /*00000080*/ CMP         R5, #0 
    /*00000084*/ BEQ         _ZNSt8_Rb_treeIPvS0_St9_IdentityIS0_ESt4lessIS0_ESaIS0_EE8_M_eraseEPSt13_Rb_tree_nodeIS0_E_xcc
    _ZNSt8_Rb_treeIPvS0_St9_IdentityIS0_ESt4lessIS0_ESaIS0_EE8_M_eraseEPSt13_Rb_tree_nodeIS0_E_x88:
    /*00000088*/ LDR         R3, [R5, #12] 
    /*0000008c*/ CMP         R3, #0 
    /*00000090*/ MOVNE       R7, R3 
    /*00000094*/ BEQ         _ZNSt8_Rb_treeIPvS0_St9_IdentityIS0_ESt4lessIS0_ESaIS0_EE8_M_eraseEPSt13_Rb_tree_nodeIS0_E_xb8
    _ZNSt8_Rb_treeIPvS0_St9_IdentityIS0_ESt4lessIS0_ESaIS0_EE8_M_eraseEPSt13_Rb_tree_nodeIS0_E_x98:
    /*00000098*/ LDR         R1, [R7, #12] 
    /*0000009c*/ MOV         R0, R4 
    /*000000a0*/ BL          _ZNSt8_Rb_treeIPvS0_St9_IdentityIS0_ESt4lessIS0_ESaIS0_EE8_M_eraseEPSt13_Rb_tree_nodeIS0_E
    /*000000a4*/ LDR         R8, [R7, #8] 
    /*000000a8*/ MOV         R0, R7 
    /*000000ac*/ BL          _ZdlPv
    /*000000b0*/ SUBS        R7, R8, #0 
    /*000000b4*/ BNE         _ZNSt8_Rb_treeIPvS0_St9_IdentityIS0_ESt4lessIS0_ESaIS0_EE8_M_eraseEPSt13_Rb_tree_nodeIS0_E_x98
    _ZNSt8_Rb_treeIPvS0_St9_IdentityIS0_ESt4lessIS0_ESaIS0_EE8_M_eraseEPSt13_Rb_tree_nodeIS0_E_xb8:
    /*000000b8*/ LDR         R7, [R5, #8] 
    /*000000bc*/ MOV         R0, R5 
    /*000000c0*/ BL          _ZdlPv
    /*000000c4*/ SUBS        R5, R7, #0 
    /*000000c8*/ BNE         _ZNSt8_Rb_treeIPvS0_St9_IdentityIS0_ESt4lessIS0_ESaIS0_EE8_M_eraseEPSt13_Rb_tree_nodeIS0_E_x88
    _ZNSt8_Rb_treeIPvS0_St9_IdentityIS0_ESt4lessIS0_ESaIS0_EE8_M_eraseEPSt13_Rb_tree_nodeIS0_E_xcc:
    /*000000cc*/ LDR         R5, [R6, #8] 
    /*000000d0*/ MOV         R0, R6 
    /*000000d4*/ BL          _ZdlPv
    /*000000d8*/ SUBS        R6, R5, #0 
    /*000000dc*/ BNE         _ZNSt8_Rb_treeIPvS0_St9_IdentityIS0_ESt4lessIS0_ESaIS0_EE8_M_eraseEPSt13_Rb_tree_nodeIS0_E_x7c
    _ZNSt8_Rb_treeIPvS0_St9_IdentityIS0_ESt4lessIS0_ESaIS0_EE8_M_eraseEPSt13_Rb_tree_nodeIS0_E_xe0:
    /*000000e0*/ LDR         R5, [FP, #8] 
    /*000000e4*/ MOV         R0, FP 
    /*000000e8*/ BL          _ZdlPv
    /*000000ec*/ SUBS        FP, R5, #0 
    /*000000f0*/ BNE         _ZNSt8_Rb_treeIPvS0_St9_IdentityIS0_ESt4lessIS0_ESaIS0_EE8_M_eraseEPSt13_Rb_tree_nodeIS0_E_x70
    _ZNSt8_Rb_treeIPvS0_St9_IdentityIS0_ESt4lessIS0_ESaIS0_EE8_M_eraseEPSt13_Rb_tree_nodeIS0_E_xf4:
    /*000000f4*/ LDR         R5, [SL, #8] 
    /*000000f8*/ MOV         R0, SL 
    /*000000fc*/ BL          _ZdlPv
    /*00000100*/ SUBS        SL, R5, #0 
    /*00000104*/ BNE         _ZNSt8_Rb_treeIPvS0_St9_IdentityIS0_ESt4lessIS0_ESaIS0_EE8_M_eraseEPSt13_Rb_tree_nodeIS0_E_x64
    _ZNSt8_Rb_treeIPvS0_St9_IdentityIS0_ESt4lessIS0_ESaIS0_EE8_M_eraseEPSt13_Rb_tree_nodeIS0_E_x108:
    /*00000108*/ LDR         R5, [R9, #8] 
    /*0000010c*/ MOV         R0, R9 
    /*00000110*/ BL          _ZdlPv
    /*00000114*/ SUBS        R9, R5, #0 
    /*00000118*/ BNE         _ZNSt8_Rb_treeIPvS0_St9_IdentityIS0_ESt4lessIS0_ESaIS0_EE8_M_eraseEPSt13_Rb_tree_nodeIS0_E_x58
    /*0000011c*/ LDR         R3, [SP, #8] 
    _ZNSt8_Rb_treeIPvS0_St9_IdentityIS0_ESt4lessIS0_ESaIS0_EE8_M_eraseEPSt13_Rb_tree_nodeIS0_E_x120:
    /*00000120*/ LDR         R5, [R3, #8] 
    /*00000124*/ MOV         R0, R3 
    /*00000128*/ BL          _ZdlPv
    /*0000012c*/ SUBS        R3, R5, #0 
    /*00000130*/ STR         R3, [SP, #8] 
    /*00000134*/ BNE         _ZNSt8_Rb_treeIPvS0_St9_IdentityIS0_ESt4lessIS0_ESaIS0_EE8_M_eraseEPSt13_Rb_tree_nodeIS0_E_x4c
    /*00000138*/ LDR         R3, [SP, #4] 
    _ZNSt8_Rb_treeIPvS0_St9_IdentityIS0_ESt4lessIS0_ESaIS0_EE8_M_eraseEPSt13_Rb_tree_nodeIS0_E_x13c:
    /*0000013c*/ LDR         R5, [R3, #8] 
    /*00000140*/ MOV         R0, R3 
    /*00000144*/ BL          _ZdlPv
    /*00000148*/ SUBS        R3, R5, #0 
    /*0000014c*/ STR         R3, [SP, #4] 
    /*00000150*/ BNE         _ZNSt8_Rb_treeIPvS0_St9_IdentityIS0_ESt4lessIS0_ESaIS0_EE8_M_eraseEPSt13_Rb_tree_nodeIS0_E_x38
    /*00000154*/ LDR         R3, [SP, #12] 
    _ZNSt8_Rb_treeIPvS0_St9_IdentityIS0_ESt4lessIS0_ESaIS0_EE8_M_eraseEPSt13_Rb_tree_nodeIS0_E_x158:
    /*00000158*/ LDR         R5, [R3, #8] 
    /*0000015c*/ MOV         R0, R3 
    /*00000160*/ BL          _ZdlPv
    /*00000164*/ SUBS        R3, R5, #0 
    /*00000168*/ STR         R3, [SP, #12] 
    /*0000016c*/ BNE         _ZNSt8_Rb_treeIPvS0_St9_IdentityIS0_ESt4lessIS0_ESaIS0_EE8_M_eraseEPSt13_Rb_tree_nodeIS0_E_x24
    _ZNSt8_Rb_treeIPvS0_St9_IdentityIS0_ESt4lessIS0_ESaIS0_EE8_M_eraseEPSt13_Rb_tree_nodeIS0_E_x170:
    /*00000170*/ ADD         SP, SP, #20 
    /*00000174*/ POP         {R4, R5, R6, R7, R8, R9, SL, FP, PC} 
FUNC_END _ZNSt8_Rb_treeIPvS0_St9_IdentityIS0_ESt4lessIS0_ESaIS0_EE8_M_eraseEPSt13_Rb_tree_nodeIS0_E


@ - - - - - - - - - - - - - - - - - - - - - - - - - - - - - 
@ .text._ZNSt3setIPvSt4lessIS0_ESaIS0_EED2Ev
@ Size: 0x48
@ - - - - - - - - - - - - - - - - - - - - - - - - - - - - - 

FUNC_BEGIN _ZNSt3setIPvSt4lessIS0_ESaIS0_EED2Ev
    /*00000000*/ MOV         IP, #16384                  @ 0x4000 
    /*00000004*/ PUSH        {R4, R5, R6, LR} 
    /*00000008*/ SUB         IP, SP, IP 
    /*0000000c*/ STR         R0, [IP, #4080]             @ 0xff0 
    /*00000010*/ LDR         R4, [R0, #8] 
    /*00000014*/ MOV         R6, R0 
    /*00000018*/ CMP         R4, #0 
    /*0000001c*/ BEQ         _ZNSt3setIPvSt4lessIS0_ESaIS0_EED2Ev_x40
    _ZNSt3setIPvSt4lessIS0_ESaIS0_EED2Ev_x20:
    /*00000020*/ LDR         R1, [R4, #12] 
    /*00000024*/ MOV         R0, R6 
    /*00000028*/ BL          _ZNSt8_Rb_treeIPvS0_St9_IdentityIS0_ESt4lessIS0_ESaIS0_EE8_M_eraseEPSt13_Rb_tree_nodeIS0_E
    /*0000002c*/ LDR         R5, [R4, #8] 
    /*00000030*/ MOV         R0, R4 
    /*00000034*/ BL          _ZdlPv
    /*00000038*/ SUBS        R4, R5, #0 
    /*0000003c*/ BNE         _ZNSt3setIPvSt4lessIS0_ESaIS0_EED2Ev_x20
    _ZNSt3setIPvSt4lessIS0_ESaIS0_EED2Ev_x40:
    /*00000040*/ MOV         R0, R6 
    /*00000044*/ POP         {R4, R5, R6, PC} 
FUNC_END _ZNSt3setIPvSt4lessIS0_ESaIS0_EED2Ev


FUNC_BEGIN _ZNSt3setIPvSt4lessIS0_ESaIS0_EED1Ev
    /*00000000*/ MOV         IP, #16384                  @ 0x4000 
    /*00000004*/ PUSH        {R4, R5, R6, LR} 
    /*00000008*/ SUB         IP, SP, IP 
    /*0000000c*/ STR         R0, [IP, #4080]             @ 0xff0 
    /*00000010*/ LDR         R4, [R0, #8] 
    /*00000014*/ MOV         R6, R0 
    /*00000018*/ CMP         R4, #0 
    /*0000001c*/ BEQ         _ZNSt3setIPvSt4lessIS0_ESaIS0_EED1Ev_x40
    _ZNSt3setIPvSt4lessIS0_ESaIS0_EED1Ev_x20:
    /*00000020*/ LDR         R1, [R4, #12] 
    /*00000024*/ MOV         R0, R6 
    /*00000028*/ BL          _ZNSt8_Rb_treeIPvS0_St9_IdentityIS0_ESt4lessIS0_ESaIS0_EE8_M_eraseEPSt13_Rb_tree_nodeIS0_E
    /*0000002c*/ LDR         R5, [R4, #8] 
    /*00000030*/ MOV         R0, R4 
    /*00000034*/ BL          _ZdlPv
    /*00000038*/ SUBS        R4, R5, #0 
    /*0000003c*/ BNE         _ZNSt3setIPvSt4lessIS0_ESaIS0_EED1Ev_x20
    _ZNSt3setIPvSt4lessIS0_ESaIS0_EED1Ev_x40:
    /*00000040*/ MOV         R0, R6 
    /*00000044*/ POP         {R4, R5, R6, PC} 
FUNC_END _ZNSt3setIPvSt4lessIS0_ESaIS0_EED1Ev


@ - - - - - - - - - - - - - - - - - - - - - - - - - - - - - 
@ .text._ZNSt8_Rb_treeIN10hirtparser20HiRTSetting_LogLevelESt4pairIKS1_19tagHIRT_LOG_LEVEL_EESt10_Select1stIS5_ESt4lessIS1_ESaIS5_EE29_M_get_insert_hint_unique_posESt23_Rb_tree_const_iteratorIS5_ERS3_
@ Size: 0x280
@ - - - - - - - - - - - - - - - - - - - - - - - - - - - - - 

FUNC_BEGIN _ZNSt8_Rb_treeIN10hirtparser20HiRTSetting_LogLevelESt4pairIKS1_19tagHIRT_LOG_LEVEL_EESt10_Select1stIS5_ESt4lessIS1_ESaIS5_EE29_M_get_insert_hint_unique_posESt23_Rb_tree_const_iteratorIS5_ERS3_
    /*00000000*/ MOV         IP, #16384                  @ 0x4000 
    /*00000004*/ PUSH        {R4, R5, R6, R7, R8, R9, LR} 
    /*00000008*/ SUB         IP, SP, IP 
    /*0000000c*/ STR         R0, [IP, #4056]             @ 0xfd8 
    /*00000010*/ ADD         R8, R1, #4 
    /*00000014*/ SUB         SP, SP, #12 
    /*00000018*/ CMP         R2, R8 
    /*0000001c*/ MOV         R7, R1 
    /*00000020*/ MOV         R5, R0 
    /*00000024*/ BEQ         _ZNSt8_Rb_treeIN10hirtparser20HiRTSetting_LogLevelESt4pairIKS1_19tagHIRT_LOG_LEVEL_EESt10_Select1stIS5_ESt4lessIS1_ESaIS5_EE29_M_get_insert_hint_unique_posESt23_Rb_tree_const_iteratorIS5_ERS3__xf0
    /*00000028*/ LDR         R6, [R3] 
    /*0000002c*/ MOV         R4, R2 
    /*00000030*/ LDR         R3, [R2, #16] 
    /*00000034*/ CMP         R3, R6 
    /*00000038*/ BLE         _ZNSt8_Rb_treeIN10hirtparser20HiRTSetting_LogLevelESt4pairIKS1_19tagHIRT_LOG_LEVEL_EESt10_Select1stIS5_ESt4lessIS1_ESaIS5_EE29_M_get_insert_hint_unique_posESt23_Rb_tree_const_iteratorIS5_ERS3__x88
    /*0000003c*/ LDR         R9, [R1, #12] 
    /*00000040*/ CMP         R9, R2 
    /*00000044*/ STREQ       R9, [R0] 
    /*00000048*/ STREQ       R9, [R0, #4] 
    /*0000004c*/ BEQ         _ZNSt8_Rb_treeIN10hirtparser20HiRTSetting_LogLevelESt4pairIKS1_19tagHIRT_LOG_LEVEL_EESt10_Select1stIS5_ESt4lessIS1_ESaIS5_EE29_M_get_insert_hint_unique_posESt23_Rb_tree_const_iteratorIS5_ERS3__x7c
    /*00000050*/ MOV         R0, R2 
    /*00000054*/ BL          _ZSt18_Rb_tree_decrementPSt18_Rb_tree_node_base
    /*00000058*/ LDR         R3, [R0, #16] 
    /*0000005c*/ CMP         R6, R3 
    /*00000060*/ BLE         _ZNSt8_Rb_treeIN10hirtparser20HiRTSetting_LogLevelESt4pairIKS1_19tagHIRT_LOG_LEVEL_EESt10_Select1stIS5_ESt4lessIS1_ESaIS5_EE29_M_get_insert_hint_unique_posESt23_Rb_tree_const_iteratorIS5_ERS3__x188
    /*00000064*/ LDR         R3, [R0, #12] 
    /*00000068*/ CMP         R3, #0 
    /*0000006c*/ STREQ       R3, [R5] 
    /*00000070*/ STREQ       R0, [R5, #4] 
    /*00000074*/ STRNE       R4, [R5] 
    /*00000078*/ STRNE       R4, [R5, #4] 
    _ZNSt8_Rb_treeIN10hirtparser20HiRTSetting_LogLevelESt4pairIKS1_19tagHIRT_LOG_LEVEL_EESt10_Select1stIS5_ESt4lessIS1_ESaIS5_EE29_M_get_insert_hint_unique_posESt23_Rb_tree_const_iteratorIS5_ERS3__x7c:
    /*0000007c*/ MOV         R0, R5 
    /*00000080*/ ADD         SP, SP, #12 
    /*00000084*/ POP         {R4, R5, R6, R7, R8, R9, PC} 
    _ZNSt8_Rb_treeIN10hirtparser20HiRTSetting_LogLevelESt4pairIKS1_19tagHIRT_LOG_LEVEL_EESt10_Select1stIS5_ESt4lessIS1_ESaIS5_EE29_M_get_insert_hint_unique_posESt23_Rb_tree_const_iteratorIS5_ERS3__x88:
    /*00000088*/ BGE         _ZNSt8_Rb_treeIN10hirtparser20HiRTSetting_LogLevelESt4pairIKS1_19tagHIRT_LOG_LEVEL_EESt10_Select1stIS5_ESt4lessIS1_ESaIS5_EE29_M_get_insert_hint_unique_posESt23_Rb_tree_const_iteratorIS5_ERS3__xd8
    /*0000008c*/ LDR         R3, [R1, #16] 
    /*00000090*/ CMP         R3, R2 
    /*00000094*/ STREQ       R3, [R0, #4] 
    /*00000098*/ MOVEQ       R3, #0 
    /*0000009c*/ STREQ       R3, [R0] 
    /*000000a0*/ BEQ         _ZNSt8_Rb_treeIN10hirtparser20HiRTSetting_LogLevelESt4pairIKS1_19tagHIRT_LOG_LEVEL_EESt10_Select1stIS5_ESt4lessIS1_ESaIS5_EE29_M_get_insert_hint_unique_posESt23_Rb_tree_const_iteratorIS5_ERS3__x7c
    /*000000a4*/ MOV         R0, R2 
    /*000000a8*/ BL          _ZSt18_Rb_tree_incrementPSt18_Rb_tree_node_base
    /*000000ac*/ LDR         R3, [R0, #16] 
    /*000000b0*/ CMP         R6, R3 
    /*000000b4*/ BGE         _ZNSt8_Rb_treeIN10hirtparser20HiRTSetting_LogLevelESt4pairIKS1_19tagHIRT_LOG_LEVEL_EESt10_Select1stIS5_ESt4lessIS1_ESaIS5_EE29_M_get_insert_hint_unique_posESt23_Rb_tree_const_iteratorIS5_ERS3__x208
    /*000000b8*/ LDR         R3, [R4, #12] 
    /*000000bc*/ CMP         R3, #0 
    /*000000c0*/ STRNE       R0, [R5] 
    /*000000c4*/ STRNE       R0, [R5, #4] 
    /*000000c8*/ MOV         R0, R5 
    /*000000cc*/ STMEQ       R5, {R3, R4} 
    /*000000d0*/ ADD         SP, SP, #12 
    /*000000d4*/ POP         {R4, R5, R6, R7, R8, R9, PC} 
    _ZNSt8_Rb_treeIN10hirtparser20HiRTSetting_LogLevelESt4pairIKS1_19tagHIRT_LOG_LEVEL_EESt10_Select1stIS5_ESt4lessIS1_ESaIS5_EE29_M_get_insert_hint_unique_posESt23_Rb_tree_const_iteratorIS5_ERS3__xd8:
    /*000000d8*/ STR         R2, [R5] 
    /*000000dc*/ MOV         R3, #0 
    /*000000e0*/ STR         R3, [R0, #4] 
    /*000000e4*/ MOV         R0, R5 
    /*000000e8*/ ADD         SP, SP, #12 
    /*000000ec*/ POP         {R4, R5, R6, R7, R8, R9, PC} 
    _ZNSt8_Rb_treeIN10hirtparser20HiRTSetting_LogLevelESt4pairIKS1_19tagHIRT_LOG_LEVEL_EESt10_Select1stIS5_ESt4lessIS1_ESaIS5_EE29_M_get_insert_hint_unique_posESt23_Rb_tree_const_iteratorIS5_ERS3__xf0:
    /*000000f0*/ LDR         R2, [R1, #20] 
    /*000000f4*/ CMP         R2, #0 
    /*000000f8*/ BEQ         _ZNSt8_Rb_treeIN10hirtparser20HiRTSetting_LogLevelESt4pairIKS1_19tagHIRT_LOG_LEVEL_EESt10_Select1stIS5_ESt4lessIS1_ESaIS5_EE29_M_get_insert_hint_unique_posESt23_Rb_tree_const_iteratorIS5_ERS3__x110
    /*000000fc*/ LDR         R2, [R1, #16] 
    /*00000100*/ LDR         R0, [R3] 
    /*00000104*/ LDR         R1, [R2, #16] 
    /*00000108*/ CMP         R0, R1 
    /*0000010c*/ BGT         _ZNSt8_Rb_treeIN10hirtparser20HiRTSetting_LogLevelESt4pairIKS1_19tagHIRT_LOG_LEVEL_EESt10_Select1stIS5_ESt4lessIS1_ESaIS5_EE29_M_get_insert_hint_unique_posESt23_Rb_tree_const_iteratorIS5_ERS3__x170
    _ZNSt8_Rb_treeIN10hirtparser20HiRTSetting_LogLevelESt4pairIKS1_19tagHIRT_LOG_LEVEL_EESt10_Select1stIS5_ESt4lessIS1_ESaIS5_EE29_M_get_insert_hint_unique_posESt23_Rb_tree_const_iteratorIS5_ERS3__x110:
    /*00000110*/ LDR         R2, [R7, #8] 
    /*00000114*/ CMP         R2, #0 
    /*00000118*/ BEQ         _ZNSt8_Rb_treeIN10hirtparser20HiRTSetting_LogLevelESt4pairIKS1_19tagHIRT_LOG_LEVEL_EESt10_Select1stIS5_ESt4lessIS1_ESaIS5_EE29_M_get_insert_hint_unique_posESt23_Rb_tree_const_iteratorIS5_ERS3__x258
    /*0000011c*/ LDR         IP, [R3] 
    /*00000120*/ MOV         R8, R2 
    /*00000124*/ B           _ZNSt8_Rb_treeIN10hirtparser20HiRTSetting_LogLevelESt4pairIKS1_19tagHIRT_LOG_LEVEL_EESt10_Select1stIS5_ESt4lessIS1_ESaIS5_EE29_M_get_insert_hint_unique_posESt23_Rb_tree_const_iteratorIS5_ERS3__x12c
    _ZNSt8_Rb_treeIN10hirtparser20HiRTSetting_LogLevelESt4pairIKS1_19tagHIRT_LOG_LEVEL_EESt10_Select1stIS5_ESt4lessIS1_ESaIS5_EE29_M_get_insert_hint_unique_posESt23_Rb_tree_const_iteratorIS5_ERS3__x128:
    /*00000128*/ MOV         R8, R2 
    _ZNSt8_Rb_treeIN10hirtparser20HiRTSetting_LogLevelESt4pairIKS1_19tagHIRT_LOG_LEVEL_EESt10_Select1stIS5_ESt4lessIS1_ESaIS5_EE29_M_get_insert_hint_unique_posESt23_Rb_tree_const_iteratorIS5_ERS3__x12c:
    /*0000012c*/ LDR         R1, [R8, #16] 
    /*00000130*/ MOV         R0, #1 
    /*00000134*/ CMP         IP, R1 
    /*00000138*/ MOVGE       R0, #0 
    /*0000013c*/ LDRLT       R2, [R8, #8] 
    /*00000140*/ LDRGE       R2, [R8, #12] 
    /*00000144*/ CMP         R2, #0 
    /*00000148*/ BNE         _ZNSt8_Rb_treeIN10hirtparser20HiRTSetting_LogLevelESt4pairIKS1_19tagHIRT_LOG_LEVEL_EESt10_Select1stIS5_ESt4lessIS1_ESaIS5_EE29_M_get_insert_hint_unique_posESt23_Rb_tree_const_iteratorIS5_ERS3__x128
    /*0000014c*/ CMP         R0, #0 
    /*00000150*/ MOVEQ       R0, R8 
    /*00000154*/ BNE         _ZNSt8_Rb_treeIN10hirtparser20HiRTSetting_LogLevelESt4pairIKS1_19tagHIRT_LOG_LEVEL_EESt10_Select1stIS5_ESt4lessIS1_ESaIS5_EE29_M_get_insert_hint_unique_posESt23_Rb_tree_const_iteratorIS5_ERS3__x258
    _ZNSt8_Rb_treeIN10hirtparser20HiRTSetting_LogLevelESt4pairIKS1_19tagHIRT_LOG_LEVEL_EESt10_Select1stIS5_ESt4lessIS1_ESaIS5_EE29_M_get_insert_hint_unique_posESt23_Rb_tree_const_iteratorIS5_ERS3__x158:
    /*00000158*/ CMP         R1, IP 
    /*0000015c*/ BGE         _ZNSt8_Rb_treeIN10hirtparser20HiRTSetting_LogLevelESt4pairIKS1_19tagHIRT_LOG_LEVEL_EESt10_Select1stIS5_ESt4lessIS1_ESaIS5_EE29_M_get_insert_hint_unique_posESt23_Rb_tree_const_iteratorIS5_ERS3__x1d4
    _ZNSt8_Rb_treeIN10hirtparser20HiRTSetting_LogLevelESt4pairIKS1_19tagHIRT_LOG_LEVEL_EESt10_Select1stIS5_ESt4lessIS1_ESaIS5_EE29_M_get_insert_hint_unique_posESt23_Rb_tree_const_iteratorIS5_ERS3__x160:
    /*00000160*/ STR         R8, [R5, #4] 
    /*00000164*/ MOV         R3, #0 
    /*00000168*/ STR         R3, [R5] 
    /*0000016c*/ B           _ZNSt8_Rb_treeIN10hirtparser20HiRTSetting_LogLevelESt4pairIKS1_19tagHIRT_LOG_LEVEL_EESt10_Select1stIS5_ESt4lessIS1_ESaIS5_EE29_M_get_insert_hint_unique_posESt23_Rb_tree_const_iteratorIS5_ERS3__x7c
    _ZNSt8_Rb_treeIN10hirtparser20HiRTSetting_LogLevelESt4pairIKS1_19tagHIRT_LOG_LEVEL_EESt10_Select1stIS5_ESt4lessIS1_ESaIS5_EE29_M_get_insert_hint_unique_posESt23_Rb_tree_const_iteratorIS5_ERS3__x170:
    /*00000170*/ STR         R2, [R5, #4] 
    /*00000174*/ MOV         R3, #0 
    /*00000178*/ STR         R3, [R5] 
    /*0000017c*/ MOV         R0, R5 
    /*00000180*/ ADD         SP, SP, #12 
    /*00000184*/ POP         {R4, R5, R6, R7, R8, R9, PC} 
    _ZNSt8_Rb_treeIN10hirtparser20HiRTSetting_LogLevelESt4pairIKS1_19tagHIRT_LOG_LEVEL_EESt10_Select1stIS5_ESt4lessIS1_ESaIS5_EE29_M_get_insert_hint_unique_posESt23_Rb_tree_const_iteratorIS5_ERS3__x188:
    /*00000188*/ LDR         R3, [R7, #8] 
    /*0000018c*/ CMP         R3, #0 
    /*00000190*/ BNE         _ZNSt8_Rb_treeIN10hirtparser20HiRTSetting_LogLevelESt4pairIKS1_19tagHIRT_LOG_LEVEL_EESt10_Select1stIS5_ESt4lessIS1_ESaIS5_EE29_M_get_insert_hint_unique_posESt23_Rb_tree_const_iteratorIS5_ERS3__x19c
    /*00000194*/ B           _ZNSt8_Rb_treeIN10hirtparser20HiRTSetting_LogLevelESt4pairIKS1_19tagHIRT_LOG_LEVEL_EESt10_Select1stIS5_ESt4lessIS1_ESaIS5_EE29_M_get_insert_hint_unique_posESt23_Rb_tree_const_iteratorIS5_ERS3__x1e4
    _ZNSt8_Rb_treeIN10hirtparser20HiRTSetting_LogLevelESt4pairIKS1_19tagHIRT_LOG_LEVEL_EESt10_Select1stIS5_ESt4lessIS1_ESaIS5_EE29_M_get_insert_hint_unique_posESt23_Rb_tree_const_iteratorIS5_ERS3__x198:
    /*00000198*/ MOV         R3, R2 
    _ZNSt8_Rb_treeIN10hirtparser20HiRTSetting_LogLevelESt4pairIKS1_19tagHIRT_LOG_LEVEL_EESt10_Select1stIS5_ESt4lessIS1_ESaIS5_EE29_M_get_insert_hint_unique_posESt23_Rb_tree_const_iteratorIS5_ERS3__x19c:
    /*0000019c*/ LDR         R1, [R3, #16] 
    /*000001a0*/ MOV         R0, #1 
    /*000001a4*/ CMP         R6, R1 
    /*000001a8*/ MOVGE       R0, #0 
    /*000001ac*/ LDRLT       R2, [R3, #8] 
    /*000001b0*/ LDRGE       R2, [R3, #12] 
    /*000001b4*/ CMP         R2, #0 
    /*000001b8*/ BNE         _ZNSt8_Rb_treeIN10hirtparser20HiRTSetting_LogLevelESt4pairIKS1_19tagHIRT_LOG_LEVEL_EESt10_Select1stIS5_ESt4lessIS1_ESaIS5_EE29_M_get_insert_hint_unique_posESt23_Rb_tree_const_iteratorIS5_ERS3__x198
    /*000001bc*/ CMP         R0, #0 
    /*000001c0*/ MOV         R8, R3 
    /*000001c4*/ BNE         _ZNSt8_Rb_treeIN10hirtparser20HiRTSetting_LogLevelESt4pairIKS1_19tagHIRT_LOG_LEVEL_EESt10_Select1stIS5_ESt4lessIS1_ESaIS5_EE29_M_get_insert_hint_unique_posESt23_Rb_tree_const_iteratorIS5_ERS3__x1e4
    _ZNSt8_Rb_treeIN10hirtparser20HiRTSetting_LogLevelESt4pairIKS1_19tagHIRT_LOG_LEVEL_EESt10_Select1stIS5_ESt4lessIS1_ESaIS5_EE29_M_get_insert_hint_unique_posESt23_Rb_tree_const_iteratorIS5_ERS3__x1c8:
    /*000001c8*/ MOV         R0, R8 
    _ZNSt8_Rb_treeIN10hirtparser20HiRTSetting_LogLevelESt4pairIKS1_19tagHIRT_LOG_LEVEL_EESt10_Select1stIS5_ESt4lessIS1_ESaIS5_EE29_M_get_insert_hint_unique_posESt23_Rb_tree_const_iteratorIS5_ERS3__x1cc:
    /*000001cc*/ CMP         R6, R1 
    /*000001d0*/ BGT         _ZNSt8_Rb_treeIN10hirtparser20HiRTSetting_LogLevelESt4pairIKS1_19tagHIRT_LOG_LEVEL_EESt10_Select1stIS5_ESt4lessIS1_ESaIS5_EE29_M_get_insert_hint_unique_posESt23_Rb_tree_const_iteratorIS5_ERS3__x160
    _ZNSt8_Rb_treeIN10hirtparser20HiRTSetting_LogLevelESt4pairIKS1_19tagHIRT_LOG_LEVEL_EESt10_Select1stIS5_ESt4lessIS1_ESaIS5_EE29_M_get_insert_hint_unique_posESt23_Rb_tree_const_iteratorIS5_ERS3__x1d4:
    /*000001d4*/ STR         R0, [R5] 
    /*000001d8*/ MOV         R3, #0 
    /*000001dc*/ STR         R3, [R5, #4] 
    /*000001e0*/ B           _ZNSt8_Rb_treeIN10hirtparser20HiRTSetting_LogLevelESt4pairIKS1_19tagHIRT_LOG_LEVEL_EESt10_Select1stIS5_ESt4lessIS1_ESaIS5_EE29_M_get_insert_hint_unique_posESt23_Rb_tree_const_iteratorIS5_ERS3__x7c
    _ZNSt8_Rb_treeIN10hirtparser20HiRTSetting_LogLevelESt4pairIKS1_19tagHIRT_LOG_LEVEL_EESt10_Select1stIS5_ESt4lessIS1_ESaIS5_EE29_M_get_insert_hint_unique_posESt23_Rb_tree_const_iteratorIS5_ERS3__x1e4:
    /*000001e4*/ CMP         R9, R8 
    /*000001e8*/ STREQ       R9, [R5, #4] 
    /*000001ec*/ MOVEQ       R3, #0 
    /*000001f0*/ STREQ       R3, [R5] 
    /*000001f4*/ BEQ         _ZNSt8_Rb_treeIN10hirtparser20HiRTSetting_LogLevelESt4pairIKS1_19tagHIRT_LOG_LEVEL_EESt10_Select1stIS5_ESt4lessIS1_ESaIS5_EE29_M_get_insert_hint_unique_posESt23_Rb_tree_const_iteratorIS5_ERS3__x7c
    _ZNSt8_Rb_treeIN10hirtparser20HiRTSetting_LogLevelESt4pairIKS1_19tagHIRT_LOG_LEVEL_EESt10_Select1stIS5_ESt4lessIS1_ESaIS5_EE29_M_get_insert_hint_unique_posESt23_Rb_tree_const_iteratorIS5_ERS3__x1f8:
    /*000001f8*/ MOV         R0, R8 
    /*000001fc*/ BL          _ZSt18_Rb_tree_decrementPSt18_Rb_tree_node_base
    /*00000200*/ LDR         R1, [R0, #16] 
    /*00000204*/ B           _ZNSt8_Rb_treeIN10hirtparser20HiRTSetting_LogLevelESt4pairIKS1_19tagHIRT_LOG_LEVEL_EESt10_Select1stIS5_ESt4lessIS1_ESaIS5_EE29_M_get_insert_hint_unique_posESt23_Rb_tree_const_iteratorIS5_ERS3__x1cc
    _ZNSt8_Rb_treeIN10hirtparser20HiRTSetting_LogLevelESt4pairIKS1_19tagHIRT_LOG_LEVEL_EESt10_Select1stIS5_ESt4lessIS1_ESaIS5_EE29_M_get_insert_hint_unique_posESt23_Rb_tree_const_iteratorIS5_ERS3__x208:
    /*00000208*/ LDR         R3, [R7, #8] 
    /*0000020c*/ CMP         R3, #0 
    /*00000210*/ BNE         _ZNSt8_Rb_treeIN10hirtparser20HiRTSetting_LogLevelESt4pairIKS1_19tagHIRT_LOG_LEVEL_EESt10_Select1stIS5_ESt4lessIS1_ESaIS5_EE29_M_get_insert_hint_unique_posESt23_Rb_tree_const_iteratorIS5_ERS3__x21c
    /*00000214*/ B           _ZNSt8_Rb_treeIN10hirtparser20HiRTSetting_LogLevelESt4pairIKS1_19tagHIRT_LOG_LEVEL_EESt10_Select1stIS5_ESt4lessIS1_ESaIS5_EE29_M_get_insert_hint_unique_posESt23_Rb_tree_const_iteratorIS5_ERS3__x248
    _ZNSt8_Rb_treeIN10hirtparser20HiRTSetting_LogLevelESt4pairIKS1_19tagHIRT_LOG_LEVEL_EESt10_Select1stIS5_ESt4lessIS1_ESaIS5_EE29_M_get_insert_hint_unique_posESt23_Rb_tree_const_iteratorIS5_ERS3__x218:
    /*00000218*/ MOV         R3, R2 
    _ZNSt8_Rb_treeIN10hirtparser20HiRTSetting_LogLevelESt4pairIKS1_19tagHIRT_LOG_LEVEL_EESt10_Select1stIS5_ESt4lessIS1_ESaIS5_EE29_M_get_insert_hint_unique_posESt23_Rb_tree_const_iteratorIS5_ERS3__x21c:
    /*0000021c*/ LDR         R1, [R3, #16] 
    /*00000220*/ MOV         R0, #1 
    /*00000224*/ CMP         R6, R1 
    /*00000228*/ MOVGE       R0, #0 
    /*0000022c*/ LDRLT       R2, [R3, #8] 
    /*00000230*/ LDRGE       R2, [R3, #12] 
    /*00000234*/ CMP         R2, #0 
    /*00000238*/ BNE         _ZNSt8_Rb_treeIN10hirtparser20HiRTSetting_LogLevelESt4pairIKS1_19tagHIRT_LOG_LEVEL_EESt10_Select1stIS5_ESt4lessIS1_ESaIS5_EE29_M_get_insert_hint_unique_posESt23_Rb_tree_const_iteratorIS5_ERS3__x218
    /*0000023c*/ CMP         R0, #0 
    /*00000240*/ MOV         R8, R3 
    /*00000244*/ BEQ         _ZNSt8_Rb_treeIN10hirtparser20HiRTSetting_LogLevelESt4pairIKS1_19tagHIRT_LOG_LEVEL_EESt10_Select1stIS5_ESt4lessIS1_ESaIS5_EE29_M_get_insert_hint_unique_posESt23_Rb_tree_const_iteratorIS5_ERS3__x1c8
    _ZNSt8_Rb_treeIN10hirtparser20HiRTSetting_LogLevelESt4pairIKS1_19tagHIRT_LOG_LEVEL_EESt10_Select1stIS5_ESt4lessIS1_ESaIS5_EE29_M_get_insert_hint_unique_posESt23_Rb_tree_const_iteratorIS5_ERS3__x248:
    /*00000248*/ LDR         R3, [R7, #12] 
    /*0000024c*/ CMP         R8, R3 
    /*00000250*/ BNE         _ZNSt8_Rb_treeIN10hirtparser20HiRTSetting_LogLevelESt4pairIKS1_19tagHIRT_LOG_LEVEL_EESt10_Select1stIS5_ESt4lessIS1_ESaIS5_EE29_M_get_insert_hint_unique_posESt23_Rb_tree_const_iteratorIS5_ERS3__x1f8
    /*00000254*/ B           _ZNSt8_Rb_treeIN10hirtparser20HiRTSetting_LogLevelESt4pairIKS1_19tagHIRT_LOG_LEVEL_EESt10_Select1stIS5_ESt4lessIS1_ESaIS5_EE29_M_get_insert_hint_unique_posESt23_Rb_tree_const_iteratorIS5_ERS3__x160
    _ZNSt8_Rb_treeIN10hirtparser20HiRTSetting_LogLevelESt4pairIKS1_19tagHIRT_LOG_LEVEL_EESt10_Select1stIS5_ESt4lessIS1_ESaIS5_EE29_M_get_insert_hint_unique_posESt23_Rb_tree_const_iteratorIS5_ERS3__x258:
    /*00000258*/ LDR         R2, [R7, #12] 
    /*0000025c*/ CMP         R2, R8 
    /*00000260*/ BEQ         _ZNSt8_Rb_treeIN10hirtparser20HiRTSetting_LogLevelESt4pairIKS1_19tagHIRT_LOG_LEVEL_EESt10_Select1stIS5_ESt4lessIS1_ESaIS5_EE29_M_get_insert_hint_unique_posESt23_Rb_tree_const_iteratorIS5_ERS3__x160
    /*00000264*/ STR         R3, [SP, #4] 
    /*00000268*/ MOV         R0, R8 
    /*0000026c*/ BL          _ZSt18_Rb_tree_decrementPSt18_Rb_tree_node_base
    /*00000270*/ LDR         R3, [SP, #4] 
    /*00000274*/ LDR         R1, [R0, #16] 
    /*00000278*/ LDR         IP, [R3] 
    /*0000027c*/ B           _ZNSt8_Rb_treeIN10hirtparser20HiRTSetting_LogLevelESt4pairIKS1_19tagHIRT_LOG_LEVEL_EESt10_Select1stIS5_ESt4lessIS1_ESaIS5_EE29_M_get_insert_hint_unique_posESt23_Rb_tree_const_iteratorIS5_ERS3__x158
FUNC_END _ZNSt8_Rb_treeIN10hirtparser20HiRTSetting_LogLevelESt4pairIKS1_19tagHIRT_LOG_LEVEL_EESt10_Select1stIS5_ESt4lessIS1_ESaIS5_EE29_M_get_insert_hint_unique_posESt23_Rb_tree_const_iteratorIS5_ERS3_


@ - - - - - - - - - - - - - - - - - - - - - - - - - - - - - 
@ .text.HI_SVPRT_RUNTIME_Init
@ Size: 0xa28
@ - - - - - - - - - - - - - - - - - - - - - - - - - - - - - 

FUNC_BEGIN HI_SVPRT_RUNTIME_Init
    /*00000000*/ MOV         IP, #16384                  @ 0x4000 
    /*00000004*/ PUSH        {R4, R5, R6, R7, R8, R9, SL, FP, LR} 
    /*00000008*/ SUB         IP, SP, IP 
    /*0000000c*/ STR         R0, [IP, #3456]             @ 0xd80 
    /*00000010*/ LDR         R4, WORD_090c               @ LDR         R4, [PC, #2292]             @ 0x000000000000090c 
    /*00000014*/ SUB         SP, SP, #604                @ 0x25c 
    /*00000018*/ LDR         R3, WORD_0910               @ LDR         R3, [PC, #2288]             @ 0x0000000000000910 
    /*0000001c*/ MOV         R7, R0 
    /*00000020*/ ADD         R4, PC, R4 
    /*00000024*/ MOV         R6, R1 
    /*00000028*/ LDR         R0, WORD_0914               @ LDR         R0, [PC, #2276]             @ 0x0000000000000914 
    /*0000002c*/ MOV         R1, #2 
    /*00000030*/ LDR         R3, [R4, R3] 
    /*00000034*/ LDR         R2, WORD_0918               @ LDR         R2, [PC, #2268]             @ 0x0000000000000918 
    /*00000038*/ STR         R3, [SP, #28] 
    /*0000003c*/ MOV         IP, R3 
    /*00000040*/ LDR         R3, WORD_091c               @ LDR         R3, [PC, #2260]             @ 0x000000000000091c 
    /*00000044*/ ADD         R0, PC, R0 
    /*00000048*/ ADD         R2, PC, R2 
    /*0000004c*/ ADD         R3, PC, R3 
    /*00000050*/ LDR         IP, [IP] 
    /*00000054*/ STR         R0, [SP, #8] 
    /*00000058*/ STR         R2, [SP, #4] 
    /*0000005c*/ STR         R3, [SP] 
    /*00000060*/ LDR         R2, WORD_0920               @ LDR         R2, [PC, #2232]             @ 0x0000000000000920 
    /*00000064*/ LDR         R3, WORD_0924               @ LDR         R3, [PC, #2232]             @ 0x0000000000000924 
    /*00000068*/ LDR         R0, WORD_0928               @ LDR         R0, [PC, #2232]             @ 0x0000000000000928 
    /*0000006c*/ ADD         R3, PC, R3 
    /*00000070*/ ADD         R2, PC, R2 
    /*00000074*/ ADD         R0, PC, R0 
    /*00000078*/ STR         IP, [SP, #596]              @ 0x254 
    /*0000007c*/ BL          _Z15HIRT_LOG_PrintfPKc19tagHIRT_LOG_LEVEL_ES0_z
    /*00000080*/ LDR         R3, WORD_092c               @ LDR         R3, [PC, #2212]             @ 0x000000000000092c 
    /*00000084*/ LDR         R3, [R4, R3] 
    /*00000088*/ STR         R3, [SP, #24] 
    /*0000008c*/ CMP         R3, #0 
    /*00000090*/ BEQ         HI_SVPRT_RUNTIME_Init_xa8
    /*00000094*/ LDR         R0, WORD_0930               @ LDR         R0, [PC, #2196]             @ 0x0000000000000930 
    /*00000098*/ ADD         R0, PC, R0 
    /*0000009c*/ BL          pthread_mutex_lock
    /*000000a0*/ CMP         R0, #0 
    /*000000a4*/ BNE         HI_SVPRT_RUNTIME_Init_x8ec
    HI_SVPRT_RUNTIME_Init_xa8:
    /*000000a8*/ ADD         R5, SP, #60                 @ 0x3c 
    /*000000ac*/ MOV         R2, #128                    @ 0x80 
    /*000000b0*/ MOV         R0, R5 
    /*000000b4*/ MOV         R1, #0 
    /*000000b8*/ BL          memset
    /*000000bc*/ LDR         R3, WORD_0934               @ LDR         R3, [PC, #2160]             @ 0x0000000000000934 
    /*000000c0*/ ADD         R3, PC, R3 
    /*000000c4*/ LDR         R3, [R3] 
    /*000000c8*/ CMP         R3, #0 
    /*000000cc*/ BNE         HI_SVPRT_RUNTIME_Init_x3b8
    /*000000d0*/ CMP         R6, #0 
    /*000000d4*/ BEQ         HI_SVPRT_RUNTIME_Init_x350
    /*000000d8*/ LDR         R3, [R6] 
    /*000000dc*/ CMP         R3, #0 
    /*000000e0*/ BEQ         HI_SVPRT_RUNTIME_Init_x350
    /*000000e4*/ LDR         R1, [R6, #4] 
    /*000000e8*/ CMP         R1, #0 
    /*000000ec*/ BEQ         HI_SVPRT_RUNTIME_Init_x350
    /*000000f0*/ LDR         R0, [R6, #8] 
    /*000000f4*/ CMP         R0, #0 
    /*000000f8*/ BEQ         HI_SVPRT_RUNTIME_Init_x350
    /*000000fc*/ LDR         R2, WORD_0938               @ LDR         R2, [PC, #2100]             @ 0x0000000000000938 
    /*00000100*/ CMP         R7, #0 
    /*00000104*/ ADD         R2, PC, R2 
    /*00000108*/ STR         R3, [R2] 
    /*0000010c*/ STR         R1, [R2, #4] 
    /*00000110*/ STR         R0, [R2, #8] 
    /*00000114*/ BEQ         HI_SVPRT_RUNTIME_Init_x384
    HI_SVPRT_RUNTIME_Init_x118:
    /*00000118*/ ADD         R8, SP, #580                @ 0x244 
    /*0000011c*/ MOV         R0, R7 
    /*00000120*/ STR         R8, [SP, #572]              @ 0x23c 
    /*00000124*/ BL          strlen
    /*00000128*/ STR         R0, [SP, #188]              @ 0xbc 
    /*0000012c*/ CMP         R0, #15 
    /*00000130*/ MOV         R6, R0 
    /*00000134*/ ADD         R9, SP, #572                @ 0x23c 
    /*00000138*/ BHI         HI_SVPRT_RUNTIME_Init_x7b8
    /*0000013c*/ CMP         R0, #1 
    /*00000140*/ BEQ         HI_SVPRT_RUNTIME_Init_x7fc
    /*00000144*/ CMP         R0, #0 
    /*00000148*/ MOVEQ       R2, R8 
    /*0000014c*/ BNE         HI_SVPRT_RUNTIME_Init_x8ac
    HI_SVPRT_RUNTIME_Init_x150:
    /*00000150*/ STR         R6, [SP, #576]              @ 0x240 
    /*00000154*/ MOV         R3, #0 
    /*00000158*/ STRB        R3, [R2, R6] 
    /*0000015c*/ MOV         R0, R9 
    /*00000160*/ BL          _ZN4hirt13GlobalSetting19createGlobalSettingERKNSt7__cxx1112basic_stringIcSt11char_traitsIcESaIcEEE
    /*00000164*/ LDR         R3, [SP, #572]              @ 0x23c 
    /*00000168*/ LDR         R6, WORD_093c               @ LDR         R6, [PC, #1996]             @ 0x000000000000093c 
    /*0000016c*/ CMP         R3, R8 
    /*00000170*/ ADD         R6, PC, R6 
    /*00000174*/ STR         R0, [R6] 
    /*00000178*/ BEQ         HI_SVPRT_RUNTIME_Init_x188
    HI_SVPRT_RUNTIME_Init_x17c:
    /*0000017c*/ MOV         R0, R3 
    /*00000180*/ BL          _ZdlPv
    /*00000184*/ LDR         R0, [R6] 
    HI_SVPRT_RUNTIME_Init_x188:
    /*00000188*/ CMP         R0, #0 
    /*0000018c*/ BEQ         HI_SVPRT_RUNTIME_Init_x834
    /*00000190*/ BL          _ZN4hirt13GlobalSetting11getLogLevelEv
    /*00000194*/ LDR         R7, WORD_0940               @ LDR         R7, [PC, #1956]             @ 0x0000000000000940 
    /*00000198*/ MOV         R6, R0 
    /*0000019c*/ ADD         R7, PC, R7 
    /*000001a0*/ ADD         R7, R7, #4 
    /*000001a4*/ LDR         R3, [R7, #4] 
    /*000001a8*/ CMP         R3, #0 
    /*000001ac*/ BEQ         HI_SVPRT_RUNTIME_Init_x1ec
    HI_SVPRT_RUNTIME_Init_x1b0:
    /*000001b0*/ LDR         R2, [R3, #16] 
    /*000001b4*/ CMP         R6, R2 
    /*000001b8*/ MOVLE       R7, R3 
    /*000001bc*/ LDRGT       R3, [R3, #12] 
    /*000001c0*/ LDRLE       R3, [R3, #8] 
    /*000001c4*/ CMP         R3, #0 
    /*000001c8*/ BNE         HI_SVPRT_RUNTIME_Init_x1b0
    /*000001cc*/ LDR         R3, WORD_0944               @ LDR         R3, [PC, #1904]             @ 0x0000000000000944 
    /*000001d0*/ ADD         R3, PC, R3 
    /*000001d4*/ ADD         R3, R3, #4 
    /*000001d8*/ CMP         R7, R3 
    /*000001dc*/ BEQ         HI_SVPRT_RUNTIME_Init_x1ec
    /*000001e0*/ LDR         R3, [R7, #16] 
    /*000001e4*/ CMP         R6, R3 
    /*000001e8*/ BGE         HI_SVPRT_RUNTIME_Init_x284
    HI_SVPRT_RUNTIME_Init_x1ec:
    /*000001ec*/ MOV         R0, #24 
    /*000001f0*/ BL          _Znwj
    /*000001f4*/ LDR         R9, WORD_0948               @ LDR         R9, [PC, #1868]             @ 0x0000000000000948 
    /*000001f8*/ MOV         R8, R0 
    /*000001fc*/ MOV         R3, #0 
    /*00000200*/ MOV         R2, R7 
    /*00000204*/ ADD         R9, PC, R9 
    /*00000208*/ ADD         R0, SP, #40                 @ 0x28 
    /*0000020c*/ STR         R3, [R8, #20] 
    /*00000210*/ MOV         R1, R9 
    /*00000214*/ STR         R6, [R8, #16] 
    /*00000218*/ ADD         R3, R8, #16 
    /*0000021c*/ BL          _ZNSt8_Rb_treeIN10hirtparser20HiRTSetting_LogLevelESt4pairIKS1_19tagHIRT_LOG_LEVEL_EESt10_Select1stIS5_ESt4lessIS1_ESaIS5_EE29_M_get_insert_hint_unique_posESt23_Rb_tree_const_iteratorIS5_ERS3_
    /*00000220*/ LDR         R2, [SP, #44]               @ 0x2c 
    /*00000224*/ LDR         R7, [SP, #40]               @ 0x28 
    /*00000228*/ CMP         R2, #0 
    /*0000022c*/ BEQ         HI_SVPRT_RUNTIME_Init_x86c
    /*00000230*/ ADDS        R7, R7, #0 
    /*00000234*/ ADD         R0, R9, #4 
    /*00000238*/ MOVNE       R7, #1 
    /*0000023c*/ CMP         R2, R0 
    /*00000240*/ MOVNE       R0, R7 
    /*00000244*/ ORREQ       R0, R7, #1 
    /*00000248*/ CMP         R0, #0 
    /*0000024c*/ BNE         HI_SVPRT_RUNTIME_Init_x260
    /*00000250*/ LDR         R0, [R2, #16] 
    /*00000254*/ CMP         R6, R0 
    /*00000258*/ MOVGE       R0, #0 
    /*0000025c*/ MOVLT       R0, #1 
    HI_SVPRT_RUNTIME_Init_x260:
    /*00000260*/ LDR         R6, WORD_094c               @ LDR         R6, [PC, #1764]             @ 0x000000000000094c 
    /*00000264*/ MOV         R1, R8 
    /*00000268*/ MOV         R7, R8 
    /*0000026c*/ ADD         R6, PC, R6 
    /*00000270*/ ADD         R3, R6, #4 
    /*00000274*/ BL          _ZSt29_Rb_tree_insert_and_rebalancebPSt18_Rb_tree_node_baseS0_RS_
    /*00000278*/ LDR         R3, [R6, #20] 
    /*0000027c*/ ADD         R3, R3, #1 
    /*00000280*/ STR         R3, [R6, #20] 
    HI_SVPRT_RUNTIME_Init_x284:
    /*00000284*/ LDR         R0, [R7, #20] 
    /*00000288*/ BL          _Z17HIRT_LOG_SetLevel19tagHIRT_LOG_LEVEL_E
    /*0000028c*/ LDR         R2, WORD_0950               @ LDR         R2, [PC, #1724]             @ 0x0000000000000950 
    /*00000290*/ MOV         R3, #0 
    /*00000294*/ STR         R3, [SP, #48]               @ 0x30 
    /*00000298*/ ADD         R1, SP, #48                 @ 0x30 
    /*0000029c*/ ADD         R2, PC, R2 
    /*000002a0*/ STR         R3, [SP, #52]               @ 0x34 
    /*000002a4*/ LDR         R0, [R2] 
    /*000002a8*/ STR         R3, [SP, #56]               @ 0x38 
    /*000002ac*/ BL          _ZN4hirt13GlobalSetting16getCpuAffinitiesERSt6vectorI9cpu_set_tSaIS2_EE
    /*000002b0*/ CMN         R0, #1 
    /*000002b4*/ BEQ         HI_SVPRT_RUNTIME_Init_x850
    /*000002b8*/ LDR         R3, [SP, #52]               @ 0x34 
    /*000002bc*/ LDR         R1, [SP, #48]               @ 0x30 
    /*000002c0*/ LDR         R2, WORD_0954               @ LDR         R2, [PC, #1676]             @ 0x0000000000000954 
    /*000002c4*/ SUB         R3, R3, R1 
    /*000002c8*/ ADD         R2, PC, R2 
    /*000002cc*/ ASR         R3, R3, #7 
    /*000002d0*/ STR         R3, [R2] 
    /*000002d4*/ SUB         R3, R3, #1 
    /*000002d8*/ CMP         R3, #19 
    /*000002dc*/ BLS         HI_SVPRT_RUNTIME_Init_x3d8
    /*000002e0*/ LDR         R2, WORD_0958               @ LDR         R2, [PC, #1648]             @ 0x0000000000000958 
    /*000002e4*/ MOV         R1, #4 
    /*000002e8*/ LDR         R0, WORD_095c               @ LDR         R0, [PC, #1644]             @ 0x000000000000095c 
    /*000002ec*/ ADD         R2, PC, R2 
    /*000002f0*/ ADD         R0, PC, R0 
    /*000002f4*/ BL          _Z15HIRT_LOG_PrintfPKc19tagHIRT_LOG_LEVEL_ES0_z
    HI_SVPRT_RUNTIME_Init_x2f8:
    /*000002f8*/ LDR         R3, WORD_0960               @ LDR         R3, [PC, #1632]             @ 0x0000000000000960 
    /*000002fc*/ LDR         R0, [PC, R3] 
    /*00000300*/ BL          _ZN4hirt13GlobalSetting20destroyGlobalSettingEPS0_
    /*00000304*/ MVN         R4, #0 
    HI_SVPRT_RUNTIME_Init_x308:
    /*00000308*/ LDR         R0, [SP, #48]               @ 0x30 
    /*0000030c*/ CMP         R0, #0 
    /*00000310*/ BEQ         HI_SVPRT_RUNTIME_Init_x318
    /*00000314*/ BL          _ZdlPv
    HI_SVPRT_RUNTIME_Init_x318:
    /*00000318*/ LDR         R3, [SP, #24] 
    /*0000031c*/ CMP         R3, #0 
    /*00000320*/ BEQ         HI_SVPRT_RUNTIME_Init_x330
    /*00000324*/ LDR         R0, WORD_0964               @ LDR         R0, [PC, #1592]             @ 0x0000000000000964 
    /*00000328*/ ADD         R0, PC, R0 
    /*0000032c*/ BL          pthread_mutex_unlock
    HI_SVPRT_RUNTIME_Init_x330:
    /*00000330*/ LDR         R3, [SP, #28] 
    /*00000334*/ MOV         R0, R4 
    /*00000338*/ LDR         R2, [SP, #596]              @ 0x254 
    /*0000033c*/ LDR         R3, [R3] 
    /*00000340*/ CMP         R2, R3 
    /*00000344*/ BNE         HI_SVPRT_RUNTIME_Init_x8e8
    /*00000348*/ ADD         SP, SP, #604                @ 0x25c 
    /*0000034c*/ POP         {R4, R5, R6, R7, R8, R9, SL, FP, PC} 
    HI_SVPRT_RUNTIME_Init_x350:
    /*00000350*/ LDR         R2, WORD_0968               @ LDR         R2, [PC, #1552]             @ 0x0000000000000968 
    /*00000354*/ CMP         R7, #0 
    /*00000358*/ LDR         R3, WORD_096c               @ LDR         R3, [PC, #1548]             @ 0x000000000000096c 
    /*0000035c*/ LDR         R1, [R4, R2] 
    /*00000360*/ ADD         R3, PC, R3 
    /*00000364*/ LDR         R2, WORD_0970               @ LDR         R2, [PC, #1540]             @ 0x0000000000000970 
    /*00000368*/ STR         R1, [R3] 
    /*0000036c*/ LDR         R1, [R4, R2] 
    /*00000370*/ LDR         R2, WORD_0974               @ LDR         R2, [PC, #1532]             @ 0x0000000000000974 
    /*00000374*/ STR         R1, [R3, #4] 
    /*00000378*/ LDR         R2, [R4, R2] 
    /*0000037c*/ STR         R2, [R3, #8] 
    /*00000380*/ BNE         HI_SVPRT_RUNTIME_Init_x118
    HI_SVPRT_RUNTIME_Init_x384:
    /*00000384*/ STR         R7, [SP, #576]              @ 0x240 
    /*00000388*/ ADD         R8, SP, #580                @ 0x244 
    /*0000038c*/ STRB        R7, [SP, #580]              @ 0x244 
    /*00000390*/ ADD         R0, SP, #572                @ 0x23c 
    /*00000394*/ STR         R8, [SP, #572]              @ 0x23c 
    /*00000398*/ BL          _ZN4hirt13GlobalSetting19createGlobalSettingERKNSt7__cxx1112basic_stringIcSt11char_traitsIcESaIcEEE
    /*0000039c*/ LDR         R3, [SP, #572]              @ 0x23c 
    /*000003a0*/ LDR         R6, WORD_0978               @ LDR         R6, [PC, #1488]             @ 0x0000000000000978 
    /*000003a4*/ CMP         R3, R8 
    /*000003a8*/ ADD         R6, PC, R6 
    /*000003ac*/ STR         R0, [R6] 
    /*000003b0*/ BNE         HI_SVPRT_RUNTIME_Init_x17c
    /*000003b4*/ B           HI_SVPRT_RUNTIME_Init_x188
    HI_SVPRT_RUNTIME_Init_x3b8:
    /*000003b8*/ LDR         R2, WORD_097c               @ LDR         R2, [PC, #1468]             @ 0x000000000000097c 
    /*000003bc*/ MOV         R1, #4 
    /*000003c0*/ LDR         R0, WORD_0980               @ LDR         R0, [PC, #1464]             @ 0x0000000000000980 
    /*000003c4*/ ADD         R2, PC, R2 
    /*000003c8*/ ADD         R0, PC, R0 
    /*000003cc*/ BL          _Z15HIRT_LOG_PrintfPKc19tagHIRT_LOG_LEVEL_ES0_z
    HI_SVPRT_RUNTIME_Init_x3d0:
    /*000003d0*/ MVN         R4, #0 
    /*000003d4*/ B           HI_SVPRT_RUNTIME_Init_x318
    HI_SVPRT_RUNTIME_Init_x3d8:
    /*000003d8*/ LDR         R3, WORD_0984               @ LDR         R3, [PC, #1444]             @ 0x0000000000000984 
    /*000003dc*/ MOV         R1, R5 
    /*000003e0*/ ADD         R3, PC, R3 
    /*000003e4*/ LDR         R0, [R3] 
    /*000003e8*/ BL          _ZN4hirt13GlobalSetting18getMonitorAffinityER9cpu_set_t
    /*000003ec*/ CMN         R0, #1 
    /*000003f0*/ BEQ         HI_SVPRT_RUNTIME_Init_x61c
    /*000003f4*/ ADD         SL, SP, #444                @ 0x1bc 
    /*000003f8*/ MOV         R1, R5 
    /*000003fc*/ MOV         R2, #128                    @ 0x80 
    /*00000400*/ MOV         R0, SL 
    /*00000404*/ BL          memcpy
    /*00000408*/ LDR         R3, WORD_0988               @ LDR         R3, [PC, #1400]             @ 0x0000000000000988 
    /*0000040c*/ MOV         R0, #136                    @ 0x88 
    /*00000410*/ LDR         R9, [R4, R3] 
    /*00000414*/ MOV         R1, R9 
    /*00000418*/ BL          _ZnwjRKSt9nothrow_t
    /*0000041c*/ SUBS        R5, R0, #0 
    /*00000420*/ BEQ         HI_SVPRT_RUNTIME_Init_x878
    /*00000424*/ ADD         R6, SP, #316                @ 0x13c 
    /*00000428*/ MOV         R2, #128                    @ 0x80 
    /*0000042c*/ MOV         R1, SL 
    /*00000430*/ MOV         R0, R6 
    /*00000434*/ BL          memcpy
    /*00000438*/ LDR         R3, WORD_098c               @ LDR         R3, [PC, #1356]             @ 0x000000000000098c 
    /*0000043c*/ MOV         R2, #0 
    /*00000440*/ STR         R2, [R5, #4] 
    /*00000444*/ MOV         R1, R6 
    /*00000448*/ ADD         R3, PC, R3 
    /*0000044c*/ MOV         R2, #128                    @ 0x80 
    /*00000450*/ ADD         R3, R3, #8 
    /*00000454*/ ADD         R0, R5, #8 
    /*00000458*/ STR         R3, [R5] 
    /*0000045c*/ BL          memcpy
    /*00000460*/ LDR         R3, WORD_0990               @ LDR         R3, [PC, #1320]             @ 0x0000000000000990 
    /*00000464*/ MOV         R0, R5 
    /*00000468*/ ADD         R3, PC, R3 
    /*0000046c*/ STR         R5, [R3] 
    /*00000470*/ BL          _ZN4hirt11TaskMonitor23createTaskMonitorThreadEv
    /*00000474*/ LDR         R3, WORD_0994               @ LDR         R3, [PC, #1304]             @ 0x0000000000000994 
    /*00000478*/ MOV         R1, R9 
    /*0000047c*/ MOV         R0, #12 
    /*00000480*/ ADD         R3, PC, R3 
    /*00000484*/ LDR         R2, [R3] 
    /*00000488*/ STR         R2, [R3, #4] 
    /*0000048c*/ BL          _ZnwjRKSt9nothrow_t
    /*00000490*/ SUBS        IP, R0, #0 
    /*00000494*/ BEQ         HI_SVPRT_RUNTIME_Init_x638
    /*00000498*/ LDR         R3, WORD_0998               @ LDR         R3, [PC, #1272]             @ 0x0000000000000998 
    /*0000049c*/ MOV         R2, #0 
    /*000004a0*/ STR         R2, [IP, #4] 
    /*000004a4*/ LDR         R3, [R4, R3] 
    /*000004a8*/ STR         R2, [IP, #8] 
    /*000004ac*/ ADD         R3, R3, #8 
    /*000004b0*/ STR         R3, [IP] 
    /*000004b4*/ STR         IP, [SP, #444]              @ 0x1bc 
    /*000004b8*/ BL          _ZN4hirt10NNIEThread5startEv
    /*000004bc*/ LDR         R0, WORD_099c               @ LDR         R0, [PC, #1240]             @ 0x000000000000099c 
    /*000004c0*/ ADD         R0, PC, R0 
    /*000004c4*/ LDR         R3, [R0, #4] 
    /*000004c8*/ LDR         R2, [R0, #8] 
    /*000004cc*/ CMP         R3, R2 
    /*000004d0*/ BEQ         HI_SVPRT_RUNTIME_Init_x7ac
    /*000004d4*/ LDR         R2, [SP, #444]              @ 0x1bc 
    /*000004d8*/ CMP         R3, #0 
    /*000004dc*/ ADD         R3, R3, #4 
    /*000004e0*/ STRNE       R2, [R3, #-4] 
    /*000004e4*/ LDR         R2, WORD_09a0               @ LDR         R2, [PC, #1204]             @ 0x00000000000009a0 
    /*000004e8*/ ADD         R2, PC, R2 
    /*000004ec*/ STR         R3, [R2, #4] 
    HI_SVPRT_RUNTIME_Init_x4f0:
    /*000004f0*/ LDR         R3, WORD_09a4               @ LDR         R3, [PC, #1196]             @ 0x00000000000009a4 
    /*000004f4*/ LDR         R2, WORD_09a8               @ LDR         R2, [PC, #1196]             @ 0x00000000000009a8 
    /*000004f8*/ ADD         R3, PC, R3 
    /*000004fc*/ ADD         R2, PC, R2 
    /*00000500*/ LDR         R3, [R3] 
    /*00000504*/ LDR         R1, [R2] 
    /*00000508*/ CMP         R3, #0 
    /*0000050c*/ STR         R1, [R2, #4] 
    /*00000510*/ BLE         HI_SVPRT_RUNTIME_Init_x80c
    /*00000514*/ LDR         R1, [SP, #48]               @ 0x30 
    /*00000518*/ LDR         R3, [SP, #52]               @ 0x34 
    /*0000051c*/ SUB         R3, R3, R1 
    /*00000520*/ ASRS        R3, R3, #7 
    /*00000524*/ BEQ         HI_SVPRT_RUNTIME_Init_x8e0
    /*00000528*/ LDR         R7, WORD_09ac               @ LDR         R7, [PC, #1148]             @ 0x00000000000009ac 
    /*0000052c*/ MOV         R5, #0 
    /*00000530*/ LDR         FP, WORD_09b0               @ LDR         FP, [PC, #1144]             @ 0x00000000000009b0 
    /*00000534*/ ADD         R8, SP, #188                @ 0xbc 
    /*00000538*/ LDR         R3, WORD_09b4               @ LDR         R3, [PC, #1140]             @ 0x00000000000009b4 
    /*0000053c*/ ADD         R7, PC, R7 
    /*00000540*/ ADD         FP, PC, FP 
    /*00000544*/ ADD         R3, PC, R3 
    /*00000548*/ STR         R3, [SP, #20] 
    HI_SVPRT_RUNTIME_Init_x54c:
    /*0000054c*/ ADD         R1, R1, R5, LSL #7 
    /*00000550*/ MOV         R2, #128                    @ 0x80 
    /*00000554*/ MOV         R0, R8 
    /*00000558*/ BL          memcpy
    /*0000055c*/ MOV         R1, R9 
    /*00000560*/ MOV         R0, #136                    @ 0x88 
    /*00000564*/ BL          _ZnwjRKSt9nothrow_t
    /*00000568*/ SUBS        R6, R0, #0 
    /*0000056c*/ BEQ         HI_SVPRT_RUNTIME_Init_x734
    /*00000570*/ MOV         R2, #128                    @ 0x80 
    /*00000574*/ MOV         R1, R8 
    /*00000578*/ MOV         R0, SL 
    /*0000057c*/ BL          memcpy
    /*00000580*/ LDR         R3, WORD_09b8               @ LDR         R3, [PC, #1072]             @ 0x00000000000009b8 
    /*00000584*/ MOV         R2, #0 
    /*00000588*/ STR         R2, [R6, #4] 
    /*0000058c*/ MOV         R0, R6 
    /*00000590*/ LDR         R3, [R4, R3] 
    /*00000594*/ MOV         R2, #128                    @ 0x80 
    /*00000598*/ MOV         R1, SL 
    /*0000059c*/ ADD         R3, R3, #8 
    /*000005a0*/ STR         R3, [R0], #8 
    /*000005a4*/ BL          memcpy
    /*000005a8*/ STR         R6, [SP, #36]               @ 0x24 
    /*000005ac*/ MOV         R0, R6 
    /*000005b0*/ BL          _ZN4hirt14CustomerThread5startEv
    /*000005b4*/ LDR         R3, [R7, #4] 
    /*000005b8*/ LDR         R2, [R7, #8] 
    /*000005bc*/ CMP         R3, R2 
    /*000005c0*/ BEQ         HI_SVPRT_RUNTIME_Init_x7ec
    /*000005c4*/ LDR         R2, [SP, #36]               @ 0x24 
    /*000005c8*/ CMP         R3, #0 
    /*000005cc*/ ADD         R3, R3, #4 
    /*000005d0*/ STRNE       R2, [R3, #-4] 
    /*000005d4*/ LDR         R2, [SP, #20] 
    /*000005d8*/ STR         R3, [R2, #4] 
    HI_SVPRT_RUNTIME_Init_x5dc:
    /*000005dc*/ LDR         R3, [FP] 
    /*000005e0*/ ADD         R5, R5, #1 
    /*000005e4*/ CMP         R3, R5 
    /*000005e8*/ BLE         HI_SVPRT_RUNTIME_Init_x80c
    /*000005ec*/ LDR         R1, [SP, #48]               @ 0x30 
    /*000005f0*/ MOV         IP, R5 
    /*000005f4*/ LDR         R3, [SP, #52]               @ 0x34 
    /*000005f8*/ SUB         R3, R3, R1 
    /*000005fc*/ ASR         R3, R3, #7 
    /*00000600*/ CMP         R5, R3 
    /*00000604*/ BCC         HI_SVPRT_RUNTIME_Init_x54c
    HI_SVPRT_RUNTIME_Init_x608:
    /*00000608*/ LDR         R0, WORD_09bc               @ LDR         R0, [PC, #940]              @ 0x00000000000009bc 
    /*0000060c*/ MOV         R2, R3 
    /*00000610*/ MOV         R1, IP 
    /*00000614*/ ADD         R0, PC, R0 
    /*00000618*/ BL          _ZSt24__throw_out_of_range_fmtPKcz
    HI_SVPRT_RUNTIME_Init_x61c:
    /*0000061c*/ LDR         R2, WORD_09c0               @ LDR         R2, [PC, #924]              @ 0x00000000000009c0 
    /*00000620*/ MOV         R1, #4 
    /*00000624*/ LDR         R0, WORD_09c4               @ LDR         R0, [PC, #920]              @ 0x00000000000009c4 
    /*00000628*/ ADD         R2, PC, R2 
    /*0000062c*/ ADD         R0, PC, R0 
    /*00000630*/ BL          _Z15HIRT_LOG_PrintfPKc19tagHIRT_LOG_LEVEL_ES0_z
    /*00000634*/ B           HI_SVPRT_RUNTIME_Init_x2f8
    HI_SVPRT_RUNTIME_Init_x638:
    /*00000638*/ LDR         R2, WORD_09c8               @ LDR         R2, [PC, #904]              @ 0x00000000000009c8 
    /*0000063c*/ MOV         R3, IP 
    /*00000640*/ LDR         R0, WORD_09cc               @ LDR         R0, [PC, #900]              @ 0x00000000000009cc 
    /*00000644*/ MOV         R1, #4 
    /*00000648*/ ADD         R2, PC, R2 
    /*0000064c*/ ADD         R0, PC, R0 
    /*00000650*/ STR         IP, [SP, #444]              @ 0x1bc 
    /*00000654*/ BL          _Z15HIRT_LOG_PrintfPKc19tagHIRT_LOG_LEVEL_ES0_z
    HI_SVPRT_RUNTIME_Init_x658:
    /*00000658*/ LDR         R3, WORD_09d0               @ LDR         R3, [PC, #880]              @ 0x00000000000009d0 
    /*0000065c*/ ADD         R3, PC, R3 
    /*00000660*/ LDM         R3, {R5, R6} 
    /*00000664*/ CMP         R6, R5 
    /*00000668*/ BEQ         HI_SVPRT_RUNTIME_Init_x6a0
    HI_SVPRT_RUNTIME_Init_x66c:
    /*0000066c*/ LDR         R4, [R5], #4 
    /*00000670*/ LDR         R3, [R4] 
    /*00000674*/ MOV         R0, R4 
    /*00000678*/ LDR         R3, [R3, #12] 
    /*0000067c*/ BLX         R3 
    /*00000680*/ LDR         R3, [R4] 
    /*00000684*/ MOV         R0, R4 
    /*00000688*/ LDR         R3, [R3, #4] 
    /*0000068c*/ BLX         R3 
    /*00000690*/ CMP         R6, R5 
    /*00000694*/ BNE         HI_SVPRT_RUNTIME_Init_x66c
    /*00000698*/ LDR         R3, WORD_09d4               @ LDR         R3, [PC, #820]              @ 0x00000000000009d4 
    /*0000069c*/ LDR         R5, [PC, R3] 
    HI_SVPRT_RUNTIME_Init_x6a0:
    /*000006a0*/ LDR         R2, WORD_09d8               @ LDR         R2, [PC, #816]              @ 0x00000000000009d8 
    /*000006a4*/ LDR         R3, WORD_09dc               @ LDR         R3, [PC, #816]              @ 0x00000000000009dc 
    /*000006a8*/ ADD         R2, PC, R2 
    /*000006ac*/ ADD         R3, PC, R3 
    /*000006b0*/ LDR         R0, [R2] 
    /*000006b4*/ STR         R5, [R3, #4] 
    /*000006b8*/ BL          _ZN4hirt11TaskMonitor21stopTaskMonitorThreadEv
    /*000006bc*/ LDR         R3, WORD_09e0               @ LDR         R3, [PC, #796]              @ 0x00000000000009e0 
    /*000006c0*/ LDR         R4, [PC, R3] 
    /*000006c4*/ CMP         R4, #0 
    /*000006c8*/ BEQ         HI_SVPRT_RUNTIME_Init_x2f8
    /*000006cc*/ LDR         R2, [R4] 
    /*000006d0*/ LDR         R3, WORD_09e4               @ LDR         R3, [PC, #780]              @ 0x00000000000009e4 
    /*000006d4*/ LDR         R2, [R2, #4] 
    /*000006d8*/ ADD         R3, PC, R3 
    /*000006dc*/ CMP         R2, R3 
    /*000006e0*/ BNE         HI_SVPRT_RUNTIME_Init_x8a0
    /*000006e4*/ LDR         R0, [R4, #4] 
    /*000006e8*/ LDR         R3, WORD_09e8               @ LDR         R3, [PC, #760]              @ 0x00000000000009e8 
    /*000006ec*/ CMP         R0, #0 
    /*000006f0*/ ADD         R3, PC, R3 
    /*000006f4*/ ADD         R3, R3, #8 
    /*000006f8*/ STR         R3, [R4] 
    /*000006fc*/ BEQ         HI_SVPRT_RUNTIME_Init_x714
    /*00000700*/ LDR         R3, [R0] 
    /*00000704*/ CMP         R3, #0 
    /*00000708*/ BNE         HI_SVPRT_RUNTIME_Init_x8f0
    /*0000070c*/ MOV         R1, #4 
    /*00000710*/ BL          _ZdlPvj
    HI_SVPRT_RUNTIME_Init_x714:
    /*00000714*/ MOV         R0, R4 
    /*00000718*/ MOV         R1, #136                    @ 0x88 
    /*0000071c*/ BL          _ZdlPvj
    HI_SVPRT_RUNTIME_Init_x720:
    /*00000720*/ LDR         R3, WORD_09ec               @ LDR         R3, [PC, #708]              @ 0x00000000000009ec 
    /*00000724*/ MOV         R2, #0 
    /*00000728*/ ADD         R3, PC, R3 
    /*0000072c*/ STR         R2, [R3] 
    /*00000730*/ B           HI_SVPRT_RUNTIME_Init_x2f8
    HI_SVPRT_RUNTIME_Init_x734:
    /*00000734*/ LDR         R2, WORD_09f0               @ LDR         R2, [PC, #692]              @ 0x00000000000009f0 
    /*00000738*/ MOV         R3, R5 
    /*0000073c*/ LDR         R0, WORD_09f4               @ LDR         R0, [PC, #688]              @ 0x00000000000009f4 
    /*00000740*/ MOV         R1, #4 
    /*00000744*/ ADD         R2, PC, R2 
    /*00000748*/ ADD         R0, PC, R0 
    /*0000074c*/ STR         R6, [SP, #36]               @ 0x24 
    /*00000750*/ BL          _Z15HIRT_LOG_PrintfPKc19tagHIRT_LOG_LEVEL_ES0_z
    /*00000754*/ LDR         R3, WORD_09f8               @ LDR         R3, [PC, #668]              @ 0x00000000000009f8 
    /*00000758*/ ADD         R3, PC, R3 
    /*0000075c*/ LDM         R3, {R5, R6} 
    /*00000760*/ CMP         R6, R5 
    /*00000764*/ BEQ         HI_SVPRT_RUNTIME_Init_x79c
    HI_SVPRT_RUNTIME_Init_x768:
    /*00000768*/ LDR         R4, [R5], #4 
    /*0000076c*/ LDR         R3, [R4] 
    /*00000770*/ MOV         R0, R4 
    /*00000774*/ LDR         R3, [R3, #12] 
    /*00000778*/ BLX         R3 
    /*0000077c*/ LDR         R3, [R4] 
    /*00000780*/ MOV         R0, R4 
    /*00000784*/ LDR         R3, [R3, #4] 
    /*00000788*/ BLX         R3 
    /*0000078c*/ CMP         R6, R5 
    /*00000790*/ BNE         HI_SVPRT_RUNTIME_Init_x768
    /*00000794*/ LDR         R3, WORD_09fc               @ LDR         R3, [PC, #608]              @ 0x00000000000009fc 
    /*00000798*/ LDR         R5, [PC, R3] 
    HI_SVPRT_RUNTIME_Init_x79c:
    /*0000079c*/ LDR         R3, WORD_0a00               @ LDR         R3, [PC, #604]              @ 0x0000000000000a00 
    /*000007a0*/ ADD         R3, PC, R3 
    /*000007a4*/ STR         R5, [R3, #4] 
    /*000007a8*/ B           HI_SVPRT_RUNTIME_Init_x658
    HI_SVPRT_RUNTIME_Init_x7ac:
    /*000007ac*/ MOV         R1, SL 
    /*000007b0*/ BL          _ZNSt6vectorIPN4hirt10NNIEThreadESaIS2_EE19_M_emplace_back_auxIJRKS2_EEEvDpOT_
    /*000007b4*/ B           HI_SVPRT_RUNTIME_Init_x4f0
    HI_SVPRT_RUNTIME_Init_x7b8:
    /*000007b8*/ MOV         R2, #0 
    /*000007bc*/ ADD         R1, SP, #188                @ 0xbc 
    /*000007c0*/ MOV         R0, R9 
    /*000007c4*/ BL          _ZNSt7__cxx1112basic_stringIcSt11char_traitsIcESaIcEE9_M_createERjj
    /*000007c8*/ LDR         R3, [SP, #188]              @ 0xbc 
    /*000007cc*/ STR         R0, [SP, #572]              @ 0x23c 
    /*000007d0*/ STR         R3, [SP, #580]              @ 0x244 
    HI_SVPRT_RUNTIME_Init_x7d4:
    /*000007d4*/ MOV         R2, R6 
    /*000007d8*/ MOV         R1, R7 
    /*000007dc*/ BL          memcpy
    /*000007e0*/ LDR         R6, [SP, #188]              @ 0xbc 
    /*000007e4*/ LDR         R2, [SP, #572]              @ 0x23c 
    /*000007e8*/ B           HI_SVPRT_RUNTIME_Init_x150
    HI_SVPRT_RUNTIME_Init_x7ec:
    /*000007ec*/ ADD         R1, SP, #36                 @ 0x24 
    /*000007f0*/ MOV         R0, R7 
    /*000007f4*/ BL          _ZNSt6vectorIPN4hirt14CustomerThreadESaIS2_EE19_M_emplace_back_auxIJRKS2_EEEvDpOT_
    /*000007f8*/ B           HI_SVPRT_RUNTIME_Init_x5dc
    HI_SVPRT_RUNTIME_Init_x7fc:
    /*000007fc*/ LDRB        R3, [R7] 
    /*00000800*/ MOV         R2, R8 
    /*00000804*/ STRB        R3, [SP, #580]              @ 0x244 
    /*00000808*/ B           HI_SVPRT_RUNTIME_Init_x150
    HI_SVPRT_RUNTIME_Init_x80c:
    /*0000080c*/ BL          _ZN4hirt11ProcManager11getInstanceEv
    /*00000810*/ BL          _ZN4hirt11ProcManager8initProcEv
    /*00000814*/ BL          _ZN4hirt11ProcManager11getInstanceEv
    /*00000818*/ BL          _ZN4hirt11ProcManager16addTaskProcEntryEv
    /*0000081c*/ LDR         R3, WORD_0a04               @ LDR         R3, [PC, #480]              @ 0x0000000000000a04 
    /*00000820*/ MOV         R2, #1 
    /*00000824*/ MOV         R4, #0 
    /*00000828*/ ADD         R3, PC, R3 
    /*0000082c*/ STR         R2, [R3] 
    /*00000830*/ B           HI_SVPRT_RUNTIME_Init_x308
    HI_SVPRT_RUNTIME_Init_x834:
    /*00000834*/ LDR         R2, WORD_0a08               @ LDR         R2, [PC, #460]              @ 0x0000000000000a08 
    /*00000838*/ MOV         R1, #4 
    /*0000083c*/ LDR         R0, WORD_0a0c               @ LDR         R0, [PC, #456]              @ 0x0000000000000a0c 
    /*00000840*/ ADD         R2, PC, R2 
    /*00000844*/ ADD         R0, PC, R0 
    /*00000848*/ BL          _Z15HIRT_LOG_PrintfPKc19tagHIRT_LOG_LEVEL_ES0_z
    /*0000084c*/ B           HI_SVPRT_RUNTIME_Init_x3d0
    HI_SVPRT_RUNTIME_Init_x850:
    /*00000850*/ LDR         R2, WORD_0a10               @ LDR         R2, [PC, #440]              @ 0x0000000000000a10 
    /*00000854*/ MOV         R1, #4 
    /*00000858*/ LDR         R0, WORD_0a14               @ LDR         R0, [PC, #436]              @ 0x0000000000000a14 
    /*0000085c*/ ADD         R2, PC, R2 
    /*00000860*/ ADD         R0, PC, R0 
    /*00000864*/ BL          _Z15HIRT_LOG_PrintfPKc19tagHIRT_LOG_LEVEL_ES0_z
    /*00000868*/ B           HI_SVPRT_RUNTIME_Init_x2f8
    HI_SVPRT_RUNTIME_Init_x86c:
    /*0000086c*/ MOV         R0, R8 
    /*00000870*/ BL          _ZdlPv
    /*00000874*/ B           HI_SVPRT_RUNTIME_Init_x284
    HI_SVPRT_RUNTIME_Init_x878:
    /*00000878*/ LDR         R3, WORD_0a18               @ LDR         R3, [PC, #408]              @ 0x0000000000000a18 
    /*0000087c*/ MOV         R1, #4 
    /*00000880*/ LDR         R2, WORD_0a1c               @ LDR         R2, [PC, #404]              @ 0x0000000000000a1c 
    /*00000884*/ LDR         R0, WORD_0a20               @ LDR         R0, [PC, #404]              @ 0x0000000000000a20 
    /*00000888*/ ADD         R3, PC, R3 
    /*0000088c*/ ADD         R2, PC, R2 
    /*00000890*/ ADD         R0, PC, R0 
    /*00000894*/ STR         R5, [R3] 
    /*00000898*/ BL          _Z15HIRT_LOG_PrintfPKc19tagHIRT_LOG_LEVEL_ES0_z
    /*0000089c*/ B           HI_SVPRT_RUNTIME_Init_x2f8
    HI_SVPRT_RUNTIME_Init_x8a0:
    /*000008a0*/ MOV         R0, R4 
    /*000008a4*/ BLX         R2 
    /*000008a8*/ B           HI_SVPRT_RUNTIME_Init_x720
    HI_SVPRT_RUNTIME_Init_x8ac:
    /*000008ac*/ MOV         R0, R8 
    /*000008b0*/ B           HI_SVPRT_RUNTIME_Init_x7d4
    /*000008b4*/ LDR         R0, [SP, #48]               @ 0x30 
    /*000008b8*/ CMP         R0, #0 
    /*000008bc*/ BEQ         HI_SVPRT_RUNTIME_Init_x8c4
    HI_SVPRT_RUNTIME_Init_x8c0:
    /*000008c0*/ BL          _ZdlPv
    HI_SVPRT_RUNTIME_Init_x8c4:
    /*000008c4*/ LDR         R3, [SP, #24] 
    /*000008c8*/ CMP         R3, #0 
    /*000008cc*/ BEQ         HI_SVPRT_RUNTIME_Init_x8dc
    /*000008d0*/ LDR         R0, WORD_0a24               @ LDR         R0, [PC, #332]              @ 0x0000000000000a24 
    /*000008d4*/ ADD         R0, PC, R0 
    /*000008d8*/ BL          pthread_mutex_unlock
    HI_SVPRT_RUNTIME_Init_x8dc:
    /*000008dc*/ BL          __cxa_end_cleanup
    HI_SVPRT_RUNTIME_Init_x8e0:
    /*000008e0*/ MOV         IP, R3 
    /*000008e4*/ B           HI_SVPRT_RUNTIME_Init_x608
    HI_SVPRT_RUNTIME_Init_x8e8:
    /*000008e8*/ BL          __stack_chk_fail
    HI_SVPRT_RUNTIME_Init_x8ec:
    /*000008ec*/ BL          _ZSt20__throw_system_errori
    HI_SVPRT_RUNTIME_Init_x8f0:
    /*000008f0*/ BL          _ZSt9terminatev
    HI_SVPRT_RUNTIME_Init_x8f4:
    /*000008f4*/ LDR         R0, [SP, #572]              @ 0x23c 
    /*000008f8*/ CMP         R0, R8 
    /*000008fc*/ BNE         HI_SVPRT_RUNTIME_Init_x8c0
    /*00000900*/ B           HI_SVPRT_RUNTIME_Init_x8c4
    /*00000904*/ B           HI_SVPRT_RUNTIME_Init_x8f4
    /*00000908*/ B           HI_SVPRT_RUNTIME_Init_x8c4
    /*0000090c*/ WORD_090c: .word 0x000008e4
    /*00000910*/ WORD_0910: .word 0x00000000
    /*00000914*/ WORD_0914: .word 0x000008c8
    /*00000918*/ WORD_0918: .word 0x000008c8
    /*0000091c*/ WORD_091c: .word 0x000008c8
    /*00000920*/ WORD_0920: .word 0x000008a8
    /*00000924*/ WORD_0924: .word 0x000008b0
    /*00000928*/ WORD_0928: .word 0x000008ac
    /*0000092c*/ WORD_092c: .word 0x00000000
    /*00000930*/ WORD_0930: .word 0x00000890
    /*00000934*/ WORD_0934: .word 0x0000086c
    /*00000938*/ WORD_0938: .word 0x0000082c
    /*0000093c*/ WORD_093c: .word 0x000007c4
    /*00000940*/ WORD_0940: .word 0x0000079c
    /*00000944*/ WORD_0944: .word 0x0000076c
    /*00000948*/ WORD_0948: .word 0x0000073c
    /*0000094c*/ WORD_094c: .word 0x000006d8
    /*00000950*/ WORD_0950: .word 0x000006ac
    /*00000954*/ WORD_0954: .word 0x00000684
    /*00000958*/ WORD_0958: .word 0x00000664
    /*0000095c*/ WORD_095c: .word 0x00000664
    /*00000960*/ WORD_0960: .word 0x0000065c
    /*00000964*/ WORD_0964: .word 0x00000634
    /*00000968*/ WORD_0968: .word 0x00000000
    /*0000096c*/ WORD_096c: .word 0x00000604
    /*00000970*/ WORD_0970: .word 0x00000000
    /*00000974*/ WORD_0974: .word 0x00000000
    /*00000978*/ WORD_0978: .word 0x000005c8
    /*0000097c*/ WORD_097c: .word 0x000005b0
    /*00000980*/ WORD_0980: .word 0x000005b0
    /*00000984*/ WORD_0984: .word 0x0000059c
    /*00000988*/ WORD_0988: .word 0x00000000
    /*0000098c*/ WORD_098c: .word 0x0000053c
    /*00000990*/ WORD_0990: .word 0x00000520
    /*00000994*/ WORD_0994: .word 0x0000050c
    /*00000998*/ WORD_0998: .word 0x00000000
    /*0000099c*/ WORD_099c: .word 0x000004d4
    /*000009a0*/ WORD_09a0: .word 0x000004b0
    /*000009a4*/ WORD_09a4: .word 0x000004a4
    /*000009a8*/ WORD_09a8: .word 0x000004a4
    /*000009ac*/ WORD_09ac: .word 0x00000468
    /*000009b0*/ WORD_09b0: .word 0x00000468
    /*000009b4*/ WORD_09b4: .word 0x00000468
    /*000009b8*/ WORD_09b8: .word 0x00000000
    /*000009bc*/ WORD_09bc: .word 0x000003a0
    /*000009c0*/ WORD_09c0: .word 0x00000390
    /*000009c4*/ WORD_09c4: .word 0x00000390
    /*000009c8*/ WORD_09c8: .word 0x00000378
    /*000009cc*/ WORD_09cc: .word 0x00000378
    /*000009d0*/ WORD_09d0: .word 0x0000036c
    /*000009d4*/ WORD_09d4: .word 0x00000330
    /*000009d8*/ WORD_09d8: .word 0x00000328
    /*000009dc*/ WORD_09dc: .word 0x00000328
    /*000009e0*/ WORD_09e0: .word 0x00000318
    /*000009e4*/ WORD_09e4: .word 0x00000304
    /*000009e8*/ WORD_09e8: .word 0x000002f0
    /*000009ec*/ WORD_09ec: .word 0x000002bc
    /*000009f0*/ WORD_09f0: .word 0x000002a4
    /*000009f4*/ WORD_09f4: .word 0x000002a4
    /*000009f8*/ WORD_09f8: .word 0x00000298
    /*000009fc*/ WORD_09fc: .word 0x0000025c
    /*00000a00*/ WORD_0a00: .word 0x00000258
    /*00000a04*/ WORD_0a04: .word 0x000001d4
    /*00000a08*/ WORD_0a08: .word 0x000001c0
    /*00000a0c*/ WORD_0a0c: .word 0x000001c0
    /*00000a10*/ WORD_0a10: .word 0x000001ac
    /*00000a14*/ WORD_0a14: .word 0x000001ac
    /*00000a18*/ WORD_0a18: .word 0x00000188
    /*00000a1c*/ WORD_0a1c: .word 0x00000188
    /*00000a20*/ WORD_0a20: .word 0x00000188
    /*00000a24*/ WORD_0a24: .word 0x00000148
FUNC_END HI_SVPRT_RUNTIME_Init


@ - - - - - - - - - - - - - - - - - - - - - - - - - - - - - 
@ .ARM.extab.text.HI_SVPRT_RUNTIME_Init
@ Size: 0x53
@ - - - - - - - - - - - - - - - - - - - - - - - - - - - - - 

@ - - - - - - - - - - - - - - - - - - - - - - - - - - - - - 
@ .text._ZNSt8_Rb_treeIySt4pairIKy35hiRUNTIME_FORWARD_STATUS_CALLBACK_EESt10_Select1stIS3_ESt4lessIyESaIS3_EE7_M_copyINS9_20_Reuse_or_alloc_nodeEEEPSt13_Rb_tree_nodeIS3_EPKSD_PSt18_Rb_tree_node_baseRT_
@ Size: 0x224
@ - - - - - - - - - - - - - - - - - - - - - - - - - - - - - 

FUNC_BEGIN _ZNSt8_Rb_treeIySt4pairIKy35hiRUNTIME_FORWARD_STATUS_CALLBACK_EESt10_Select1stIS3_ESt4lessIyESaIS3_EE7_M_copyINS9_20_Reuse_or_alloc_nodeEEEPSt13_Rb_tree_nodeIS3_EPKSD_PSt18_Rb_tree_node_baseRT_
    /*00000000*/ MOV         IP, #16384                  @ 0x4000 
    /*00000004*/ PUSH        {R4, R5, R6, R7, R8, R9, SL, LR} 
    /*00000008*/ SUB         IP, SP, IP 
    /*0000000c*/ STR         R0, [IP, #4064]             @ 0xfe0 
    /*00000010*/ LDR         SL, [R3, #4] 
    /*00000014*/ MOV         R6, R3 
    /*00000018*/ MOV         R9, R0 
    /*0000001c*/ MOV         R4, R1 
    /*00000020*/ CMP         SL, #0 
    /*00000024*/ MOV         R5, R2 
    /*00000028*/ BEQ         _ZNSt8_Rb_treeIySt4pairIKy35hiRUNTIME_FORWARD_STATUS_CALLBACK_EESt10_Select1stIS3_ESt4lessIyESaIS3_EE7_M_copyINS9_20_Reuse_or_alloc_nodeEEEPSt13_Rb_tree_nodeIS3_EPKSD_PSt18_Rb_tree_node_baseRT__x1f0
    /*0000002c*/ LDR         R3, [SL, #4] 
    /*00000030*/ STR         R3, [R6, #4] 
    /*00000034*/ CMP         R3, #0 
    /*00000038*/ STREQ       R3, [R6] 
    /*0000003c*/ BEQ         _ZNSt8_Rb_treeIySt4pairIKy35hiRUNTIME_FORWARD_STATUS_CALLBACK_EESt10_Select1stIS3_ESt4lessIyESaIS3_EE7_M_copyINS9_20_Reuse_or_alloc_nodeEEEPSt13_Rb_tree_nodeIS3_EPKSD_PSt18_Rb_tree_node_baseRT__x54
    /*00000040*/ LDR         R2, [R3, #12] 
    /*00000044*/ CMP         SL, R2 
    /*00000048*/ MOVNE       R2, #0 
    /*0000004c*/ STRNE       R2, [R3, #8] 
    /*00000050*/ BEQ         _ZNSt8_Rb_treeIySt4pairIKy35hiRUNTIME_FORWARD_STATUS_CALLBACK_EESt10_Select1stIS3_ESt4lessIyESaIS3_EE7_M_copyINS9_20_Reuse_or_alloc_nodeEEEPSt13_Rb_tree_nodeIS3_EPKSD_PSt18_Rb_tree_node_baseRT__x1a4
    _ZNSt8_Rb_treeIySt4pairIKy35hiRUNTIME_FORWARD_STATUS_CALLBACK_EESt10_Select1stIS3_ESt4lessIyESaIS3_EE7_M_copyINS9_20_Reuse_or_alloc_nodeEEEPSt13_Rb_tree_nodeIS3_EPKSD_PSt18_Rb_tree_node_baseRT__x54:
    /*00000054*/ ADD         R3, R4, #16 
    /*00000058*/ ADD         IP, SL, #16 
    /*0000005c*/ LDM         R3, {R0, R1, R2, R3} 
    /*00000060*/ STM         IP, {R0, R1, R2, R3} 
    /*00000064*/ MOV         R3, #0 
    /*00000068*/ LDR         R2, [R4] 
    /*0000006c*/ STR         R3, [SL, #12] 
    /*00000070*/ LDR         R1, [R4, #12] 
    /*00000074*/ STR         R2, [SL] 
    /*00000078*/ CMP         R1, R3 
    /*0000007c*/ STR         R3, [SL, #8] 
    /*00000080*/ STR         R5, [SL, #4] 
    /*00000084*/ BEQ         _ZNSt8_Rb_treeIySt4pairIKy35hiRUNTIME_FORWARD_STATUS_CALLBACK_EESt10_Select1stIS3_ESt4lessIyESaIS3_EE7_M_copyINS9_20_Reuse_or_alloc_nodeEEEPSt13_Rb_tree_nodeIS3_EPKSD_PSt18_Rb_tree_node_baseRT__x9c
    /*00000088*/ MOV         R3, R6 
    /*0000008c*/ MOV         R2, SL 
    /*00000090*/ MOV         R0, R9 
    /*00000094*/ BL          _ZNSt8_Rb_treeIySt4pairIKy35hiRUNTIME_FORWARD_STATUS_CALLBACK_EESt10_Select1stIS3_ESt4lessIyESaIS3_EE7_M_copyINS9_20_Reuse_or_alloc_nodeEEEPSt13_Rb_tree_nodeIS3_EPKSD_PSt18_Rb_tree_node_baseRT_
    /*00000098*/ STR         R0, [SL, #12] 
    _ZNSt8_Rb_treeIySt4pairIKy35hiRUNTIME_FORWARD_STATUS_CALLBACK_EESt10_Select1stIS3_ESt4lessIyESaIS3_EE7_M_copyINS9_20_Reuse_or_alloc_nodeEEEPSt13_Rb_tree_nodeIS3_EPKSD_PSt18_Rb_tree_node_baseRT__x9c:
    /*0000009c*/ LDR         R5, [R4, #8] 
    /*000000a0*/ CMP         R5, #0 
    /*000000a4*/ BEQ         _ZNSt8_Rb_treeIySt4pairIKy35hiRUNTIME_FORWARD_STATUS_CALLBACK_EESt10_Select1stIS3_ESt4lessIyESaIS3_EE7_M_copyINS9_20_Reuse_or_alloc_nodeEEEPSt13_Rb_tree_nodeIS3_EPKSD_PSt18_Rb_tree_node_baseRT__x194
    /*000000a8*/ MOV         R7, SL 
    /*000000ac*/ MOV         R8, #0 
    /*000000b0*/ B           _ZNSt8_Rb_treeIySt4pairIKy35hiRUNTIME_FORWARD_STATUS_CALLBACK_EESt10_Select1stIS3_ESt4lessIyESaIS3_EE7_M_copyINS9_20_Reuse_or_alloc_nodeEEEPSt13_Rb_tree_nodeIS3_EPKSD_PSt18_Rb_tree_node_baseRT__x10c
    _ZNSt8_Rb_treeIySt4pairIKy35hiRUNTIME_FORWARD_STATUS_CALLBACK_EESt10_Select1stIS3_ESt4lessIyESaIS3_EE7_M_copyINS9_20_Reuse_or_alloc_nodeEEEPSt13_Rb_tree_nodeIS3_EPKSD_PSt18_Rb_tree_node_baseRT__xb4:
    /*000000b4*/ ADD         R3, R5, #16 
    /*000000b8*/ ADD         IP, R4, #16 
    /*000000bc*/ LDM         R3, {R0, R1, R2, R3} 
    /*000000c0*/ STM         IP, {R0, R1, R2, R3} 
    /*000000c4*/ LDR         R3, [R5] 
    /*000000c8*/ STR         R8, [R4, #12] 
    /*000000cc*/ LDR         R1, [R5, #12] 
    /*000000d0*/ STR         R3, [R4] 
    /*000000d4*/ STR         R8, [R4, #8] 
    /*000000d8*/ CMP         R1, #0 
    /*000000dc*/ STR         R4, [R7, #8] 
    /*000000e0*/ STR         R7, [R4, #4] 
    /*000000e4*/ BEQ         _ZNSt8_Rb_treeIySt4pairIKy35hiRUNTIME_FORWARD_STATUS_CALLBACK_EESt10_Select1stIS3_ESt4lessIyESaIS3_EE7_M_copyINS9_20_Reuse_or_alloc_nodeEEEPSt13_Rb_tree_nodeIS3_EPKSD_PSt18_Rb_tree_node_baseRT__xfc
    /*000000e8*/ MOV         R3, R6 
    /*000000ec*/ MOV         R2, R4 
    /*000000f0*/ MOV         R0, R9 
    /*000000f4*/ BL          _ZNSt8_Rb_treeIySt4pairIKy35hiRUNTIME_FORWARD_STATUS_CALLBACK_EESt10_Select1stIS3_ESt4lessIyESaIS3_EE7_M_copyINS9_20_Reuse_or_alloc_nodeEEEPSt13_Rb_tree_nodeIS3_EPKSD_PSt18_Rb_tree_node_baseRT_
    /*000000f8*/ STR         R0, [R4, #12] 
    _ZNSt8_Rb_treeIySt4pairIKy35hiRUNTIME_FORWARD_STATUS_CALLBACK_EESt10_Select1stIS3_ESt4lessIyESaIS3_EE7_M_copyINS9_20_Reuse_or_alloc_nodeEEEPSt13_Rb_tree_nodeIS3_EPKSD_PSt18_Rb_tree_node_baseRT__xfc:
    /*000000fc*/ LDR         R5, [R5, #8] 
    /*00000100*/ MOV         R7, R4 
    /*00000104*/ CMP         R5, #0 
    /*00000108*/ BEQ         _ZNSt8_Rb_treeIySt4pairIKy35hiRUNTIME_FORWARD_STATUS_CALLBACK_EESt10_Select1stIS3_ESt4lessIyESaIS3_EE7_M_copyINS9_20_Reuse_or_alloc_nodeEEEPSt13_Rb_tree_nodeIS3_EPKSD_PSt18_Rb_tree_node_baseRT__x194
    _ZNSt8_Rb_treeIySt4pairIKy35hiRUNTIME_FORWARD_STATUS_CALLBACK_EESt10_Select1stIS3_ESt4lessIyESaIS3_EE7_M_copyINS9_20_Reuse_or_alloc_nodeEEEPSt13_Rb_tree_nodeIS3_EPKSD_PSt18_Rb_tree_node_baseRT__x10c:
    /*0000010c*/ LDR         R4, [R6, #4] 
    /*00000110*/ CMP         R4, #0 
    /*00000114*/ BEQ         _ZNSt8_Rb_treeIySt4pairIKy35hiRUNTIME_FORWARD_STATUS_CALLBACK_EESt10_Select1stIS3_ESt4lessIyESaIS3_EE7_M_copyINS9_20_Reuse_or_alloc_nodeEEEPSt13_Rb_tree_nodeIS3_EPKSD_PSt18_Rb_tree_node_baseRT__x184
    /*00000118*/ LDR         R3, [R4, #4] 
    /*0000011c*/ STR         R3, [R6, #4] 
    /*00000120*/ CMP         R3, #0 
    /*00000124*/ STREQ       R3, [R6] 
    /*00000128*/ BEQ         _ZNSt8_Rb_treeIySt4pairIKy35hiRUNTIME_FORWARD_STATUS_CALLBACK_EESt10_Select1stIS3_ESt4lessIyESaIS3_EE7_M_copyINS9_20_Reuse_or_alloc_nodeEEEPSt13_Rb_tree_nodeIS3_EPKSD_PSt18_Rb_tree_node_baseRT__xb4
    /*0000012c*/ LDR         R2, [R3, #12] 
    /*00000130*/ CMP         R4, R2 
    /*00000134*/ STRNE       R8, [R3, #8] 
    /*00000138*/ BNE         _ZNSt8_Rb_treeIySt4pairIKy35hiRUNTIME_FORWARD_STATUS_CALLBACK_EESt10_Select1stIS3_ESt4lessIyESaIS3_EE7_M_copyINS9_20_Reuse_or_alloc_nodeEEEPSt13_Rb_tree_nodeIS3_EPKSD_PSt18_Rb_tree_node_baseRT__xb4
    /*0000013c*/ LDR         R1, [R3, #8] 
    /*00000140*/ STR         R8, [R3, #12] 
    /*00000144*/ CMP         R1, #0 
    /*00000148*/ BEQ         _ZNSt8_Rb_treeIySt4pairIKy35hiRUNTIME_FORWARD_STATUS_CALLBACK_EESt10_Select1stIS3_ESt4lessIyESaIS3_EE7_M_copyINS9_20_Reuse_or_alloc_nodeEEEPSt13_Rb_tree_nodeIS3_EPKSD_PSt18_Rb_tree_node_baseRT__xb4
    /*0000014c*/ LDR         R2, [R1, #12] 
    /*00000150*/ STR         R1, [R6, #4] 
    /*00000154*/ CMP         R2, #0 
    /*00000158*/ BNE         _ZNSt8_Rb_treeIySt4pairIKy35hiRUNTIME_FORWARD_STATUS_CALLBACK_EESt10_Select1stIS3_ESt4lessIyESaIS3_EE7_M_copyINS9_20_Reuse_or_alloc_nodeEEEPSt13_Rb_tree_nodeIS3_EPKSD_PSt18_Rb_tree_node_baseRT__x164
    /*0000015c*/ B           _ZNSt8_Rb_treeIySt4pairIKy35hiRUNTIME_FORWARD_STATUS_CALLBACK_EESt10_Select1stIS3_ESt4lessIyESaIS3_EE7_M_copyINS9_20_Reuse_or_alloc_nodeEEEPSt13_Rb_tree_nodeIS3_EPKSD_PSt18_Rb_tree_node_baseRT__x19c
    _ZNSt8_Rb_treeIySt4pairIKy35hiRUNTIME_FORWARD_STATUS_CALLBACK_EESt10_Select1stIS3_ESt4lessIyESaIS3_EE7_M_copyINS9_20_Reuse_or_alloc_nodeEEEPSt13_Rb_tree_nodeIS3_EPKSD_PSt18_Rb_tree_node_baseRT__x160:
    /*00000160*/ MOV         R2, R3 
    _ZNSt8_Rb_treeIySt4pairIKy35hiRUNTIME_FORWARD_STATUS_CALLBACK_EESt10_Select1stIS3_ESt4lessIyESaIS3_EE7_M_copyINS9_20_Reuse_or_alloc_nodeEEEPSt13_Rb_tree_nodeIS3_EPKSD_PSt18_Rb_tree_node_baseRT__x164:
    /*00000164*/ LDR         R3, [R2, #12] 
    /*00000168*/ CMP         R3, #0 
    /*0000016c*/ BNE         _ZNSt8_Rb_treeIySt4pairIKy35hiRUNTIME_FORWARD_STATUS_CALLBACK_EESt10_Select1stIS3_ESt4lessIyESaIS3_EE7_M_copyINS9_20_Reuse_or_alloc_nodeEEEPSt13_Rb_tree_nodeIS3_EPKSD_PSt18_Rb_tree_node_baseRT__x160
    /*00000170*/ STR         R2, [R6, #4] 
    _ZNSt8_Rb_treeIySt4pairIKy35hiRUNTIME_FORWARD_STATUS_CALLBACK_EESt10_Select1stIS3_ESt4lessIyESaIS3_EE7_M_copyINS9_20_Reuse_or_alloc_nodeEEEPSt13_Rb_tree_nodeIS3_EPKSD_PSt18_Rb_tree_node_baseRT__x174:
    /*00000174*/ LDR         R3, [R2, #8] 
    /*00000178*/ CMP         R3, #0 
    /*0000017c*/ STRNE       R3, [R6, #4] 
    /*00000180*/ B           _ZNSt8_Rb_treeIySt4pairIKy35hiRUNTIME_FORWARD_STATUS_CALLBACK_EESt10_Select1stIS3_ESt4lessIyESaIS3_EE7_M_copyINS9_20_Reuse_or_alloc_nodeEEEPSt13_Rb_tree_nodeIS3_EPKSD_PSt18_Rb_tree_node_baseRT__xb4
    _ZNSt8_Rb_treeIySt4pairIKy35hiRUNTIME_FORWARD_STATUS_CALLBACK_EESt10_Select1stIS3_ESt4lessIyESaIS3_EE7_M_copyINS9_20_Reuse_or_alloc_nodeEEEPSt13_Rb_tree_nodeIS3_EPKSD_PSt18_Rb_tree_node_baseRT__x184:
    /*00000184*/ MOV         R0, #32 
    /*00000188*/ BL          _Znwj
    /*0000018c*/ MOV         R4, R0 
    /*00000190*/ B           _ZNSt8_Rb_treeIySt4pairIKy35hiRUNTIME_FORWARD_STATUS_CALLBACK_EESt10_Select1stIS3_ESt4lessIyESaIS3_EE7_M_copyINS9_20_Reuse_or_alloc_nodeEEEPSt13_Rb_tree_nodeIS3_EPKSD_PSt18_Rb_tree_node_baseRT__xb4
    _ZNSt8_Rb_treeIySt4pairIKy35hiRUNTIME_FORWARD_STATUS_CALLBACK_EESt10_Select1stIS3_ESt4lessIyESaIS3_EE7_M_copyINS9_20_Reuse_or_alloc_nodeEEEPSt13_Rb_tree_nodeIS3_EPKSD_PSt18_Rb_tree_node_baseRT__x194:
    /*00000194*/ MOV         R0, SL 
    /*00000198*/ POP         {R4, R5, R6, R7, R8, R9, SL, PC} 
    _ZNSt8_Rb_treeIySt4pairIKy35hiRUNTIME_FORWARD_STATUS_CALLBACK_EESt10_Select1stIS3_ESt4lessIyESaIS3_EE7_M_copyINS9_20_Reuse_or_alloc_nodeEEEPSt13_Rb_tree_nodeIS3_EPKSD_PSt18_Rb_tree_node_baseRT__x19c:
    /*0000019c*/ MOV         R2, R1 
    /*000001a0*/ B           _ZNSt8_Rb_treeIySt4pairIKy35hiRUNTIME_FORWARD_STATUS_CALLBACK_EESt10_Select1stIS3_ESt4lessIyESaIS3_EE7_M_copyINS9_20_Reuse_or_alloc_nodeEEEPSt13_Rb_tree_nodeIS3_EPKSD_PSt18_Rb_tree_node_baseRT__x174
    _ZNSt8_Rb_treeIySt4pairIKy35hiRUNTIME_FORWARD_STATUS_CALLBACK_EESt10_Select1stIS3_ESt4lessIyESaIS3_EE7_M_copyINS9_20_Reuse_or_alloc_nodeEEEPSt13_Rb_tree_nodeIS3_EPKSD_PSt18_Rb_tree_node_baseRT__x1a4:
    /*000001a4*/ LDR         R1, [R3, #8] 
    /*000001a8*/ MOV         R2, #0 
    /*000001ac*/ STR         R2, [R3, #12] 
    /*000001b0*/ CMP         R1, R2 
    /*000001b4*/ BEQ         _ZNSt8_Rb_treeIySt4pairIKy35hiRUNTIME_FORWARD_STATUS_CALLBACK_EESt10_Select1stIS3_ESt4lessIyESaIS3_EE7_M_copyINS9_20_Reuse_or_alloc_nodeEEEPSt13_Rb_tree_nodeIS3_EPKSD_PSt18_Rb_tree_node_baseRT__x54
    /*000001b8*/ LDR         R2, [R1, #12] 
    /*000001bc*/ STR         R1, [R6, #4] 
    /*000001c0*/ CMP         R2, #0 
    /*000001c4*/ BNE         _ZNSt8_Rb_treeIySt4pairIKy35hiRUNTIME_FORWARD_STATUS_CALLBACK_EESt10_Select1stIS3_ESt4lessIyESaIS3_EE7_M_copyINS9_20_Reuse_or_alloc_nodeEEEPSt13_Rb_tree_nodeIS3_EPKSD_PSt18_Rb_tree_node_baseRT__x1d0
    /*000001c8*/ B           _ZNSt8_Rb_treeIySt4pairIKy35hiRUNTIME_FORWARD_STATUS_CALLBACK_EESt10_Select1stIS3_ESt4lessIyESaIS3_EE7_M_copyINS9_20_Reuse_or_alloc_nodeEEEPSt13_Rb_tree_nodeIS3_EPKSD_PSt18_Rb_tree_node_baseRT__x200
    _ZNSt8_Rb_treeIySt4pairIKy35hiRUNTIME_FORWARD_STATUS_CALLBACK_EESt10_Select1stIS3_ESt4lessIyESaIS3_EE7_M_copyINS9_20_Reuse_or_alloc_nodeEEEPSt13_Rb_tree_nodeIS3_EPKSD_PSt18_Rb_tree_node_baseRT__x1cc:
    /*000001cc*/ MOV         R2, R3 
    _ZNSt8_Rb_treeIySt4pairIKy35hiRUNTIME_FORWARD_STATUS_CALLBACK_EESt10_Select1stIS3_ESt4lessIyESaIS3_EE7_M_copyINS9_20_Reuse_or_alloc_nodeEEEPSt13_Rb_tree_nodeIS3_EPKSD_PSt18_Rb_tree_node_baseRT__x1d0:
    /*000001d0*/ LDR         R3, [R2, #12] 
    /*000001d4*/ CMP         R3, #0 
    /*000001d8*/ BNE         _ZNSt8_Rb_treeIySt4pairIKy35hiRUNTIME_FORWARD_STATUS_CALLBACK_EESt10_Select1stIS3_ESt4lessIyESaIS3_EE7_M_copyINS9_20_Reuse_or_alloc_nodeEEEPSt13_Rb_tree_nodeIS3_EPKSD_PSt18_Rb_tree_node_baseRT__x1cc
    /*000001dc*/ STR         R2, [R6, #4] 
    _ZNSt8_Rb_treeIySt4pairIKy35hiRUNTIME_FORWARD_STATUS_CALLBACK_EESt10_Select1stIS3_ESt4lessIyESaIS3_EE7_M_copyINS9_20_Reuse_or_alloc_nodeEEEPSt13_Rb_tree_nodeIS3_EPKSD_PSt18_Rb_tree_node_baseRT__x1e0:
    /*000001e0*/ LDR         R3, [R2, #8] 
    /*000001e4*/ CMP         R3, #0 
    /*000001e8*/ STRNE       R3, [R6, #4] 
    /*000001ec*/ B           _ZNSt8_Rb_treeIySt4pairIKy35hiRUNTIME_FORWARD_STATUS_CALLBACK_EESt10_Select1stIS3_ESt4lessIyESaIS3_EE7_M_copyINS9_20_Reuse_or_alloc_nodeEEEPSt13_Rb_tree_nodeIS3_EPKSD_PSt18_Rb_tree_node_baseRT__x54
    _ZNSt8_Rb_treeIySt4pairIKy35hiRUNTIME_FORWARD_STATUS_CALLBACK_EESt10_Select1stIS3_ESt4lessIyESaIS3_EE7_M_copyINS9_20_Reuse_or_alloc_nodeEEEPSt13_Rb_tree_nodeIS3_EPKSD_PSt18_Rb_tree_node_baseRT__x1f0:
    /*000001f0*/ MOV         R0, #32 
    /*000001f4*/ BL          _Znwj
    /*000001f8*/ MOV         SL, R0 
    /*000001fc*/ B           _ZNSt8_Rb_treeIySt4pairIKy35hiRUNTIME_FORWARD_STATUS_CALLBACK_EESt10_Select1stIS3_ESt4lessIyESaIS3_EE7_M_copyINS9_20_Reuse_or_alloc_nodeEEEPSt13_Rb_tree_nodeIS3_EPKSD_PSt18_Rb_tree_node_baseRT__x54
    _ZNSt8_Rb_treeIySt4pairIKy35hiRUNTIME_FORWARD_STATUS_CALLBACK_EESt10_Select1stIS3_ESt4lessIyESaIS3_EE7_M_copyINS9_20_Reuse_or_alloc_nodeEEEPSt13_Rb_tree_nodeIS3_EPKSD_PSt18_Rb_tree_node_baseRT__x200:
    /*00000200*/ MOV         R2, R1 
    /*00000204*/ B           _ZNSt8_Rb_treeIySt4pairIKy35hiRUNTIME_FORWARD_STATUS_CALLBACK_EESt10_Select1stIS3_ESt4lessIyESaIS3_EE7_M_copyINS9_20_Reuse_or_alloc_nodeEEEPSt13_Rb_tree_nodeIS3_EPKSD_PSt18_Rb_tree_node_baseRT__x1e0
    /*00000208*/ BL          __cxa_begin_catch
    /*0000020c*/ MOV         R1, SL 
    /*00000210*/ MOV         R0, R9 
    /*00000214*/ BL          _ZNSt8_Rb_treeIySt4pairIKy35hiRUNTIME_FORWARD_STATUS_CALLBACK_EESt10_Select1stIS3_ESt4lessIyESaIS3_EE8_M_eraseEPSt13_Rb_tree_nodeIS3_E
    /*00000218*/ BL          __cxa_rethrow
    /*0000021c*/ BL          __cxa_end_catch
    /*00000220*/ BL          __cxa_end_cleanup
FUNC_END _ZNSt8_Rb_treeIySt4pairIKy35hiRUNTIME_FORWARD_STATUS_CALLBACK_EESt10_Select1stIS3_ESt4lessIyESaIS3_EE7_M_copyINS9_20_Reuse_or_alloc_nodeEEEPSt13_Rb_tree_nodeIS3_EPKSD_PSt18_Rb_tree_node_baseRT_


@ - - - - - - - - - - - - - - - - - - - - - - - - - - - - - 
@ .ARM.extab.text._ZNSt8_Rb_treeIySt4pairIKy35hiRUNTIME_FORWARD_STATUS_CALLBACK_EESt10_Select1stIS3_ESt4lessIyESaIS3_EE7_M_copyINS9_20_Reuse_or_alloc_nodeEEEPSt13_Rb_tree_nodeIS3_EPKSD_PSt18_Rb_tree_node_baseRT_
@ Size: 0x2c
@ - - - - - - - - - - - - - - - - - - - - - - - - - - - - - 

@ - - - - - - - - - - - - - - - - - - - - - - - - - - - - - 
@ .text._ZL12forwardGroupPvP28hiRUNTIME_GROUP_BLOB_ARRAY_SS1_yyPFi35hiRUNTIME_FORWARD_STATUS_CALLBACK_ES_yS1_E
@ Size: 0x1058
@ - - - - - - - - - - - - - - - - - - - - - - - - - - - - - 

FUNC_BEGIN _ZL12forwardGroupPvP28hiRUNTIME_GROUP_BLOB_ARRAY_SS1_yyPFi35hiRUNTIME_FORWARD_STATUS_CALLBACK_ES_yS1_E
    /*00000000*/ MOV         IP, #16384                  @ 0x4000 
    /*00000004*/ PUSH        {R4, R5, R6, R7, R8, R9, SL, FP, LR} 
    /*00000008*/ VPUSH       {D8-D9} 
    /*0000000c*/ SUB         IP, SP, IP 
    /*00000010*/ STR         R0, [IP, #3888]             @ 0xf30 
    /*00000014*/ VMOV.I32    Q8, #0                      @ 0x00000000 
    /*00000018*/ LDR         R9, WORD_0848               @ LDR         R9, [PC, #2088]             @ 0x0000000000000848 
    /*0000001c*/ SUB         SP, SP, #156                @ 0x9c 
    /*00000020*/ ADD         R8, SP, #132                @ 0x84 
    /*00000024*/ CMP         R0, #0 
    /*00000028*/ ADD         R9, PC, R9 
    /*0000002c*/ MOV         R3, #0 
    /*00000030*/ VST1.8      {D16-D17}, [R8] 
    /*00000034*/ STR         R0, [SP, #44]               @ 0x2c 
    /*00000038*/ STR         R3, [SP, #148]              @ 0x94 
    /*0000003c*/ STR         R8, [SP, #140]              @ 0x8c 
    /*00000040*/ STR         R8, [SP, #144]              @ 0x90 
    /*00000044*/ BEQ         _ZL12forwardGroupPvP28hiRUNTIME_GROUP_BLOB_ARRAY_SS1_yyPFi35hiRUNTIME_FORWARD_STATUS_CALLBACK_ES_yS1_E_x7f0
    /*00000048*/ CMP         R1, #0 
    /*0000004c*/ MOV         R4, R1 
    /*00000050*/ BEQ         _ZL12forwardGroupPvP28hiRUNTIME_GROUP_BLOB_ARRAY_SS1_yyPFi35hiRUNTIME_FORWARD_STATUS_CALLBACK_ES_yS1_E_x7bc
    /*00000054*/ LDR         R3, WORD_084c               @ LDR         R3, [PC, #2032]             @ 0x000000000000084c 
    /*00000058*/ MOV         R5, R2 
    /*0000005c*/ LDR         FP, [R9, R3] 
    /*00000060*/ CMP         FP, #0 
    /*00000064*/ BEQ         _ZL12forwardGroupPvP28hiRUNTIME_GROUP_BLOB_ARRAY_SS1_yyPFi35hiRUNTIME_FORWARD_STATUS_CALLBACK_ES_yS1_E_x7c
    /*00000068*/ LDR         R0, WORD_0850               @ LDR         R0, [PC, #2016]             @ 0x0000000000000850 
    /*0000006c*/ ADD         R0, PC, R0 
    /*00000070*/ BL          pthread_mutex_lock
    /*00000074*/ CMP         R0, #0 
    /*00000078*/ BNE         _ZL12forwardGroupPvP28hiRUNTIME_GROUP_BLOB_ARRAY_SS1_yyPFi35hiRUNTIME_FORWARD_STATUS_CALLBACK_ES_yS1_E_x100c
    _ZL12forwardGroupPvP28hiRUNTIME_GROUP_BLOB_ARRAY_SS1_yyPFi35hiRUNTIME_FORWARD_STATUS_CALLBACK_ES_yS1_E_x7c:
    /*0000007c*/ LDR         R3, WORD_0854               @ LDR         R3, [PC, #2000]             @ 0x0000000000000854 
    /*00000080*/ ADD         R3, PC, R3 
    /*00000084*/ LDR         R3, [R3] 
    /*00000088*/ CMP         R3, #0 
    /*0000008c*/ BEQ         _ZL12forwardGroupPvP28hiRUNTIME_GROUP_BLOB_ARRAY_SS1_yyPFi35hiRUNTIME_FORWARD_STATUS_CALLBACK_ES_yS1_E_x1d8
    /*00000090*/ LDR         R6, WORD_0858               @ LDR         R6, [PC, #1984]             @ 0x0000000000000858 
    /*00000094*/ LDR         R7, [SP, #44]               @ 0x2c 
    /*00000098*/ ADD         R6, PC, R6 
    /*0000009c*/ ADD         R6, R6, #4 
    /*000000a0*/ LDR         R0, [R6, #8] 
    /*000000a4*/ CMP         R0, R6 
    /*000000a8*/ BEQ         _ZL12forwardGroupPvP28hiRUNTIME_GROUP_BLOB_ARRAY_SS1_yyPFi35hiRUNTIME_FORWARD_STATUS_CALLBACK_ES_yS1_E_x188
    /*000000ac*/ LDR         R3, [R0, #16] 
    /*000000b0*/ CMP         R7, R3 
    /*000000b4*/ BEQ         _ZL12forwardGroupPvP28hiRUNTIME_GROUP_BLOB_ARRAY_SS1_yyPFi35hiRUNTIME_FORWARD_STATUS_CALLBACK_ES_yS1_E_xd0
    _ZL12forwardGroupPvP28hiRUNTIME_GROUP_BLOB_ARRAY_SS1_yyPFi35hiRUNTIME_FORWARD_STATUS_CALLBACK_ES_yS1_E_xb8:
    /*000000b8*/ BL          _ZSt18_Rb_tree_incrementPKSt18_Rb_tree_node_base
    /*000000bc*/ CMP         R0, R6 
    /*000000c0*/ BEQ         _ZL12forwardGroupPvP28hiRUNTIME_GROUP_BLOB_ARRAY_SS1_yyPFi35hiRUNTIME_FORWARD_STATUS_CALLBACK_ES_yS1_E_x188
    /*000000c4*/ LDR         R3, [R0, #16] 
    /*000000c8*/ CMP         R3, R7 
    /*000000cc*/ BNE         _ZL12forwardGroupPvP28hiRUNTIME_GROUP_BLOB_ARRAY_SS1_yyPFi35hiRUNTIME_FORWARD_STATUS_CALLBACK_ES_yS1_E_xb8
    _ZL12forwardGroupPvP28hiRUNTIME_GROUP_BLOB_ARRAY_SS1_yyPFi35hiRUNTIME_FORWARD_STATUS_CALLBACK_ES_yS1_E_xd0:
    /*000000d0*/ CMP         FP, #0 
    /*000000d4*/ BEQ         _ZL12forwardGroupPvP28hiRUNTIME_GROUP_BLOB_ARRAY_SS1_yyPFi35hiRUNTIME_FORWARD_STATUS_CALLBACK_ES_yS1_E_xe4
    /*000000d8*/ LDR         R0, WORD_085c               @ LDR         R0, [PC, #1916]             @ 0x000000000000085c 
    /*000000dc*/ ADD         R0, PC, R0 
    /*000000e0*/ BL          pthread_mutex_unlock
    _ZL12forwardGroupPvP28hiRUNTIME_GROUP_BLOB_ARRAY_SS1_yyPFi35hiRUNTIME_FORWARD_STATUS_CALLBACK_ES_yS1_E_xe4:
    /*000000e4*/ LDR         R3, [SP, #224]              @ 0xe0 
    /*000000e8*/ CMP         R3, #0 
    /*000000ec*/ BEQ         _ZL12forwardGroupPvP28hiRUNTIME_GROUP_BLOB_ARRAY_SS1_yyPFi35hiRUNTIME_FORWARD_STATUS_CALLBACK_ES_yS1_E_x1fc
    /*000000f0*/ LDR         R3, WORD_0860               @ LDR         R3, [PC, #1896]             @ 0x0000000000000860 
    /*000000f4*/ MOV         R0, #8 
    /*000000f8*/ LDR         R1, [R9, R3] 
    /*000000fc*/ BL          _ZnwjRKSt9nothrow_t
    /*00000100*/ SUBS        R6, R0, #0 
    /*00000104*/ BEQ         _ZL12forwardGroupPvP28hiRUNTIME_GROUP_BLOB_ARRAY_SS1_yyPFi35hiRUNTIME_FORWARD_STATUS_CALLBACK_ES_yS1_E_x814
    /*00000108*/ LDR         R3, WORD_0864               @ LDR         R3, [PC, #1876]             @ 0x0000000000000864 
    /*0000010c*/ ADD         R2, SP, #128                @ 0x80 
    /*00000110*/ STR         R2, [SP, #24] 
    /*00000114*/ ADD         R3, PC, R3 
    /*00000118*/ LDR         R2, [SP, #224]              @ 0xe0 
    /*0000011c*/ ADD         R3, R3, #8 
    /*00000120*/ STR         R3, [R6] 
    /*00000124*/ STR         R2, [R6, #4] 
    /*00000128*/ BL          _ZN4hirt16TaskGroupManager11getInstanceEv
    /*0000012c*/ LDR         R1, [SP, #44]               @ 0x2c 
    /*00000130*/ MOV         R3, R5 
    /*00000134*/ LDRD        R8, [SP, #216]              @ 0xd8 
    /*00000138*/ STR         R6, [SP, #16] 
    /*0000013c*/ MOV         R2, R4 
    /*00000140*/ LDRD        R4, [SP, #208]              @ 0xd0 
    /*00000144*/ ADD         IP, SP, #128                @ 0x80 
    /*00000148*/ STRD        R4, [SP] 
    /*0000014c*/ STRD        R8, [SP, #8] 
    /*00000150*/ STR         IP, [SP, #24] 
    /*00000154*/ BL          _ZN4hirt16TaskGroupManager12addTaskGroupEPvP28hiRUNTIME_GROUP_BLOB_ARRAY_SS3_yyPNS_25ModelGroupForwardListenerE
    /*00000158*/ CMP         R0, #0 
    /*0000015c*/ BNE         _ZL12forwardGroupPvP28hiRUNTIME_GROUP_BLOB_ARRAY_SS1_yyPFi35hiRUNTIME_FORWARD_STATUS_CALLBACK_ES_yS1_E_xf94
    /*00000160*/ ADD         R3, SP, #128                @ 0x80 
    /*00000164*/ STR         R3, [SP, #24] 
    _ZL12forwardGroupPvP28hiRUNTIME_GROUP_BLOB_ARRAY_SS1_yyPFi35hiRUNTIME_FORWARD_STATUS_CALLBACK_ES_yS1_E_x168:
    /*00000168*/ LDR         R0, [SP, #24] 
    /*0000016c*/ MOV         R5, #0 
    _ZL12forwardGroupPvP28hiRUNTIME_GROUP_BLOB_ARRAY_SS1_yyPFi35hiRUNTIME_FORWARD_STATUS_CALLBACK_ES_yS1_E_x170:
    /*00000170*/ LDR         R1, [SP, #136]              @ 0x88 
    /*00000174*/ BL          _ZNSt8_Rb_treeIySt4pairIKy35hiRUNTIME_FORWARD_STATUS_CALLBACK_EESt10_Select1stIS3_ESt4lessIyESaIS3_EE8_M_eraseEPSt13_Rb_tree_nodeIS3_E
    /*00000178*/ MOV         R0, R5 
    /*0000017c*/ ADD         SP, SP, #156                @ 0x9c 
    /*00000180*/ VPOP        {D8-D9} 
    /*00000184*/ POP         {R4, R5, R6, R7, R8, R9, SL, FP, PC} 
    _ZL12forwardGroupPvP28hiRUNTIME_GROUP_BLOB_ARRAY_SS1_yyPFi35hiRUNTIME_FORWARD_STATUS_CALLBACK_ES_yS1_E_x188:
    /*00000188*/ LDR         R2, WORD_0868               @ LDR         R2, [PC, #1752]             @ 0x0000000000000868 
    /*0000018c*/ MOV         R3, R7 
    /*00000190*/ LDR         R0, WORD_086c               @ LDR         R0, [PC, #1748]             @ 0x000000000000086c 
    /*00000194*/ MOV         R1, #4 
    /*00000198*/ ADD         R2, PC, R2 
    /*0000019c*/ ADD         R0, PC, R0 
    /*000001a0*/ BL          _Z15HIRT_LOG_PrintfPKc19tagHIRT_LOG_LEVEL_ES0_z
    /*000001a4*/ MVN         R5, #0 
    _ZL12forwardGroupPvP28hiRUNTIME_GROUP_BLOB_ARRAY_SS1_yyPFi35hiRUNTIME_FORWARD_STATUS_CALLBACK_ES_yS1_E_x1a8:
    /*000001a8*/ CMP         FP, #0 
    /*000001ac*/ ADDEQ       R3, SP, #128                @ 0x80 
    /*000001b0*/ STREQ       R3, [SP, #24] 
    /*000001b4*/ MOVEQ       R0, R3 
    /*000001b8*/ BEQ         _ZL12forwardGroupPvP28hiRUNTIME_GROUP_BLOB_ARRAY_SS1_yyPFi35hiRUNTIME_FORWARD_STATUS_CALLBACK_ES_yS1_E_x170
    /*000001bc*/ LDR         R0, WORD_0870               @ LDR         R0, [PC, #1708]             @ 0x0000000000000870 
    /*000001c0*/ ADD         R3, SP, #128                @ 0x80 
    /*000001c4*/ STR         R3, [SP, #24] 
    /*000001c8*/ ADD         R0, PC, R0 
    /*000001cc*/ BL          pthread_mutex_unlock
    /*000001d0*/ LDR         R0, [SP, #24] 
    /*000001d4*/ B           _ZL12forwardGroupPvP28hiRUNTIME_GROUP_BLOB_ARRAY_SS1_yyPFi35hiRUNTIME_FORWARD_STATUS_CALLBACK_ES_yS1_E_x170
    _ZL12forwardGroupPvP28hiRUNTIME_GROUP_BLOB_ARRAY_SS1_yyPFi35hiRUNTIME_FORWARD_STATUS_CALLBACK_ES_yS1_E_x1d8:
    /*000001d8*/ LDR         R2, WORD_0874               @ LDR         R2, [PC, #1684]             @ 0x0000000000000874 
    /*000001dc*/ MOV         R1, #4 
    /*000001e0*/ LDR         R0, WORD_0878               @ LDR         R0, [PC, #1680]             @ 0x0000000000000878 
    /*000001e4*/ ADD         R2, PC, R2 
    /*000001e8*/ ADD         R0, PC, R0 
    /*000001ec*/ BL          _Z15HIRT_LOG_PrintfPKc19tagHIRT_LOG_LEVEL_ES0_z
    /*000001f0*/ MOVW        R5, #3841                   @ 0xf01 
    /*000001f4*/ MOVT        R5, #65280                  @ 0xff00 
    /*000001f8*/ B           _ZL12forwardGroupPvP28hiRUNTIME_GROUP_BLOB_ARRAY_SS1_yyPFi35hiRUNTIME_FORWARD_STATUS_CALLBACK_ES_yS1_E_x1a8
    _ZL12forwardGroupPvP28hiRUNTIME_GROUP_BLOB_ARRAY_SS1_yyPFi35hiRUNTIME_FORWARD_STATUS_CALLBACK_ES_yS1_E_x1fc:
    /*000001fc*/ CMP         R5, #0 
    /*00000200*/ BEQ         _ZL12forwardGroupPvP28hiRUNTIME_GROUP_BLOB_ARRAY_SS1_yyPFi35hiRUNTIME_FORWARD_STATUS_CALLBACK_ES_yS1_E_xe6c
    /*00000204*/ LDR         R3, WORD_0860               @ LDR         R3, [PC, #1620]             @ 0x0000000000000860 
    /*00000208*/ MOV         R0, #8 
    /*0000020c*/ LDR         R1, [R9, R3] 
    /*00000210*/ BL          _ZnwjRKSt9nothrow_t
    /*00000214*/ SUBS        SL, R0, #0 
    /*00000218*/ BEQ         _ZL12forwardGroupPvP28hiRUNTIME_GROUP_BLOB_ARRAY_SS1_yyPFi35hiRUNTIME_FORWARD_STATUS_CALLBACK_ES_yS1_E_xe90
    /*0000021c*/ LDR         R3, WORD_087c               @ LDR         R3, [PC, #1624]             @ 0x000000000000087c 
    /*00000220*/ CMP         FP, #0 
    /*00000224*/ LDR         R2, WORD_0880               @ LDR         R2, [PC, #1620]             @ 0x0000000000000880 
    /*00000228*/ ADD         R3, PC, R3 
    /*0000022c*/ ADD         R2, PC, R2 
    /*00000230*/ ADD         R3, R3, #8 
    /*00000234*/ STR         R2, [SL, #4] 
    /*00000238*/ STR         R3, [SL] 
    /*0000023c*/ BEQ         _ZL12forwardGroupPvP28hiRUNTIME_GROUP_BLOB_ARRAY_SS1_yyPFi35hiRUNTIME_FORWARD_STATUS_CALLBACK_ES_yS1_E_x254
    /*00000240*/ LDR         R0, WORD_0884               @ LDR         R0, [PC, #1596]             @ 0x0000000000000884 
    /*00000244*/ ADD         R0, PC, R0 
    /*00000248*/ BL          pthread_mutex_lock
    /*0000024c*/ CMP         R0, #0 
    /*00000250*/ BNE         _ZL12forwardGroupPvP28hiRUNTIME_GROUP_BLOB_ARRAY_SS1_yyPFi35hiRUNTIME_FORWARD_STATUS_CALLBACK_ES_yS1_E_x1018
    _ZL12forwardGroupPvP28hiRUNTIME_GROUP_BLOB_ARRAY_SS1_yyPFi35hiRUNTIME_FORWARD_STATUS_CALLBACK_ES_yS1_E_x254:
    /*00000254*/ LDR         R0, WORD_0888               @ LDR         R0, [PC, #1580]             @ 0x0000000000000888 
    /*00000258*/ ADD         R0, PC, R0 
    /*0000025c*/ LDR         IP, [R0, #8] 
    /*00000260*/ CMP         IP, #0 
    /*00000264*/ BEQ         _ZL12forwardGroupPvP28hiRUNTIME_GROUP_BLOB_ARRAY_SS1_yyPFi35hiRUNTIME_FORWARD_STATUS_CALLBACK_ES_yS1_E_x2b4
    /*00000268*/ LDR         R2, [SP, #44]               @ 0x2c 
    /*0000026c*/ ADD         R0, R0, #4 
    /*00000270*/ MOV         R3, IP 
    _ZL12forwardGroupPvP28hiRUNTIME_GROUP_BLOB_ARRAY_SS1_yyPFi35hiRUNTIME_FORWARD_STATUS_CALLBACK_ES_yS1_E_x274:
    /*00000274*/ LDR         R1, [R3, #16] 
    /*00000278*/ CMP         R1, R2 
    /*0000027c*/ MOVCS       R0, R3 
    /*00000280*/ LDRCC       R3, [R3, #12] 
    /*00000284*/ LDRCS       R3, [R3, #8] 
    /*00000288*/ CMP         R3, #0 
    /*0000028c*/ BNE         _ZL12forwardGroupPvP28hiRUNTIME_GROUP_BLOB_ARRAY_SS1_yyPFi35hiRUNTIME_FORWARD_STATUS_CALLBACK_ES_yS1_E_x274
    /*00000290*/ LDR         R1, WORD_088c               @ LDR         R1, [PC, #1524]             @ 0x000000000000088c 
    /*00000294*/ ADD         R1, PC, R1 
    /*00000298*/ ADD         R1, R1, #4 
    /*0000029c*/ CMP         R0, R1 
    /*000002a0*/ BEQ         _ZL12forwardGroupPvP28hiRUNTIME_GROUP_BLOB_ARRAY_SS1_yyPFi35hiRUNTIME_FORWARD_STATUS_CALLBACK_ES_yS1_E_x2b4
    /*000002a4*/ LDR         R3, [R0, #16] 
    /*000002a8*/ CMP         R3, R2 
    /*000002ac*/ MOVLS       R3, IP 
    /*000002b0*/ BLS         _ZL12forwardGroupPvP28hiRUNTIME_GROUP_BLOB_ARRAY_SS1_yyPFi35hiRUNTIME_FORWARD_STATUS_CALLBACK_ES_yS1_E_x438
    _ZL12forwardGroupPvP28hiRUNTIME_GROUP_BLOB_ARRAY_SS1_yyPFi35hiRUNTIME_FORWARD_STATUS_CALLBACK_ES_yS1_E_x2b4:
    /*000002b4*/ LDR         R3, [SP, #136]              @ 0x88 
    /*000002b8*/ MOV         R2, R8 
    /*000002bc*/ CMP         R3, #0 
    /*000002c0*/ BEQ         _ZL12forwardGroupPvP28hiRUNTIME_GROUP_BLOB_ARRAY_SS1_yyPFi35hiRUNTIME_FORWARD_STATUS_CALLBACK_ES_yS1_E_xf3c
    /*000002c4*/ LDRD        R6, [SP, #216]              @ 0xd8 
    _ZL12forwardGroupPvP28hiRUNTIME_GROUP_BLOB_ARRAY_SS1_yyPFi35hiRUNTIME_FORWARD_STATUS_CALLBACK_ES_yS1_E_x2c8:
    /*000002c8*/ LDRD        R0, [R3, #16] 
    /*000002cc*/ CMP         R1, R7 
    /*000002d0*/ CMPEQ       R0, R6 
    /*000002d4*/ MOVCS       R2, R3 
    /*000002d8*/ LDRCC       R3, [R3, #12] 
    /*000002dc*/ LDRCS       R3, [R3, #8] 
    /*000002e0*/ CMP         R3, #0 
    /*000002e4*/ BNE         _ZL12forwardGroupPvP28hiRUNTIME_GROUP_BLOB_ARRAY_SS1_yyPFi35hiRUNTIME_FORWARD_STATUS_CALLBACK_ES_yS1_E_x2c8
    /*000002e8*/ CMP         R2, R8 
    /*000002ec*/ BEQ         _ZL12forwardGroupPvP28hiRUNTIME_GROUP_BLOB_ARRAY_SS1_yyPFi35hiRUNTIME_FORWARD_STATUS_CALLBACK_ES_yS1_E_xf3c
    /*000002f0*/ LDRD        R0, [R2, #16] 
    /*000002f4*/ CMP         R1, R7 
    /*000002f8*/ CMPEQ       R0, R6 
    /*000002fc*/ BHI         _ZL12forwardGroupPvP28hiRUNTIME_GROUP_BLOB_ARRAY_SS1_yyPFi35hiRUNTIME_FORWARD_STATUS_CALLBACK_ES_yS1_E_xf3c
    /*00000300*/ MOV         R0, R2 
    /*00000304*/ ADD         R3, SP, #128                @ 0x80 
    /*00000308*/ STR         R3, [SP, #24] 
    _ZL12forwardGroupPvP28hiRUNTIME_GROUP_BLOB_ARRAY_SS1_yyPFi35hiRUNTIME_FORWARD_STATUS_CALLBACK_ES_yS1_E_x30c:
    /*0000030c*/ CMP         IP, #0 
    /*00000310*/ MOV         R3, #3 
    /*00000314*/ STR         R3, [R0, #24] 
    /*00000318*/ BEQ         _ZL12forwardGroupPvP28hiRUNTIME_GROUP_BLOB_ARRAY_SS1_yyPFi35hiRUNTIME_FORWARD_STATUS_CALLBACK_ES_yS1_E_xf68
    /*0000031c*/ LDR         R1, WORD_0890               @ LDR         R1, [PC, #1388]             @ 0x0000000000000890 
    /*00000320*/ MOV         R3, IP 
    /*00000324*/ LDR         R0, [SP, #44]               @ 0x2c 
    /*00000328*/ ADD         R1, PC, R1 
    /*0000032c*/ ADD         R1, R1, #4 
    _ZL12forwardGroupPvP28hiRUNTIME_GROUP_BLOB_ARRAY_SS1_yyPFi35hiRUNTIME_FORWARD_STATUS_CALLBACK_ES_yS1_E_x330:
    /*00000330*/ LDR         R2, [R3, #16] 
    /*00000334*/ CMP         R0, R2 
    /*00000338*/ MOVLS       R1, R3 
    /*0000033c*/ LDRHI       R3, [R3, #12] 
    /*00000340*/ LDRLS       R3, [R3, #8] 
    /*00000344*/ CMP         R3, #0 
    /*00000348*/ BNE         _ZL12forwardGroupPvP28hiRUNTIME_GROUP_BLOB_ARRAY_SS1_yyPFi35hiRUNTIME_FORWARD_STATUS_CALLBACK_ES_yS1_E_x330
    /*0000034c*/ LDR         R3, WORD_0894               @ LDR         R3, [PC, #1344]             @ 0x0000000000000894 
    /*00000350*/ ADD         R3, PC, R3 
    /*00000354*/ ADD         R3, R3, #4 
    /*00000358*/ CMP         R1, R3 
    /*0000035c*/ BEQ         _ZL12forwardGroupPvP28hiRUNTIME_GROUP_BLOB_ARRAY_SS1_yyPFi35hiRUNTIME_FORWARD_STATUS_CALLBACK_ES_yS1_E_xf74
    /*00000360*/ LDR         R3, [R1, #16] 
    /*00000364*/ CMP         R0, R3 
    /*00000368*/ BCC         _ZL12forwardGroupPvP28hiRUNTIME_GROUP_BLOB_ARRAY_SS1_yyPFi35hiRUNTIME_FORWARD_STATUS_CALLBACK_ES_yS1_E_xf74
    /*0000036c*/ MOV         R6, R1 
    _ZL12forwardGroupPvP28hiRUNTIME_GROUP_BLOB_ARRAY_SS1_yyPFi35hiRUNTIME_FORWARD_STATUS_CALLBACK_ES_yS1_E_x370:
    /*00000370*/ LDR         R3, [SP, #24] 
    /*00000374*/ ADD         R0, R6, #20 
    /*00000378*/ CMP         R0, R3 
    /*0000037c*/ BEQ         _ZL12forwardGroupPvP28hiRUNTIME_GROUP_BLOB_ARRAY_SS1_yyPFi35hiRUNTIME_FORWARD_STATUS_CALLBACK_ES_yS1_E_x510
    /*00000380*/ LDR         R3, [R6, #28] 
    /*00000384*/ STR         R3, [SP, #116]              @ 0x74 
    /*00000388*/ CMP         R3, #0 
    /*0000038c*/ LDR         R2, [R6, #36]               @ 0x24 
    /*00000390*/ STR         R0, [SP, #124]              @ 0x7c 
    /*00000394*/ STR         R2, [SP, #120]              @ 0x78 
    /*00000398*/ STREQ       R3, [SP, #120]              @ 0x78 
    /*0000039c*/ BEQ         _ZL12forwardGroupPvP28hiRUNTIME_GROUP_BLOB_ARRAY_SS1_yyPFi35hiRUNTIME_FORWARD_STATUS_CALLBACK_ES_yS1_E_x3b4
    /*000003a0*/ LDR         R2, [R2, #8] 
    /*000003a4*/ MOV         R1, #0 
    /*000003a8*/ STR         R1, [R3, #4] 
    /*000003ac*/ CMP         R2, R1 
    /*000003b0*/ STRNE       R2, [SP, #120]              @ 0x78 
    _ZL12forwardGroupPvP28hiRUNTIME_GROUP_BLOB_ARRAY_SS1_yyPFi35hiRUNTIME_FORWARD_STATUS_CALLBACK_ES_yS1_E_x3b4:
    /*000003b4*/ LDR         R1, [SP, #136]              @ 0x88 
    /*000003b8*/ MOV         IP, #0 
    /*000003bc*/ STR         IP, [R6, #28] 
    /*000003c0*/ ADD         R2, R6, #24 
    /*000003c4*/ CMP         R1, IP 
    /*000003c8*/ STR         IP, [R6, #40]               @ 0x28 
    /*000003cc*/ STR         R2, [R6, #32] 
    /*000003d0*/ STR         R2, [R6, #36]               @ 0x24 
    /*000003d4*/ BEQ         _ZL12forwardGroupPvP28hiRUNTIME_GROUP_BLOB_ARRAY_SS1_yyPFi35hiRUNTIME_FORWARD_STATUS_CALLBACK_ES_yS1_E_x42c
    /*000003d8*/ ADD         R3, SP, #116                @ 0x74 
    /*000003dc*/ BL          _ZNSt8_Rb_treeIySt4pairIKy35hiRUNTIME_FORWARD_STATUS_CALLBACK_EESt10_Select1stIS3_ESt4lessIyESaIS3_EE7_M_copyINS9_20_Reuse_or_alloc_nodeEEEPSt13_Rb_tree_nodeIS3_EPKSD_PSt18_Rb_tree_node_baseRT_
    /*000003e0*/ STR         R0, [R6, #28] 
    /*000003e4*/ MOV         R2, R0 
    /*000003e8*/ B           _ZL12forwardGroupPvP28hiRUNTIME_GROUP_BLOB_ARRAY_SS1_yyPFi35hiRUNTIME_FORWARD_STATUS_CALLBACK_ES_yS1_E_x3f0
    _ZL12forwardGroupPvP28hiRUNTIME_GROUP_BLOB_ARRAY_SS1_yyPFi35hiRUNTIME_FORWARD_STATUS_CALLBACK_ES_yS1_E_x3ec:
    /*000003ec*/ MOV         R2, R3 
    _ZL12forwardGroupPvP28hiRUNTIME_GROUP_BLOB_ARRAY_SS1_yyPFi35hiRUNTIME_FORWARD_STATUS_CALLBACK_ES_yS1_E_x3f0:
    /*000003f0*/ LDR         R3, [R2, #8] 
    /*000003f4*/ CMP         R3, #0 
    /*000003f8*/ BNE         _ZL12forwardGroupPvP28hiRUNTIME_GROUP_BLOB_ARRAY_SS1_yyPFi35hiRUNTIME_FORWARD_STATUS_CALLBACK_ES_yS1_E_x3ec
    /*000003fc*/ STR         R2, [R6, #32] 
    /*00000400*/ MOV         R3, R0 
    /*00000404*/ B           _ZL12forwardGroupPvP28hiRUNTIME_GROUP_BLOB_ARRAY_SS1_yyPFi35hiRUNTIME_FORWARD_STATUS_CALLBACK_ES_yS1_E_x40c
    _ZL12forwardGroupPvP28hiRUNTIME_GROUP_BLOB_ARRAY_SS1_yyPFi35hiRUNTIME_FORWARD_STATUS_CALLBACK_ES_yS1_E_x408:
    /*00000408*/ MOV         R3, R2 
    _ZL12forwardGroupPvP28hiRUNTIME_GROUP_BLOB_ARRAY_SS1_yyPFi35hiRUNTIME_FORWARD_STATUS_CALLBACK_ES_yS1_E_x40c:
    /*0000040c*/ LDR         R2, [R3, #12] 
    /*00000410*/ CMP         R2, #0 
    /*00000414*/ BNE         _ZL12forwardGroupPvP28hiRUNTIME_GROUP_BLOB_ARRAY_SS1_yyPFi35hiRUNTIME_FORWARD_STATUS_CALLBACK_ES_yS1_E_x408
    /*00000418*/ LDR         R2, [SP, #148]              @ 0x94 
    /*0000041c*/ LDR         R0, [SP, #124]              @ 0x7c 
    /*00000420*/ STR         R3, [R6, #36]               @ 0x24 
    /*00000424*/ LDR         R3, [SP, #116]              @ 0x74 
    /*00000428*/ STR         R2, [R6, #40]               @ 0x28 
    _ZL12forwardGroupPvP28hiRUNTIME_GROUP_BLOB_ARRAY_SS1_yyPFi35hiRUNTIME_FORWARD_STATUS_CALLBACK_ES_yS1_E_x42c:
    /*0000042c*/ MOV         R1, R3 
    /*00000430*/ BL          _ZNSt8_Rb_treeIySt4pairIKy35hiRUNTIME_FORWARD_STATUS_CALLBACK_EESt10_Select1stIS3_ESt4lessIyESaIS3_EE8_M_eraseEPSt13_Rb_tree_nodeIS3_E
    /*00000434*/ B           _ZL12forwardGroupPvP28hiRUNTIME_GROUP_BLOB_ARRAY_SS1_yyPFi35hiRUNTIME_FORWARD_STATUS_CALLBACK_ES_yS1_E_x510
    _ZL12forwardGroupPvP28hiRUNTIME_GROUP_BLOB_ARRAY_SS1_yyPFi35hiRUNTIME_FORWARD_STATUS_CALLBACK_ES_yS1_E_x438:
    /*00000438*/ LDR         R0, [R3, #16] 
    /*0000043c*/ CMP         R0, R2 
    /*00000440*/ MOVCS       R1, R3 
    /*00000444*/ LDRCC       R3, [R3, #12] 
    /*00000448*/ LDRCS       R3, [R3, #8] 
    /*0000044c*/ CMP         R3, #0 
    /*00000450*/ BNE         _ZL12forwardGroupPvP28hiRUNTIME_GROUP_BLOB_ARRAY_SS1_yyPFi35hiRUNTIME_FORWARD_STATUS_CALLBACK_ES_yS1_E_x438
    /*00000454*/ LDR         R3, WORD_0898               @ LDR         R3, [PC, #1084]             @ 0x0000000000000898 
    /*00000458*/ ADD         R3, PC, R3 
    /*0000045c*/ ADD         R3, R3, #4 
    /*00000460*/ CMP         R1, R3 
    /*00000464*/ BEQ         _ZL12forwardGroupPvP28hiRUNTIME_GROUP_BLOB_ARRAY_SS1_yyPFi35hiRUNTIME_FORWARD_STATUS_CALLBACK_ES_yS1_E_x474
    /*00000468*/ LDR         R3, [R1, #16] 
    /*0000046c*/ CMP         R3, R2 
    /*00000470*/ BLS         _ZL12forwardGroupPvP28hiRUNTIME_GROUP_BLOB_ARRAY_SS1_yyPFi35hiRUNTIME_FORWARD_STATUS_CALLBACK_ES_yS1_E_xbb8
    _ZL12forwardGroupPvP28hiRUNTIME_GROUP_BLOB_ARRAY_SS1_yyPFi35hiRUNTIME_FORWARD_STATUS_CALLBACK_ES_yS1_E_x474:
    /*00000474*/ LDR         R0, WORD_089c               @ LDR         R0, [PC, #1056]             @ 0x000000000000089c 
    /*00000478*/ ADD         R2, SP, #152                @ 0x98 
    /*0000047c*/ ADD         R3, SP, #44                 @ 0x2c 
    /*00000480*/ STR         R3, [R2, #-100]!            @ 0xffffff9c 
    /*00000484*/ ADD         R3, SP, #128                @ 0x80 
    /*00000488*/ ADD         R0, PC, R0 
    /*0000048c*/ STR         R3, [SP, #24] 
    /*00000490*/ BL          _ZNSt8_Rb_treeIKPvSt4pairIS1_St3mapIy35hiRUNTIME_FORWARD_STATUS_CALLBACK_ESt4lessIyESaIS2_IKyS4_EEEESt10_Select1stISB_ES5_IS1_ESaISB_EE22_M_emplace_hint_uniqueIJRKSt21piecewise_construct_tSt5tupleIJRS1_EESL_IJEEEEESt17_Rb_tree_iteratorISB_ESt23_Rb_tree_const_iteratorISB_EDpOT_.isra.163
    _ZL12forwardGroupPvP28hiRUNTIME_GROUP_BLOB_ARRAY_SS1_yyPFi35hiRUNTIME_FORWARD_STATUS_CALLBACK_ES_yS1_E_x494:
    /*00000494*/ LDR         R3, [R0, #28] 
    /*00000498*/ ADD         R1, R0, #24 
    /*0000049c*/ MOV         R2, R1 
    /*000004a0*/ CMP         R3, #0 
    /*000004a4*/ BEQ         _ZL12forwardGroupPvP28hiRUNTIME_GROUP_BLOB_ARRAY_SS1_yyPFi35hiRUNTIME_FORWARD_STATUS_CALLBACK_ES_yS1_E_x4e4
    /*000004a8*/ LDRD        R8, [SP, #216]              @ 0xd8 
    _ZL12forwardGroupPvP28hiRUNTIME_GROUP_BLOB_ARRAY_SS1_yyPFi35hiRUNTIME_FORWARD_STATUS_CALLBACK_ES_yS1_E_x4ac:
    /*000004ac*/ LDRD        R6, [R3, #16] 
    /*000004b0*/ CMP         R7, R9 
    /*000004b4*/ CMPEQ       R6, R8 
    /*000004b8*/ MOVCS       R2, R3 
    /*000004bc*/ LDRCC       R3, [R3, #12] 
    /*000004c0*/ LDRCS       R3, [R3, #8] 
    /*000004c4*/ CMP         R3, #0 
    /*000004c8*/ BNE         _ZL12forwardGroupPvP28hiRUNTIME_GROUP_BLOB_ARRAY_SS1_yyPFi35hiRUNTIME_FORWARD_STATUS_CALLBACK_ES_yS1_E_x4ac
    /*000004cc*/ CMP         R1, R2 
    /*000004d0*/ BEQ         _ZL12forwardGroupPvP28hiRUNTIME_GROUP_BLOB_ARRAY_SS1_yyPFi35hiRUNTIME_FORWARD_STATUS_CALLBACK_ES_yS1_E_x4e4
    /*000004d4*/ LDRD        R6, [R2, #16] 
    /*000004d8*/ CMP         R7, R9 
    /*000004dc*/ CMPEQ       R6, R8 
    /*000004e0*/ BLS         _ZL12forwardGroupPvP28hiRUNTIME_GROUP_BLOB_ARRAY_SS1_yyPFi35hiRUNTIME_FORWARD_STATUS_CALLBACK_ES_yS1_E_xbb0
    _ZL12forwardGroupPvP28hiRUNTIME_GROUP_BLOB_ARRAY_SS1_yyPFi35hiRUNTIME_FORWARD_STATUS_CALLBACK_ES_yS1_E_x4e4:
    /*000004e4*/ ADD         R3, SP, #152                @ 0x98 
    /*000004e8*/ ADD         R1, SP, #216                @ 0xd8 
    /*000004ec*/ ADD         R0, R0, #20 
    /*000004f0*/ STR         R1, [R3, #-96]!             @ 0xffffffa0 
    /*000004f4*/ ADD         R1, SP, #128                @ 0x80 
    /*000004f8*/ STR         R1, [SP, #24] 
    /*000004fc*/ BL          _ZNSt8_Rb_treeIySt4pairIKy35hiRUNTIME_FORWARD_STATUS_CALLBACK_EESt10_Select1stIS3_ESt4lessIyESaIS3_EE22_M_emplace_hint_uniqueIJRKSt21piecewise_construct_tSt5tupleIJRS1_EESE_IJEEEEESt17_Rb_tree_iteratorIS3_ESt23_Rb_tree_const_iteratorIS3_EDpOT_.isra.168
    _ZL12forwardGroupPvP28hiRUNTIME_GROUP_BLOB_ARRAY_SS1_yyPFi35hiRUNTIME_FORWARD_STATUS_CALLBACK_ES_yS1_E_x500:
    /*00000500*/ MOV         R3, #3 
    /*00000504*/ ADD         R2, SP, #128                @ 0x80 
    /*00000508*/ STR         R2, [SP, #24] 
    /*0000050c*/ STR         R3, [R0, #24] 
    _ZL12forwardGroupPvP28hiRUNTIME_GROUP_BLOB_ARRAY_SS1_yyPFi35hiRUNTIME_FORWARD_STATUS_CALLBACK_ES_yS1_E_x510:
    /*00000510*/ CMP         FP, #0 
    /*00000514*/ BEQ         _ZL12forwardGroupPvP28hiRUNTIME_GROUP_BLOB_ARRAY_SS1_yyPFi35hiRUNTIME_FORWARD_STATUS_CALLBACK_ES_yS1_E_x524
    /*00000518*/ LDR         R0, WORD_08a0               @ LDR         R0, [PC, #896]              @ 0x00000000000008a0 
    /*0000051c*/ ADD         R0, PC, R0 
    /*00000520*/ BL          pthread_mutex_unlock
    _ZL12forwardGroupPvP28hiRUNTIME_GROUP_BLOB_ARRAY_SS1_yyPFi35hiRUNTIME_FORWARD_STATUS_CALLBACK_ES_yS1_E_x524:
    /*00000524*/ BL          _ZN4hirt16TaskGroupManager11getInstanceEv
    /*00000528*/ LDR         R1, [SP, #44]               @ 0x2c 
    /*0000052c*/ MOV         R3, R5 
    /*00000530*/ LDRD        R6, [SP, #216]              @ 0xd8 
    /*00000534*/ STR         SL, [SP, #16] 
    /*00000538*/ MOV         R2, R4 
    /*0000053c*/ LDRD        R4, [SP, #208]              @ 0xd0 
    /*00000540*/ STRD        R6, [SP, #8] 
    /*00000544*/ STRD        R4, [SP] 
    /*00000548*/ BL          _ZN4hirt16TaskGroupManager12addTaskGroupEPvP28hiRUNTIME_GROUP_BLOB_ARRAY_SS3_yyPNS_25ModelGroupForwardListenerE
    /*0000054c*/ SUBS        R5, R0, #0 
    /*00000550*/ BNE         _ZL12forwardGroupPvP28hiRUNTIME_GROUP_BLOB_ARRAY_SS1_yyPFi35hiRUNTIME_FORWARD_STATUS_CALLBACK_ES_yS1_E_xfb8
    /*00000554*/ LDR         SL, WORD_08a4               @ LDR         SL, [PC, #840]              @ 0x00000000000008a4 
    /*00000558*/ LDR         R9, WORD_08a8               @ LDR         R9, [PC, #840]              @ 0x00000000000008a8 
    /*0000055c*/ LDR         R8, WORD_08ac               @ LDR         R8, [PC, #840]              @ 0x00000000000008ac 
    /*00000560*/ VLDR        D9, [PC, #720]              @ 0x0000000000000838 
    /*00000564*/ VLDR        D8, [PC, #724]              @ 0x0000000000000840 
    /*00000568*/ ADD         SL, PC, SL 
    /*0000056c*/ ADD         R9, PC, R9 
    /*00000570*/ ADD         R3, SL, #4 
    /*00000574*/ ADD         R8, PC, R8 
    /*00000578*/ STR         R3, [SP, #28] 
    _ZL12forwardGroupPvP28hiRUNTIME_GROUP_BLOB_ARRAY_SS1_yyPFi35hiRUNTIME_FORWARD_STATUS_CALLBACK_ES_yS1_E_x57c:
    /*0000057c*/ STR         R9, [SP, #116]              @ 0x74 
    /*00000580*/ CMP         FP, #0 
    /*00000584*/ MOV         R3, #0 
    /*00000588*/ STRB        R3, [SP, #120]              @ 0x78 
    /*0000058c*/ BEQ         _ZL12forwardGroupPvP28hiRUNTIME_GROUP_BLOB_ARRAY_SS1_yyPFi35hiRUNTIME_FORWARD_STATUS_CALLBACK_ES_yS1_E_x5a0
    /*00000590*/ MOV         R0, R9 
    /*00000594*/ BL          pthread_mutex_lock
    /*00000598*/ CMP         R0, #0 
    /*0000059c*/ BNE         _ZL12forwardGroupPvP28hiRUNTIME_GROUP_BLOB_ARRAY_SS1_yyPFi35hiRUNTIME_FORWARD_STATUS_CALLBACK_ES_yS1_E_x1054
    _ZL12forwardGroupPvP28hiRUNTIME_GROUP_BLOB_ARRAY_SS1_yyPFi35hiRUNTIME_FORWARD_STATUS_CALLBACK_ES_yS1_E_x5a0:
    /*000005a0*/ LDR         R3, [R8] 
    /*000005a4*/ MOV         R2, #1 
    /*000005a8*/ STRB        R2, [SP, #120]              @ 0x78 
    /*000005ac*/ CMP         R3, #0 
    /*000005b0*/ BEQ         _ZL12forwardGroupPvP28hiRUNTIME_GROUP_BLOB_ARRAY_SS1_yyPFi35hiRUNTIME_FORWARD_STATUS_CALLBACK_ES_yS1_E_x6f0
    _ZL12forwardGroupPvP28hiRUNTIME_GROUP_BLOB_ARRAY_SS1_yyPFi35hiRUNTIME_FORWARD_STATUS_CALLBACK_ES_yS1_E_x5b4:
    /*000005b4*/ LDR         R0, [SP, #116]              @ 0x74 
    /*000005b8*/ CMP         R0, #0 
    /*000005bc*/ BEQ         _ZL12forwardGroupPvP28hiRUNTIME_GROUP_BLOB_ARRAY_SS1_yyPFi35hiRUNTIME_FORWARD_STATUS_CALLBACK_ES_yS1_E_x75c
    /*000005c0*/ CMP         FP, #0 
    /*000005c4*/ BEQ         _ZL12forwardGroupPvP28hiRUNTIME_GROUP_BLOB_ARRAY_SS1_yyPFi35hiRUNTIME_FORWARD_STATUS_CALLBACK_ES_yS1_E_x5e0
    /*000005c8*/ BL          pthread_mutex_unlock
    _ZL12forwardGroupPvP28hiRUNTIME_GROUP_BLOB_ARRAY_SS1_yyPFi35hiRUNTIME_FORWARD_STATUS_CALLBACK_ES_yS1_E_x5cc:
    /*000005cc*/ LDR         R0, WORD_08b0               @ LDR         R0, [PC, #732]              @ 0x00000000000008b0 
    /*000005d0*/ ADD         R0, PC, R0 
    /*000005d4*/ BL          pthread_mutex_lock
    /*000005d8*/ CMP         R0, #0 
    /*000005dc*/ BNE         _ZL12forwardGroupPvP28hiRUNTIME_GROUP_BLOB_ARRAY_SS1_yyPFi35hiRUNTIME_FORWARD_STATUS_CALLBACK_ES_yS1_E_x1050
    _ZL12forwardGroupPvP28hiRUNTIME_GROUP_BLOB_ARRAY_SS1_yyPFi35hiRUNTIME_FORWARD_STATUS_CALLBACK_ES_yS1_E_x5e0:
    /*000005e0*/ LDR         R3, [SL, #8] 
    /*000005e4*/ CMP         R3, #0 
    /*000005e8*/ BEQ         _ZL12forwardGroupPvP28hiRUNTIME_GROUP_BLOB_ARRAY_SS1_yyPFi35hiRUNTIME_FORWARD_STATUS_CALLBACK_ES_yS1_E_x770
    _ZL12forwardGroupPvP28hiRUNTIME_GROUP_BLOB_ARRAY_SS1_yyPFi35hiRUNTIME_FORWARD_STATUS_CALLBACK_ES_yS1_E_x5ec:
    /*000005ec*/ LDR         R0, [SP, #44]               @ 0x2c 
    /*000005f0*/ LDR         R1, [SP, #28] 
    _ZL12forwardGroupPvP28hiRUNTIME_GROUP_BLOB_ARRAY_SS1_yyPFi35hiRUNTIME_FORWARD_STATUS_CALLBACK_ES_yS1_E_x5f4:
    /*000005f4*/ LDR         R2, [R3, #16] 
    /*000005f8*/ CMP         R2, R0 
    /*000005fc*/ MOVCS       R1, R3 
    /*00000600*/ LDRCC       R3, [R3, #12] 
    /*00000604*/ LDRCS       R3, [R3, #8] 
    /*00000608*/ CMP         R3, #0 
    /*0000060c*/ BNE         _ZL12forwardGroupPvP28hiRUNTIME_GROUP_BLOB_ARRAY_SS1_yyPFi35hiRUNTIME_FORWARD_STATUS_CALLBACK_ES_yS1_E_x5f4
    /*00000610*/ LDR         R3, WORD_08b4               @ LDR         R3, [PC, #668]              @ 0x00000000000008b4 
    /*00000614*/ ADD         R3, PC, R3 
    /*00000618*/ ADD         R3, R3, #4 
    /*0000061c*/ CMP         R1, R3 
    /*00000620*/ BEQ         _ZL12forwardGroupPvP28hiRUNTIME_GROUP_BLOB_ARRAY_SS1_yyPFi35hiRUNTIME_FORWARD_STATUS_CALLBACK_ES_yS1_E_x774
    /*00000624*/ LDR         R3, [R1, #16] 
    /*00000628*/ CMP         R3, R0 
    /*0000062c*/ BHI         _ZL12forwardGroupPvP28hiRUNTIME_GROUP_BLOB_ARRAY_SS1_yyPFi35hiRUNTIME_FORWARD_STATUS_CALLBACK_ES_yS1_E_x774
    /*00000630*/ MOV         LR, R1 
    _ZL12forwardGroupPvP28hiRUNTIME_GROUP_BLOB_ARRAY_SS1_yyPFi35hiRUNTIME_FORWARD_STATUS_CALLBACK_ES_yS1_E_x634:
    /*00000634*/ LDR         R3, [LR, #28] 
    /*00000638*/ ADD         R1, LR, #24 
    /*0000063c*/ MOV         R2, R1 
    /*00000640*/ CMP         R3, #0 
    /*00000644*/ BEQ         _ZL12forwardGroupPvP28hiRUNTIME_GROUP_BLOB_ARRAY_SS1_yyPFi35hiRUNTIME_FORWARD_STATUS_CALLBACK_ES_yS1_E_x794
    /*00000648*/ LDRD        R6, [SP, #216]              @ 0xd8 
    /*0000064c*/ MOV         R0, LR 
    /*00000650*/ MOV         IP, R5 
    _ZL12forwardGroupPvP28hiRUNTIME_GROUP_BLOB_ARRAY_SS1_yyPFi35hiRUNTIME_FORWARD_STATUS_CALLBACK_ES_yS1_E_x654:
    /*00000654*/ LDRD        R4, [R3, #16] 
    /*00000658*/ CMP         R5, R7 
    /*0000065c*/ CMPEQ       R4, R6 
    /*00000660*/ MOVCS       R2, R3 
    /*00000664*/ LDRCC       R3, [R3, #12] 
    /*00000668*/ LDRCS       R3, [R3, #8] 
    /*0000066c*/ CMP         R3, #0 
    /*00000670*/ BNE         _ZL12forwardGroupPvP28hiRUNTIME_GROUP_BLOB_ARRAY_SS1_yyPFi35hiRUNTIME_FORWARD_STATUS_CALLBACK_ES_yS1_E_x654
    /*00000674*/ CMP         R2, R1 
    /*00000678*/ MOV         LR, R0 
    /*0000067c*/ MOV         R5, IP 
    /*00000680*/ BEQ         _ZL12forwardGroupPvP28hiRUNTIME_GROUP_BLOB_ARRAY_SS1_yyPFi35hiRUNTIME_FORWARD_STATUS_CALLBACK_ES_yS1_E_x794
    /*00000684*/ LDRD        R0, [R2, #16] 
    /*00000688*/ CMP         R1, R7 
    /*0000068c*/ CMPEQ       R0, R6 
    /*00000690*/ BHI         _ZL12forwardGroupPvP28hiRUNTIME_GROUP_BLOB_ARRAY_SS1_yyPFi35hiRUNTIME_FORWARD_STATUS_CALLBACK_ES_yS1_E_x794
    /*00000694*/ MOV         R0, R2 
    _ZL12forwardGroupPvP28hiRUNTIME_GROUP_BLOB_ARRAY_SS1_yyPFi35hiRUNTIME_FORWARD_STATUS_CALLBACK_ES_yS1_E_x698:
    /*00000698*/ LDR         R3, [R0, #24] 
    /*0000069c*/ CMP         R3, #0 
    /*000006a0*/ BEQ         _ZL12forwardGroupPvP28hiRUNTIME_GROUP_BLOB_ARRAY_SS1_yyPFi35hiRUNTIME_FORWARD_STATUS_CALLBACK_ES_yS1_E_xaa0
    /*000006a4*/ CMP         R3, #1 
    /*000006a8*/ BEQ         _ZL12forwardGroupPvP28hiRUNTIME_GROUP_BLOB_ARRAY_SS1_yyPFi35hiRUNTIME_FORWARD_STATUS_CALLBACK_ES_yS1_E_x990
    /*000006ac*/ CMP         FP, #0 
    /*000006b0*/ BEQ         _ZL12forwardGroupPvP28hiRUNTIME_GROUP_BLOB_ARRAY_SS1_yyPFi35hiRUNTIME_FORWARD_STATUS_CALLBACK_ES_yS1_E_x7ac
    /*000006b4*/ LDR         R4, WORD_08b8               @ LDR         R4, [PC, #508]              @ 0x00000000000008b8 
    /*000006b8*/ LDR         R0, WORD_08bc               @ LDR         R0, [PC, #508]              @ 0x00000000000008bc 
    /*000006bc*/ ADD         R4, PC, R4 
    /*000006c0*/ ADD         R0, PC, R0 
    /*000006c4*/ BL          pthread_mutex_unlock
    /*000006c8*/ MOV         R0, R4 
    /*000006cc*/ BL          pthread_mutex_lock
    /*000006d0*/ SUBS        R2, R0, #0 
    /*000006d4*/ BNE         _ZL12forwardGroupPvP28hiRUNTIME_GROUP_BLOB_ARRAY_SS1_yyPFi35hiRUNTIME_FORWARD_STATUS_CALLBACK_ES_yS1_E_x104c
    /*000006d8*/ LDR         R3, WORD_08c0               @ LDR         R3, [PC, #480]              @ 0x00000000000008c0 
    /*000006dc*/ MOV         R0, R4 
    /*000006e0*/ ADD         R3, PC, R3 
    /*000006e4*/ STR         R2, [R3] 
    /*000006e8*/ BL          pthread_mutex_unlock
    /*000006ec*/ B           _ZL12forwardGroupPvP28hiRUNTIME_GROUP_BLOB_ARRAY_SS1_yyPFi35hiRUNTIME_FORWARD_STATUS_CALLBACK_ES_yS1_E_x57c
    _ZL12forwardGroupPvP28hiRUNTIME_GROUP_BLOB_ARRAY_SS1_yyPFi35hiRUNTIME_FORWARD_STATUS_CALLBACK_ES_yS1_E_x6f0:
    /*000006f0*/ ADD         R4, SP, #32 
    /*000006f4*/ MOV         R0, R4 
    /*000006f8*/ BL          _ZNSt6chrono3_V212system_clock3nowEv
    /*000006fc*/ LDRD        R6, [SP, #32] 
    /*00000700*/ VMOV        R0, R1, D9 
    /*00000704*/ VMOV        R2, R3, D8 
    /*00000708*/ ADDS        R0, R0, R6 
    /*0000070c*/ ADC         R1, R1, R7 
    /*00000710*/ MOV         R6, R0 
    /*00000714*/ MOV         R7, R1 
    /*00000718*/ BL          __aeabi_ldivmod
    /*0000071c*/ STR         R0, [SP, #108]              @ 0x6c 
    /*00000720*/ MOV         R1, R7 
    /*00000724*/ VMOV        R2, R3, D8 
    /*00000728*/ MOV         R0, R6 
    /*0000072c*/ BL          __aeabi_ldivmod
    /*00000730*/ LDR         R0, WORD_08c4               @ LDR         R0, [PC, #396]              @ 0x00000000000008c4 
    /*00000734*/ STR         R2, [SP, #112]              @ 0x70 
    /*00000738*/ ADD         R2, SP, #108                @ 0x6c 
    /*0000073c*/ LDR         R1, [SP, #116]              @ 0x74 
    /*00000740*/ ADD         R0, PC, R0 
    /*00000744*/ BL          pthread_cond_timedwait
    /*00000748*/ MOV         R0, R4 
    /*0000074c*/ BL          _ZNSt6chrono3_V212system_clock3nowEv
    /*00000750*/ LDRB        R3, [SP, #120]              @ 0x78 
    /*00000754*/ CMP         R3, #0 
    /*00000758*/ BNE         _ZL12forwardGroupPvP28hiRUNTIME_GROUP_BLOB_ARRAY_SS1_yyPFi35hiRUNTIME_FORWARD_STATUS_CALLBACK_ES_yS1_E_x5b4
    _ZL12forwardGroupPvP28hiRUNTIME_GROUP_BLOB_ARRAY_SS1_yyPFi35hiRUNTIME_FORWARD_STATUS_CALLBACK_ES_yS1_E_x75c:
    /*0000075c*/ CMP         FP, #0 
    /*00000760*/ BNE         _ZL12forwardGroupPvP28hiRUNTIME_GROUP_BLOB_ARRAY_SS1_yyPFi35hiRUNTIME_FORWARD_STATUS_CALLBACK_ES_yS1_E_x5cc
    /*00000764*/ LDR         R3, [SL, #8] 
    /*00000768*/ CMP         R3, #0 
    /*0000076c*/ BNE         _ZL12forwardGroupPvP28hiRUNTIME_GROUP_BLOB_ARRAY_SS1_yyPFi35hiRUNTIME_FORWARD_STATUS_CALLBACK_ES_yS1_E_x5ec
    _ZL12forwardGroupPvP28hiRUNTIME_GROUP_BLOB_ARRAY_SS1_yyPFi35hiRUNTIME_FORWARD_STATUS_CALLBACK_ES_yS1_E_x770:
    /*00000770*/ LDR         R1, [SP, #28] 
    _ZL12forwardGroupPvP28hiRUNTIME_GROUP_BLOB_ARRAY_SS1_yyPFi35hiRUNTIME_FORWARD_STATUS_CALLBACK_ES_yS1_E_x774:
    /*00000774*/ LDR         R0, WORD_08c8               @ LDR         R0, [PC, #332]              @ 0x00000000000008c8 
    /*00000778*/ ADD         R2, SP, #152                @ 0x98 
    /*0000077c*/ ADD         R3, SP, #44                 @ 0x2c 
    /*00000780*/ ADD         R0, PC, R0 
    /*00000784*/ STR         R3, [R2, #-84]!             @ 0xffffffac 
    /*00000788*/ BL          _ZNSt8_Rb_treeIKPvSt4pairIS1_St3mapIy35hiRUNTIME_FORWARD_STATUS_CALLBACK_ESt4lessIyESaIS2_IKyS4_EEEESt10_Select1stISB_ES5_IS1_ESaISB_EE22_M_emplace_hint_uniqueIJRKSt21piecewise_construct_tSt5tupleIJRS1_EESL_IJEEEEESt17_Rb_tree_iteratorISB_ESt23_Rb_tree_const_iteratorISB_EDpOT_.isra.163
    /*0000078c*/ MOV         LR, R0 
    /*00000790*/ B           _ZL12forwardGroupPvP28hiRUNTIME_GROUP_BLOB_ARRAY_SS1_yyPFi35hiRUNTIME_FORWARD_STATUS_CALLBACK_ES_yS1_E_x634
    _ZL12forwardGroupPvP28hiRUNTIME_GROUP_BLOB_ARRAY_SS1_yyPFi35hiRUNTIME_FORWARD_STATUS_CALLBACK_ES_yS1_E_x794:
    /*00000794*/ ADD         R3, SP, #152                @ 0x98 
    /*00000798*/ ADD         R1, SP, #216                @ 0xd8 
    /*0000079c*/ ADD         R0, LR, #20 
    /*000007a0*/ STR         R1, [R3, #-80]!             @ 0xffffffb0 
    /*000007a4*/ BL          _ZNSt8_Rb_treeIySt4pairIKy35hiRUNTIME_FORWARD_STATUS_CALLBACK_EESt10_Select1stIS3_ESt4lessIyESaIS3_EE22_M_emplace_hint_uniqueIJRKSt21piecewise_construct_tSt5tupleIJRS1_EESE_IJEEEEESt17_Rb_tree_iteratorIS3_ESt23_Rb_tree_const_iteratorIS3_EDpOT_.isra.168
    /*000007a8*/ B           _ZL12forwardGroupPvP28hiRUNTIME_GROUP_BLOB_ARRAY_SS1_yyPFi35hiRUNTIME_FORWARD_STATUS_CALLBACK_ES_yS1_E_x698
    _ZL12forwardGroupPvP28hiRUNTIME_GROUP_BLOB_ARRAY_SS1_yyPFi35hiRUNTIME_FORWARD_STATUS_CALLBACK_ES_yS1_E_x7ac:
    /*000007ac*/ LDR         R3, WORD_08cc               @ LDR         R3, [PC, #280]              @ 0x00000000000008cc 
    /*000007b0*/ ADD         R3, PC, R3 
    /*000007b4*/ STR         FP, [R3] 
    /*000007b8*/ B           _ZL12forwardGroupPvP28hiRUNTIME_GROUP_BLOB_ARRAY_SS1_yyPFi35hiRUNTIME_FORWARD_STATUS_CALLBACK_ES_yS1_E_x57c
    _ZL12forwardGroupPvP28hiRUNTIME_GROUP_BLOB_ARRAY_SS1_yyPFi35hiRUNTIME_FORWARD_STATUS_CALLBACK_ES_yS1_E_x7bc:
    /*000007bc*/ LDR         R2, WORD_08d0               @ LDR         R2, [PC, #268]              @ 0x00000000000008d0 
    /*000007c0*/ ADD         R3, SP, #128                @ 0x80 
    /*000007c4*/ LDR         R0, WORD_08d4               @ LDR         R0, [PC, #264]              @ 0x00000000000008d4 
    /*000007c8*/ MOV         R1, #4 
    /*000007cc*/ ADD         R2, PC, R2 
    /*000007d0*/ ADD         R0, PC, R0 
    /*000007d4*/ STR         R3, [SP, #24] 
    /*000007d8*/ BL          _Z15HIRT_LOG_PrintfPKc19tagHIRT_LOG_LEVEL_ES0_z
    _ZL12forwardGroupPvP28hiRUNTIME_GROUP_BLOB_ARRAY_SS1_yyPFi35hiRUNTIME_FORWARD_STATUS_CALLBACK_ES_yS1_E_x7dc:
    /*000007dc*/ ADD         R3, SP, #128                @ 0x80 
    /*000007e0*/ STR         R3, [SP, #24] 
    _ZL12forwardGroupPvP28hiRUNTIME_GROUP_BLOB_ARRAY_SS1_yyPFi35hiRUNTIME_FORWARD_STATUS_CALLBACK_ES_yS1_E_x7e4:
    /*000007e4*/ LDR         R0, [SP, #24] 
    /*000007e8*/ MVN         R5, #0 
    /*000007ec*/ B           _ZL12forwardGroupPvP28hiRUNTIME_GROUP_BLOB_ARRAY_SS1_yyPFi35hiRUNTIME_FORWARD_STATUS_CALLBACK_ES_yS1_E_x170
    _ZL12forwardGroupPvP28hiRUNTIME_GROUP_BLOB_ARRAY_SS1_yyPFi35hiRUNTIME_FORWARD_STATUS_CALLBACK_ES_yS1_E_x7f0:
    /*000007f0*/ LDR         R2, WORD_08d8               @ LDR         R2, [PC, #224]              @ 0x00000000000008d8 
    /*000007f4*/ ADD         R3, SP, #128                @ 0x80 
    /*000007f8*/ LDR         R0, WORD_08dc               @ LDR         R0, [PC, #220]              @ 0x00000000000008dc 
    /*000007fc*/ MOV         R1, #4 
    /*00000800*/ ADD         R2, PC, R2 
    /*00000804*/ ADD         R0, PC, R0 
    /*00000808*/ STR         R3, [SP, #24] 
    /*0000080c*/ BL          _Z15HIRT_LOG_PrintfPKc19tagHIRT_LOG_LEVEL_ES0_z
    /*00000810*/ B           _ZL12forwardGroupPvP28hiRUNTIME_GROUP_BLOB_ARRAY_SS1_yyPFi35hiRUNTIME_FORWARD_STATUS_CALLBACK_ES_yS1_E_x7dc
    _ZL12forwardGroupPvP28hiRUNTIME_GROUP_BLOB_ARRAY_SS1_yyPFi35hiRUNTIME_FORWARD_STATUS_CALLBACK_ES_yS1_E_x814:
    /*00000814*/ LDR         R2, WORD_08e0               @ LDR         R2, [PC, #196]              @ 0x00000000000008e0 
    /*00000818*/ ADD         R3, SP, #128                @ 0x80 
    /*0000081c*/ LDR         R0, WORD_08e4               @ LDR         R0, [PC, #192]              @ 0x00000000000008e4 
    /*00000820*/ MOV         R1, #4 
    /*00000824*/ ADD         R2, PC, R2 
    /*00000828*/ ADD         R0, PC, R0 
    /*0000082c*/ STR         R3, [SP, #24] 
    /*00000830*/ BL          _Z15HIRT_LOG_PrintfPKc19tagHIRT_LOG_LEVEL_ES0_z
    /*00000834*/ B           _ZL12forwardGroupPvP28hiRUNTIME_GROUP_BLOB_ARRAY_SS1_yyPFi35hiRUNTIME_FORWARD_STATUS_CALLBACK_ES_yS1_E_x7dc
    /*00000838*/ ANDEQ       SL, R7, R0, LSR #2 
    /*0000083c*/ ANDEQ       R0, R0, R0 
    /*00000840*/ BLCC        0xFFFFFFFFFE6B3048 
    /*00000844*/ ANDEQ       R0, R0, R0 
    /*00000848*/ WORD_0848: .word 0x00000818
    /*0000084c*/ WORD_084c: .word 0x00000000
    /*00000850*/ WORD_0850: .word 0x000007dc
    /*00000854*/ WORD_0854: .word 0x000007cc
    /*00000858*/ WORD_0858: .word 0x000007b8
    /*0000085c*/ WORD_085c: .word 0x00000778
    /*00000860*/ WORD_0860: .word 0x00000000
    /*00000864*/ WORD_0864: .word 0x00000748
    /*00000868*/ WORD_0868: .word 0x000006c8
    /*0000086c*/ WORD_086c: .word 0x000006c8
    /*00000870*/ WORD_0870: .word 0x000006a0
    /*00000874*/ WORD_0874: .word 0x00000688
    /*00000878*/ WORD_0878: .word 0x00000688
    /*0000087c*/ WORD_087c: .word 0x0000064c
    /*00000880*/ WORD_0880: .word 0x0000064c
    /*00000884*/ WORD_0884: .word 0x00000638
    /*00000888*/ WORD_0888: .word 0x00000628
    /*0000088c*/ WORD_088c: .word 0x000005f0
    /*00000890*/ WORD_0890: .word 0x00000560
    /*00000894*/ WORD_0894: .word 0x0000053c
    /*00000898*/ WORD_0898: .word 0x00000438
    /*0000089c*/ WORD_089c: .word 0x0000040c
    /*000008a0*/ WORD_08a0: .word 0x0000037c
    /*000008a4*/ WORD_08a4: .word 0x00000334
    /*000008a8*/ WORD_08a8: .word 0x00000334
    /*000008ac*/ WORD_08ac: .word 0x00000330
    /*000008b0*/ WORD_08b0: .word 0x000002d8
    /*000008b4*/ WORD_08b4: .word 0x00000298
    /*000008b8*/ WORD_08b8: .word 0x000001f4
    /*000008bc*/ WORD_08bc: .word 0x000001f4
    /*000008c0*/ WORD_08c0: .word 0x000001d8
    /*000008c4*/ WORD_08c4: .word 0x0000017c
    /*000008c8*/ WORD_08c8: .word 0x00000140
    /*000008cc*/ WORD_08cc: .word 0x00000114
    /*000008d0*/ WORD_08d0: .word 0x000000fc
    /*000008d4*/ WORD_08d4: .word 0x000000fc
    /*000008d8*/ WORD_08d8: .word 0x000000d0
    /*000008dc*/ WORD_08dc: .word 0x000000d0
    /*000008e0*/ WORD_08e0: .word 0x000000b4
    /*000008e4*/ WORD_08e4: .word 0x000000b4
    /*000008e8*/ WORD_08e8: .word 0xffffff4c
    /*000008ec*/ WORD_08ec: .word 0xffffff14
    /*000008f0*/ WORD_08f0: .word 0xfffffee8
    /*000008f4*/ WORD_08f4: .word 0xfffffee8
    /*000008f8*/ WORD_08f8: .word 0xfffffed8
    /*000008fc*/ WORD_08fc: .word 0xfffffee0
    /*00000900*/ WORD_0900: .word 0xfffffe64
    /*00000904*/ WORD_0904: .word 0xfffffe58
    /*00000908*/ WORD_0908: .word 0xfffffe20
    /*0000090c*/ WORD_090c: .word 0xfffffdf4
    /*00000910*/ WORD_0910: .word 0xfffffdf4
    /*00000914*/ WORD_0914: .word 0xfffffde8
    /*00000918*/ WORD_0918: .word 0xfffffde8
    /*0000091c*/ WORD_091c: .word 0xfffffd70
    /*00000920*/ WORD_0920: .word 0xfffffd48
    /*00000924*/ WORD_0924: .word 0xfffffd3c
    /*00000928*/ WORD_0928: .word 0xfffffd24
    /*0000092c*/ WORD_092c: .word 0xfffffd18
    /*00000930*/ WORD_0930: .word 0xfffffcd4
    /*00000934*/ WORD_0934: .word 0xfffffca0
    /*00000938*/ WORD_0938: .word 0xfffffc6c
    /*0000093c*/ WORD_093c: .word 0xfffffc30
    /*00000940*/ WORD_0940: .word 0xfffffc00
    /*00000944*/ WORD_0944: .word 0xfffffbf0
    /*00000948*/ WORD_0948: .word 0xfffffbe0
    /*0000094c*/ WORD_094c: .word 0xfffffbac
    /*00000950*/ WORD_0950: .word 0xfffffb78
    /*00000954*/ WORD_0954: .word 0xfffffb3c
    /*00000958*/ WORD_0958: .word 0xfffffb0c
    /*0000095c*/ WORD_095c: .word 0xfffffaf8
    /*00000960*/ WORD_0960: .word 0xfffffadc
    /*00000964*/ WORD_0964: .word 0xfffffadc
    /*00000968*/ WORD_0968: .word 0xfffffac0
    /*0000096c*/ WORD_096c: .word 0xfffffac0
    /*00000970*/ WORD_0970: .word 0xfffffaa4
    /*00000974*/ WORD_0974: .word 0xfffffa84
    /*00000978*/ WORD_0978: .word 0xfffffa64
    /*0000097c*/ WORD_097c: .word 0xfffffa48
    /*00000980*/ WORD_0980: .word 0xfffffa1c
    /*00000984*/ WORD_0984: .word 0xfffffa10
    /*00000988*/ WORD_0988: .word 0xfffffa00
    /*0000098c*/ WORD_098c: .word 0xfffff984
    _ZL12forwardGroupPvP28hiRUNTIME_GROUP_BLOB_ARRAY_SS1_yyPFi35hiRUNTIME_FORWARD_STATUS_CALLBACK_ES_yS1_E_x990:
    /*00000990*/ LDR         R1, WORD_08e8               @ LDR         R1, [PC, #-176]             @ 0x00000000000008e8 
    /*00000994*/ ADD         R1, PC, R1 
    /*00000998*/ LDR         R3, [R1, #8] 
    /*0000099c*/ CMP         R3, #0 
    /*000009a0*/ BEQ         _ZL12forwardGroupPvP28hiRUNTIME_GROUP_BLOB_ARRAY_SS1_yyPFi35hiRUNTIME_FORWARD_STATUS_CALLBACK_ES_yS1_E_xbec
    /*000009a4*/ LDR         IP, [SP, #44]               @ 0x2c 
    /*000009a8*/ ADD         R1, R1, #4 
    /*000009ac*/ MOV         R2, R3 
    _ZL12forwardGroupPvP28hiRUNTIME_GROUP_BLOB_ARRAY_SS1_yyPFi35hiRUNTIME_FORWARD_STATUS_CALLBACK_ES_yS1_E_x9b0:
    /*000009b0*/ LDR         R0, [R2, #16] 
    /*000009b4*/ CMP         IP, R0 
    /*000009b8*/ MOVLS       R1, R2 
    /*000009bc*/ LDRHI       R2, [R2, #12] 
    /*000009c0*/ LDRLS       R2, [R2, #8] 
    /*000009c4*/ CMP         R2, #0 
    /*000009c8*/ BNE         _ZL12forwardGroupPvP28hiRUNTIME_GROUP_BLOB_ARRAY_SS1_yyPFi35hiRUNTIME_FORWARD_STATUS_CALLBACK_ES_yS1_E_x9b0
    /*000009cc*/ LDR         R2, WORD_08ec               @ LDR         R2, [PC, #-232]             @ 0x00000000000008ec 
    /*000009d0*/ ADD         R2, PC, R2 
    /*000009d4*/ ADD         R2, R2, #4 
    /*000009d8*/ CMP         R1, R2 
    /*000009dc*/ BEQ         _ZL12forwardGroupPvP28hiRUNTIME_GROUP_BLOB_ARRAY_SS1_yyPFi35hiRUNTIME_FORWARD_STATUS_CALLBACK_ES_yS1_E_xbf0
    /*000009e0*/ LDR         R2, [R1, #16] 
    /*000009e4*/ CMP         IP, R2 
    /*000009e8*/ BCC         _ZL12forwardGroupPvP28hiRUNTIME_GROUP_BLOB_ARRAY_SS1_yyPFi35hiRUNTIME_FORWARD_STATUS_CALLBACK_ES_yS1_E_xbf0
    /*000009ec*/ MOV         R0, R1 
    _ZL12forwardGroupPvP28hiRUNTIME_GROUP_BLOB_ARRAY_SS1_yyPFi35hiRUNTIME_FORWARD_STATUS_CALLBACK_ES_yS1_E_x9f0:
    /*000009f0*/ LDR         R8, WORD_08f0               @ LDR         R8, [PC, #-264]             @ 0x00000000000008f0 
    /*000009f4*/ LDR         R5, WORD_08f4               @ LDR         R5, [PC, #-264]             @ 0x00000000000008f4 
    /*000009f8*/ LDR         R7, WORD_08fc               @ LDR         R7, [PC, #-260]             @ 0x00000000000008fc 
    /*000009fc*/ LDR         R6, WORD_08f8               @ LDR         R6, [PC, #-268]             @ 0x00000000000008f8 
    /*00000a00*/ ADD         R8, PC, R8 
    /*00000a04*/ ADD         R5, PC, R5 
    /*00000a08*/ ADD         R8, R8, #4 
    /*00000a0c*/ LDR         R4, [R0, #32] 
    /*00000a10*/ ADD         R5, R5, #4 
    /*00000a14*/ ADD         R7, PC, R7 
    /*00000a18*/ ADD         R6, PC, R6 
    _ZL12forwardGroupPvP28hiRUNTIME_GROUP_BLOB_ARRAY_SS1_yyPFi35hiRUNTIME_FORWARD_STATUS_CALLBACK_ES_yS1_E_xa1c:
    /*00000a1c*/ CMP         R3, #0 
    /*00000a20*/ BEQ         _ZL12forwardGroupPvP28hiRUNTIME_GROUP_BLOB_ARRAY_SS1_yyPFi35hiRUNTIME_FORWARD_STATUS_CALLBACK_ES_yS1_E_xc34
    /*00000a24*/ LDR         IP, [SP, #44]               @ 0x2c 
    /*00000a28*/ MOV         R1, R5 
    _ZL12forwardGroupPvP28hiRUNTIME_GROUP_BLOB_ARRAY_SS1_yyPFi35hiRUNTIME_FORWARD_STATUS_CALLBACK_ES_yS1_E_xa2c:
    /*00000a2c*/ LDR         R2, [R3, #16] 
    /*00000a30*/ CMP         IP, R2 
    /*00000a34*/ MOVLS       R1, R3 
    /*00000a38*/ LDRHI       R3, [R3, #12] 
    /*00000a3c*/ LDRLS       R3, [R3, #8] 
    /*00000a40*/ CMP         R3, #0 
    /*00000a44*/ BNE         _ZL12forwardGroupPvP28hiRUNTIME_GROUP_BLOB_ARRAY_SS1_yyPFi35hiRUNTIME_FORWARD_STATUS_CALLBACK_ES_yS1_E_xa2c
    /*00000a48*/ ADD         R3, R6, #4 
    /*00000a4c*/ CMP         R1, R3 
    /*00000a50*/ BEQ         _ZL12forwardGroupPvP28hiRUNTIME_GROUP_BLOB_ARRAY_SS1_yyPFi35hiRUNTIME_FORWARD_STATUS_CALLBACK_ES_yS1_E_xc38
    /*00000a54*/ LDR         R3, [R1, #16] 
    /*00000a58*/ CMP         IP, R3 
    /*00000a5c*/ BCC         _ZL12forwardGroupPvP28hiRUNTIME_GROUP_BLOB_ARRAY_SS1_yyPFi35hiRUNTIME_FORWARD_STATUS_CALLBACK_ES_yS1_E_xc38
    /*00000a60*/ MOV         R0, R1 
    _ZL12forwardGroupPvP28hiRUNTIME_GROUP_BLOB_ARRAY_SS1_yyPFi35hiRUNTIME_FORWARD_STATUS_CALLBACK_ES_yS1_E_xa64:
    /*00000a64*/ ADD         R0, R0, #24 
    /*00000a68*/ CMP         R4, R0 
    /*00000a6c*/ BEQ         _ZL12forwardGroupPvP28hiRUNTIME_GROUP_BLOB_ARRAY_SS1_yyPFi35hiRUNTIME_FORWARD_STATUS_CALLBACK_ES_yS1_E_xe4c
    /*00000a70*/ LDRD        R0, [R4, #16] 
    /*00000a74*/ LDRD        R2, [SP, #216]              @ 0xd8 
    /*00000a78*/ CMP         R1, R3 
    /*00000a7c*/ CMPEQ       R0, R2 
    /*00000a80*/ BEQ         _ZL12forwardGroupPvP28hiRUNTIME_GROUP_BLOB_ARRAY_SS1_yyPFi35hiRUNTIME_FORWARD_STATUS_CALLBACK_ES_yS1_E_xd5c
    /*00000a84*/ MOV         R0, R4 
    /*00000a88*/ BL          _ZSt18_Rb_tree_incrementPSt18_Rb_tree_node_base
    /*00000a8c*/ LDR         R3, WORD_0900               @ LDR         R3, [PC, #-404]             @ 0x0000000000000900 
    /*00000a90*/ MOV         R4, R0 
    /*00000a94*/ ADD         R3, PC, R3 
    /*00000a98*/ LDR         R3, [R3, #8] 
    /*00000a9c*/ B           _ZL12forwardGroupPvP28hiRUNTIME_GROUP_BLOB_ARRAY_SS1_yyPFi35hiRUNTIME_FORWARD_STATUS_CALLBACK_ES_yS1_E_xa1c
    _ZL12forwardGroupPvP28hiRUNTIME_GROUP_BLOB_ARRAY_SS1_yyPFi35hiRUNTIME_FORWARD_STATUS_CALLBACK_ES_yS1_E_xaa0:
    /*00000aa0*/ LDR         R1, WORD_0904               @ LDR         R1, [PC, #-420]             @ 0x0000000000000904 
    /*00000aa4*/ ADD         R1, PC, R1 
    /*00000aa8*/ LDR         R3, [R1, #8] 
    /*00000aac*/ CMP         R3, #0 
    /*00000ab0*/ BEQ         _ZL12forwardGroupPvP28hiRUNTIME_GROUP_BLOB_ARRAY_SS1_yyPFi35hiRUNTIME_FORWARD_STATUS_CALLBACK_ES_yS1_E_xbc0
    /*00000ab4*/ LDR         IP, [SP, #44]               @ 0x2c 
    /*00000ab8*/ ADD         R1, R1, #4 
    /*00000abc*/ MOV         R2, R3 
    _ZL12forwardGroupPvP28hiRUNTIME_GROUP_BLOB_ARRAY_SS1_yyPFi35hiRUNTIME_FORWARD_STATUS_CALLBACK_ES_yS1_E_xac0:
    /*00000ac0*/ LDR         R0, [R2, #16] 
    /*00000ac4*/ CMP         R0, IP 
    /*00000ac8*/ MOVCS       R1, R2 
    /*00000acc*/ LDRCC       R2, [R2, #12] 
    /*00000ad0*/ LDRCS       R2, [R2, #8] 
    /*00000ad4*/ CMP         R2, #0 
    /*00000ad8*/ BNE         _ZL12forwardGroupPvP28hiRUNTIME_GROUP_BLOB_ARRAY_SS1_yyPFi35hiRUNTIME_FORWARD_STATUS_CALLBACK_ES_yS1_E_xac0
    /*00000adc*/ LDR         R2, WORD_0908               @ LDR         R2, [PC, #-476]             @ 0x0000000000000908 
    /*00000ae0*/ ADD         R2, PC, R2 
    /*00000ae4*/ ADD         R2, R2, #4 
    /*00000ae8*/ CMP         R1, R2 
    /*00000aec*/ BEQ         _ZL12forwardGroupPvP28hiRUNTIME_GROUP_BLOB_ARRAY_SS1_yyPFi35hiRUNTIME_FORWARD_STATUS_CALLBACK_ES_yS1_E_xbc4
    /*00000af0*/ LDR         R2, [R1, #16] 
    /*00000af4*/ CMP         R2, IP 
    /*00000af8*/ BHI         _ZL12forwardGroupPvP28hiRUNTIME_GROUP_BLOB_ARRAY_SS1_yyPFi35hiRUNTIME_FORWARD_STATUS_CALLBACK_ES_yS1_E_xbc4
    /*00000afc*/ MOV         R0, R1 
    _ZL12forwardGroupPvP28hiRUNTIME_GROUP_BLOB_ARRAY_SS1_yyPFi35hiRUNTIME_FORWARD_STATUS_CALLBACK_ES_yS1_E_xb00:
    /*00000b00*/ LDR         R8, WORD_090c               @ LDR         R8, [PC, #-508]             @ 0x000000000000090c 
    /*00000b04*/ LDR         R2, WORD_0910               @ LDR         R2, [PC, #-508]             @ 0x0000000000000910 
    /*00000b08*/ LDR         R7, WORD_0914               @ LDR         R7, [PC, #-508]             @ 0x0000000000000914 
    /*00000b0c*/ LDR         R6, WORD_0918               @ LDR         R6, [PC, #-508]             @ 0x0000000000000918 
    /*00000b10*/ ADD         R8, PC, R8 
    /*00000b14*/ ADD         R2, PC, R2 
    /*00000b18*/ ADD         R8, R8, #4 
    /*00000b1c*/ LDR         R4, [R0, #32] 
    /*00000b20*/ ADD         R9, R2, #4 
    /*00000b24*/ ADD         R7, PC, R7 
    /*00000b28*/ ADD         R6, PC, R6 
    _ZL12forwardGroupPvP28hiRUNTIME_GROUP_BLOB_ARRAY_SS1_yyPFi35hiRUNTIME_FORWARD_STATUS_CALLBACK_ES_yS1_E_xb2c:
    /*00000b2c*/ CMP         R3, #0 
    /*00000b30*/ BEQ         _ZL12forwardGroupPvP28hiRUNTIME_GROUP_BLOB_ARRAY_SS1_yyPFi35hiRUNTIME_FORWARD_STATUS_CALLBACK_ES_yS1_E_xc18
    /*00000b34*/ LDR         R0, [SP, #44]               @ 0x2c 
    /*00000b38*/ MOV         R1, R9 
    _ZL12forwardGroupPvP28hiRUNTIME_GROUP_BLOB_ARRAY_SS1_yyPFi35hiRUNTIME_FORWARD_STATUS_CALLBACK_ES_yS1_E_xb3c:
    /*00000b3c*/ LDR         R2, [R3, #16] 
    /*00000b40*/ CMP         R2, R0 
    /*00000b44*/ MOVCS       R1, R3 
    /*00000b48*/ LDRCC       R3, [R3, #12] 
    /*00000b4c*/ LDRCS       R3, [R3, #8] 
    /*00000b50*/ CMP         R3, #0 
    /*00000b54*/ BNE         _ZL12forwardGroupPvP28hiRUNTIME_GROUP_BLOB_ARRAY_SS1_yyPFi35hiRUNTIME_FORWARD_STATUS_CALLBACK_ES_yS1_E_xb3c
    /*00000b58*/ ADD         R3, R6, #4 
    /*00000b5c*/ CMP         R1, R3 
    /*00000b60*/ BEQ         _ZL12forwardGroupPvP28hiRUNTIME_GROUP_BLOB_ARRAY_SS1_yyPFi35hiRUNTIME_FORWARD_STATUS_CALLBACK_ES_yS1_E_xc1c
    /*00000b64*/ LDR         R3, [R1, #16] 
    /*00000b68*/ CMP         R3, R0 
    /*00000b6c*/ BHI         _ZL12forwardGroupPvP28hiRUNTIME_GROUP_BLOB_ARRAY_SS1_yyPFi35hiRUNTIME_FORWARD_STATUS_CALLBACK_ES_yS1_E_xc1c
    /*00000b70*/ MOV         R0, R1 
    _ZL12forwardGroupPvP28hiRUNTIME_GROUP_BLOB_ARRAY_SS1_yyPFi35hiRUNTIME_FORWARD_STATUS_CALLBACK_ES_yS1_E_xb74:
    /*00000b74*/ ADD         R0, R0, #24 
    /*00000b78*/ CMP         R4, R0 
    /*00000b7c*/ BEQ         _ZL12forwardGroupPvP28hiRUNTIME_GROUP_BLOB_ARRAY_SS1_yyPFi35hiRUNTIME_FORWARD_STATUS_CALLBACK_ES_yS1_E_xd40
    /*00000b80*/ LDRD        R0, [R4, #16] 
    /*00000b84*/ LDRD        R2, [SP, #216]              @ 0xd8 
    /*00000b88*/ CMP         R1, R3 
    /*00000b8c*/ CMPEQ       R0, R2 
    /*00000b90*/ BEQ         _ZL12forwardGroupPvP28hiRUNTIME_GROUP_BLOB_ARRAY_SS1_yyPFi35hiRUNTIME_FORWARD_STATUS_CALLBACK_ES_yS1_E_xc50
    /*00000b94*/ MOV         R0, R4 
    /*00000b98*/ BL          _ZSt18_Rb_tree_incrementPSt18_Rb_tree_node_base
    /*00000b9c*/ LDR         R3, WORD_091c               @ LDR         R3, [PC, #-648]             @ 0x000000000000091c 
    /*00000ba0*/ MOV         R4, R0 
    /*00000ba4*/ ADD         R3, PC, R3 
    /*00000ba8*/ LDR         R3, [R3, #8] 
    /*00000bac*/ B           _ZL12forwardGroupPvP28hiRUNTIME_GROUP_BLOB_ARRAY_SS1_yyPFi35hiRUNTIME_FORWARD_STATUS_CALLBACK_ES_yS1_E_xb2c
    _ZL12forwardGroupPvP28hiRUNTIME_GROUP_BLOB_ARRAY_SS1_yyPFi35hiRUNTIME_FORWARD_STATUS_CALLBACK_ES_yS1_E_xbb0:
    /*00000bb0*/ MOV         R0, R2 
    /*00000bb4*/ B           _ZL12forwardGroupPvP28hiRUNTIME_GROUP_BLOB_ARRAY_SS1_yyPFi35hiRUNTIME_FORWARD_STATUS_CALLBACK_ES_yS1_E_x500
    _ZL12forwardGroupPvP28hiRUNTIME_GROUP_BLOB_ARRAY_SS1_yyPFi35hiRUNTIME_FORWARD_STATUS_CALLBACK_ES_yS1_E_xbb8:
    /*00000bb8*/ MOV         R0, R1 
    /*00000bbc*/ B           _ZL12forwardGroupPvP28hiRUNTIME_GROUP_BLOB_ARRAY_SS1_yyPFi35hiRUNTIME_FORWARD_STATUS_CALLBACK_ES_yS1_E_x494
    _ZL12forwardGroupPvP28hiRUNTIME_GROUP_BLOB_ARRAY_SS1_yyPFi35hiRUNTIME_FORWARD_STATUS_CALLBACK_ES_yS1_E_xbc0:
    /*00000bc0*/ ADD         R1, R1, #4 
    _ZL12forwardGroupPvP28hiRUNTIME_GROUP_BLOB_ARRAY_SS1_yyPFi35hiRUNTIME_FORWARD_STATUS_CALLBACK_ES_yS1_E_xbc4:
    /*00000bc4*/ LDR         R0, WORD_0920               @ LDR         R0, [PC, #-684]             @ 0x0000000000000920 
    /*00000bc8*/ ADD         R2, SP, #152                @ 0x98 
    /*00000bcc*/ ADD         R3, SP, #44                 @ 0x2c 
    /*00000bd0*/ ADD         R0, PC, R0 
    /*00000bd4*/ STR         R3, [R2, #-76]!             @ 0xffffffb4 
    /*00000bd8*/ BL          _ZNSt8_Rb_treeIKPvSt4pairIS1_St3mapIy35hiRUNTIME_FORWARD_STATUS_CALLBACK_ESt4lessIyESaIS2_IKyS4_EEEESt10_Select1stISB_ES5_IS1_ESaISB_EE22_M_emplace_hint_uniqueIJRKSt21piecewise_construct_tSt5tupleIJRS1_EESL_IJEEEEESt17_Rb_tree_iteratorISB_ESt23_Rb_tree_const_iteratorISB_EDpOT_.isra.163
    /*00000bdc*/ LDR         R3, WORD_0924               @ LDR         R3, [PC, #-704]             @ 0x0000000000000924 
    /*00000be0*/ ADD         R3, PC, R3 
    /*00000be4*/ LDR         R3, [R3, #8] 
    /*00000be8*/ B           _ZL12forwardGroupPvP28hiRUNTIME_GROUP_BLOB_ARRAY_SS1_yyPFi35hiRUNTIME_FORWARD_STATUS_CALLBACK_ES_yS1_E_xb00
    _ZL12forwardGroupPvP28hiRUNTIME_GROUP_BLOB_ARRAY_SS1_yyPFi35hiRUNTIME_FORWARD_STATUS_CALLBACK_ES_yS1_E_xbec:
    /*00000bec*/ ADD         R1, R1, #4 
    _ZL12forwardGroupPvP28hiRUNTIME_GROUP_BLOB_ARRAY_SS1_yyPFi35hiRUNTIME_FORWARD_STATUS_CALLBACK_ES_yS1_E_xbf0:
    /*00000bf0*/ LDR         R0, WORD_0928               @ LDR         R0, [PC, #-720]             @ 0x0000000000000928 
    /*00000bf4*/ ADD         R2, SP, #152                @ 0x98 
    /*00000bf8*/ ADD         R3, SP, #44                 @ 0x2c 
    /*00000bfc*/ ADD         R0, PC, R0 
    /*00000c00*/ STR         R3, [R2, #-60]!             @ 0xffffffc4 
    /*00000c04*/ BL          _ZNSt8_Rb_treeIKPvSt4pairIS1_St3mapIy35hiRUNTIME_FORWARD_STATUS_CALLBACK_ESt4lessIyESaIS2_IKyS4_EEEESt10_Select1stISB_ES5_IS1_ESaISB_EE22_M_emplace_hint_uniqueIJRKSt21piecewise_construct_tSt5tupleIJRS1_EESL_IJEEEEESt17_Rb_tree_iteratorISB_ESt23_Rb_tree_const_iteratorISB_EDpOT_.isra.163
    /*00000c08*/ LDR         R3, WORD_092c               @ LDR         R3, [PC, #-740]             @ 0x000000000000092c 
    /*00000c0c*/ ADD         R3, PC, R3 
    /*00000c10*/ LDR         R3, [R3, #8] 
    /*00000c14*/ B           _ZL12forwardGroupPvP28hiRUNTIME_GROUP_BLOB_ARRAY_SS1_yyPFi35hiRUNTIME_FORWARD_STATUS_CALLBACK_ES_yS1_E_x9f0
    _ZL12forwardGroupPvP28hiRUNTIME_GROUP_BLOB_ARRAY_SS1_yyPFi35hiRUNTIME_FORWARD_STATUS_CALLBACK_ES_yS1_E_xc18:
    /*00000c18*/ MOV         R1, R8 
    _ZL12forwardGroupPvP28hiRUNTIME_GROUP_BLOB_ARRAY_SS1_yyPFi35hiRUNTIME_FORWARD_STATUS_CALLBACK_ES_yS1_E_xc1c:
    /*00000c1c*/ ADD         R2, SP, #152                @ 0x98 
    /*00000c20*/ ADD         R3, SP, #44                 @ 0x2c 
    /*00000c24*/ MOV         R0, R7 
    /*00000c28*/ STR         R3, [R2, #-72]!             @ 0xffffffb8 
    /*00000c2c*/ BL          _ZNSt8_Rb_treeIKPvSt4pairIS1_St3mapIy35hiRUNTIME_FORWARD_STATUS_CALLBACK_ESt4lessIyESaIS2_IKyS4_EEEESt10_Select1stISB_ES5_IS1_ESaISB_EE22_M_emplace_hint_uniqueIJRKSt21piecewise_construct_tSt5tupleIJRS1_EESL_IJEEEEESt17_Rb_tree_iteratorISB_ESt23_Rb_tree_const_iteratorISB_EDpOT_.isra.163
    /*00000c30*/ B           _ZL12forwardGroupPvP28hiRUNTIME_GROUP_BLOB_ARRAY_SS1_yyPFi35hiRUNTIME_FORWARD_STATUS_CALLBACK_ES_yS1_E_xb74
    _ZL12forwardGroupPvP28hiRUNTIME_GROUP_BLOB_ARRAY_SS1_yyPFi35hiRUNTIME_FORWARD_STATUS_CALLBACK_ES_yS1_E_xc34:
    /*00000c34*/ MOV         R1, R8 
    _ZL12forwardGroupPvP28hiRUNTIME_GROUP_BLOB_ARRAY_SS1_yyPFi35hiRUNTIME_FORWARD_STATUS_CALLBACK_ES_yS1_E_xc38:
    /*00000c38*/ ADD         R2, SP, #152                @ 0x98 
    /*00000c3c*/ ADD         R3, SP, #44                 @ 0x2c 
    /*00000c40*/ MOV         R0, R7 
    /*00000c44*/ STR         R3, [R2, #-56]!             @ 0xffffffc8 
    /*00000c48*/ BL          _ZNSt8_Rb_treeIKPvSt4pairIS1_St3mapIy35hiRUNTIME_FORWARD_STATUS_CALLBACK_ESt4lessIyESaIS2_IKyS4_EEEESt10_Select1stISB_ES5_IS1_ESaISB_EE22_M_emplace_hint_uniqueIJRKSt21piecewise_construct_tSt5tupleIJRS1_EESL_IJEEEEESt17_Rb_tree_iteratorISB_ESt23_Rb_tree_const_iteratorISB_EDpOT_.isra.163
    /*00000c4c*/ B           _ZL12forwardGroupPvP28hiRUNTIME_GROUP_BLOB_ARRAY_SS1_yyPFi35hiRUNTIME_FORWARD_STATUS_CALLBACK_ES_yS1_E_xa64
    _ZL12forwardGroupPvP28hiRUNTIME_GROUP_BLOB_ARRAY_SS1_yyPFi35hiRUNTIME_FORWARD_STATUS_CALLBACK_ES_yS1_E_xc50:
    /*00000c50*/ LDR         R1, WORD_0930               @ LDR         R1, [PC, #-808]             @ 0x0000000000000930 
    /*00000c54*/ ADD         R1, PC, R1 
    /*00000c58*/ LDR         R3, [R1, #8] 
    /*00000c5c*/ CMP         R3, #0 
    /*00000c60*/ BEQ         _ZL12forwardGroupPvP28hiRUNTIME_GROUP_BLOB_ARRAY_SS1_yyPFi35hiRUNTIME_FORWARD_STATUS_CALLBACK_ES_yS1_E_xed8
    /*00000c64*/ LDR         R0, [SP, #44]               @ 0x2c 
    /*00000c68*/ ADD         R1, R1, #4 
    _ZL12forwardGroupPvP28hiRUNTIME_GROUP_BLOB_ARRAY_SS1_yyPFi35hiRUNTIME_FORWARD_STATUS_CALLBACK_ES_yS1_E_xc6c:
    /*00000c6c*/ LDR         R2, [R3, #16] 
    /*00000c70*/ CMP         R2, R0 
    /*00000c74*/ MOVCS       R1, R3 
    /*00000c78*/ LDRCC       R3, [R3, #12] 
    /*00000c7c*/ LDRCS       R3, [R3, #8] 
    /*00000c80*/ CMP         R3, #0 
    /*00000c84*/ BNE         _ZL12forwardGroupPvP28hiRUNTIME_GROUP_BLOB_ARRAY_SS1_yyPFi35hiRUNTIME_FORWARD_STATUS_CALLBACK_ES_yS1_E_xc6c
    /*00000c88*/ LDR         R3, WORD_0934               @ LDR         R3, [PC, #-860]             @ 0x0000000000000934 
    /*00000c8c*/ ADD         R3, PC, R3 
    /*00000c90*/ ADD         R3, R3, #4 
    /*00000c94*/ CMP         R1, R3 
    /*00000c98*/ BEQ         _ZL12forwardGroupPvP28hiRUNTIME_GROUP_BLOB_ARRAY_SS1_yyPFi35hiRUNTIME_FORWARD_STATUS_CALLBACK_ES_yS1_E_xedc
    /*00000c9c*/ LDR         R3, [R1, #16] 
    /*00000ca0*/ CMP         R3, R0 
    /*00000ca4*/ BHI         _ZL12forwardGroupPvP28hiRUNTIME_GROUP_BLOB_ARRAY_SS1_yyPFi35hiRUNTIME_FORWARD_STATUS_CALLBACK_ES_yS1_E_xedc
    /*00000ca8*/ MOV         R6, R1 
    _ZL12forwardGroupPvP28hiRUNTIME_GROUP_BLOB_ARRAY_SS1_yyPFi35hiRUNTIME_FORWARD_STATUS_CALLBACK_ES_yS1_E_xcac:
    /*00000cac*/ ADD         R1, R6, #24 
    /*00000cb0*/ MOV         R0, R4 
    /*00000cb4*/ BL          _ZSt28_Rb_tree_rebalance_for_erasePSt18_Rb_tree_node_baseRS_
    /*00000cb8*/ BL          _ZdlPv
    /*00000cbc*/ LDR         R1, WORD_0938               @ LDR         R1, [PC, #-908]             @ 0x0000000000000938 
    /*00000cc0*/ LDR         R2, [R6, #40]               @ 0x28 
    /*00000cc4*/ ADD         R1, PC, R1 
    /*00000cc8*/ SUB         R2, R2, #1 
    /*00000ccc*/ LDR         R3, [R1, #8] 
    /*00000cd0*/ STR         R2, [R6, #40]               @ 0x28 
    /*00000cd4*/ CMP         R3, #0 
    /*00000cd8*/ BEQ         _ZL12forwardGroupPvP28hiRUNTIME_GROUP_BLOB_ARRAY_SS1_yyPFi35hiRUNTIME_FORWARD_STATUS_CALLBACK_ES_yS1_E_xf1c
    /*00000cdc*/ LDR         R0, [SP, #44]               @ 0x2c 
    /*00000ce0*/ ADD         R1, R1, #4 
    _ZL12forwardGroupPvP28hiRUNTIME_GROUP_BLOB_ARRAY_SS1_yyPFi35hiRUNTIME_FORWARD_STATUS_CALLBACK_ES_yS1_E_xce4:
    /*00000ce4*/ LDR         R2, [R3, #16] 
    /*00000ce8*/ CMP         R0, R2 
    /*00000cec*/ MOVLS       R1, R3 
    /*00000cf0*/ LDRHI       R3, [R3, #12] 
    /*00000cf4*/ LDRLS       R3, [R3, #8] 
    /*00000cf8*/ CMP         R3, #0 
    /*00000cfc*/ BNE         _ZL12forwardGroupPvP28hiRUNTIME_GROUP_BLOB_ARRAY_SS1_yyPFi35hiRUNTIME_FORWARD_STATUS_CALLBACK_ES_yS1_E_xce4
    /*00000d00*/ LDR         R3, WORD_093c               @ LDR         R3, [PC, #-972]             @ 0x000000000000093c 
    /*00000d04*/ ADD         R3, PC, R3 
    /*00000d08*/ ADD         R3, R3, #4 
    /*00000d0c*/ CMP         R1, R3 
    /*00000d10*/ BEQ         _ZL12forwardGroupPvP28hiRUNTIME_GROUP_BLOB_ARRAY_SS1_yyPFi35hiRUNTIME_FORWARD_STATUS_CALLBACK_ES_yS1_E_xf20
    /*00000d14*/ LDR         R3, [R1, #16] 
    /*00000d18*/ CMP         R0, R3 
    /*00000d1c*/ BCC         _ZL12forwardGroupPvP28hiRUNTIME_GROUP_BLOB_ARRAY_SS1_yyPFi35hiRUNTIME_FORWARD_STATUS_CALLBACK_ES_yS1_E_xf20
    /*00000d20*/ MOV         R0, R1 
    _ZL12forwardGroupPvP28hiRUNTIME_GROUP_BLOB_ARRAY_SS1_yyPFi35hiRUNTIME_FORWARD_STATUS_CALLBACK_ES_yS1_E_xd24:
    /*00000d24*/ LDR         R3, [R0, #40]               @ 0x28 
    /*00000d28*/ CMP         R3, #0 
    /*00000d2c*/ BNE         _ZL12forwardGroupPvP28hiRUNTIME_GROUP_BLOB_ARRAY_SS1_yyPFi35hiRUNTIME_FORWARD_STATUS_CALLBACK_ES_yS1_E_xd40
    /*00000d30*/ LDR         R0, WORD_0940               @ LDR         R0, [PC, #-1016]            @ 0x0000000000000940 
    /*00000d34*/ ADD         R1, SP, #44                 @ 0x2c 
    /*00000d38*/ ADD         R0, PC, R0 
    /*00000d3c*/ BL          _ZNSt8_Rb_treeIKPvSt4pairIS1_St3mapIy35hiRUNTIME_FORWARD_STATUS_CALLBACK_ESt4lessIyESaIS2_IKyS4_EEEESt10_Select1stISB_ES5_IS1_ESaISB_EE5eraseERS1_
    _ZL12forwardGroupPvP28hiRUNTIME_GROUP_BLOB_ARRAY_SS1_yyPFi35hiRUNTIME_FORWARD_STATUS_CALLBACK_ES_yS1_E_xd40:
    /*00000d40*/ CMP         FP, #0 
    /*00000d44*/ BEQ         _ZL12forwardGroupPvP28hiRUNTIME_GROUP_BLOB_ARRAY_SS1_yyPFi35hiRUNTIME_FORWARD_STATUS_CALLBACK_ES_yS1_E_x168
    /*00000d48*/ LDR         R0, WORD_0944               @ LDR         R0, [PC, #-1036]            @ 0x0000000000000944 
    /*00000d4c*/ ADD         R0, PC, R0 
    /*00000d50*/ BL          pthread_mutex_unlock
    /*00000d54*/ LDR         R0, [SP, #24] 
    /*00000d58*/ B           _ZL12forwardGroupPvP28hiRUNTIME_GROUP_BLOB_ARRAY_SS1_yyPFi35hiRUNTIME_FORWARD_STATUS_CALLBACK_ES_yS1_E_x170
    _ZL12forwardGroupPvP28hiRUNTIME_GROUP_BLOB_ARRAY_SS1_yyPFi35hiRUNTIME_FORWARD_STATUS_CALLBACK_ES_yS1_E_xd5c:
    /*00000d5c*/ LDR         R1, WORD_0948               @ LDR         R1, [PC, #-1052]            @ 0x0000000000000948 
    /*00000d60*/ ADD         R1, PC, R1 
    /*00000d64*/ LDR         R3, [R1, #8] 
    /*00000d68*/ CMP         R3, #0 
    /*00000d6c*/ BEQ         _ZL12forwardGroupPvP28hiRUNTIME_GROUP_BLOB_ARRAY_SS1_yyPFi35hiRUNTIME_FORWARD_STATUS_CALLBACK_ES_yS1_E_xeb4
    /*00000d70*/ LDR         R0, [SP, #44]               @ 0x2c 
    /*00000d74*/ ADD         R1, R1, #4 
    _ZL12forwardGroupPvP28hiRUNTIME_GROUP_BLOB_ARRAY_SS1_yyPFi35hiRUNTIME_FORWARD_STATUS_CALLBACK_ES_yS1_E_xd78:
    /*00000d78*/ LDR         R2, [R3, #16] 
    /*00000d7c*/ CMP         R0, R2 
    /*00000d80*/ MOVLS       R1, R3 
    /*00000d84*/ LDRHI       R3, [R3, #12] 
    /*00000d88*/ LDRLS       R3, [R3, #8] 
    /*00000d8c*/ CMP         R3, #0 
    /*00000d90*/ BNE         _ZL12forwardGroupPvP28hiRUNTIME_GROUP_BLOB_ARRAY_SS1_yyPFi35hiRUNTIME_FORWARD_STATUS_CALLBACK_ES_yS1_E_xd78
    /*00000d94*/ LDR         R3, WORD_094c               @ LDR         R3, [PC, #-1104]            @ 0x000000000000094c 
    /*00000d98*/ ADD         R3, PC, R3 
    /*00000d9c*/ ADD         R3, R3, #4 
    /*00000da0*/ CMP         R1, R3 
    /*00000da4*/ BEQ         _ZL12forwardGroupPvP28hiRUNTIME_GROUP_BLOB_ARRAY_SS1_yyPFi35hiRUNTIME_FORWARD_STATUS_CALLBACK_ES_yS1_E_xeb8
    /*00000da8*/ LDR         R3, [R1, #16] 
    /*00000dac*/ CMP         R0, R3 
    /*00000db0*/ BCC         _ZL12forwardGroupPvP28hiRUNTIME_GROUP_BLOB_ARRAY_SS1_yyPFi35hiRUNTIME_FORWARD_STATUS_CALLBACK_ES_yS1_E_xeb8
    /*00000db4*/ MOV         R5, R1 
    _ZL12forwardGroupPvP28hiRUNTIME_GROUP_BLOB_ARRAY_SS1_yyPFi35hiRUNTIME_FORWARD_STATUS_CALLBACK_ES_yS1_E_xdb8:
    /*00000db8*/ ADD         R1, R5, #24 
    /*00000dbc*/ MOV         R0, R4 
    /*00000dc0*/ BL          _ZSt28_Rb_tree_rebalance_for_erasePSt18_Rb_tree_node_baseRS_
    /*00000dc4*/ BL          _ZdlPv
    /*00000dc8*/ LDR         R1, WORD_0950               @ LDR         R1, [PC, #-1152]            @ 0x0000000000000950 
    /*00000dcc*/ LDR         R2, [R5, #40]               @ 0x28 
    /*00000dd0*/ ADD         R1, PC, R1 
    /*00000dd4*/ SUB         R2, R2, #1 
    /*00000dd8*/ LDR         R3, [R1, #8] 
    /*00000ddc*/ STR         R2, [R5, #40]               @ 0x28 
    /*00000de0*/ CMP         R3, #0 
    /*00000de4*/ BEQ         _ZL12forwardGroupPvP28hiRUNTIME_GROUP_BLOB_ARRAY_SS1_yyPFi35hiRUNTIME_FORWARD_STATUS_CALLBACK_ES_yS1_E_xefc
    /*00000de8*/ LDR         R0, [SP, #44]               @ 0x2c 
    /*00000dec*/ ADD         R1, R1, #4 
    _ZL12forwardGroupPvP28hiRUNTIME_GROUP_BLOB_ARRAY_SS1_yyPFi35hiRUNTIME_FORWARD_STATUS_CALLBACK_ES_yS1_E_xdf0:
    /*00000df0*/ LDR         R2, [R3, #16] 
    /*00000df4*/ CMP         R0, R2 
    /*00000df8*/ MOVLS       R1, R3 
    /*00000dfc*/ LDRHI       R3, [R3, #12] 
    /*00000e00*/ LDRLS       R3, [R3, #8] 
    /*00000e04*/ CMP         R3, #0 
    /*00000e08*/ BNE         _ZL12forwardGroupPvP28hiRUNTIME_GROUP_BLOB_ARRAY_SS1_yyPFi35hiRUNTIME_FORWARD_STATUS_CALLBACK_ES_yS1_E_xdf0
    /*00000e0c*/ LDR         R3, WORD_0954               @ LDR         R3, [PC, #-1216]            @ 0x0000000000000954 
    /*00000e10*/ ADD         R3, PC, R3 
    /*00000e14*/ ADD         R3, R3, #4 
    /*00000e18*/ CMP         R1, R3 
    /*00000e1c*/ BEQ         _ZL12forwardGroupPvP28hiRUNTIME_GROUP_BLOB_ARRAY_SS1_yyPFi35hiRUNTIME_FORWARD_STATUS_CALLBACK_ES_yS1_E_xf00
    /*00000e20*/ LDR         R3, [R1, #16] 
    /*00000e24*/ CMP         R0, R3 
    /*00000e28*/ BCC         _ZL12forwardGroupPvP28hiRUNTIME_GROUP_BLOB_ARRAY_SS1_yyPFi35hiRUNTIME_FORWARD_STATUS_CALLBACK_ES_yS1_E_xf00
    /*00000e2c*/ MOV         R0, R1 
    _ZL12forwardGroupPvP28hiRUNTIME_GROUP_BLOB_ARRAY_SS1_yyPFi35hiRUNTIME_FORWARD_STATUS_CALLBACK_ES_yS1_E_xe30:
    /*00000e30*/ LDR         R3, [R0, #40]               @ 0x28 
    /*00000e34*/ CMP         R3, #0 
    /*00000e38*/ BNE         _ZL12forwardGroupPvP28hiRUNTIME_GROUP_BLOB_ARRAY_SS1_yyPFi35hiRUNTIME_FORWARD_STATUS_CALLBACK_ES_yS1_E_xe4c
    /*00000e3c*/ LDR         R0, WORD_0958               @ LDR         R0, [PC, #-1260]            @ 0x0000000000000958 
    /*00000e40*/ ADD         R1, SP, #44                 @ 0x2c 
    /*00000e44*/ ADD         R0, PC, R0 
    /*00000e48*/ BL          _ZNSt8_Rb_treeIKPvSt4pairIS1_St3mapIy35hiRUNTIME_FORWARD_STATUS_CALLBACK_ESt4lessIyESaIS2_IKyS4_EEEESt10_Select1stISB_ES5_IS1_ESaISB_EE5eraseERS1_
    _ZL12forwardGroupPvP28hiRUNTIME_GROUP_BLOB_ARRAY_SS1_yyPFi35hiRUNTIME_FORWARD_STATUS_CALLBACK_ES_yS1_E_xe4c:
    /*00000e4c*/ CMP         FP, #0 
    /*00000e50*/ BEQ         _ZL12forwardGroupPvP28hiRUNTIME_GROUP_BLOB_ARRAY_SS1_yyPFi35hiRUNTIME_FORWARD_STATUS_CALLBACK_ES_yS1_E_x7e4
    /*00000e54*/ LDR         R0, WORD_095c               @ LDR         R0, [PC, #-1280]            @ 0x000000000000095c 
    /*00000e58*/ MVN         R5, #0 
    /*00000e5c*/ ADD         R0, PC, R0 
    /*00000e60*/ BL          pthread_mutex_unlock
    /*00000e64*/ LDR         R0, [SP, #24] 
    /*00000e68*/ B           _ZL12forwardGroupPvP28hiRUNTIME_GROUP_BLOB_ARRAY_SS1_yyPFi35hiRUNTIME_FORWARD_STATUS_CALLBACK_ES_yS1_E_x170
    _ZL12forwardGroupPvP28hiRUNTIME_GROUP_BLOB_ARRAY_SS1_yyPFi35hiRUNTIME_FORWARD_STATUS_CALLBACK_ES_yS1_E_xe6c:
    /*00000e6c*/ LDR         R2, WORD_0960               @ LDR         R2, [PC, #-1300]            @ 0x0000000000000960 
    /*00000e70*/ ADD         R3, SP, #128                @ 0x80 
    /*00000e74*/ LDR         R0, WORD_0964               @ LDR         R0, [PC, #-1304]            @ 0x0000000000000964 
    /*00000e78*/ MOV         R1, #4 
    /*00000e7c*/ ADD         R2, PC, R2 
    /*00000e80*/ ADD         R0, PC, R0 
    /*00000e84*/ STR         R3, [SP, #24] 
    /*00000e88*/ BL          _Z15HIRT_LOG_PrintfPKc19tagHIRT_LOG_LEVEL_ES0_z
    /*00000e8c*/ B           _ZL12forwardGroupPvP28hiRUNTIME_GROUP_BLOB_ARRAY_SS1_yyPFi35hiRUNTIME_FORWARD_STATUS_CALLBACK_ES_yS1_E_x7dc
    _ZL12forwardGroupPvP28hiRUNTIME_GROUP_BLOB_ARRAY_SS1_yyPFi35hiRUNTIME_FORWARD_STATUS_CALLBACK_ES_yS1_E_xe90:
    /*00000e90*/ LDR         R2, WORD_0968               @ LDR         R2, [PC, #-1328]            @ 0x0000000000000968 
    /*00000e94*/ ADD         R3, SP, #128                @ 0x80 
    /*00000e98*/ LDR         R0, WORD_096c               @ LDR         R0, [PC, #-1332]            @ 0x000000000000096c 
    /*00000e9c*/ MOV         R1, #4 
    /*00000ea0*/ ADD         R2, PC, R2 
    /*00000ea4*/ ADD         R0, PC, R0 
    /*00000ea8*/ STR         R3, [SP, #24] 
    /*00000eac*/ BL          _Z15HIRT_LOG_PrintfPKc19tagHIRT_LOG_LEVEL_ES0_z
    /*00000eb0*/ B           _ZL12forwardGroupPvP28hiRUNTIME_GROUP_BLOB_ARRAY_SS1_yyPFi35hiRUNTIME_FORWARD_STATUS_CALLBACK_ES_yS1_E_x7dc
    _ZL12forwardGroupPvP28hiRUNTIME_GROUP_BLOB_ARRAY_SS1_yyPFi35hiRUNTIME_FORWARD_STATUS_CALLBACK_ES_yS1_E_xeb4:
    /*00000eb4*/ ADD         R1, R1, #4 
    _ZL12forwardGroupPvP28hiRUNTIME_GROUP_BLOB_ARRAY_SS1_yyPFi35hiRUNTIME_FORWARD_STATUS_CALLBACK_ES_yS1_E_xeb8:
    /*00000eb8*/ LDR         R0, WORD_0970               @ LDR         R0, [PC, #-1360]            @ 0x0000000000000970 
    /*00000ebc*/ ADD         R2, SP, #152                @ 0x98 
    /*00000ec0*/ ADD         R3, SP, #44                 @ 0x2c 
    /*00000ec4*/ ADD         R0, PC, R0 
    /*00000ec8*/ STR         R3, [R2, #-52]!             @ 0xffffffcc 
    /*00000ecc*/ BL          _ZNSt8_Rb_treeIKPvSt4pairIS1_St3mapIy35hiRUNTIME_FORWARD_STATUS_CALLBACK_ESt4lessIyESaIS2_IKyS4_EEEESt10_Select1stISB_ES5_IS1_ESaISB_EE22_M_emplace_hint_uniqueIJRKSt21piecewise_construct_tSt5tupleIJRS1_EESL_IJEEEEESt17_Rb_tree_iteratorISB_ESt23_Rb_tree_const_iteratorISB_EDpOT_.isra.163
    /*00000ed0*/ MOV         R5, R0 
    /*00000ed4*/ B           _ZL12forwardGroupPvP28hiRUNTIME_GROUP_BLOB_ARRAY_SS1_yyPFi35hiRUNTIME_FORWARD_STATUS_CALLBACK_ES_yS1_E_xdb8
    _ZL12forwardGroupPvP28hiRUNTIME_GROUP_BLOB_ARRAY_SS1_yyPFi35hiRUNTIME_FORWARD_STATUS_CALLBACK_ES_yS1_E_xed8:
    /*00000ed8*/ ADD         R1, R1, #4 
    _ZL12forwardGroupPvP28hiRUNTIME_GROUP_BLOB_ARRAY_SS1_yyPFi35hiRUNTIME_FORWARD_STATUS_CALLBACK_ES_yS1_E_xedc:
    /*00000edc*/ LDR         R0, WORD_0974               @ LDR         R0, [PC, #-1392]            @ 0x0000000000000974 
    /*00000ee0*/ ADD         R2, SP, #152                @ 0x98 
    /*00000ee4*/ ADD         R3, SP, #44                 @ 0x2c 
    /*00000ee8*/ ADD         R0, PC, R0 
    /*00000eec*/ STR         R3, [R2, #-68]!             @ 0xffffffbc 
    /*00000ef0*/ BL          _ZNSt8_Rb_treeIKPvSt4pairIS1_St3mapIy35hiRUNTIME_FORWARD_STATUS_CALLBACK_ESt4lessIyESaIS2_IKyS4_EEEESt10_Select1stISB_ES5_IS1_ESaISB_EE22_M_emplace_hint_uniqueIJRKSt21piecewise_construct_tSt5tupleIJRS1_EESL_IJEEEEESt17_Rb_tree_iteratorISB_ESt23_Rb_tree_const_iteratorISB_EDpOT_.isra.163
    /*00000ef4*/ MOV         R6, R0 
    /*00000ef8*/ B           _ZL12forwardGroupPvP28hiRUNTIME_GROUP_BLOB_ARRAY_SS1_yyPFi35hiRUNTIME_FORWARD_STATUS_CALLBACK_ES_yS1_E_xcac
    _ZL12forwardGroupPvP28hiRUNTIME_GROUP_BLOB_ARRAY_SS1_yyPFi35hiRUNTIME_FORWARD_STATUS_CALLBACK_ES_yS1_E_xefc:
    /*00000efc*/ ADD         R1, R1, #4 
    _ZL12forwardGroupPvP28hiRUNTIME_GROUP_BLOB_ARRAY_SS1_yyPFi35hiRUNTIME_FORWARD_STATUS_CALLBACK_ES_yS1_E_xf00:
    /*00000f00*/ LDR         R0, WORD_0978               @ LDR         R0, [PC, #-1424]            @ 0x0000000000000978 
    /*00000f04*/ ADD         R2, SP, #152                @ 0x98 
    /*00000f08*/ ADD         R3, SP, #44                 @ 0x2c 
    /*00000f0c*/ ADD         R0, PC, R0 
    /*00000f10*/ STR         R3, [R2, #-48]!             @ 0xffffffd0 
    /*00000f14*/ BL          _ZNSt8_Rb_treeIKPvSt4pairIS1_St3mapIy35hiRUNTIME_FORWARD_STATUS_CALLBACK_ESt4lessIyESaIS2_IKyS4_EEEESt10_Select1stISB_ES5_IS1_ESaISB_EE22_M_emplace_hint_uniqueIJRKSt21piecewise_construct_tSt5tupleIJRS1_EESL_IJEEEEESt17_Rb_tree_iteratorISB_ESt23_Rb_tree_const_iteratorISB_EDpOT_.isra.163
    /*00000f18*/ B           _ZL12forwardGroupPvP28hiRUNTIME_GROUP_BLOB_ARRAY_SS1_yyPFi35hiRUNTIME_FORWARD_STATUS_CALLBACK_ES_yS1_E_xe30
    _ZL12forwardGroupPvP28hiRUNTIME_GROUP_BLOB_ARRAY_SS1_yyPFi35hiRUNTIME_FORWARD_STATUS_CALLBACK_ES_yS1_E_xf1c:
    /*00000f1c*/ ADD         R1, R1, #4 
    _ZL12forwardGroupPvP28hiRUNTIME_GROUP_BLOB_ARRAY_SS1_yyPFi35hiRUNTIME_FORWARD_STATUS_CALLBACK_ES_yS1_E_xf20:
    /*00000f20*/ LDR         R0, WORD_097c               @ LDR         R0, [PC, #-1452]            @ 0x000000000000097c 
    /*00000f24*/ ADD         R2, SP, #152                @ 0x98 
    /*00000f28*/ ADD         R3, SP, #44                 @ 0x2c 
    /*00000f2c*/ ADD         R0, PC, R0 
    /*00000f30*/ STR         R3, [R2, #-64]!             @ 0xffffffc0 
    /*00000f34*/ BL          _ZNSt8_Rb_treeIKPvSt4pairIS1_St3mapIy35hiRUNTIME_FORWARD_STATUS_CALLBACK_ESt4lessIyESaIS2_IKyS4_EEEESt10_Select1stISB_ES5_IS1_ESaISB_EE22_M_emplace_hint_uniqueIJRKSt21piecewise_construct_tSt5tupleIJRS1_EESL_IJEEEEESt17_Rb_tree_iteratorISB_ESt23_Rb_tree_const_iteratorISB_EDpOT_.isra.163
    /*00000f38*/ B           _ZL12forwardGroupPvP28hiRUNTIME_GROUP_BLOB_ARRAY_SS1_yyPFi35hiRUNTIME_FORWARD_STATUS_CALLBACK_ES_yS1_E_xd24
    _ZL12forwardGroupPvP28hiRUNTIME_GROUP_BLOB_ARRAY_SS1_yyPFi35hiRUNTIME_FORWARD_STATUS_CALLBACK_ES_yS1_E_xf3c:
    /*00000f3c*/ ADD         R3, SP, #152                @ 0x98 
    /*00000f40*/ ADD         R1, SP, #216                @ 0xd8 
    /*00000f44*/ STR         R1, [R3, #-92]!             @ 0xffffffa4 
    /*00000f48*/ ADD         R1, SP, #128                @ 0x80 
    /*00000f4c*/ STR         R1, [SP, #24] 
    /*00000f50*/ MOV         R0, R1 
    /*00000f54*/ BL          _ZNSt8_Rb_treeIySt4pairIKy35hiRUNTIME_FORWARD_STATUS_CALLBACK_EESt10_Select1stIS3_ESt4lessIyESaIS3_EE22_M_emplace_hint_uniqueIJRKSt21piecewise_construct_tSt5tupleIJRS1_EESE_IJEEEEESt17_Rb_tree_iteratorIS3_ESt23_Rb_tree_const_iteratorIS3_EDpOT_.isra.168
    /*00000f58*/ LDR         R3, WORD_0980               @ LDR         R3, [PC, #-1504]            @ 0x0000000000000980 
    /*00000f5c*/ ADD         R3, PC, R3 
    /*00000f60*/ LDR         IP, [R3, #8] 
    /*00000f64*/ B           _ZL12forwardGroupPvP28hiRUNTIME_GROUP_BLOB_ARRAY_SS1_yyPFi35hiRUNTIME_FORWARD_STATUS_CALLBACK_ES_yS1_E_x30c
    _ZL12forwardGroupPvP28hiRUNTIME_GROUP_BLOB_ARRAY_SS1_yyPFi35hiRUNTIME_FORWARD_STATUS_CALLBACK_ES_yS1_E_xf68:
    /*00000f68*/ LDR         R1, WORD_0984               @ LDR         R1, [PC, #-1516]            @ 0x0000000000000984 
    /*00000f6c*/ ADD         R1, PC, R1 
    /*00000f70*/ ADD         R1, R1, #4 
    _ZL12forwardGroupPvP28hiRUNTIME_GROUP_BLOB_ARRAY_SS1_yyPFi35hiRUNTIME_FORWARD_STATUS_CALLBACK_ES_yS1_E_xf74:
    /*00000f74*/ LDR         R0, WORD_0988               @ LDR         R0, [PC, #-1524]            @ 0x0000000000000988 
    /*00000f78*/ ADD         R2, SP, #152                @ 0x98 
    /*00000f7c*/ ADD         R3, SP, #44                 @ 0x2c 
    /*00000f80*/ ADD         R0, PC, R0 
    /*00000f84*/ STR         R3, [R2, #-88]!             @ 0xffffffa8 
    /*00000f88*/ BL          _ZNSt8_Rb_treeIKPvSt4pairIS1_St3mapIy35hiRUNTIME_FORWARD_STATUS_CALLBACK_ESt4lessIyESaIS2_IKyS4_EEEESt10_Select1stISB_ES5_IS1_ESaISB_EE22_M_emplace_hint_uniqueIJRKSt21piecewise_construct_tSt5tupleIJRS1_EESL_IJEEEEESt17_Rb_tree_iteratorISB_ESt23_Rb_tree_const_iteratorISB_EDpOT_.isra.163
    /*00000f8c*/ MOV         R6, R0 
    /*00000f90*/ B           _ZL12forwardGroupPvP28hiRUNTIME_GROUP_BLOB_ARRAY_SS1_yyPFi35hiRUNTIME_FORWARD_STATUS_CALLBACK_ES_yS1_E_x370
    _ZL12forwardGroupPvP28hiRUNTIME_GROUP_BLOB_ARRAY_SS1_yyPFi35hiRUNTIME_FORWARD_STATUS_CALLBACK_ES_yS1_E_xf94:
    /*00000f94*/ LDR         R3, [R6] 
    /*00000f98*/ ADD         R2, SP, #128                @ 0x80 
    /*00000f9c*/ STR         R2, [SP, #24] 
    /*00000fa0*/ MOV         R0, R6 
    /*00000fa4*/ LDR         R3, [R3, #8] 
    /*00000fa8*/ MVN         R5, #0 
    /*00000fac*/ BLX         R3 
    /*00000fb0*/ LDR         R0, [SP, #24] 
    /*00000fb4*/ B           _ZL12forwardGroupPvP28hiRUNTIME_GROUP_BLOB_ARRAY_SS1_yyPFi35hiRUNTIME_FORWARD_STATUS_CALLBACK_ES_yS1_E_x170
    _ZL12forwardGroupPvP28hiRUNTIME_GROUP_BLOB_ARRAY_SS1_yyPFi35hiRUNTIME_FORWARD_STATUS_CALLBACK_ES_yS1_E_xfb8:
    /*00000fb8*/ LDR         R3, [SL] 
    /*00000fbc*/ MOV         R0, SL 
    /*00000fc0*/ MVN         R5, #0 
    /*00000fc4*/ LDR         R3, [R3, #8] 
    /*00000fc8*/ BLX         R3 
    /*00000fcc*/ LDR         R0, [SP, #24] 
    /*00000fd0*/ B           _ZL12forwardGroupPvP28hiRUNTIME_GROUP_BLOB_ARRAY_SS1_yyPFi35hiRUNTIME_FORWARD_STATUS_CALLBACK_ES_yS1_E_x170
    _ZL12forwardGroupPvP28hiRUNTIME_GROUP_BLOB_ARRAY_SS1_yyPFi35hiRUNTIME_FORWARD_STATUS_CALLBACK_ES_yS1_E_xfd4:
    /*00000fd4*/ LDR         R1, [SP, #136]              @ 0x88 
    /*00000fd8*/ LDR         R0, [SP, #24] 
    /*00000fdc*/ BL          _ZNSt8_Rb_treeIySt4pairIKy35hiRUNTIME_FORWARD_STATUS_CALLBACK_EESt10_Select1stIS3_ESt4lessIyESaIS3_EE8_M_eraseEPSt13_Rb_tree_nodeIS3_E
    /*00000fe0*/ BL          __cxa_end_cleanup
    /*00000fe4*/ CMP         FP, #0 
    /*00000fe8*/ ADDEQ       R3, SP, #128                @ 0x80 
    /*00000fec*/ STREQ       R3, [SP, #24] 
    /*00000ff0*/ BEQ         _ZL12forwardGroupPvP28hiRUNTIME_GROUP_BLOB_ARRAY_SS1_yyPFi35hiRUNTIME_FORWARD_STATUS_CALLBACK_ES_yS1_E_xfd4
    /*00000ff4*/ LDR         R0, WORD_098c               @ LDR         R0, [PC, #-1648]            @ 0x000000000000098c 
    /*00000ff8*/ ADD         R3, SP, #128                @ 0x80 
    /*00000ffc*/ STR         R3, [SP, #24] 
    /*00001000*/ ADD         R0, PC, R0 
    /*00001004*/ BL          pthread_mutex_unlock
    /*00001008*/ B           _ZL12forwardGroupPvP28hiRUNTIME_GROUP_BLOB_ARRAY_SS1_yyPFi35hiRUNTIME_FORWARD_STATUS_CALLBACK_ES_yS1_E_xfd4
    _ZL12forwardGroupPvP28hiRUNTIME_GROUP_BLOB_ARRAY_SS1_yyPFi35hiRUNTIME_FORWARD_STATUS_CALLBACK_ES_yS1_E_x100c:
    /*0000100c*/ ADD         R3, SP, #128                @ 0x80 
    /*00001010*/ STR         R3, [SP, #24] 
    /*00001014*/ BL          _ZSt20__throw_system_errori
    _ZL12forwardGroupPvP28hiRUNTIME_GROUP_BLOB_ARRAY_SS1_yyPFi35hiRUNTIME_FORWARD_STATUS_CALLBACK_ES_yS1_E_x1018:
    /*00001018*/ ADD         R3, SP, #128                @ 0x80 
    /*0000101c*/ STR         R3, [SP, #24] 
    /*00001020*/ BL          _ZSt20__throw_system_errori
    /*00001024*/ LDR         R1, [SP, #116]              @ 0x74 
    /*00001028*/ LDR         R0, [SP, #124]              @ 0x7c 
    /*0000102c*/ BL          _ZNSt8_Rb_treeIySt4pairIKy35hiRUNTIME_FORWARD_STATUS_CALLBACK_EESt10_Select1stIS3_ESt4lessIyESaIS3_EE8_M_eraseEPSt13_Rb_tree_nodeIS3_E
    /*00001030*/ B           _ZL12forwardGroupPvP28hiRUNTIME_GROUP_BLOB_ARRAY_SS1_yyPFi35hiRUNTIME_FORWARD_STATUS_CALLBACK_ES_yS1_E_xfd4
    /*00001034*/ LDRB        R3, [SP, #120]              @ 0x78 
    /*00001038*/ CMP         R3, #0 
    /*0000103c*/ BEQ         _ZL12forwardGroupPvP28hiRUNTIME_GROUP_BLOB_ARRAY_SS1_yyPFi35hiRUNTIME_FORWARD_STATUS_CALLBACK_ES_yS1_E_xfd4
    /*00001040*/ ADD         R0, SP, #116                @ 0x74 
    /*00001044*/ BL          _ZNSt11unique_lockISt5mutexE6unlockEv
    /*00001048*/ B           _ZL12forwardGroupPvP28hiRUNTIME_GROUP_BLOB_ARRAY_SS1_yyPFi35hiRUNTIME_FORWARD_STATUS_CALLBACK_ES_yS1_E_xfd4
    _ZL12forwardGroupPvP28hiRUNTIME_GROUP_BLOB_ARRAY_SS1_yyPFi35hiRUNTIME_FORWARD_STATUS_CALLBACK_ES_yS1_E_x104c:
    /*0000104c*/ BL          _ZSt20__throw_system_errori
    _ZL12forwardGroupPvP28hiRUNTIME_GROUP_BLOB_ARRAY_SS1_yyPFi35hiRUNTIME_FORWARD_STATUS_CALLBACK_ES_yS1_E_x1050:
    /*00001050*/ BL          _ZSt20__throw_system_errori
    _ZL12forwardGroupPvP28hiRUNTIME_GROUP_BLOB_ARRAY_SS1_yyPFi35hiRUNTIME_FORWARD_STATUS_CALLBACK_ES_yS1_E_x1054:
    /*00001054*/ BL          _ZSt20__throw_system_errori
FUNC_END _ZL12forwardGroupPvP28hiRUNTIME_GROUP_BLOB_ARRAY_SS1_yyPFi35hiRUNTIME_FORWARD_STATUS_CALLBACK_ES_yS1_E


@ - - - - - - - - - - - - - - - - - - - - - - - - - - - - - 
@ .ARM.extab.text._ZL12forwardGroupPvP28hiRUNTIME_GROUP_BLOB_ARRAY_SS1_yyPFi35hiRUNTIME_FORWARD_STATUS_CALLBACK_ES_yS1_E
@ Size: 0x47
@ - - - - - - - - - - - - - - - - - - - - - - - - - - - - - 

@ - - - - - - - - - - - - - - - - - - - - - - - - - - - - - 
@ .text.HI_SVPRT_RUNTIME_ForwardGroupSync
@ Size: 0x224
@ - - - - - - - - - - - - - - - - - - - - - - - - - - - - - 

FUNC_BEGIN HI_SVPRT_RUNTIME_ForwardGroupSync
    /*00000000*/ MOV         IP, #16384                  @ 0x4000 
    /*00000004*/ PUSH        {R4, R5, R6, R7, R8, R9, LR} 
    /*00000008*/ SUB         IP, SP, IP 
    /*0000000c*/ STR         R0, [IP, #4040]             @ 0xfc8 
    /*00000010*/ CMP         R2, #0 
    /*00000014*/ CMPNE       R1, #0 
    /*00000018*/ MOV         R8, R0 
    /*0000001c*/ LDR         R0, WORD_01f0               @ LDR         R0, [PC, #460]              @ 0x00000000000001f0 
    /*00000020*/ SUB         SP, SP, #28 
    /*00000024*/ ADD         R0, PC, R0 
    /*00000028*/ BEQ         HI_SVPRT_RUNTIME_ForwardGroupSync_x1b8
    /*0000002c*/ LDR         R3, [R1] 
    /*00000030*/ MOV         R6, R1 
    /*00000034*/ CMP         R3, #0 
    /*00000038*/ BEQ         HI_SVPRT_RUNTIME_ForwardGroupSync_x148
    /*0000003c*/ MOV         R7, R2 
    /*00000040*/ LDR         R2, [R2] 
    /*00000044*/ CMP         R2, #0 
    /*00000048*/ BEQ         HI_SVPRT_RUNTIME_ForwardGroupSync_x148
    /*0000004c*/ CMP         R2, #1000                   @ 0x3e8 
    /*00000050*/ CMPLS       R3, #1000                   @ 0x3e8 
    /*00000054*/ BHI         HI_SVPRT_RUNTIME_ForwardGroupSync_x16c
    /*00000058*/ LDR         R3, [R1, #4] 
    /*0000005c*/ CMP         R3, #0 
    /*00000060*/ BEQ         HI_SVPRT_RUNTIME_ForwardGroupSync_x194
    /*00000064*/ LDR         R3, [R7, #4] 
    /*00000068*/ CMP         R3, #0 
    /*0000006c*/ BEQ         HI_SVPRT_RUNTIME_ForwardGroupSync_x194
    /*00000070*/ LDR         R3, WORD_01f4               @ LDR         R3, [PC, #380]              @ 0x00000000000001f4 
    /*00000074*/ LDR         R3, [R0, R3] 
    /*00000078*/ CMP         R3, #0 
    /*0000007c*/ BEQ         HI_SVPRT_RUNTIME_ForwardGroupSync_xf8
    /*00000080*/ LDR         R9, WORD_01f8               @ LDR         R9, [PC, #368]              @ 0x00000000000001f8 
    /*00000084*/ ADD         R9, PC, R9 
    /*00000088*/ ADD         R0, R9, #8 
    /*0000008c*/ BL          pthread_mutex_lock
    /*00000090*/ CMP         R0, #0 
    /*00000094*/ BNE         HI_SVPRT_RUNTIME_ForwardGroupSync_x1dc
    /*00000098*/ LDRD        R4, [R9] 
    /*0000009c*/ MOV         R3, #0 
    /*000000a0*/ MVN         R2, #-2147483647            @ 0x80000001 
    /*000000a4*/ CMP         R5, R3 
    /*000000a8*/ CMPEQ       R4, R2 
    /*000000ac*/ BHI         HI_SVPRT_RUNTIME_ForwardGroupSync_x130
    /*000000b0*/ ADDS        R4, R4, #1 
    /*000000b4*/ ADC         R5, R5, #0 
    /*000000b8*/ STRD        R4, [R9] 
    HI_SVPRT_RUNTIME_ForwardGroupSync_xbc:
    /*000000bc*/ LDR         R0, WORD_01fc               @ LDR         R0, [PC, #312]              @ 0x00000000000001fc 
    /*000000c0*/ ADD         R0, PC, R0 
    /*000000c4*/ ADD         R0, R0, #8 
    /*000000c8*/ BL          pthread_mutex_unlock
    HI_SVPRT_RUNTIME_ForwardGroupSync_xcc:
    /*000000cc*/ LDRD        R0, [SP, #56]               @ 0x38 
    /*000000d0*/ MOV         R3, #0 
    /*000000d4*/ MOV         R2, R7 
    /*000000d8*/ STRD        R0, [SP] 
    /*000000dc*/ STRD        R4, [SP, #8] 
    /*000000e0*/ STR         R3, [SP, #16] 
    /*000000e4*/ MOV         R1, R6 
    /*000000e8*/ MOV         R0, R8 
    /*000000ec*/ BL          _ZL12forwardGroupPvP28hiRUNTIME_GROUP_BLOB_ARRAY_SS1_yyPFi35hiRUNTIME_FORWARD_STATUS_CALLBACK_ES_yS1_E
    HI_SVPRT_RUNTIME_ForwardGroupSync_xf0:
    /*000000f0*/ ADD         SP, SP, #28 
    /*000000f4*/ POP         {R4, R5, R6, R7, R8, R9, PC} 
    HI_SVPRT_RUNTIME_ForwardGroupSync_xf8:
    /*000000f8*/ LDR         R3, WORD_0200               @ LDR         R3, [PC, #256]              @ 0x0000000000000200 
    /*000000fc*/ MOV         R1, #0 
    /*00000100*/ MVN         R0, #-2147483647            @ 0x80000001 
    /*00000104*/ ADD         R3, PC, R3 
    /*00000108*/ LDRD        R4, [R3] 
    /*0000010c*/ CMP         R5, R1 
    /*00000110*/ CMPEQ       R4, R0 
    /*00000114*/ BLS         HI_SVPRT_RUNTIME_ForwardGroupSync_x1e0
    /*00000118*/ MOV         R1, #0 
    /*0000011c*/ STR         R1, [R3] 
    /*00000120*/ MOV         R4, R1 
    /*00000124*/ STR         R1, [R3, #4] 
    /*00000128*/ MOV         R5, R1 
    /*0000012c*/ B           HI_SVPRT_RUNTIME_ForwardGroupSync_xcc
    HI_SVPRT_RUNTIME_ForwardGroupSync_x130:
    /*00000130*/ MOV         R2, #0 
    /*00000134*/ STR         R2, [R9] 
    /*00000138*/ MOV         R4, R2 
    /*0000013c*/ STR         R2, [R9, #4] 
    /*00000140*/ MOV         R5, R2 
    /*00000144*/ B           HI_SVPRT_RUNTIME_ForwardGroupSync_xbc
    HI_SVPRT_RUNTIME_ForwardGroupSync_x148:
    /*00000148*/ LDR         R2, WORD_0204               @ LDR         R2, [PC, #180]              @ 0x0000000000000204 
    /*0000014c*/ MOV         R1, #4 
    /*00000150*/ LDR         R0, WORD_0208               @ LDR         R0, [PC, #176]              @ 0x0000000000000208 
    /*00000154*/ ADD         R2, PC, R2 
    /*00000158*/ ADD         R0, PC, R0 
    /*0000015c*/ BL          _Z15HIRT_LOG_PrintfPKc19tagHIRT_LOG_LEVEL_ES0_z
    /*00000160*/ MOVW        R0, #3844                   @ 0xf04 
    /*00000164*/ MOVT        R0, #65280                  @ 0xff00 
    /*00000168*/ B           HI_SVPRT_RUNTIME_ForwardGroupSync_xf0
    HI_SVPRT_RUNTIME_ForwardGroupSync_x16c:
    /*0000016c*/ LDR         R2, WORD_020c               @ LDR         R2, [PC, #152]              @ 0x000000000000020c 
    /*00000170*/ MOV         R3, #1000                   @ 0x3e8 
    /*00000174*/ LDR         R0, WORD_0210               @ LDR         R0, [PC, #148]              @ 0x0000000000000210 
    /*00000178*/ MOV         R1, #4 
    /*0000017c*/ ADD         R2, PC, R2 
    /*00000180*/ ADD         R0, PC, R0 
    /*00000184*/ BL          _Z15HIRT_LOG_PrintfPKc19tagHIRT_LOG_LEVEL_ES0_z
    /*00000188*/ MOVW        R0, #3844                   @ 0xf04 
    /*0000018c*/ MOVT        R0, #65280                  @ 0xff00 
    /*00000190*/ B           HI_SVPRT_RUNTIME_ForwardGroupSync_xf0
    HI_SVPRT_RUNTIME_ForwardGroupSync_x194:
    /*00000194*/ LDR         R2, WORD_0214               @ LDR         R2, [PC, #120]              @ 0x0000000000000214 
    /*00000198*/ MOV         R1, #4 
    /*0000019c*/ LDR         R0, WORD_0218               @ LDR         R0, [PC, #116]              @ 0x0000000000000218 
    /*000001a0*/ ADD         R2, PC, R2 
    /*000001a4*/ ADD         R0, PC, R0 
    /*000001a8*/ BL          _Z15HIRT_LOG_PrintfPKc19tagHIRT_LOG_LEVEL_ES0_z
    /*000001ac*/ MOVW        R0, #3844                   @ 0xf04 
    /*000001b0*/ MOVT        R0, #65280                  @ 0xff00 
    /*000001b4*/ B           HI_SVPRT_RUNTIME_ForwardGroupSync_xf0
    HI_SVPRT_RUNTIME_ForwardGroupSync_x1b8:
    /*000001b8*/ LDR         R2, WORD_021c               @ LDR         R2, [PC, #92]               @ 0x000000000000021c 
    /*000001bc*/ MOV         R1, #4 
    /*000001c0*/ LDR         R0, WORD_0220               @ LDR         R0, [PC, #88]               @ 0x0000000000000220 
    /*000001c4*/ ADD         R2, PC, R2 
    /*000001c8*/ ADD         R0, PC, R0 
    /*000001cc*/ BL          _Z15HIRT_LOG_PrintfPKc19tagHIRT_LOG_LEVEL_ES0_z
    /*000001d0*/ MOVW        R0, #3843                   @ 0xf03 
    /*000001d4*/ MOVT        R0, #65280                  @ 0xff00 
    /*000001d8*/ B           HI_SVPRT_RUNTIME_ForwardGroupSync_xf0
    HI_SVPRT_RUNTIME_ForwardGroupSync_x1dc:
    /*000001dc*/ BL          _ZSt20__throw_system_errori
    HI_SVPRT_RUNTIME_ForwardGroupSync_x1e0:
    /*000001e0*/ ADDS        R4, R4, #1 
    /*000001e4*/ ADC         R5, R5, #0 
    /*000001e8*/ STRD        R4, [R3] 
    /*000001ec*/ B           HI_SVPRT_RUNTIME_ForwardGroupSync_xcc
    /*000001f0*/ WORD_01f0: .word 0x000001c4
    /*000001f4*/ WORD_01f4: .word 0x00000000
    /*000001f8*/ WORD_01f8: .word 0x0000016c
    /*000001fc*/ WORD_01fc: .word 0x00000134
    /*00000200*/ WORD_0200: .word 0x000000f4
    /*00000204*/ WORD_0204: .word 0x000000a8
    /*00000208*/ WORD_0208: .word 0x000000a8
    /*0000020c*/ WORD_020c: .word 0x00000088
    /*00000210*/ WORD_0210: .word 0x00000088
    /*00000214*/ WORD_0214: .word 0x0000006c
    /*00000218*/ WORD_0218: .word 0x0000006c
    /*0000021c*/ WORD_021c: .word 0x00000050
    /*00000220*/ WORD_0220: .word 0x00000050
FUNC_END HI_SVPRT_RUNTIME_ForwardGroupSync


@ - - - - - - - - - - - - - - - - - - - - - - - - - - - - - 
@ .text.HI_SVPRT_RUNTIME_ForwardGroupASync
@ Size: 0x108
@ - - - - - - - - - - - - - - - - - - - - - - - - - - - - - 

FUNC_BEGIN HI_SVPRT_RUNTIME_ForwardGroupASync
    /*00000000*/ MOV         IP, #16384                  @ 0x4000 
    /*00000004*/ PUSH        {R4, R6, R7, LR} 
    /*00000008*/ SUB         IP, SP, IP 
    /*0000000c*/ STR         R0, [IP, #4056]             @ 0xfd8 
    /*00000010*/ SUB         SP, SP, #24 
    /*00000014*/ LDR         IP, [SP, #48]               @ 0x30 
    /*00000018*/ LDRD        R6, [SP, #40]               @ 0x28 
    /*0000001c*/ CMP         IP, #0 
    /*00000020*/ CMPNE       R2, #0 
    /*00000024*/ MOVEQ       R3, #1 
    /*00000028*/ MOVNE       R3, #0 
    /*0000002c*/ CMP         R1, #0 
    /*00000030*/ ORREQ       R3, R3, #1 
    /*00000034*/ CMP         R3, #0 
    /*00000038*/ BNE         HI_SVPRT_RUNTIME_ForwardGroupASync_xa8
    /*0000003c*/ LDR         R3, [R1] 
    /*00000040*/ CMP         R3, #0 
    /*00000044*/ BEQ         HI_SVPRT_RUNTIME_ForwardGroupASync_x84
    /*00000048*/ LDR         R3, [R2] 
    /*0000004c*/ CMP         R3, #0 
    /*00000050*/ BEQ         HI_SVPRT_RUNTIME_ForwardGroupASync_x84
    /*00000054*/ LDR         R3, [R1, #4] 
    /*00000058*/ CMP         R3, #0 
    /*0000005c*/ BEQ         HI_SVPRT_RUNTIME_ForwardGroupASync_xcc
    /*00000060*/ LDR         R3, [R2, #4] 
    /*00000064*/ CMP         R3, #0 
    /*00000068*/ BEQ         HI_SVPRT_RUNTIME_ForwardGroupASync_xcc
    /*0000006c*/ STR         IP, [SP, #16] 
    /*00000070*/ STRD        R6, [SP, #8] 
    /*00000074*/ STRD        R6, [SP] 
    /*00000078*/ BL          _ZL12forwardGroupPvP28hiRUNTIME_GROUP_BLOB_ARRAY_SS1_yyPFi35hiRUNTIME_FORWARD_STATUS_CALLBACK_ES_yS1_E
    HI_SVPRT_RUNTIME_ForwardGroupASync_x7c:
    /*0000007c*/ ADD         SP, SP, #24 
    /*00000080*/ POP         {R4, R6, R7, PC} 
    HI_SVPRT_RUNTIME_ForwardGroupASync_x84:
    /*00000084*/ LDR         R2, WORD_00f0               @ LDR         R2, [PC, #100]              @ 0x00000000000000f0 
    /*00000088*/ MOV         R1, #4 
    /*0000008c*/ LDR         R0, WORD_00f4               @ LDR         R0, [PC, #96]               @ 0x00000000000000f4 
    /*00000090*/ ADD         R2, PC, R2 
    /*00000094*/ ADD         R0, PC, R0 
    /*00000098*/ BL          _Z15HIRT_LOG_PrintfPKc19tagHIRT_LOG_LEVEL_ES0_z
    /*0000009c*/ MOVW        R0, #3844                   @ 0xf04 
    /*000000a0*/ MOVT        R0, #65280                  @ 0xff00 
    /*000000a4*/ B           HI_SVPRT_RUNTIME_ForwardGroupASync_x7c
    HI_SVPRT_RUNTIME_ForwardGroupASync_xa8:
    /*000000a8*/ LDR         R2, WORD_00f8               @ LDR         R2, [PC, #72]               @ 0x00000000000000f8 
    /*000000ac*/ MOV         R1, #4 
    /*000000b0*/ LDR         R0, WORD_00fc               @ LDR         R0, [PC, #68]               @ 0x00000000000000fc 
    /*000000b4*/ ADD         R2, PC, R2 
    /*000000b8*/ ADD         R0, PC, R0 
    /*000000bc*/ BL          _Z15HIRT_LOG_PrintfPKc19tagHIRT_LOG_LEVEL_ES0_z
    /*000000c0*/ MOVW        R0, #3843                   @ 0xf03 
    /*000000c4*/ MOVT        R0, #65280                  @ 0xff00 
    /*000000c8*/ B           HI_SVPRT_RUNTIME_ForwardGroupASync_x7c
    HI_SVPRT_RUNTIME_ForwardGroupASync_xcc:
    /*000000cc*/ LDR         R2, WORD_0100               @ LDR         R2, [PC, #44]               @ 0x0000000000000100 
    /*000000d0*/ MOV         R1, #4 
    /*000000d4*/ LDR         R0, WORD_0104               @ LDR         R0, [PC, #40]               @ 0x0000000000000104 
    /*000000d8*/ ADD         R2, PC, R2 
    /*000000dc*/ ADD         R0, PC, R0 
    /*000000e0*/ BL          _Z15HIRT_LOG_PrintfPKc19tagHIRT_LOG_LEVEL_ES0_z
    /*000000e4*/ MOVW        R0, #3844                   @ 0xf04 
    /*000000e8*/ MOVT        R0, #65280                  @ 0xff00 
    /*000000ec*/ B           HI_SVPRT_RUNTIME_ForwardGroupASync_x7c
    /*000000f0*/ WORD_00f0: .word 0x00000058
    /*000000f4*/ WORD_00f4: .word 0x00000058
    /*000000f8*/ WORD_00f8: .word 0x0000003c
    /*000000fc*/ WORD_00fc: .word 0x0000003c
    /*00000100*/ WORD_0100: .word 0x00000020
    /*00000104*/ WORD_0104: .word 0x00000020
FUNC_END HI_SVPRT_RUNTIME_ForwardGroupASync


@ - - - - - - - - - - - - - - - - - - - - - - - - - - - - - 
@ .text.startup._GLOBAL__sub_I_hi_runtime_api.cpp
@ Size: 0x36c
@ - - - - - - - - - - - - - - - - - - - - - - - - - - - - - 

FUNC_BEGIN _GLOBAL__sub_I_hi_runtime_api.cpp
    /*00000000*/ MOV         IP, #16384                  @ 0x4000 
    /*00000004*/ PUSH        {R4, R5, R6, R7, R8, R9, SL, FP, LR} 
    /*00000008*/ VPUSH       {D8-D9} 
    /*0000000c*/ SUB         IP, SP, IP 
    /*00000010*/ STR         R0, [IP, #4032]             @ 0xfc0 
    /*00000014*/ LDR         R6, WORD_02fc               @ LDR         R6, [PC, #736]              @ 0x00000000000002fc 
    /*00000018*/ SUB         SP, SP, #12 
    /*0000001c*/ LDR         R9, WORD_0300               @ LDR         R9, [PC, #732]              @ 0x0000000000000300 
    /*00000020*/ MOV         R4, #0 
    /*00000024*/ ADD         R6, PC, R6 
    /*00000028*/ MOV         R7, R4 
    /*0000002c*/ ADD         R9, PC, R9 
    /*00000030*/ MOV         R0, R6 
    /*00000034*/ LDR         R5, WORD_0304               @ LDR         R5, [PC, #712]              @ 0x0000000000000304 
    /*00000038*/ BL          _ZNSt8ios_base4InitC1Ev
    /*0000003c*/ LDR         R3, WORD_0308               @ LDR         R3, [PC, #708]              @ 0x0000000000000308 
    /*00000040*/ MOV         R0, R6 
    /*00000044*/ ADD         R5, PC, R5 
    /*00000048*/ LDR         R1, [R9, R3] 
    /*0000004c*/ MOV         R2, R5 
    /*00000050*/ LDR         R3, WORD_030c               @ LDR         R3, [PC, #692]              @ 0x000000000000030c 
    /*00000054*/ VMOV.I32    Q4, #0                      @ 0x00000000 
    /*00000058*/ ADD         R3, PC, R3 
    /*0000005c*/ STR         R3, [SP, #4] 
    /*00000060*/ BL          __aeabi_atexit
    /*00000064*/ LDR         R0, WORD_0310               @ LDR         R0, [PC, #676]              @ 0x0000000000000310 
    /*00000068*/ MOV         R2, R5 
    /*0000006c*/ LDR         SL, WORD_0314               @ LDR         SL, [PC, #672]              @ 0x0000000000000314 
    /*00000070*/ ADD         R0, PC, R0 
    /*00000074*/ ADD         SL, PC, SL 
    /*00000078*/ ADD         R3, R0, #4 
    /*0000007c*/ STR         R4, [R0, #20] 
    /*00000080*/ VST1.8      {D8-D9}, [R3] 
    /*00000084*/ STR         R3, [R0, #12] 
    /*00000088*/ STR         R3, [R0, #16] 
    /*0000008c*/ LDR         R3, WORD_0318               @ LDR         R3, [PC, #644]              @ 0x0000000000000318 
    /*00000090*/ LDR         R8, WORD_031c               @ LDR         R8, [PC, #644]              @ 0x000000000000031c 
    /*00000094*/ LDR         R1, [R9, R3] 
    /*00000098*/ LDR         R6, WORD_0320               @ LDR         R6, [PC, #640]              @ 0x0000000000000320 
    /*0000009c*/ BL          __aeabi_atexit
    /*000000a0*/ ADD         R8, PC, R8 
    /*000000a4*/ MOV         R0, SL 
    /*000000a8*/ ADD         R6, PC, R6 
    /*000000ac*/ BL          _ZNSt18condition_variableC1Ev
    /*000000b0*/ LDR         R3, WORD_0324               @ LDR         R3, [PC, #620]              @ 0x0000000000000324 
    /*000000b4*/ MOV         R2, R5 
    /*000000b8*/ MOV         R0, SL 
    /*000000bc*/ ADD         FP, R8, #4 
    /*000000c0*/ LDR         R1, [R9, R3] 
    /*000000c4*/ LDR         SL, WORD_0328               @ LDR         SL, [PC, #604]              @ 0x0000000000000328 
    /*000000c8*/ BL          __aeabi_atexit
    /*000000cc*/ LDR         R3, WORD_032c               @ LDR         R3, [PC, #600]              @ 0x000000000000032c 
    /*000000d0*/ MOV         R2, R5 
    /*000000d4*/ LDR         R1, WORD_0330               @ LDR         R1, [PC, #596]              @ 0x0000000000000330 
    /*000000d8*/ ADD         R3, PC, R3 
    /*000000dc*/ ADD         R1, PC, R1 
    /*000000e0*/ MOV         R0, R3 
    /*000000e4*/ STR         R4, [R3] 
    /*000000e8*/ STR         R4, [R3, #4] 
    /*000000ec*/ STR         R4, [R3, #8] 
    /*000000f0*/ ADD         SL, PC, SL 
    /*000000f4*/ BL          __aeabi_atexit
    /*000000f8*/ LDR         R3, WORD_0334               @ LDR         R3, [PC, #564]              @ 0x0000000000000334 
    /*000000fc*/ MOV         R2, R5 
    /*00000100*/ LDR         R1, WORD_0338               @ LDR         R1, [PC, #560]              @ 0x0000000000000338 
    /*00000104*/ ADD         SL, SL, #4 
    /*00000108*/ ADD         R3, PC, R3 
    /*0000010c*/ ADD         R1, PC, R1 
    /*00000110*/ MOV         R0, R3 
    /*00000114*/ STR         R4, [R3] 
    /*00000118*/ STR         R4, [R3, #4] 
    /*0000011c*/ STR         R4, [R3, #8] 
    /*00000120*/ BL          __aeabi_atexit
    /*00000124*/ LDR         R0, WORD_033c               @ LDR         R0, [PC, #528]              @ 0x000000000000033c 
    /*00000128*/ MOV         R2, R5 
    /*0000012c*/ ADD         R0, PC, R0 
    /*00000130*/ ADD         R3, R0, #4 
    /*00000134*/ STR         R4, [R0, #20] 
    /*00000138*/ VST1.8      {D8-D9}, [R3] 
    /*0000013c*/ STR         R3, [R0, #12] 
    /*00000140*/ STR         R3, [R0, #16] 
    /*00000144*/ LDR         R3, WORD_0340               @ LDR         R3, [PC, #500]              @ 0x0000000000000340 
    /*00000148*/ LDR         R1, [R9, R3] 
    /*0000014c*/ BL          __aeabi_atexit
    /*00000150*/ LDR         R0, WORD_0344               @ LDR         R0, [PC, #492]              @ 0x0000000000000344 
    /*00000154*/ MOV         R2, R5 
    /*00000158*/ LDR         R3, WORD_0348               @ LDR         R3, [PC, #488]              @ 0x0000000000000348 
    /*0000015c*/ ADD         R0, PC, R0 
    /*00000160*/ LDR         R5, WORD_034c               @ LDR         R5, [PC, #484]              @ 0x000000000000034c 
    /*00000164*/ ADD         R1, R0, #4 
    /*00000168*/ STR         R4, [R0, #20] 
    /*0000016c*/ VST1.8      {D8-D9}, [R1] 
    /*00000170*/ STR         R1, [R0, #12] 
    /*00000174*/ STR         R1, [R0, #16] 
    /*00000178*/ LDR         R1, [R9, R3] 
    /*0000017c*/ ADD         R5, PC, R5 
    /*00000180*/ BL          __aeabi_atexit
    /*00000184*/ LDR         R3, WORD_0350               @ LDR         R3, [PC, #452]              @ 0x0000000000000350 
    /*00000188*/ ADD         R5, R5, #8 
    /*0000018c*/ ADD         R3, PC, R3 
    /*00000190*/ ADD         R2, R3, #4 
    /*00000194*/ STR         R4, [R3, #20] 
    /*00000198*/ VST1.8      {D8-D9}, [R2] 
    /*0000019c*/ STR         R2, [R3, #12] 
    /*000001a0*/ STR         R2, [R3, #16] 
    /*000001a4*/ B           _GLOBAL__sub_I_hi_runtime_api.cpp_x238
    _GLOBAL__sub_I_hi_runtime_api.cpp_x1a8:
    /*000001a8*/ LDR         R3, WORD_0354               @ LDR         R3, [PC, #420]              @ 0x0000000000000354 
    /*000001ac*/ LDR         R2, [R5, #-8] 
    /*000001b0*/ ADD         R3, PC, R3 
    /*000001b4*/ LDR         R4, [R3, #16] 
    /*000001b8*/ LDR         R3, [R4, #16] 
    /*000001bc*/ CMP         R3, R2 
    /*000001c0*/ BGE         _GLOBAL__sub_I_hi_runtime_api.cpp_x240
    _GLOBAL__sub_I_hi_runtime_api.cpp_x1c4:
    /*000001c4*/ CMP         R4, SL 
    /*000001c8*/ MOVEQ       R7, #1 
    /*000001cc*/ BEQ         _GLOBAL__sub_I_hi_runtime_api.cpp_x1e4
    /*000001d0*/ LDR         R7, [R5, #-8] 
    /*000001d4*/ LDR         R3, [R4, #16] 
    /*000001d8*/ CMP         R7, R3 
    /*000001dc*/ MOVGE       R7, #0 
    /*000001e0*/ MOVLT       R7, #1 
    _GLOBAL__sub_I_hi_runtime_api.cpp_x1e4:
    /*000001e4*/ MOV         R0, #24 
    /*000001e8*/ BL          _Znwj
    /*000001ec*/ MOV         IP, R0 
    /*000001f0*/ ADD         LR, R0, #16 
    /*000001f4*/ LDMDB       R5, {R0, R1} 
    /*000001f8*/ MOV         R2, R4 
    /*000001fc*/ ADD         R3, R6, #4 
    /*00000200*/ STM         LR, {R0, R1} 
    /*00000204*/ MOV         R0, R7 
    /*00000208*/ MOV         R1, IP 
    /*0000020c*/ BL          _ZSt29_Rb_tree_insert_and_rebalancebPSt18_Rb_tree_node_baseS0_RS_
    /*00000210*/ LDR         R7, [R6, #20] 
    /*00000214*/ ADD         R7, R7, #1 
    /*00000218*/ STR         R7, [R6, #20] 
    _GLOBAL__sub_I_hi_runtime_api.cpp_x21c:
    /*0000021c*/ LDR         R3, WORD_0358               @ LDR         R3, [PC, #308]              @ 0x0000000000000358 
    /*00000220*/ ADD         R2, R5, #8 
    /*00000224*/ ADD         R3, PC, R3 
    /*00000228*/ ADD         R3, R3, #40                 @ 0x28 
    /*0000022c*/ CMP         R5, R3 
    /*00000230*/ BEQ         _GLOBAL__sub_I_hi_runtime_api.cpp_x2c0
    /*00000234*/ MOV         R5, R2 
    _GLOBAL__sub_I_hi_runtime_api.cpp_x238:
    /*00000238*/ CMP         R7, #0 
    /*0000023c*/ BNE         _GLOBAL__sub_I_hi_runtime_api.cpp_x1a8
    _GLOBAL__sub_I_hi_runtime_api.cpp_x240:
    /*00000240*/ LDR         R4, [R8, #8] 
    /*00000244*/ CMP         R4, #0 
    /*00000248*/ BEQ         _GLOBAL__sub_I_hi_runtime_api.cpp_x288
    /*0000024c*/ LDR         R2, [R5, #-8] 
    /*00000250*/ B           _GLOBAL__sub_I_hi_runtime_api.cpp_x258
    _GLOBAL__sub_I_hi_runtime_api.cpp_x254:
    /*00000254*/ MOV         R4, R3 
    _GLOBAL__sub_I_hi_runtime_api.cpp_x258:
    /*00000258*/ LDR         R3, [R4, #16] 
    /*0000025c*/ CMP         R3, R2 
    /*00000260*/ MOVGT       R1, #1 
    /*00000264*/ MOVLE       R1, #0 
    /*00000268*/ LDRGT       R3, [R4, #8] 
    /*0000026c*/ LDRLE       R3, [R4, #12] 
    /*00000270*/ CMP         R3, #0 
    /*00000274*/ BNE         _GLOBAL__sub_I_hi_runtime_api.cpp_x254
    /*00000278*/ CMP         R1, #0 
    /*0000027c*/ MOVEQ       R0, R4 
    /*00000280*/ BEQ         _GLOBAL__sub_I_hi_runtime_api.cpp_x2a4
    /*00000284*/ B           _GLOBAL__sub_I_hi_runtime_api.cpp_x28c
    _GLOBAL__sub_I_hi_runtime_api.cpp_x288:
    /*00000288*/ MOV         R4, FP 
    _GLOBAL__sub_I_hi_runtime_api.cpp_x28c:
    /*0000028c*/ LDR         R3, [SP, #4] 
    /*00000290*/ LDR         R3, [R3, #12] 
    /*00000294*/ CMP         R3, R4 
    /*00000298*/ BEQ         _GLOBAL__sub_I_hi_runtime_api.cpp_x1c4
    /*0000029c*/ MOV         R0, R4 
    /*000002a0*/ BL          _ZSt18_Rb_tree_decrementPSt18_Rb_tree_node_base
    _GLOBAL__sub_I_hi_runtime_api.cpp_x2a4:
    /*000002a4*/ LDR         R2, [R0, #16] 
    /*000002a8*/ LDR         R3, [R5, #-8] 
    /*000002ac*/ CMP         R2, R3 
    /*000002b0*/ BGE         _GLOBAL__sub_I_hi_runtime_api.cpp_x21c
    /*000002b4*/ CMP         R4, #0 
    /*000002b8*/ BNE         _GLOBAL__sub_I_hi_runtime_api.cpp_x1c4
    /*000002bc*/ B           _GLOBAL__sub_I_hi_runtime_api.cpp_x21c
    _GLOBAL__sub_I_hi_runtime_api.cpp_x2c0:
    /*000002c0*/ LDR         R3, WORD_035c               @ LDR         R3, [PC, #148]              @ 0x000000000000035c 
    /*000002c4*/ LDR         R2, WORD_0360               @ LDR         R2, [PC, #148]              @ 0x0000000000000360 
    /*000002c8*/ LDR         R1, [R9, R3] 
    /*000002cc*/ LDR         R0, WORD_0364               @ LDR         R0, [PC, #144]              @ 0x0000000000000364 
    /*000002d0*/ ADD         R2, PC, R2 
    /*000002d4*/ ADD         R0, PC, R0 
    /*000002d8*/ ADD         SP, SP, #12 
    /*000002dc*/ VPOP        {D8-D9} 
    /*000002e0*/ POP         {R4, R5, R6, R7, R8, R9, SL, FP, LR} 
    _GLOBAL__sub_I_hi_runtime_api.cpp_x2e4:
    /*000002e4*/ B           _GLOBAL__sub_I_hi_runtime_api.cpp_x2e4@ __aeabi_atexit [R_ARM_JUMP24: +0x0] 
    /*000002e8*/ LDR         R0, WORD_0368               @ LDR         R0, [PC, #120]              @ 0x0000000000000368 
    /*000002ec*/ ADD         R0, PC, R0 
    /*000002f0*/ LDR         R1, [R0, #8] 
    /*000002f4*/ BL          _ZNSt8_Rb_treeIN10hirtparser20HiRTSetting_LogLevelESt4pairIKS1_19tagHIRT_LOG_LEVEL_EESt10_Select1stIS5_ESt4lessIS1_ESaIS5_EE8_M_eraseEPSt13_Rb_tree_nodeIS5_E
    /*000002f8*/ BL          __cxa_end_cleanup
    /*000002fc*/ WORD_02fc: .word 0x000002d0
    /*00000300*/ WORD_0300: .word 0x000002cc
    /*00000304*/ WORD_0304: .word 0x000002b8
    /*00000308*/ WORD_0308: .word 0x00000000
    /*0000030c*/ WORD_030c: .word 0x000002ac
    /*00000310*/ WORD_0310: .word 0x00000298
    /*00000314*/ WORD_0314: .word 0x00000298
    /*00000318*/ WORD_0318: .word 0x00000000
    /*0000031c*/ WORD_031c: .word 0x00000274
    /*00000320*/ WORD_0320: .word 0x00000270
    /*00000324*/ WORD_0324: .word 0x00000000
    /*00000328*/ WORD_0328: .word 0x00000230
    /*0000032c*/ WORD_032c: .word 0x0000024c
    /*00000330*/ WORD_0330: .word 0x0000024c
    /*00000334*/ WORD_0334: .word 0x00000224
    /*00000338*/ WORD_0338: .word 0x00000224
    /*0000033c*/ WORD_033c: .word 0x00000208
    /*00000340*/ WORD_0340: .word 0x00000000
    /*00000344*/ WORD_0344: .word 0x000001e0
    /*00000348*/ WORD_0348: .word 0x00000000
    /*0000034c*/ WORD_034c: .word 0x000001c8
    /*00000350*/ WORD_0350: .word 0x000001bc
    /*00000354*/ WORD_0354: .word 0x0000019c
    /*00000358*/ WORD_0358: .word 0x0000012c
    /*0000035c*/ WORD_035c: .word 0x00000000
    /*00000360*/ WORD_0360: .word 0x00000088
    /*00000364*/ WORD_0364: .word 0x00000088
    /*00000368*/ WORD_0368: .word 0x00000074
FUNC_END _GLOBAL__sub_I_hi_runtime_api.cpp


@ - - - - - - - - - - - - - - - - - - - - - - - - - - - - - 
@ .ARM.extab.text.startup._GLOBAL__sub_I_hi_runtime_api.cpp
@ Size: 0x1f
@ - - - - - - - - - - - - - - - - - - - - - - - - - - - - - 

