@
@ -- FILES --
@

@ HiRTSetting.cpp


unsigned char data[0] = {
};

unsigned char bss[0];

_RODATA__ZTSST11_MUTEX_BASEILN9__GNU_CXX12_LOCK_POLICYE2EE_0000: .ascii "St11_Mutex_baseILN9__gnu_cxx12_Lock_policyE2EE\0"


unsigned char data.rel.ro._ZTISt11_Mutex_baseILN9__gnu_cxx12_Lock_policyE2EE[8] = {
    /*0000*/ 0x08, 0x00, 0x00, 0x00, 0x00, 0x00, 0x00, 0x00, 
};

unsigned char rel.data.rel.ro._ZTISt11_Mutex_baseILN9__gnu_cxx12_Lock_policyE2EE[16] = {
    /*0000*/ 0x00, 0x00, 0x00, 0x00, 0x02, 0xa3, 0x06, 0x00, 0x04, 0x00, 0x00, 0x00, 0x02, 0xa1, 0x06, 0x00, 
};

_RODATA__ZTSST16_SP_COUNTED_BASEILN9__GNU_CXX12_LOCK_POLICYE2EE_0000: .ascii "St16_Sp_counted_baseILN9__gnu_cxx12_Lock_policyE2EE\0",
_RODATA__ZTSST16_SP_COUNTED_BASEILN9__GNU_CXX12_LOCK_POLICYE2EE_0034: .ascii ""


unsigned char data.rel.ro._ZTISt16_Sp_counted_baseILN9__gnu_cxx12_Lock_policyE2EE[12] = {
    /*0000*/ 0x08, 0x00, 0x00, 0x00, 0x00, 0x00, 0x00, 0x00, 0x00, 0x00, 0x00, 0x00, 
};

unsigned char rel.data.rel.ro._ZTISt16_Sp_counted_baseILN9__gnu_cxx12_Lock_policyE2EE[24] = {
    /*0000*/ 0x00, 0x00, 0x00, 0x00, 0x02, 0xa6, 0x06, 0x00, 0x04, 0x00, 0x00, 0x00, 0x02, 0xa4, 0x06, 0x00, 
    /*0010*/ 0x08, 0x00, 0x00, 0x00, 0x02, 0xa2, 0x06, 0x00, 
};

_RODATA__ZTSST19_SP_MAKE_SHARED_TAG_0000: .ascii "St19_Sp_make_shared_tag\0",
_RODATA__ZTSST19_SP_MAKE_SHARED_TAG_0018: .ascii ""


unsigned char data.rel.ro._ZTISt19_Sp_make_shared_tag[8] = {
    /*0000*/ 0x08, 0x00, 0x00, 0x00, 0x00, 0x00, 0x00, 0x00, 
};

unsigned char rel.data.rel.ro._ZTISt19_Sp_make_shared_tag[16] = {
    /*0000*/ 0x00, 0x00, 0x00, 0x00, 0x02, 0xa3, 0x06, 0x00, 0x04, 0x00, 0x00, 0x00, 0x02, 0xa7, 0x06, 0x00, 
};

_RODATA__ZTSST23_SP_COUNTED_PTR_INPLACEINST8__DETAIL4_NFAINST7__CXX1112REGEX_TRAITSICEEEESAIS5_ELN9__GNU_CXX12_LOCK_POLICYE2EE_0000: .ascii "St23_Sp_counted_ptr_inplaceINSt8__detail4_NFAINSt7__cxx1112regex_traitsIcEEEESaIS5_ELN9__gnu_cxx12_Lock_policyE2EE\0"


unsigned char data.rel.ro._ZTISt23_Sp_counted_ptr_inplaceINSt8__detail4_NFAINSt7__cxx1112regex_traitsIcEEEESaIS5_ELN9__gnu_cxx12_Lock_policyE2EE[12] = {
    /*0000*/ 0x08, 0x00, 0x00, 0x00, 0x00, 0x00, 0x00, 0x00, 0x00, 0x00, 0x00, 0x00, 
};

unsigned char rel.data.rel.ro._ZTISt23_Sp_counted_ptr_inplaceINSt8__detail4_NFAINSt7__cxx1112regex_traitsIcEEEESaIS5_ELN9__gnu_cxx12_Lock_policyE2EE[24] = {
    /*0000*/ 0x00, 0x00, 0x00, 0x00, 0x02, 0xa6, 0x06, 0x00, 0x04, 0x00, 0x00, 0x00, 0x02, 0xa8, 0x06, 0x00, 
    /*0010*/ 0x08, 0x00, 0x00, 0x00, 0x02, 0xa5, 0x06, 0x00, 
};

_RODATA__ZTSNST8__DETAIL11_ANYMATCHERINST7__CXX1112REGEX_TRAITSICEELB0ELB0ELB0EEE_0000: .ascii "NSt8__detail11_AnyMatcherINSt7__cxx1112regex_traitsIcEELb0ELb0ELb0EEE\0"


unsigned char data.rel.ro._ZTINSt8__detail11_AnyMatcherINSt7__cxx1112regex_traitsIcEELb0ELb0ELb0EEE[8] = {
    /*0000*/ 0x08, 0x00, 0x00, 0x00, 0x00, 0x00, 0x00, 0x00, 
};

unsigned char rel.data.rel.ro._ZTINSt8__detail11_AnyMatcherINSt7__cxx1112regex_traitsIcEELb0ELb0ELb0EEE[16] = {
    /*0000*/ 0x00, 0x00, 0x00, 0x00, 0x02, 0xa3, 0x06, 0x00, 0x04, 0x00, 0x00, 0x00, 0x02, 0xaa, 0x06, 0x00, 
};

_RODATA__ZTSNST8__DETAIL11_ANYMATCHERINST7__CXX1112REGEX_TRAITSICEELB0ELB0ELB1EEE_0000: .ascii "NSt8__detail11_AnyMatcherINSt7__cxx1112regex_traitsIcEELb0ELb0ELb1EEE\0"


unsigned char data.rel.ro._ZTINSt8__detail11_AnyMatcherINSt7__cxx1112regex_traitsIcEELb0ELb0ELb1EEE[8] = {
    /*0000*/ 0x08, 0x00, 0x00, 0x00, 0x00, 0x00, 0x00, 0x00, 
};

unsigned char rel.data.rel.ro._ZTINSt8__detail11_AnyMatcherINSt7__cxx1112regex_traitsIcEELb0ELb0ELb1EEE[16] = {
    /*0000*/ 0x00, 0x00, 0x00, 0x00, 0x02, 0xa3, 0x06, 0x00, 0x04, 0x00, 0x00, 0x00, 0x02, 0xab, 0x06, 0x00, 
};

_RODATA__ZTSNST8__DETAIL11_ANYMATCHERINST7__CXX1112REGEX_TRAITSICEELB0ELB1ELB0EEE_0000: .ascii "NSt8__detail11_AnyMatcherINSt7__cxx1112regex_traitsIcEELb0ELb1ELb0EEE\0"


unsigned char data.rel.ro._ZTINSt8__detail11_AnyMatcherINSt7__cxx1112regex_traitsIcEELb0ELb1ELb0EEE[8] = {
    /*0000*/ 0x08, 0x00, 0x00, 0x00, 0x00, 0x00, 0x00, 0x00, 
};

unsigned char rel.data.rel.ro._ZTINSt8__detail11_AnyMatcherINSt7__cxx1112regex_traitsIcEELb0ELb1ELb0EEE[16] = {
    /*0000*/ 0x00, 0x00, 0x00, 0x00, 0x02, 0xa3, 0x06, 0x00, 0x04, 0x00, 0x00, 0x00, 0x02, 0xac, 0x06, 0x00, 
};

_RODATA__ZTSNST8__DETAIL11_ANYMATCHERINST7__CXX1112REGEX_TRAITSICEELB0ELB1ELB1EEE_0000: .ascii "NSt8__detail11_AnyMatcherINSt7__cxx1112regex_traitsIcEELb0ELb1ELb1EEE\0"


unsigned char data.rel.ro._ZTINSt8__detail11_AnyMatcherINSt7__cxx1112regex_traitsIcEELb0ELb1ELb1EEE[8] = {
    /*0000*/ 0x08, 0x00, 0x00, 0x00, 0x00, 0x00, 0x00, 0x00, 
};

unsigned char rel.data.rel.ro._ZTINSt8__detail11_AnyMatcherINSt7__cxx1112regex_traitsIcEELb0ELb1ELb1EEE[16] = {
    /*0000*/ 0x00, 0x00, 0x00, 0x00, 0x02, 0xa3, 0x06, 0x00, 0x04, 0x00, 0x00, 0x00, 0x02, 0xad, 0x06, 0x00, 
};

_RODATA__ZTSNST8__DETAIL11_ANYMATCHERINST7__CXX1112REGEX_TRAITSICEELB1ELB0ELB0EEE_0000: .ascii "NSt8__detail11_AnyMatcherINSt7__cxx1112regex_traitsIcEELb1ELb0ELb0EEE\0"


unsigned char data.rel.ro._ZTINSt8__detail11_AnyMatcherINSt7__cxx1112regex_traitsIcEELb1ELb0ELb0EEE[8] = {
    /*0000*/ 0x08, 0x00, 0x00, 0x00, 0x00, 0x00, 0x00, 0x00, 
};

unsigned char rel.data.rel.ro._ZTINSt8__detail11_AnyMatcherINSt7__cxx1112regex_traitsIcEELb1ELb0ELb0EEE[16] = {
    /*0000*/ 0x00, 0x00, 0x00, 0x00, 0x02, 0xa3, 0x06, 0x00, 0x04, 0x00, 0x00, 0x00, 0x02, 0xae, 0x06, 0x00, 
};

_RODATA__ZTSNST8__DETAIL11_ANYMATCHERINST7__CXX1112REGEX_TRAITSICEELB1ELB0ELB1EEE_0000: .ascii "NSt8__detail11_AnyMatcherINSt7__cxx1112regex_traitsIcEELb1ELb0ELb1EEE\0"


unsigned char data.rel.ro._ZTINSt8__detail11_AnyMatcherINSt7__cxx1112regex_traitsIcEELb1ELb0ELb1EEE[8] = {
    /*0000*/ 0x08, 0x00, 0x00, 0x00, 0x00, 0x00, 0x00, 0x00, 
};

unsigned char rel.data.rel.ro._ZTINSt8__detail11_AnyMatcherINSt7__cxx1112regex_traitsIcEELb1ELb0ELb1EEE[16] = {
    /*0000*/ 0x00, 0x00, 0x00, 0x00, 0x02, 0xa3, 0x06, 0x00, 0x04, 0x00, 0x00, 0x00, 0x02, 0xaf, 0x06, 0x00, 
};

_RODATA__ZTSNST8__DETAIL11_ANYMATCHERINST7__CXX1112REGEX_TRAITSICEELB1ELB1ELB0EEE_0000: .ascii "NSt8__detail11_AnyMatcherINSt7__cxx1112regex_traitsIcEELb1ELb1ELb0EEE\0"


unsigned char data.rel.ro._ZTINSt8__detail11_AnyMatcherINSt7__cxx1112regex_traitsIcEELb1ELb1ELb0EEE[8] = {
    /*0000*/ 0x08, 0x00, 0x00, 0x00, 0x00, 0x00, 0x00, 0x00, 
};

unsigned char rel.data.rel.ro._ZTINSt8__detail11_AnyMatcherINSt7__cxx1112regex_traitsIcEELb1ELb1ELb0EEE[16] = {
    /*0000*/ 0x00, 0x00, 0x00, 0x00, 0x02, 0xa3, 0x06, 0x00, 0x04, 0x00, 0x00, 0x00, 0x02, 0xb0, 0x06, 0x00, 
};

_RODATA__ZTSNST8__DETAIL11_ANYMATCHERINST7__CXX1112REGEX_TRAITSICEELB1ELB1ELB1EEE_0000: .ascii "NSt8__detail11_AnyMatcherINSt7__cxx1112regex_traitsIcEELb1ELb1ELb1EEE\0"


unsigned char data.rel.ro._ZTINSt8__detail11_AnyMatcherINSt7__cxx1112regex_traitsIcEELb1ELb1ELb1EEE[8] = {
    /*0000*/ 0x08, 0x00, 0x00, 0x00, 0x00, 0x00, 0x00, 0x00, 
};

unsigned char rel.data.rel.ro._ZTINSt8__detail11_AnyMatcherINSt7__cxx1112regex_traitsIcEELb1ELb1ELb1EEE[16] = {
    /*0000*/ 0x00, 0x00, 0x00, 0x00, 0x02, 0xa3, 0x06, 0x00, 0x04, 0x00, 0x00, 0x00, 0x02, 0xb1, 0x06, 0x00, 
};

_RODATA__ZTSNST8__DETAIL12_CHARMATCHERINST7__CXX1112REGEX_TRAITSICEELB0ELB0EEE_0000: .ascii "NSt8__detail12_CharMatcherINSt7__cxx1112regex_traitsIcEELb0ELb0EEE\0"


unsigned char data.rel.ro._ZTINSt8__detail12_CharMatcherINSt7__cxx1112regex_traitsIcEELb0ELb0EEE[8] = {
    /*0000*/ 0x08, 0x00, 0x00, 0x00, 0x00, 0x00, 0x00, 0x00, 
};

unsigned char rel.data.rel.ro._ZTINSt8__detail12_CharMatcherINSt7__cxx1112regex_traitsIcEELb0ELb0EEE[16] = {
    /*0000*/ 0x00, 0x00, 0x00, 0x00, 0x02, 0xa3, 0x06, 0x00, 0x04, 0x00, 0x00, 0x00, 0x02, 0xb2, 0x06, 0x00, 
};

_RODATA__ZTSNST8__DETAIL12_CHARMATCHERINST7__CXX1112REGEX_TRAITSICEELB0ELB1EEE_0000: .ascii "NSt8__detail12_CharMatcherINSt7__cxx1112regex_traitsIcEELb0ELb1EEE\0"


unsigned char data.rel.ro._ZTINSt8__detail12_CharMatcherINSt7__cxx1112regex_traitsIcEELb0ELb1EEE[8] = {
    /*0000*/ 0x08, 0x00, 0x00, 0x00, 0x00, 0x00, 0x00, 0x00, 
};

unsigned char rel.data.rel.ro._ZTINSt8__detail12_CharMatcherINSt7__cxx1112regex_traitsIcEELb0ELb1EEE[16] = {
    /*0000*/ 0x00, 0x00, 0x00, 0x00, 0x02, 0xa3, 0x06, 0x00, 0x04, 0x00, 0x00, 0x00, 0x02, 0xb3, 0x06, 0x00, 
};

_RODATA__ZTSNST8__DETAIL12_CHARMATCHERINST7__CXX1112REGEX_TRAITSICEELB1ELB0EEE_0000: .ascii "NSt8__detail12_CharMatcherINSt7__cxx1112regex_traitsIcEELb1ELb0EEE\0"


unsigned char data.rel.ro._ZTINSt8__detail12_CharMatcherINSt7__cxx1112regex_traitsIcEELb1ELb0EEE[8] = {
    /*0000*/ 0x08, 0x00, 0x00, 0x00, 0x00, 0x00, 0x00, 0x00, 
};

unsigned char rel.data.rel.ro._ZTINSt8__detail12_CharMatcherINSt7__cxx1112regex_traitsIcEELb1ELb0EEE[16] = {
    /*0000*/ 0x00, 0x00, 0x00, 0x00, 0x02, 0xa3, 0x06, 0x00, 0x04, 0x00, 0x00, 0x00, 0x02, 0xb4, 0x06, 0x00, 
};

_RODATA__ZTSNST8__DETAIL12_CHARMATCHERINST7__CXX1112REGEX_TRAITSICEELB1ELB1EEE_0000: .ascii "NSt8__detail12_CharMatcherINSt7__cxx1112regex_traitsIcEELb1ELb1EEE\0"


unsigned char data.rel.ro._ZTINSt8__detail12_CharMatcherINSt7__cxx1112regex_traitsIcEELb1ELb1EEE[8] = {
    /*0000*/ 0x08, 0x00, 0x00, 0x00, 0x00, 0x00, 0x00, 0x00, 
};

unsigned char rel.data.rel.ro._ZTINSt8__detail12_CharMatcherINSt7__cxx1112regex_traitsIcEELb1ELb1EEE[16] = {
    /*0000*/ 0x00, 0x00, 0x00, 0x00, 0x02, 0xa3, 0x06, 0x00, 0x04, 0x00, 0x00, 0x00, 0x02, 0xb5, 0x06, 0x00, 
};

_RODATA__ZTSNST8__DETAIL15_BRACKETMATCHERINST7__CXX1112REGEX_TRAITSICEELB0ELB0EEE_0000: .ascii "NSt8__detail15_BracketMatcherINSt7__cxx1112regex_traitsIcEELb0ELb0EEE\0"


unsigned char data.rel.ro._ZTINSt8__detail15_BracketMatcherINSt7__cxx1112regex_traitsIcEELb0ELb0EEE[8] = {
    /*0000*/ 0x08, 0x00, 0x00, 0x00, 0x00, 0x00, 0x00, 0x00, 
};

unsigned char rel.data.rel.ro._ZTINSt8__detail15_BracketMatcherINSt7__cxx1112regex_traitsIcEELb0ELb0EEE[16] = {
    /*0000*/ 0x00, 0x00, 0x00, 0x00, 0x02, 0xa3, 0x06, 0x00, 0x04, 0x00, 0x00, 0x00, 0x02, 0xb6, 0x06, 0x00, 
};

_RODATA__ZTSNST8__DETAIL15_BRACKETMATCHERINST7__CXX1112REGEX_TRAITSICEELB0ELB1EEE_0000: .ascii "NSt8__detail15_BracketMatcherINSt7__cxx1112regex_traitsIcEELb0ELb1EEE\0"


unsigned char data.rel.ro._ZTINSt8__detail15_BracketMatcherINSt7__cxx1112regex_traitsIcEELb0ELb1EEE[8] = {
    /*0000*/ 0x08, 0x00, 0x00, 0x00, 0x00, 0x00, 0x00, 0x00, 
};

unsigned char rel.data.rel.ro._ZTINSt8__detail15_BracketMatcherINSt7__cxx1112regex_traitsIcEELb0ELb1EEE[16] = {
    /*0000*/ 0x00, 0x00, 0x00, 0x00, 0x02, 0xa3, 0x06, 0x00, 0x04, 0x00, 0x00, 0x00, 0x02, 0xb7, 0x06, 0x00, 
};

_RODATA__ZTSNST8__DETAIL15_BRACKETMATCHERINST7__CXX1112REGEX_TRAITSICEELB1ELB0EEE_0000: .ascii "NSt8__detail15_BracketMatcherINSt7__cxx1112regex_traitsIcEELb1ELb0EEE\0"


unsigned char data.rel.ro._ZTINSt8__detail15_BracketMatcherINSt7__cxx1112regex_traitsIcEELb1ELb0EEE[8] = {
    /*0000*/ 0x08, 0x00, 0x00, 0x00, 0x00, 0x00, 0x00, 0x00, 
};

unsigned char rel.data.rel.ro._ZTINSt8__detail15_BracketMatcherINSt7__cxx1112regex_traitsIcEELb1ELb0EEE[16] = {
    /*0000*/ 0x00, 0x00, 0x00, 0x00, 0x02, 0xa3, 0x06, 0x00, 0x04, 0x00, 0x00, 0x00, 0x02, 0xb8, 0x06, 0x00, 
};

_RODATA__ZTSNST8__DETAIL15_BRACKETMATCHERINST7__CXX1112REGEX_TRAITSICEELB1ELB1EEE_0000: .ascii "NSt8__detail15_BracketMatcherINSt7__cxx1112regex_traitsIcEELb1ELb1EEE\0"


unsigned char data.rel.ro._ZTINSt8__detail15_BracketMatcherINSt7__cxx1112regex_traitsIcEELb1ELb1EEE[8] = {
    /*0000*/ 0x08, 0x00, 0x00, 0x00, 0x00, 0x00, 0x00, 0x00, 
};

unsigned char rel.data.rel.ro._ZTINSt8__detail15_BracketMatcherINSt7__cxx1112regex_traitsIcEELb1ELb1EEE[16] = {
    /*0000*/ 0x00, 0x00, 0x00, 0x00, 0x02, 0xa3, 0x06, 0x00, 0x04, 0x00, 0x00, 0x00, 0x02, 0xb9, 0x06, 0x00, 
};

unsigned char data.rel.ro._ZTVSt23_Sp_counted_ptr_inplaceINSt8__detail4_NFAINSt7__cxx1112regex_traitsIcEEEESaIS5_ELN9__gnu_cxx12_Lock_policyE2EE[28] = {
    /*0000*/ 0x00, 0x00, 0x00, 0x00, 0x00, 0x00, 0x00, 0x00, 0x00, 0x00, 0x00, 0x00, 0x00, 0x00, 0x00, 0x00, 
    /*0010*/ 0x00, 0x00, 0x00, 0x00, 0x00, 0x00, 0x00, 0x00, 0x00, 0x00, 0x00, 0x00, 
};

unsigned char rel.data.rel.ro._ZTVSt23_Sp_counted_ptr_inplaceINSt8__detail4_NFAINSt7__cxx1112regex_traitsIcEEEESaIS5_ELN9__gnu_cxx12_Lock_policyE2EE[48] = {
    /*0000*/ 0x04, 0x00, 0x00, 0x00, 0x02, 0xa9, 0x06, 0x00, 0x08, 0x00, 0x00, 0x00, 0x02, 0xa3, 0x05, 0x00, 
    /*0010*/ 0x0c, 0x00, 0x00, 0x00, 0x02, 0xa9, 0x05, 0x00, 0x10, 0x00, 0x00, 0x00, 0x02, 0xcb, 0x05, 0x00, 
    /*0020*/ 0x14, 0x00, 0x00, 0x00, 0x02, 0xa7, 0x05, 0x00, 0x18, 0x00, 0x00, 0x00, 0x02, 0xa4, 0x05, 0x00, 
};

unsigned char data.rel.local._ZZNKSt7__cxx1112regex_traitsIcE18lookup_collatenameIPKcEENS_12basic_stringIcSt11char_traitsIcESaIcEEET_SA_E14__collatenames[512] = {
    /*0000*/ 0x00, 0x00, 0x00, 0x00, 0x04, 0x00, 0x00, 0x00, 0x08, 0x00, 0x00, 0x00, 0x0c, 0x00, 0x00, 0x00, 
    /*0010*/ 0x10, 0x00, 0x00, 0x00, 0x14, 0x00, 0x00, 0x00, 0x18, 0x00, 0x00, 0x00, 0x1c, 0x00, 0x00, 0x00, 
    /*0020*/ 0x24, 0x00, 0x00, 0x00, 0x30, 0x00, 0x00, 0x00, 0x34, 0x00, 0x00, 0x00, 0x3c, 0x00, 0x00, 0x00, 
    /*0030*/ 0x4c, 0x00, 0x00, 0x00, 0x58, 0x00, 0x00, 0x00, 0x68, 0x00, 0x00, 0x00, 0x6c, 0x00, 0x00, 0x00, 
    /*0040*/ 0x70, 0x00, 0x00, 0x00, 0x74, 0x00, 0x00, 0x00, 0x78, 0x00, 0x00, 0x00, 0x7c, 0x00, 0x00, 0x00, 
    /*0050*/ 0x80, 0x00, 0x00, 0x00, 0x84, 0x00, 0x00, 0x00, 0x88, 0x00, 0x00, 0x00, 0x8c, 0x00, 0x00, 0x00, 
    /*0060*/ 0x90, 0x00, 0x00, 0x00, 0x94, 0x00, 0x00, 0x00, 0x98, 0x00, 0x00, 0x00, 0x9c, 0x00, 0x00, 0x00, 
    /*0070*/ 0xa0, 0x00, 0x00, 0x00, 0xa4, 0x00, 0x00, 0x00, 0xa8, 0x00, 0x00, 0x00, 0xac, 0x00, 0x00, 0x00, 
    /*0080*/ 0xb0, 0x00, 0x00, 0x00, 0xb8, 0x00, 0x00, 0x00, 0xcc, 0x00, 0x00, 0x00, 0xdc, 0x00, 0x00, 0x00, 
    /*0090*/ 0xe8, 0x00, 0x00, 0x00, 0xf4, 0x00, 0x00, 0x00, 0x04, 0x01, 0x00, 0x00, 0x10, 0x01, 0x00, 0x00, 
    /*00a0*/ 0x1c, 0x01, 0x00, 0x00, 0x30, 0x01, 0x00, 0x00, 0x44, 0x01, 0x00, 0x00, 0x50, 0x01, 0x00, 0x00, 
    /*00b0*/ 0x5c, 0x01, 0x00, 0x00, 0x64, 0x01, 0x00, 0x00, 0x6c, 0x01, 0x00, 0x00, 0x74, 0x01, 0x00, 0x00, 
    /*00c0*/ 0x7c, 0x01, 0x00, 0x00, 0x84, 0x01, 0x00, 0x00, 0x88, 0x01, 0x00, 0x00, 0x8c, 0x01, 0x00, 0x00, 
    /*00d0*/ 0x94, 0x01, 0x00, 0x00, 0x9c, 0x01, 0x00, 0x00, 0xa4, 0x01, 0x00, 0x00, 0xa8, 0x01, 0x00, 0x00, 
    /*00e0*/ 0xb0, 0x01, 0x00, 0x00, 0xb8, 0x01, 0x00, 0x00, 0xc0, 0x01, 0x00, 0x00, 0xc8, 0x01, 0x00, 0x00, 
    /*00f0*/ 0xd4, 0x01, 0x00, 0x00, 0xe4, 0x01, 0x00, 0x00, 0xf0, 0x01, 0x00, 0x00, 0x04, 0x02, 0x00, 0x00, 
    /*0100*/ 0x14, 0x02, 0x00, 0x00, 0x24, 0x02, 0x00, 0x00, 0x28, 0x02, 0x00, 0x00, 0x2c, 0x02, 0x00, 0x00, 
    /*0110*/ 0x30, 0x02, 0x00, 0x00, 0x34, 0x02, 0x00, 0x00, 0x38, 0x02, 0x00, 0x00, 0x3c, 0x02, 0x00, 0x00, 
    /*0120*/ 0x40, 0x02, 0x00, 0x00, 0x44, 0x02, 0x00, 0x00, 0x48, 0x02, 0x00, 0x00, 0x4c, 0x02, 0x00, 0x00, 
    /*0130*/ 0x50, 0x02, 0x00, 0x00, 0x54, 0x02, 0x00, 0x00, 0x58, 0x02, 0x00, 0x00, 0x5c, 0x02, 0x00, 0x00, 
    /*0140*/ 0x60, 0x02, 0x00, 0x00, 0x64, 0x02, 0x00, 0x00, 0x68, 0x02, 0x00, 0x00, 0x6c, 0x02, 0x00, 0x00, 
    /*0150*/ 0x70, 0x02, 0x00, 0x00, 0x74, 0x02, 0x00, 0x00, 0x78, 0x02, 0x00, 0x00, 0x7c, 0x02, 0x00, 0x00, 
    /*0160*/ 0x80, 0x02, 0x00, 0x00, 0x84, 0x02, 0x00, 0x00, 0x88, 0x02, 0x00, 0x00, 0x8c, 0x02, 0x00, 0x00, 
    /*0170*/ 0xa0, 0x02, 0x00, 0x00, 0xac, 0x02, 0x00, 0x00, 0xc4, 0x02, 0x00, 0x00, 0xd0, 0x02, 0x00, 0x00, 
    /*0180*/ 0xdc, 0x02, 0x00, 0x00, 0xec, 0x02, 0x00, 0x00, 0xf0, 0x02, 0x00, 0x00, 0xf4, 0x02, 0x00, 0x00, 
    /*0190*/ 0xf8, 0x02, 0x00, 0x00, 0xfc, 0x02, 0x00, 0x00, 0x00, 0x03, 0x00, 0x00, 0x04, 0x03, 0x00, 0x00, 
    /*01a0*/ 0x08, 0x03, 0x00, 0x00, 0x0c, 0x03, 0x00, 0x00, 0x10, 0x03, 0x00, 0x00, 0x14, 0x03, 0x00, 0x00, 
    /*01b0*/ 0x18, 0x03, 0x00, 0x00, 0x1c, 0x03, 0x00, 0x00, 0x20, 0x03, 0x00, 0x00, 0x24, 0x03, 0x00, 0x00, 
    /*01c0*/ 0x28, 0x03, 0x00, 0x00, 0x2c, 0x03, 0x00, 0x00, 0x30, 0x03, 0x00, 0x00, 0x34, 0x03, 0x00, 0x00, 
    /*01d0*/ 0x38, 0x03, 0x00, 0x00, 0x3c, 0x03, 0x00, 0x00, 0x40, 0x03, 0x00, 0x00, 0x44, 0x03, 0x00, 0x00, 
    /*01e0*/ 0x48, 0x03, 0x00, 0x00, 0x4c, 0x03, 0x00, 0x00, 0x50, 0x03, 0x00, 0x00, 0x54, 0x03, 0x00, 0x00, 
    /*01f0*/ 0x68, 0x03, 0x00, 0x00, 0x78, 0x03, 0x00, 0x00, 0x8c, 0x03, 0x00, 0x00, 0x94, 0x03, 0x00, 0x00, 
};

unsigned char rel.data.rel.local._ZZNKSt7__cxx1112regex_traitsIcE18lookup_collatenameIPKcEENS_12basic_stringIcSt11char_traitsIcESaIcEEET_SA_E14__collatenames[1024] = {
    /*0000*/ 0x00, 0x00, 0x00, 0x00, 0x02, 0x9e, 0x04, 0x00, 0x04, 0x00, 0x00, 0x00, 0x02, 0x9e, 0x04, 0x00, 
    /*0010*/ 0x08, 0x00, 0x00, 0x00, 0x02, 0x9e, 0x04, 0x00, 0x0c, 0x00, 0x00, 0x00, 0x02, 0x9e, 0x04, 0x00, 
    /*0020*/ 0x10, 0x00, 0x00, 0x00, 0x02, 0x9e, 0x04, 0x00, 0x14, 0x00, 0x00, 0x00, 0x02, 0x9e, 0x04, 0x00, 
    /*0030*/ 0x18, 0x00, 0x00, 0x00, 0x02, 0x9e, 0x04, 0x00, 0x1c, 0x00, 0x00, 0x00, 0x02, 0x9e, 0x04, 0x00, 
    /*0040*/ 0x20, 0x00, 0x00, 0x00, 0x02, 0x9e, 0x04, 0x00, 0x24, 0x00, 0x00, 0x00, 0x02, 0x9e, 0x04, 0x00, 
    /*0050*/ 0x28, 0x00, 0x00, 0x00, 0x02, 0x9e, 0x04, 0x00, 0x2c, 0x00, 0x00, 0x00, 0x02, 0x9e, 0x04, 0x00, 
    /*0060*/ 0x30, 0x00, 0x00, 0x00, 0x02, 0x9e, 0x04, 0x00, 0x34, 0x00, 0x00, 0x00, 0x02, 0x9e, 0x04, 0x00, 
    /*0070*/ 0x38, 0x00, 0x00, 0x00, 0x02, 0x9e, 0x04, 0x00, 0x3c, 0x00, 0x00, 0x00, 0x02, 0x9e, 0x04, 0x00, 
    /*0080*/ 0x40, 0x00, 0x00, 0x00, 0x02, 0x9e, 0x04, 0x00, 0x44, 0x00, 0x00, 0x00, 0x02, 0x9e, 0x04, 0x00, 
    /*0090*/ 0x48, 0x00, 0x00, 0x00, 0x02, 0x9e, 0x04, 0x00, 0x4c, 0x00, 0x00, 0x00, 0x02, 0x9e, 0x04, 0x00, 
    /*00a0*/ 0x50, 0x00, 0x00, 0x00, 0x02, 0x9e, 0x04, 0x00, 0x54, 0x00, 0x00, 0x00, 0x02, 0x9e, 0x04, 0x00, 
    /*00b0*/ 0x58, 0x00, 0x00, 0x00, 0x02, 0x9e, 0x04, 0x00, 0x5c, 0x00, 0x00, 0x00, 0x02, 0x9e, 0x04, 0x00, 
    /*00c0*/ 0x60, 0x00, 0x00, 0x00, 0x02, 0x9e, 0x04, 0x00, 0x64, 0x00, 0x00, 0x00, 0x02, 0x9e, 0x04, 0x00, 
    /*00d0*/ 0x68, 0x00, 0x00, 0x00, 0x02, 0x9e, 0x04, 0x00, 0x6c, 0x00, 0x00, 0x00, 0x02, 0x9e, 0x04, 0x00, 
    /*00e0*/ 0x70, 0x00, 0x00, 0x00, 0x02, 0x9e, 0x04, 0x00, 0x74, 0x00, 0x00, 0x00, 0x02, 0x9e, 0x04, 0x00, 
    /*00f0*/ 0x78, 0x00, 0x00, 0x00, 0x02, 0x9e, 0x04, 0x00, 0x7c, 0x00, 0x00, 0x00, 0x02, 0x9e, 0x04, 0x00, 
    /*0100*/ 0x80, 0x00, 0x00, 0x00, 0x02, 0x9e, 0x04, 0x00, 0x84, 0x00, 0x00, 0x00, 0x02, 0x9e, 0x04, 0x00, 
    /*0110*/ 0x88, 0x00, 0x00, 0x00, 0x02, 0x9e, 0x04, 0x00, 0x8c, 0x00, 0x00, 0x00, 0x02, 0x9e, 0x04, 0x00, 
    /*0120*/ 0x90, 0x00, 0x00, 0x00, 0x02, 0x9e, 0x04, 0x00, 0x94, 0x00, 0x00, 0x00, 0x02, 0x9e, 0x04, 0x00, 
    /*0130*/ 0x98, 0x00, 0x00, 0x00, 0x02, 0x9e, 0x04, 0x00, 0x9c, 0x00, 0x00, 0x00, 0x02, 0x9e, 0x04, 0x00, 
    /*0140*/ 0xa0, 0x00, 0x00, 0x00, 0x02, 0x9e, 0x04, 0x00, 0xa4, 0x00, 0x00, 0x00, 0x02, 0x9e, 0x04, 0x00, 
    /*0150*/ 0xa8, 0x00, 0x00, 0x00, 0x02, 0x9e, 0x04, 0x00, 0xac, 0x00, 0x00, 0x00, 0x02, 0x9e, 0x04, 0x00, 
    /*0160*/ 0xb0, 0x00, 0x00, 0x00, 0x02, 0x9e, 0x04, 0x00, 0xb4, 0x00, 0x00, 0x00, 0x02, 0x9e, 0x04, 0x00, 
    /*0170*/ 0xb8, 0x00, 0x00, 0x00, 0x02, 0x9e, 0x04, 0x00, 0xbc, 0x00, 0x00, 0x00, 0x02, 0x9e, 0x04, 0x00, 
    /*0180*/ 0xc0, 0x00, 0x00, 0x00, 0x02, 0x9e, 0x04, 0x00, 0xc4, 0x00, 0x00, 0x00, 0x02, 0x9e, 0x04, 0x00, 
    /*0190*/ 0xc8, 0x00, 0x00, 0x00, 0x02, 0x9e, 0x04, 0x00, 0xcc, 0x00, 0x00, 0x00, 0x02, 0x9e, 0x04, 0x00, 
    /*01a0*/ 0xd0, 0x00, 0x00, 0x00, 0x02, 0x9e, 0x04, 0x00, 0xd4, 0x00, 0x00, 0x00, 0x02, 0x9e, 0x04, 0x00, 
    /*01b0*/ 0xd8, 0x00, 0x00, 0x00, 0x02, 0x9e, 0x04, 0x00, 0xdc, 0x00, 0x00, 0x00, 0x02, 0x9e, 0x04, 0x00, 
    /*01c0*/ 0xe0, 0x00, 0x00, 0x00, 0x02, 0x9e, 0x04, 0x00, 0xe4, 0x00, 0x00, 0x00, 0x02, 0x9e, 0x04, 0x00, 
    /*01d0*/ 0xe8, 0x00, 0x00, 0x00, 0x02, 0x9e, 0x04, 0x00, 0xec, 0x00, 0x00, 0x00, 0x02, 0x9e, 0x04, 0x00, 
    /*01e0*/ 0xf0, 0x00, 0x00, 0x00, 0x02, 0x9e, 0x04, 0x00, 0xf4, 0x00, 0x00, 0x00, 0x02, 0x9e, 0x04, 0x00, 
    /*01f0*/ 0xf8, 0x00, 0x00, 0x00, 0x02, 0x9e, 0x04, 0x00, 0xfc, 0x00, 0x00, 0x00, 0x02, 0x9e, 0x04, 0x00, 
    /*0200*/ 0x00, 0x01, 0x00, 0x00, 0x02, 0x9e, 0x04, 0x00, 0x04, 0x01, 0x00, 0x00, 0x02, 0x9e, 0x04, 0x00, 
    /*0210*/ 0x08, 0x01, 0x00, 0x00, 0x02, 0x9e, 0x04, 0x00, 0x0c, 0x01, 0x00, 0x00, 0x02, 0x9e, 0x04, 0x00, 
    /*0220*/ 0x10, 0x01, 0x00, 0x00, 0x02, 0x9e, 0x04, 0x00, 0x14, 0x01, 0x00, 0x00, 0x02, 0x9e, 0x04, 0x00, 
    /*0230*/ 0x18, 0x01, 0x00, 0x00, 0x02, 0x9e, 0x04, 0x00, 0x1c, 0x01, 0x00, 0x00, 0x02, 0x9e, 0x04, 0x00, 
    /*0240*/ 0x20, 0x01, 0x00, 0x00, 0x02, 0x9e, 0x04, 0x00, 0x24, 0x01, 0x00, 0x00, 0x02, 0x9e, 0x04, 0x00, 
    /*0250*/ 0x28, 0x01, 0x00, 0x00, 0x02, 0x9e, 0x04, 0x00, 0x2c, 0x01, 0x00, 0x00, 0x02, 0x9e, 0x04, 0x00, 
    /*0260*/ 0x30, 0x01, 0x00, 0x00, 0x02, 0x9e, 0x04, 0x00, 0x34, 0x01, 0x00, 0x00, 0x02, 0x9e, 0x04, 0x00, 
    /*0270*/ 0x38, 0x01, 0x00, 0x00, 0x02, 0x9e, 0x04, 0x00, 0x3c, 0x01, 0x00, 0x00, 0x02, 0x9e, 0x04, 0x00, 
    /*0280*/ 0x40, 0x01, 0x00, 0x00, 0x02, 0x9e, 0x04, 0x00, 0x44, 0x01, 0x00, 0x00, 0x02, 0x9e, 0x04, 0x00, 
    /*0290*/ 0x48, 0x01, 0x00, 0x00, 0x02, 0x9e, 0x04, 0x00, 0x4c, 0x01, 0x00, 0x00, 0x02, 0x9e, 0x04, 0x00, 
    /*02a0*/ 0x50, 0x01, 0x00, 0x00, 0x02, 0x9e, 0x04, 0x00, 0x54, 0x01, 0x00, 0x00, 0x02, 0x9e, 0x04, 0x00, 
    /*02b0*/ 0x58, 0x01, 0x00, 0x00, 0x02, 0x9e, 0x04, 0x00, 0x5c, 0x01, 0x00, 0x00, 0x02, 0x9e, 0x04, 0x00, 
    /*02c0*/ 0x60, 0x01, 0x00, 0x00, 0x02, 0x9e, 0x04, 0x00, 0x64, 0x01, 0x00, 0x00, 0x02, 0x9e, 0x04, 0x00, 
    /*02d0*/ 0x68, 0x01, 0x00, 0x00, 0x02, 0x9e, 0x04, 0x00, 0x6c, 0x01, 0x00, 0x00, 0x02, 0x9e, 0x04, 0x00, 
    /*02e0*/ 0x70, 0x01, 0x00, 0x00, 0x02, 0x9e, 0x04, 0x00, 0x74, 0x01, 0x00, 0x00, 0x02, 0x9e, 0x04, 0x00, 
    /*02f0*/ 0x78, 0x01, 0x00, 0x00, 0x02, 0x9e, 0x04, 0x00, 0x7c, 0x01, 0x00, 0x00, 0x02, 0x9e, 0x04, 0x00, 
    /*0300*/ 0x80, 0x01, 0x00, 0x00, 0x02, 0x9e, 0x04, 0x00, 0x84, 0x01, 0x00, 0x00, 0x02, 0x9e, 0x04, 0x00, 
    /*0310*/ 0x88, 0x01, 0x00, 0x00, 0x02, 0x9e, 0x04, 0x00, 0x8c, 0x01, 0x00, 0x00, 0x02, 0x9e, 0x04, 0x00, 
    /*0320*/ 0x90, 0x01, 0x00, 0x00, 0x02, 0x9e, 0x04, 0x00, 0x94, 0x01, 0x00, 0x00, 0x02, 0x9e, 0x04, 0x00, 
    /*0330*/ 0x98, 0x01, 0x00, 0x00, 0x02, 0x9e, 0x04, 0x00, 0x9c, 0x01, 0x00, 0x00, 0x02, 0x9e, 0x04, 0x00, 
    /*0340*/ 0xa0, 0x01, 0x00, 0x00, 0x02, 0x9e, 0x04, 0x00, 0xa4, 0x01, 0x00, 0x00, 0x02, 0x9e, 0x04, 0x00, 
    /*0350*/ 0xa8, 0x01, 0x00, 0x00, 0x02, 0x9e, 0x04, 0x00, 0xac, 0x01, 0x00, 0x00, 0x02, 0x9e, 0x04, 0x00, 
    /*0360*/ 0xb0, 0x01, 0x00, 0x00, 0x02, 0x9e, 0x04, 0x00, 0xb4, 0x01, 0x00, 0x00, 0x02, 0x9e, 0x04, 0x00, 
    /*0370*/ 0xb8, 0x01, 0x00, 0x00, 0x02, 0x9e, 0x04, 0x00, 0xbc, 0x01, 0x00, 0x00, 0x02, 0x9e, 0x04, 0x00, 
    /*0380*/ 0xc0, 0x01, 0x00, 0x00, 0x02, 0x9e, 0x04, 0x00, 0xc4, 0x01, 0x00, 0x00, 0x02, 0x9e, 0x04, 0x00, 
    /*0390*/ 0xc8, 0x01, 0x00, 0x00, 0x02, 0x9e, 0x04, 0x00, 0xcc, 0x01, 0x00, 0x00, 0x02, 0x9e, 0x04, 0x00, 
    /*03a0*/ 0xd0, 0x01, 0x00, 0x00, 0x02, 0x9e, 0x04, 0x00, 0xd4, 0x01, 0x00, 0x00, 0x02, 0x9e, 0x04, 0x00, 
    /*03b0*/ 0xd8, 0x01, 0x00, 0x00, 0x02, 0x9e, 0x04, 0x00, 0xdc, 0x01, 0x00, 0x00, 0x02, 0x9e, 0x04, 0x00, 
    /*03c0*/ 0xe0, 0x01, 0x00, 0x00, 0x02, 0x9e, 0x04, 0x00, 0xe4, 0x01, 0x00, 0x00, 0x02, 0x9e, 0x04, 0x00, 
    /*03d0*/ 0xe8, 0x01, 0x00, 0x00, 0x02, 0x9e, 0x04, 0x00, 0xec, 0x01, 0x00, 0x00, 0x02, 0x9e, 0x04, 0x00, 
    /*03e0*/ 0xf0, 0x01, 0x00, 0x00, 0x02, 0x9e, 0x04, 0x00, 0xf4, 0x01, 0x00, 0x00, 0x02, 0x9e, 0x04, 0x00, 
    /*03f0*/ 0xf8, 0x01, 0x00, 0x00, 0x02, 0x9e, 0x04, 0x00, 0xfc, 0x01, 0x00, 0x00, 0x02, 0x9e, 0x04, 0x00, 
};

unsigned char bss._ZGVZNKSt8__detail11_AnyMatcherINSt7__cxx1112regex_traitsIcEELb0ELb1ELb1EEclEcE5__nul[4];

unsigned char bss._ZZNKSt8__detail11_AnyMatcherINSt7__cxx1112regex_traitsIcEELb0ELb1ELb1EEclEcE5__nul[1];

unsigned char bss._ZGVZNKSt8__detail11_AnyMatcherINSt7__cxx1112regex_traitsIcEELb0ELb1ELb0EEclEcE5__nul[4];

unsigned char bss._ZZNKSt8__detail11_AnyMatcherINSt7__cxx1112regex_traitsIcEELb0ELb1ELb0EEclEcE5__nul[1];

unsigned char bss._ZGVZNKSt8__detail11_AnyMatcherINSt7__cxx1112regex_traitsIcEELb0ELb0ELb1EEclEcE5__nul[4];

unsigned char bss._ZZNKSt8__detail11_AnyMatcherINSt7__cxx1112regex_traitsIcEELb0ELb0ELb1EEclEcE5__nul[1];

unsigned char bss._ZGVZNKSt8__detail11_AnyMatcherINSt7__cxx1112regex_traitsIcEELb0ELb0ELb0EEclEcE5__nul[4];

unsigned char bss._ZZNKSt8__detail11_AnyMatcherINSt7__cxx1112regex_traitsIcEELb0ELb0ELb0EEclEcE5__nul[1];

unsigned char data.rel.ro.local._ZZNKSt7__cxx1112regex_traitsIcE16lookup_classnameIPKcEENS1_10_RegexMaskET_S6_bE12__classnames[120] = {
    /*0000*/ 0xf8, 0x02, 0x00, 0x00, 0x00, 0x08, 0x00, 0x00, 0x44, 0x03, 0x00, 0x00, 0x00, 0x0c, 0x01, 0x00, 
    /*0010*/ 0x34, 0x03, 0x00, 0x00, 0x00, 0x20, 0x00, 0x00, 0x98, 0x03, 0x00, 0x00, 0x00, 0x0c, 0x00, 0x00, 
    /*0020*/ 0xa0, 0x03, 0x00, 0x00, 0x00, 0x04, 0x00, 0x00, 0xa8, 0x03, 0x00, 0x00, 0x01, 0x00, 0x00, 0x00, 
    /*0030*/ 0xb0, 0x03, 0x00, 0x00, 0x02, 0x00, 0x00, 0x00, 0xb8, 0x03, 0x00, 0x00, 0x00, 0x08, 0x00, 0x00, 
    /*0040*/ 0xc0, 0x03, 0x00, 0x00, 0x04, 0x0c, 0x00, 0x00, 0xc8, 0x03, 0x00, 0x00, 0x00, 0x02, 0x00, 0x00, 
    /*0050*/ 0xd0, 0x03, 0x00, 0x00, 0x00, 0x40, 0x00, 0x00, 0xd8, 0x03, 0x00, 0x00, 0x04, 0x00, 0x00, 0x00, 
    /*0060*/ 0xb0, 0x00, 0x00, 0x00, 0x00, 0x20, 0x00, 0x00, 0xe0, 0x03, 0x00, 0x00, 0x00, 0x01, 0x00, 0x00, 
    /*0070*/ 0xe8, 0x03, 0x00, 0x00, 0x00, 0x10, 0x00, 0x00, 
};

unsigned char rel.data.rel.ro.local._ZZNKSt7__cxx1112regex_traitsIcE16lookup_classnameIPKcEENS1_10_RegexMaskET_S6_bE12__classnames[120] = {
    /*0000*/ 0x00, 0x00, 0x00, 0x00, 0x02, 0x9e, 0x04, 0x00, 0x08, 0x00, 0x00, 0x00, 0x02, 0x9e, 0x04, 0x00, 
    /*0010*/ 0x10, 0x00, 0x00, 0x00, 0x02, 0x9e, 0x04, 0x00, 0x18, 0x00, 0x00, 0x00, 0x02, 0x9e, 0x04, 0x00, 
    /*0020*/ 0x20, 0x00, 0x00, 0x00, 0x02, 0x9e, 0x04, 0x00, 0x28, 0x00, 0x00, 0x00, 0x02, 0x9e, 0x04, 0x00, 
    /*0030*/ 0x30, 0x00, 0x00, 0x00, 0x02, 0x9e, 0x04, 0x00, 0x38, 0x00, 0x00, 0x00, 0x02, 0x9e, 0x04, 0x00, 
    /*0040*/ 0x40, 0x00, 0x00, 0x00, 0x02, 0x9e, 0x04, 0x00, 0x48, 0x00, 0x00, 0x00, 0x02, 0x9e, 0x04, 0x00, 
    /*0050*/ 0x50, 0x00, 0x00, 0x00, 0x02, 0x9e, 0x04, 0x00, 0x58, 0x00, 0x00, 0x00, 0x02, 0x9e, 0x04, 0x00, 
    /*0060*/ 0x60, 0x00, 0x00, 0x00, 0x02, 0x9e, 0x04, 0x00, 0x68, 0x00, 0x00, 0x00, 0x02, 0x9e, 0x04, 0x00, 
    /*0070*/ 0x70, 0x00, 0x00, 0x00, 0x02, 0x9e, 0x04, 0x00, 
};

_RODATA__ZZNKST8__DETAIL9_EXECUTORIN9__GNU_CXX17__NORMAL_ITERATORIPKCNST7__CXX1112BASIC_STRINGICST11CHAR_TRAITSICESAICEEEEESAINS5_9SUB_MATCHISB_EEENS5_12REGEX_TRAITSICEELB1EE10_M_IS_WORDECE3__S_0000: .ascii "w\0"


_RODATA__ZZNKST8__DETAIL9_EXECUTORIN9__GNU_CXX17__NORMAL_ITERATORIPKCNST7__CXX1112BASIC_STRINGICST11CHAR_TRAITSICESAICEEEEESAINS5_9SUB_MATCHISB_EEENS5_12REGEX_TRAITSICEELB0EE10_M_IS_WORDECE3__S_0000: .ascii "w\0"


_RODATA_0000: .ascii "^\0\0\0",
_RODATA_0004: .ascii "\x16\0\0\0",
_RODATA_0008: .ascii "$\0\0\0",
_RODATA_000c: .ascii "\x17\0\0\0",
_RODATA_0010: .ascii ".\0\0\0",
_RODATA_0014: .ascii "\0\0\0\0",
_RODATA_0018: .ascii "*\0\0\0",
_RODATA_001c: .ascii "\x14\0\0\0",
_RODATA_0020: .ascii "+\0\0\0",
_RODATA_0024: .ascii "\x15\0\0\0",
_RODATA_0028: .ascii "?\0\0\0",
_RODATA_002c: .ascii "\x12\0\0\0",
_RODATA_0030: .ascii "|\0\0\0",
_RODATA_0034: .ascii "\x13\0\0\0",
_RODATA_0038: .ascii "\n\0\0\0",
_RODATA_003c: .ascii "\x13\0\0\0",
_RODATA_0040: .ascii "\0\0\0\0",
_RODATA_0044: .ascii "\x13\0\0\0",
_RODATA_0048: .ascii "0\0b\x08f\x0cn\nr\rt\tv\x0b\0\0",
_RODATA_0058: .ascii "\"\"//\\a\x07b\x08f\x0cn\nr\rt\tv\x0b\0\0"


unsigned char bss._ZL16LOG_LEVEL_PARSER[24];

_RODATA__GLOBAL__SUB_I_HIRTSETTING_CPP_STR1_4_0000: .ascii "VERBOSE\0",
_RODATA__GLOBAL__SUB_I_HIRTSETTING_CPP_STR1_4_0008: .ascii "DEBUG\0\0\0",
_RODATA__GLOBAL__SUB_I_HIRTSETTING_CPP_STR1_4_0010: .ascii "INFO\0\0\0\0",
_RODATA__GLOBAL__SUB_I_HIRTSETTING_CPP_STR1_4_0018: .ascii "WARNING\0",
_RODATA__GLOBAL__SUB_I_HIRTSETTING_CPP_STR1_4_0020: .ascii "ERR\0",
_RODATA__GLOBAL__SUB_I_HIRTSETTING_CPP_STR1_4_0024: .ascii ""


_RODATA__ZN10HIRTPARSER11HIRTSETTING15PARSEFROMSTRINGERKNST7__CXX1112BASIC_STRINGICST11CHAR_TRAITSICESAICEEEPS0__STR1_4_0000: .ascii "%s: param pSetting is NULL\0\0",
_RODATA__ZN10HIRTPARSER11HIRTSETTING15PARSEFROMSTRINGERKNST7__CXX1112BASIC_STRINGICST11CHAR_TRAITSICESAICEEEPS0__STR1_4_001c: .ascii "hirt\0\0\0\0",
_RODATA__ZN10HIRTPARSER11HIRTSETTING15PARSEFROMSTRINGERKNST7__CXX1112BASIC_STRINGICST11CHAR_TRAITSICESAICEEEPS0__STR1_4_0024: .ascii "monitor_task_affinity\s*:\s*(\d+)\0\0\0",
_RODATA__ZN10HIRTPARSER11HIRTSETTING15PARSEFROMSTRINGERKNST7__CXX1112BASIC_STRINGICST11CHAR_TRAITSICESAICEEEPS0__STR1_4_0048: .ascii "cpu_task_affinity\s*:\s*(\d+)\0\0\0",
_RODATA__ZN10HIRTPARSER11HIRTSETTING15PARSEFROMSTRINGERKNST7__CXX1112BASIC_STRINGICST11CHAR_TRAITSICESAICEEEPS0__STR1_4_0068: .ascii "log_level\s*:\s*(\S+)\0\0\0",
_RODATA__ZN10HIRTPARSER11HIRTSETTING15PARSEFROMSTRINGERKNST7__CXX1112BASIC_STRINGICST11CHAR_TRAITSICESAICEEEPS0__STR1_4_0080: .ascii "stoi\0\0\0\0",
_RODATA__ZN10HIRTPARSER11HIRTSETTING15PARSEFROMSTRINGERKNST7__CXX1112BASIC_STRINGICST11CHAR_TRAITSICESAICEEEPS0__STR1_4_0088: .ascii "wrong log level %s\0\0",
_RODATA__ZN10HIRTPARSER11HIRTSETTING15PARSEFROMSTRINGERKNST7__CXX1112BASIC_STRINGICST11CHAR_TRAITSICESAICEEEPS0__STR1_4_009c: .ascii "monitor_task_affinity out of range\0\0",
_RODATA__ZN10HIRTPARSER11HIRTSETTING15PARSEFROMSTRINGERKNST7__CXX1112BASIC_STRINGICST11CHAR_TRAITSICESAICEEEPS0__STR1_4_00c0: .ascii "cpu_task_affinity out of range\0\0",
_RODATA__ZN10HIRTPARSER11HIRTSETTING15PARSEFROMSTRINGERKNST7__CXX1112BASIC_STRINGICST11CHAR_TRAITSICESAICEEEPS0__STR1_4_00e0: .ascii "map::at\0",
_RODATA__ZN10HIRTPARSER11HIRTSETTING15PARSEFROMSTRINGERKNST7__CXX1112BASIC_STRINGICST11CHAR_TRAITSICESAICEEEPS0__STR1_4_00e8: .ascii ""


_RODATA__ZNST6VECTORINST7__CXX119SUB_MATCHIN9__GNU_CXX17__NORMAL_ITERATORIPKCNS0_12BASIC_STRINGICST11CHAR_TRAITSICESAICEEEEEEESAISC_EE17_M_DEFAULT_APPENDEJ_STR1_4_0000: .ascii "vector::_M_default_append\0"


_RODATA__ZNST6VECTORICSAICEE12EMPLACE_BACKIJCEEEVDPOT__STR1_4_0000: .ascii "vector::_M_emplace_back_aux\0",
_RODATA__ZNST6VECTORICSAICEE12EMPLACE_BACKIJCEEEVDPOT__STR1_4_001c: .ascii ""


_RODATA__ZNST7__CXX1112BASIC_STRINGICST11CHAR_TRAITSICESAICEE12_M_CONSTRUCTIPCEEVT_S7_ST20FORWARD_ITERATOR_TAG_ISRA_93_STR1_4_0000: .ascii "basic_string::_M_construct null not valid\0"


_RODATA__ZNST8__DETAIL4_NFAINST7__CXX1112REGEX_TRAITSICEEE15_M_INSERT_STATEENS_6_STATEICEE_STR1_4_0000: .ascii "Number of NFA states exceeds limit. Please use shorter regex string, or use smaller brace expression, or make _GLIBCXX_REGEX_STATE_LIMIT larger.\0"


_RODATA__ZNST8__DETAIL4_NFAINST7__CXX1112REGEX_TRAITSICEEE17_M_INSERT_BACKREFEJ_STR1_4_0000: .ascii "Unexpected back-reference in polynomial mode.\0\0\0",
_RODATA__ZNST8__DETAIL4_NFAINST7__CXX1112REGEX_TRAITSICEEE17_M_INSERT_BACKREFEJ_STR1_4_0030: .ascii "Back-reference index exceeds current sub-expression count.\0\0",
_RODATA__ZNST8__DETAIL4_NFAINST7__CXX1112REGEX_TRAITSICEEE17_M_INSERT_BACKREFEJ_STR1_4_006c: .ascii "Back-reference referred to an opened sub-expression.\0"


_RODATA__ZNST8__DETAIL8_SCANNERICE12_M_EAT_CLASSEC_STR1_4_0000: .ascii "Unexpected end of character class.\0"


_RODATA__ZNST8__DETAIL8_SCANNERICE14_M_SCAN_NORMALEV_STR1_4_0000: .ascii "Unexpected end of regex when in an open parenthesis.\0\0\0\0",
_RODATA__ZNST8__DETAIL8_SCANNERICE14_M_SCAN_NORMALEV_STR1_4_0038: .ascii "Invalid special open parenthesis.\0"


_RODATA__ZNST8__DETAIL8_SCANNERICE16_M_SCAN_IN_BRACEEV_STR1_4_0000: .ascii "Unexpected end of regex when in brace expression.\0\0\0",
_RODATA__ZNST8__DETAIL8_SCANNERICE16_M_SCAN_IN_BRACEEV_STR1_4_0034: .ascii "Unexpected character in brace expression.\0"


_RODATA__ZNST8__DETAIL8_SCANNERICE17_M_EAT_ESCAPE_AWKEV_STR1_4_0000: .ascii "Unexpected escape character.\0"


_RODATA__ZNST8__DETAIL8_SCANNERICE18_M_EAT_ESCAPE_ECMAEV_STR1_4_0000: .ascii "Unexpected end of regex when escaping.\0\0",
_RODATA__ZNST8__DETAIL8_SCANNERICE18_M_EAT_ESCAPE_ECMAEV_STR1_4_0028: .ascii "Unexpected end of regex when reading control code.\0\0",
_RODATA__ZNST8__DETAIL8_SCANNERICE18_M_EAT_ESCAPE_ECMAEV_STR1_4_005c: .ascii "Unexpected end of regex when ascii character.\0"


_RODATA__ZNST8__DETAIL8_SCANNERICE18_M_SCAN_IN_BRACKETEV_STR1_4_0000: .ascii "Unexpected end of regex when in bracket expression.\0",
_RODATA__ZNST8__DETAIL8_SCANNERICE18_M_SCAN_IN_BRACKETEV_STR1_4_0034: .ascii "Unexpected character class open bracket.\0"


_RODATA__ZNST8__DETAIL8_SCANNERICEC2EPKCS3_NST15REGEX_CONSTANTS18SYNTAX_OPTION_TYPEEST6LOCALE_STR1_4_0000: .ascii "^$\.*+?()[]{}|\0\0",
_RODATA__ZNST8__DETAIL8_SCANNERICEC2EPKCS3_NST15REGEX_CONSTANTS18SYNTAX_OPTION_TYPEEST6LOCALE_STR1_4_0010: .ascii ".[\*^$\0\0",
_RODATA__ZNST8__DETAIL8_SCANNERICEC2EPKCS3_NST15REGEX_CONSTANTS18SYNTAX_OPTION_TYPEEST6LOCALE_STR1_4_0018: .ascii ".[\()*+?{|^$\0\0\0\0",
_RODATA__ZNST8__DETAIL8_SCANNERICEC2EPKCS3_NST15REGEX_CONSTANTS18SYNTAX_OPTION_TYPEEST6LOCALE_STR1_4_0028: .ascii ".[\*^$\n\0",
_RODATA__ZNST8__DETAIL8_SCANNERICEC2EPKCS3_NST15REGEX_CONSTANTS18SYNTAX_OPTION_TYPEEST6LOCALE_STR1_4_0030: .ascii ".[\()*+?{|^$\n\0"


_RODATA__ZNST8__DETAIL9_COMPILERINST7__CXX1112REGEX_TRAITSICEEE13_M_QUANTIFIEREV_STR1_4_0000: .ascii "Invalid range in brace expression.\0\0",
_RODATA__ZNST8__DETAIL9_COMPILERINST7__CXX1112REGEX_TRAITSICEEE13_M_QUANTIFIEREV_STR1_4_0024: .ascii "Unexpected token in brace expression.\0\0\0",
_RODATA__ZNST8__DETAIL9_COMPILERINST7__CXX1112REGEX_TRAITSICEEE13_M_QUANTIFIEREV_STR1_4_004c: .ascii "Unexpected end of brace expression.\0",
_RODATA__ZNST8__DETAIL9_COMPILERINST7__CXX1112REGEX_TRAITSICEEE13_M_QUANTIFIEREV_STR1_4_0070: .ascii ""


_RODATA__ZNST8__DETAIL9_COMPILERINST7__CXX1112REGEX_TRAITSICEEE25_M_INSERT_BRACKET_MATCHERILB1ELB0EEEVB_STR1_4_0000: .ascii "Invalid collate element.\0\0\0\0",
_RODATA__ZNST8__DETAIL9_COMPILERINST7__CXX1112REGEX_TRAITSICEEE25_M_INSERT_BRACKET_MATCHERILB1ELB0EEEVB_STR1_4_001c: .ascii "Invalid equivalence class.\0\0",
_RODATA__ZNST8__DETAIL9_COMPILERINST7__CXX1112REGEX_TRAITSICEEE25_M_INSERT_BRACKET_MATCHERILB1ELB0EEEVB_STR1_4_0038: .ascii "Invalid range in bracket expression.\0\0\0\0",
_RODATA__ZNST8__DETAIL9_COMPILERINST7__CXX1112REGEX_TRAITSICEEE25_M_INSERT_BRACKET_MATCHERILB1ELB0EEEVB_STR1_4_0060: .ascii "Unexpected end of bracket expression.\0\0\0",
_RODATA__ZNST8__DETAIL9_COMPILERINST7__CXX1112REGEX_TRAITSICEEE25_M_INSERT_BRACKET_MATCHERILB1ELB0EEEVB_STR1_4_0088: .ascii "Unexpected dash in bracket expression. For POSIX syntax, a dash is not treated literally only when it is at beginning or end.\0\0\0",
_RODATA__ZNST8__DETAIL9_COMPILERINST7__CXX1112REGEX_TRAITSICEEE25_M_INSERT_BRACKET_MATCHERILB1ELB0EEEVB_STR1_4_0108: .ascii "Unexpected character in bracket expression.\0",
_RODATA__ZNST8__DETAIL9_COMPILERINST7__CXX1112REGEX_TRAITSICEEE25_M_INSERT_BRACKET_MATCHERILB1ELB0EEEVB_STR1_4_0134: .ascii ""


_RODATA__ZNST8__DETAIL9_COMPILERINST7__CXX1112REGEX_TRAITSICEEE33_M_INSERT_CHARACTER_CLASS_MATCHERILB1ELB0EEEVV_STR1_4_0000: .ascii "Invalid character class.\0"


_RODATA__ZNST8__DETAIL9_COMPILERINST7__CXX1112REGEX_TRAITSICEEE7_M_ATOMEV_STR1_4_0000: .ascii "Parenthesis is not closed.\0"


_RODATA__ZZN10HIRTPARSER11HIRTSETTING15PARSEFROMSTRINGERKNST7__CXX1112BASIC_STRINGICST11CHAR_TRAITSICESAICEEEPS0_E12__FUNCTION___0000: .ascii "ParseFromString\0",
_RODATA__ZZN10HIRTPARSER11HIRTSETTING15PARSEFROMSTRINGERKNST7__CXX1112BASIC_STRINGICST11CHAR_TRAITSICESAICEEEPS0_E12__FUNCTION___0010: .ascii ""


_RODATA__ZZNST8__DETAIL9_COMPILERINST7__CXX1112REGEX_TRAITSICEEE13_M_QUANTIFIEREVENKULVE_CLEV_STR1_4_0000: .ascii "Nothing to repeat before a quantifier.\0"


_RODATA_STR1_4_0000: .ascii "NUL\0",
_RODATA_STR1_4_0004: .ascii "SOH\0",
_RODATA_STR1_4_0008: .ascii "STX\0",
_RODATA_STR1_4_000c: .ascii "ETX\0",
_RODATA_STR1_4_0010: .ascii "EOT\0",
_RODATA_STR1_4_0014: .ascii "ENQ\0",
_RODATA_STR1_4_0018: .ascii "ACK\0",
_RODATA_STR1_4_001c: .ascii "alert\0\0\0",
_RODATA_STR1_4_0024: .ascii "backspace\0\0\0",
_RODATA_STR1_4_0030: .ascii "tab\0",
_RODATA_STR1_4_0034: .ascii "newline\0",
_RODATA_STR1_4_003c: .ascii "vertical-tab\0\0\0\0",
_RODATA_STR1_4_004c: .ascii "form-feed\0\0\0",
_RODATA_STR1_4_0058: .ascii "carriage-return\0",
_RODATA_STR1_4_0068: .ascii "SO\0\0",
_RODATA_STR1_4_006c: .ascii "SI\0\0",
_RODATA_STR1_4_0070: .ascii "DLE\0",
_RODATA_STR1_4_0074: .ascii "DC1\0",
_RODATA_STR1_4_0078: .ascii "DC2\0",
_RODATA_STR1_4_007c: .ascii "DC3\0",
_RODATA_STR1_4_0080: .ascii "DC4\0",
_RODATA_STR1_4_0084: .ascii "NAK\0",
_RODATA_STR1_4_0088: .ascii "SYN\0",
_RODATA_STR1_4_008c: .ascii "ETB\0",
_RODATA_STR1_4_0090: .ascii "CAN\0",
_RODATA_STR1_4_0094: .ascii "EM\0\0",
_RODATA_STR1_4_0098: .ascii "SUB\0",
_RODATA_STR1_4_009c: .ascii "ESC\0",
_RODATA_STR1_4_00a0: .ascii "IS4\0",
_RODATA_STR1_4_00a4: .ascii "IS3\0",
_RODATA_STR1_4_00a8: .ascii "IS2\0",
_RODATA_STR1_4_00ac: .ascii "IS1\0",
_RODATA_STR1_4_00b0: .ascii "space\0\0\0",
_RODATA_STR1_4_00b8: .ascii "exclamation-mark\0\0\0\0",
_RODATA_STR1_4_00cc: .ascii "quotation-mark\0\0",
_RODATA_STR1_4_00dc: .ascii "number-sign\0",
_RODATA_STR1_4_00e8: .ascii "dollar-sign\0",
_RODATA_STR1_4_00f4: .ascii "percent-sign\0\0\0\0",
_RODATA_STR1_4_0104: .ascii "ampersand\0\0\0",
_RODATA_STR1_4_0110: .ascii "apostrophe\0\0",
_RODATA_STR1_4_011c: .ascii "left-parenthesis\0\0\0\0",
_RODATA_STR1_4_0130: .ascii "right-parenthesis\0\0\0",
_RODATA_STR1_4_0144: .ascii "asterisk\0\0\0\0",
_RODATA_STR1_4_0150: .ascii "plus-sign\0\0\0",
_RODATA_STR1_4_015c: .ascii "comma\0\0\0",
_RODATA_STR1_4_0164: .ascii "hyphen\0\0",
_RODATA_STR1_4_016c: .ascii "period\0\0",
_RODATA_STR1_4_0174: .ascii "slash\0\0\0",
_RODATA_STR1_4_017c: .ascii "zero\0\0\0\0",
_RODATA_STR1_4_0184: .ascii "one\0",
_RODATA_STR1_4_0188: .ascii "two\0",
_RODATA_STR1_4_018c: .ascii "three\0\0\0",
_RODATA_STR1_4_0194: .ascii "four\0\0\0\0",
_RODATA_STR1_4_019c: .ascii "five\0\0\0\0",
_RODATA_STR1_4_01a4: .ascii "six\0",
_RODATA_STR1_4_01a8: .ascii "seven\0\0\0",
_RODATA_STR1_4_01b0: .ascii "eight\0\0\0",
_RODATA_STR1_4_01b8: .ascii "nine\0\0\0\0",
_RODATA_STR1_4_01c0: .ascii "colon\0\0\0",
_RODATA_STR1_4_01c8: .ascii "semicolon\0\0\0",
_RODATA_STR1_4_01d4: .ascii "less-than-sign\0\0",
_RODATA_STR1_4_01e4: .ascii "equals-sign\0",
_RODATA_STR1_4_01f0: .ascii "greater-than-sign\0\0\0",
_RODATA_STR1_4_0204: .ascii "question-mark\0\0\0",
_RODATA_STR1_4_0214: .ascii "commercial-at\0\0\0",
_RODATA_STR1_4_0224: .ascii "A\0\0\0",
_RODATA_STR1_4_0228: .ascii "B\0\0\0",
_RODATA_STR1_4_022c: .ascii "C\0\0\0",
_RODATA_STR1_4_0230: .ascii "D\0\0\0",
_RODATA_STR1_4_0234: .ascii "E\0\0\0",
_RODATA_STR1_4_0238: .ascii "F\0\0\0",
_RODATA_STR1_4_023c: .ascii "G\0\0\0",
_RODATA_STR1_4_0240: .ascii "H\0\0\0",
_RODATA_STR1_4_0244: .ascii "I\0\0\0",
_RODATA_STR1_4_0248: .ascii "J\0\0\0",
_RODATA_STR1_4_024c: .ascii "K\0\0\0",
_RODATA_STR1_4_0250: .ascii "L\0\0\0",
_RODATA_STR1_4_0254: .ascii "M\0\0\0",
_RODATA_STR1_4_0258: .ascii "N\0\0\0",
_RODATA_STR1_4_025c: .ascii "O\0\0\0",
_RODATA_STR1_4_0260: .ascii "P\0\0\0",
_RODATA_STR1_4_0264: .ascii "Q\0\0\0",
_RODATA_STR1_4_0268: .ascii "R\0\0\0",
_RODATA_STR1_4_026c: .ascii "S\0\0\0",
_RODATA_STR1_4_0270: .ascii "T\0\0\0",
_RODATA_STR1_4_0274: .ascii "U\0\0\0",
_RODATA_STR1_4_0278: .ascii "V\0\0\0",
_RODATA_STR1_4_027c: .ascii "W\0\0\0",
_RODATA_STR1_4_0280: .ascii "X\0\0\0",
_RODATA_STR1_4_0284: .ascii "Y\0\0\0",
_RODATA_STR1_4_0288: .ascii "Z\0\0\0",
_RODATA_STR1_4_028c: .ascii "left-square-bracket\0",
_RODATA_STR1_4_02a0: .ascii "backslash\0\0\0",
_RODATA_STR1_4_02ac: .ascii "right-square-bracket\0\0\0\0",
_RODATA_STR1_4_02c4: .ascii "circumflex\0\0",
_RODATA_STR1_4_02d0: .ascii "underscore\0\0",
_RODATA_STR1_4_02dc: .ascii "grave-accent\0\0\0\0",
_RODATA_STR1_4_02ec: .ascii "a\0\0\0",
_RODATA_STR1_4_02f0: .ascii "b\0\0\0",
_RODATA_STR1_4_02f4: .ascii "c\0\0\0",
_RODATA_STR1_4_02f8: .ascii "d\0\0\0",
_RODATA_STR1_4_02fc: .ascii "e\0\0\0",
_RODATA_STR1_4_0300: .ascii "f\0\0\0",
_RODATA_STR1_4_0304: .ascii "g\0\0\0",
_RODATA_STR1_4_0308: .ascii "h\0\0\0",
_RODATA_STR1_4_030c: .ascii "i\0\0\0",
_RODATA_STR1_4_0310: .ascii "j\0\0\0",
_RODATA_STR1_4_0314: .ascii "k\0\0\0",
_RODATA_STR1_4_0318: .ascii "l\0\0\0",
_RODATA_STR1_4_031c: .ascii "m\0\0\0",
_RODATA_STR1_4_0320: .ascii "n\0\0\0",
_RODATA_STR1_4_0324: .ascii "o\0\0\0",
_RODATA_STR1_4_0328: .ascii "p\0\0\0",
_RODATA_STR1_4_032c: .ascii "q\0\0\0",
_RODATA_STR1_4_0330: .ascii "r\0\0\0",
_RODATA_STR1_4_0334: .ascii "s\0\0\0",
_RODATA_STR1_4_0338: .ascii "t\0\0\0",
_RODATA_STR1_4_033c: .ascii "u\0\0\0",
_RODATA_STR1_4_0340: .ascii "v\0\0\0",
_RODATA_STR1_4_0344: .ascii "w\0\0\0",
_RODATA_STR1_4_0348: .ascii "x\0\0\0",
_RODATA_STR1_4_034c: .ascii "y\0\0\0",
_RODATA_STR1_4_0350: .ascii "z\0\0\0",
_RODATA_STR1_4_0354: .ascii "left-curly-bracket\0\0",
_RODATA_STR1_4_0368: .ascii "vertical-line\0\0\0",
_RODATA_STR1_4_0378: .ascii "right-curly-bracket\0",
_RODATA_STR1_4_038c: .ascii "tilde\0\0\0",
_RODATA_STR1_4_0394: .ascii "DEL\0",
_RODATA_STR1_4_0398: .ascii "alnum\0\0\0",
_RODATA_STR1_4_03a0: .ascii "alpha\0\0\0",
_RODATA_STR1_4_03a8: .ascii "blank\0\0\0",
_RODATA_STR1_4_03b0: .ascii "cntrl\0\0\0",
_RODATA_STR1_4_03b8: .ascii "digit\0\0\0",
_RODATA_STR1_4_03c0: .ascii "graph\0\0\0",
_RODATA_STR1_4_03c8: .ascii "lower\0\0\0",
_RODATA_STR1_4_03d0: .ascii "print\0\0\0",
_RODATA_STR1_4_03d8: .ascii "punct\0\0\0",
_RODATA_STR1_4_03e0: .ascii "upper\0\0\0",
_RODATA_STR1_4_03e8: .ascii "xdigit\0"


@ - - - - - - - - - - - - - - - - - - - - - - - - - - - - - 
@ .text._ZNKSt5ctypeIcE8do_widenEc
@ Size: 0x8
@ - - - - - - - - - - - - - - - - - - - - - - - - - - - - - 

FUNC_BEGIN _ZNKSt5ctypeIcE8do_widenEc
    /*00000000*/ MOV         R0, R1 
    /*00000004*/ BX          LR 
FUNC_END _ZNKSt5ctypeIcE8do_widenEc


@ - - - - - - - - - - - - - - - - - - - - - - - - - - - - - 
@ .text._ZNKSt5ctypeIcE9do_narrowEcc
@ Size: 0x8
@ - - - - - - - - - - - - - - - - - - - - - - - - - - - - - 

FUNC_BEGIN _ZNKSt5ctypeIcE9do_narrowEcc
    /*00000000*/ MOV         R0, R1 
    /*00000004*/ BX          LR 
FUNC_END _ZNKSt5ctypeIcE9do_narrowEcc


@ - - - - - - - - - - - - - - - - - - - - - - - - - - - - - 
@ .text._ZNSt14_Function_base13_Base_managerINSt8__detail11_AnyMatcherINSt7__cxx1112regex_traitsIcEELb0ELb0ELb0EEEE10_M_managerERSt9_Any_dataRKS8_St18_Manager_operation
@ Size: 0x3c
@ - - - - - - - - - - - - - - - - - - - - - - - - - - - - - 

FUNC_BEGIN _ZNSt14_Function_base13_Base_managerINSt8__detail11_AnyMatcherINSt7__cxx1112regex_traitsIcEELb0ELb0ELb0EEEE10_M_managerERSt9_Any_dataRKS8_St18_Manager_operation
    /*00000000*/ LDR         R3, WORD_0034               @ LDR         R3, [PC, #44]               @ 0x0000000000000034 
    /*00000004*/ CMP         R2, #0 
    /*00000008*/ ADD         R3, PC, R3 
    /*0000000c*/ BEQ         _ZNSt14_Function_base13_Base_managerINSt8__detail11_AnyMatcherINSt7__cxx1112regex_traitsIcEELb0ELb0ELb0EEEE10_M_managerERSt9_Any_dataRKS8_St18_Manager_operation_x20
    /*00000010*/ CMP         R2, #1 
    /*00000014*/ STREQ       R1, [R0] 
    /*00000018*/ MOV         R0, #0 
    /*0000001c*/ BX          LR 
    _ZNSt14_Function_base13_Base_managerINSt8__detail11_AnyMatcherINSt7__cxx1112regex_traitsIcEELb0ELb0ELb0EEEE10_M_managerERSt9_Any_dataRKS8_St18_Manager_operation_x20:
    /*00000020*/ LDR         R2, WORD_0038               @ LDR         R2, [PC, #16]               @ 0x0000000000000038 
    /*00000024*/ LDR         R3, [R3, R2] 
    /*00000028*/ STR         R3, [R0] 
    /*0000002c*/ MOV         R0, #0 
    /*00000030*/ BX          LR 
    /*00000034*/ WORD_0034: .word 0x00000024
    /*00000038*/ WORD_0038: .word 0x00000000
FUNC_END _ZNSt14_Function_base13_Base_managerINSt8__detail11_AnyMatcherINSt7__cxx1112regex_traitsIcEELb0ELb0ELb0EEEE10_M_managerERSt9_Any_dataRKS8_St18_Manager_operation


@ - - - - - - - - - - - - - - - - - - - - - - - - - - - - - 
@ .text._ZNSt14_Function_base13_Base_managerINSt8__detail11_AnyMatcherINSt7__cxx1112regex_traitsIcEELb0ELb0ELb1EEEE10_M_managerERSt9_Any_dataRKS8_St18_Manager_operation
@ Size: 0x48
@ - - - - - - - - - - - - - - - - - - - - - - - - - - - - - 

FUNC_BEGIN _ZNSt14_Function_base13_Base_managerINSt8__detail11_AnyMatcherINSt7__cxx1112regex_traitsIcEELb0ELb0ELb1EEEE10_M_managerERSt9_Any_dataRKS8_St18_Manager_operation
    /*00000000*/ LDR         R3, WORD_0040               @ LDR         R3, [PC, #56]               @ 0x0000000000000040 
    /*00000004*/ CMP         R2, #1 
    /*00000008*/ STREQ       R1, [R0] 
    /*0000000c*/ ADD         R3, PC, R3 
    /*00000010*/ BEQ         _ZNSt14_Function_base13_Base_managerINSt8__detail11_AnyMatcherINSt7__cxx1112regex_traitsIcEELb0ELb0ELb1EEEE10_M_managerERSt9_Any_dataRKS8_St18_Manager_operation_x24
    /*00000014*/ BCC         _ZNSt14_Function_base13_Base_managerINSt8__detail11_AnyMatcherINSt7__cxx1112regex_traitsIcEELb0ELb0ELb1EEEE10_M_managerERSt9_Any_dataRKS8_St18_Manager_operation_x2c
    /*00000018*/ CMP         R2, #2 
    /*0000001c*/ LDREQ       R3, [R1] 
    /*00000020*/ STREQ       R3, [R0] 
    _ZNSt14_Function_base13_Base_managerINSt8__detail11_AnyMatcherINSt7__cxx1112regex_traitsIcEELb0ELb0ELb1EEEE10_M_managerERSt9_Any_dataRKS8_St18_Manager_operation_x24:
    /*00000024*/ MOV         R0, #0 
    /*00000028*/ BX          LR 
    _ZNSt14_Function_base13_Base_managerINSt8__detail11_AnyMatcherINSt7__cxx1112regex_traitsIcEELb0ELb0ELb1EEEE10_M_managerERSt9_Any_dataRKS8_St18_Manager_operation_x2c:
    /*0000002c*/ LDR         R2, WORD_0044               @ LDR         R2, [PC, #16]               @ 0x0000000000000044 
    /*00000030*/ LDR         R3, [R3, R2] 
    /*00000034*/ STR         R3, [R0] 
    /*00000038*/ MOV         R0, #0 
    /*0000003c*/ BX          LR 
    /*00000040*/ WORD_0040: .word 0x0000002c
    /*00000044*/ WORD_0044: .word 0x00000000
FUNC_END _ZNSt14_Function_base13_Base_managerINSt8__detail11_AnyMatcherINSt7__cxx1112regex_traitsIcEELb0ELb0ELb1EEEE10_M_managerERSt9_Any_dataRKS8_St18_Manager_operation


@ - - - - - - - - - - - - - - - - - - - - - - - - - - - - - 
@ .text._ZNSt14_Function_base13_Base_managerINSt8__detail11_AnyMatcherINSt7__cxx1112regex_traitsIcEELb0ELb1ELb0EEEE10_M_managerERSt9_Any_dataRKS8_St18_Manager_operation
@ Size: 0x48
@ - - - - - - - - - - - - - - - - - - - - - - - - - - - - - 

FUNC_BEGIN _ZNSt14_Function_base13_Base_managerINSt8__detail11_AnyMatcherINSt7__cxx1112regex_traitsIcEELb0ELb1ELb0EEEE10_M_managerERSt9_Any_dataRKS8_St18_Manager_operation
    /*00000000*/ LDR         R3, WORD_0040               @ LDR         R3, [PC, #56]               @ 0x0000000000000040 
    /*00000004*/ CMP         R2, #1 
    /*00000008*/ STREQ       R1, [R0] 
    /*0000000c*/ ADD         R3, PC, R3 
    /*00000010*/ BEQ         _ZNSt14_Function_base13_Base_managerINSt8__detail11_AnyMatcherINSt7__cxx1112regex_traitsIcEELb0ELb1ELb0EEEE10_M_managerERSt9_Any_dataRKS8_St18_Manager_operation_x24
    /*00000014*/ BCC         _ZNSt14_Function_base13_Base_managerINSt8__detail11_AnyMatcherINSt7__cxx1112regex_traitsIcEELb0ELb1ELb0EEEE10_M_managerERSt9_Any_dataRKS8_St18_Manager_operation_x2c
    /*00000018*/ CMP         R2, #2 
    /*0000001c*/ LDREQ       R3, [R1] 
    /*00000020*/ STREQ       R3, [R0] 
    _ZNSt14_Function_base13_Base_managerINSt8__detail11_AnyMatcherINSt7__cxx1112regex_traitsIcEELb0ELb1ELb0EEEE10_M_managerERSt9_Any_dataRKS8_St18_Manager_operation_x24:
    /*00000024*/ MOV         R0, #0 
    /*00000028*/ BX          LR 
    _ZNSt14_Function_base13_Base_managerINSt8__detail11_AnyMatcherINSt7__cxx1112regex_traitsIcEELb0ELb1ELb0EEEE10_M_managerERSt9_Any_dataRKS8_St18_Manager_operation_x2c:
    /*0000002c*/ LDR         R2, WORD_0044               @ LDR         R2, [PC, #16]               @ 0x0000000000000044 
    /*00000030*/ LDR         R3, [R3, R2] 
    /*00000034*/ STR         R3, [R0] 
    /*00000038*/ MOV         R0, #0 
    /*0000003c*/ BX          LR 
    /*00000040*/ WORD_0040: .word 0x0000002c
    /*00000044*/ WORD_0044: .word 0x00000000
FUNC_END _ZNSt14_Function_base13_Base_managerINSt8__detail11_AnyMatcherINSt7__cxx1112regex_traitsIcEELb0ELb1ELb0EEEE10_M_managerERSt9_Any_dataRKS8_St18_Manager_operation


@ - - - - - - - - - - - - - - - - - - - - - - - - - - - - - 
@ .text._ZNSt14_Function_base13_Base_managerINSt8__detail11_AnyMatcherINSt7__cxx1112regex_traitsIcEELb0ELb1ELb1EEEE10_M_managerERSt9_Any_dataRKS8_St18_Manager_operation
@ Size: 0x48
@ - - - - - - - - - - - - - - - - - - - - - - - - - - - - - 

FUNC_BEGIN _ZNSt14_Function_base13_Base_managerINSt8__detail11_AnyMatcherINSt7__cxx1112regex_traitsIcEELb0ELb1ELb1EEEE10_M_managerERSt9_Any_dataRKS8_St18_Manager_operation
    /*00000000*/ LDR         R3, WORD_0040               @ LDR         R3, [PC, #56]               @ 0x0000000000000040 
    /*00000004*/ CMP         R2, #1 
    /*00000008*/ STREQ       R1, [R0] 
    /*0000000c*/ ADD         R3, PC, R3 
    /*00000010*/ BEQ         _ZNSt14_Function_base13_Base_managerINSt8__detail11_AnyMatcherINSt7__cxx1112regex_traitsIcEELb0ELb1ELb1EEEE10_M_managerERSt9_Any_dataRKS8_St18_Manager_operation_x24
    /*00000014*/ BCC         _ZNSt14_Function_base13_Base_managerINSt8__detail11_AnyMatcherINSt7__cxx1112regex_traitsIcEELb0ELb1ELb1EEEE10_M_managerERSt9_Any_dataRKS8_St18_Manager_operation_x2c
    /*00000018*/ CMP         R2, #2 
    /*0000001c*/ LDREQ       R3, [R1] 
    /*00000020*/ STREQ       R3, [R0] 
    _ZNSt14_Function_base13_Base_managerINSt8__detail11_AnyMatcherINSt7__cxx1112regex_traitsIcEELb0ELb1ELb1EEEE10_M_managerERSt9_Any_dataRKS8_St18_Manager_operation_x24:
    /*00000024*/ MOV         R0, #0 
    /*00000028*/ BX          LR 
    _ZNSt14_Function_base13_Base_managerINSt8__detail11_AnyMatcherINSt7__cxx1112regex_traitsIcEELb0ELb1ELb1EEEE10_M_managerERSt9_Any_dataRKS8_St18_Manager_operation_x2c:
    /*0000002c*/ LDR         R2, WORD_0044               @ LDR         R2, [PC, #16]               @ 0x0000000000000044 
    /*00000030*/ LDR         R3, [R3, R2] 
    /*00000034*/ STR         R3, [R0] 
    /*00000038*/ MOV         R0, #0 
    /*0000003c*/ BX          LR 
    /*00000040*/ WORD_0040: .word 0x0000002c
    /*00000044*/ WORD_0044: .word 0x00000000
FUNC_END _ZNSt14_Function_base13_Base_managerINSt8__detail11_AnyMatcherINSt7__cxx1112regex_traitsIcEELb0ELb1ELb1EEEE10_M_managerERSt9_Any_dataRKS8_St18_Manager_operation


@ - - - - - - - - - - - - - - - - - - - - - - - - - - - - - 
@ .text._ZNSt17_Function_handlerIFbcENSt8__detail11_AnyMatcherINSt7__cxx1112regex_traitsIcEELb1ELb0ELb0EEEE9_M_invokeERKSt9_Any_dataOc
@ Size: 0x18
@ - - - - - - - - - - - - - - - - - - - - - - - - - - - - - 

FUNC_BEGIN _ZNSt17_Function_handlerIFbcENSt8__detail11_AnyMatcherINSt7__cxx1112regex_traitsIcEELb1ELb0ELb0EEEE9_M_invokeERKSt9_Any_dataOc
    /*00000000*/ LDRB        R0, [R1] 
    /*00000004*/ CMP         R0, #13 
    /*00000008*/ CMPNE       R0, #10 
    /*0000000c*/ MOVNE       R0, #1 
    /*00000010*/ MOVEQ       R0, #0 
    /*00000014*/ BX          LR 
FUNC_END _ZNSt17_Function_handlerIFbcENSt8__detail11_AnyMatcherINSt7__cxx1112regex_traitsIcEELb1ELb0ELb0EEEE9_M_invokeERKSt9_Any_dataOc


@ - - - - - - - - - - - - - - - - - - - - - - - - - - - - - 
@ .text._ZNSt14_Function_base13_Base_managerINSt8__detail11_AnyMatcherINSt7__cxx1112regex_traitsIcEELb1ELb0ELb0EEEE10_M_managerERSt9_Any_dataRKS8_St18_Manager_operation
@ Size: 0x3c
@ - - - - - - - - - - - - - - - - - - - - - - - - - - - - - 

FUNC_BEGIN _ZNSt14_Function_base13_Base_managerINSt8__detail11_AnyMatcherINSt7__cxx1112regex_traitsIcEELb1ELb0ELb0EEEE10_M_managerERSt9_Any_dataRKS8_St18_Manager_operation
    /*00000000*/ LDR         R3, WORD_0034               @ LDR         R3, [PC, #44]               @ 0x0000000000000034 
    /*00000004*/ CMP         R2, #0 
    /*00000008*/ ADD         R3, PC, R3 
    /*0000000c*/ BEQ         _ZNSt14_Function_base13_Base_managerINSt8__detail11_AnyMatcherINSt7__cxx1112regex_traitsIcEELb1ELb0ELb0EEEE10_M_managerERSt9_Any_dataRKS8_St18_Manager_operation_x20
    /*00000010*/ CMP         R2, #1 
    /*00000014*/ STREQ       R1, [R0] 
    /*00000018*/ MOV         R0, #0 
    /*0000001c*/ BX          LR 
    _ZNSt14_Function_base13_Base_managerINSt8__detail11_AnyMatcherINSt7__cxx1112regex_traitsIcEELb1ELb0ELb0EEEE10_M_managerERSt9_Any_dataRKS8_St18_Manager_operation_x20:
    /*00000020*/ LDR         R2, WORD_0038               @ LDR         R2, [PC, #16]               @ 0x0000000000000038 
    /*00000024*/ LDR         R3, [R3, R2] 
    /*00000028*/ STR         R3, [R0] 
    /*0000002c*/ MOV         R0, #0 
    /*00000030*/ BX          LR 
    /*00000034*/ WORD_0034: .word 0x00000024
    /*00000038*/ WORD_0038: .word 0x00000000
FUNC_END _ZNSt14_Function_base13_Base_managerINSt8__detail11_AnyMatcherINSt7__cxx1112regex_traitsIcEELb1ELb0ELb0EEEE10_M_managerERSt9_Any_dataRKS8_St18_Manager_operation


@ - - - - - - - - - - - - - - - - - - - - - - - - - - - - - 
@ .text._ZNSt17_Function_handlerIFbcENSt8__detail11_AnyMatcherINSt7__cxx1112regex_traitsIcEELb1ELb0ELb1EEEE9_M_invokeERKSt9_Any_dataOc
@ Size: 0x18
@ - - - - - - - - - - - - - - - - - - - - - - - - - - - - - 

FUNC_BEGIN _ZNSt17_Function_handlerIFbcENSt8__detail11_AnyMatcherINSt7__cxx1112regex_traitsIcEELb1ELb0ELb1EEEE9_M_invokeERKSt9_Any_dataOc
    /*00000000*/ LDRB        R0, [R1] 
    /*00000004*/ CMP         R0, #13 
    /*00000008*/ CMPNE       R0, #10 
    /*0000000c*/ MOVNE       R0, #1 
    /*00000010*/ MOVEQ       R0, #0 
    /*00000014*/ BX          LR 
FUNC_END _ZNSt17_Function_handlerIFbcENSt8__detail11_AnyMatcherINSt7__cxx1112regex_traitsIcEELb1ELb0ELb1EEEE9_M_invokeERKSt9_Any_dataOc


@ - - - - - - - - - - - - - - - - - - - - - - - - - - - - - 
@ .text._ZNSt14_Function_base13_Base_managerINSt8__detail11_AnyMatcherINSt7__cxx1112regex_traitsIcEELb1ELb0ELb1EEEE10_M_managerERSt9_Any_dataRKS8_St18_Manager_operation
@ Size: 0x48
@ - - - - - - - - - - - - - - - - - - - - - - - - - - - - - 

FUNC_BEGIN _ZNSt14_Function_base13_Base_managerINSt8__detail11_AnyMatcherINSt7__cxx1112regex_traitsIcEELb1ELb0ELb1EEEE10_M_managerERSt9_Any_dataRKS8_St18_Manager_operation
    /*00000000*/ LDR         R3, WORD_0040               @ LDR         R3, [PC, #56]               @ 0x0000000000000040 
    /*00000004*/ CMP         R2, #1 
    /*00000008*/ STREQ       R1, [R0] 
    /*0000000c*/ ADD         R3, PC, R3 
    /*00000010*/ BEQ         _ZNSt14_Function_base13_Base_managerINSt8__detail11_AnyMatcherINSt7__cxx1112regex_traitsIcEELb1ELb0ELb1EEEE10_M_managerERSt9_Any_dataRKS8_St18_Manager_operation_x24
    /*00000014*/ BCC         _ZNSt14_Function_base13_Base_managerINSt8__detail11_AnyMatcherINSt7__cxx1112regex_traitsIcEELb1ELb0ELb1EEEE10_M_managerERSt9_Any_dataRKS8_St18_Manager_operation_x2c
    /*00000018*/ CMP         R2, #2 
    /*0000001c*/ LDREQ       R3, [R1] 
    /*00000020*/ STREQ       R3, [R0] 
    _ZNSt14_Function_base13_Base_managerINSt8__detail11_AnyMatcherINSt7__cxx1112regex_traitsIcEELb1ELb0ELb1EEEE10_M_managerERSt9_Any_dataRKS8_St18_Manager_operation_x24:
    /*00000024*/ MOV         R0, #0 
    /*00000028*/ BX          LR 
    _ZNSt14_Function_base13_Base_managerINSt8__detail11_AnyMatcherINSt7__cxx1112regex_traitsIcEELb1ELb0ELb1EEEE10_M_managerERSt9_Any_dataRKS8_St18_Manager_operation_x2c:
    /*0000002c*/ LDR         R2, WORD_0044               @ LDR         R2, [PC, #16]               @ 0x0000000000000044 
    /*00000030*/ LDR         R3, [R3, R2] 
    /*00000034*/ STR         R3, [R0] 
    /*00000038*/ MOV         R0, #0 
    /*0000003c*/ BX          LR 
    /*00000040*/ WORD_0040: .word 0x0000002c
    /*00000044*/ WORD_0044: .word 0x00000000
FUNC_END _ZNSt14_Function_base13_Base_managerINSt8__detail11_AnyMatcherINSt7__cxx1112regex_traitsIcEELb1ELb0ELb1EEEE10_M_managerERSt9_Any_dataRKS8_St18_Manager_operation


@ - - - - - - - - - - - - - - - - - - - - - - - - - - - - - 
@ .text._ZNSt14_Function_base13_Base_managerINSt8__detail11_AnyMatcherINSt7__cxx1112regex_traitsIcEELb1ELb1ELb0EEEE10_M_managerERSt9_Any_dataRKS8_St18_Manager_operation
@ Size: 0x48
@ - - - - - - - - - - - - - - - - - - - - - - - - - - - - - 

FUNC_BEGIN _ZNSt14_Function_base13_Base_managerINSt8__detail11_AnyMatcherINSt7__cxx1112regex_traitsIcEELb1ELb1ELb0EEEE10_M_managerERSt9_Any_dataRKS8_St18_Manager_operation
    /*00000000*/ LDR         R3, WORD_0040               @ LDR         R3, [PC, #56]               @ 0x0000000000000040 
    /*00000004*/ CMP         R2, #1 
    /*00000008*/ STREQ       R1, [R0] 
    /*0000000c*/ ADD         R3, PC, R3 
    /*00000010*/ BEQ         _ZNSt14_Function_base13_Base_managerINSt8__detail11_AnyMatcherINSt7__cxx1112regex_traitsIcEELb1ELb1ELb0EEEE10_M_managerERSt9_Any_dataRKS8_St18_Manager_operation_x24
    /*00000014*/ BCC         _ZNSt14_Function_base13_Base_managerINSt8__detail11_AnyMatcherINSt7__cxx1112regex_traitsIcEELb1ELb1ELb0EEEE10_M_managerERSt9_Any_dataRKS8_St18_Manager_operation_x2c
    /*00000018*/ CMP         R2, #2 
    /*0000001c*/ LDREQ       R3, [R1] 
    /*00000020*/ STREQ       R3, [R0] 
    _ZNSt14_Function_base13_Base_managerINSt8__detail11_AnyMatcherINSt7__cxx1112regex_traitsIcEELb1ELb1ELb0EEEE10_M_managerERSt9_Any_dataRKS8_St18_Manager_operation_x24:
    /*00000024*/ MOV         R0, #0 
    /*00000028*/ BX          LR 
    _ZNSt14_Function_base13_Base_managerINSt8__detail11_AnyMatcherINSt7__cxx1112regex_traitsIcEELb1ELb1ELb0EEEE10_M_managerERSt9_Any_dataRKS8_St18_Manager_operation_x2c:
    /*0000002c*/ LDR         R2, WORD_0044               @ LDR         R2, [PC, #16]               @ 0x0000000000000044 
    /*00000030*/ LDR         R3, [R3, R2] 
    /*00000034*/ STR         R3, [R0] 
    /*00000038*/ MOV         R0, #0 
    /*0000003c*/ BX          LR 
    /*00000040*/ WORD_0040: .word 0x0000002c
    /*00000044*/ WORD_0044: .word 0x00000000
FUNC_END _ZNSt14_Function_base13_Base_managerINSt8__detail11_AnyMatcherINSt7__cxx1112regex_traitsIcEELb1ELb1ELb0EEEE10_M_managerERSt9_Any_dataRKS8_St18_Manager_operation


@ - - - - - - - - - - - - - - - - - - - - - - - - - - - - - 
@ .text._ZNSt14_Function_base13_Base_managerINSt8__detail11_AnyMatcherINSt7__cxx1112regex_traitsIcEELb1ELb1ELb1EEEE10_M_managerERSt9_Any_dataRKS8_St18_Manager_operation
@ Size: 0x48
@ - - - - - - - - - - - - - - - - - - - - - - - - - - - - - 

FUNC_BEGIN _ZNSt14_Function_base13_Base_managerINSt8__detail11_AnyMatcherINSt7__cxx1112regex_traitsIcEELb1ELb1ELb1EEEE10_M_managerERSt9_Any_dataRKS8_St18_Manager_operation
    /*00000000*/ LDR         R3, WORD_0040               @ LDR         R3, [PC, #56]               @ 0x0000000000000040 
    /*00000004*/ CMP         R2, #1 
    /*00000008*/ STREQ       R1, [R0] 
    /*0000000c*/ ADD         R3, PC, R3 
    /*00000010*/ BEQ         _ZNSt14_Function_base13_Base_managerINSt8__detail11_AnyMatcherINSt7__cxx1112regex_traitsIcEELb1ELb1ELb1EEEE10_M_managerERSt9_Any_dataRKS8_St18_Manager_operation_x24
    /*00000014*/ BCC         _ZNSt14_Function_base13_Base_managerINSt8__detail11_AnyMatcherINSt7__cxx1112regex_traitsIcEELb1ELb1ELb1EEEE10_M_managerERSt9_Any_dataRKS8_St18_Manager_operation_x2c
    /*00000018*/ CMP         R2, #2 
    /*0000001c*/ LDREQ       R3, [R1] 
    /*00000020*/ STREQ       R3, [R0] 
    _ZNSt14_Function_base13_Base_managerINSt8__detail11_AnyMatcherINSt7__cxx1112regex_traitsIcEELb1ELb1ELb1EEEE10_M_managerERSt9_Any_dataRKS8_St18_Manager_operation_x24:
    /*00000024*/ MOV         R0, #0 
    /*00000028*/ BX          LR 
    _ZNSt14_Function_base13_Base_managerINSt8__detail11_AnyMatcherINSt7__cxx1112regex_traitsIcEELb1ELb1ELb1EEEE10_M_managerERSt9_Any_dataRKS8_St18_Manager_operation_x2c:
    /*0000002c*/ LDR         R2, WORD_0044               @ LDR         R2, [PC, #16]               @ 0x0000000000000044 
    /*00000030*/ LDR         R3, [R3, R2] 
    /*00000034*/ STR         R3, [R0] 
    /*00000038*/ MOV         R0, #0 
    /*0000003c*/ BX          LR 
    /*00000040*/ WORD_0040: .word 0x0000002c
    /*00000044*/ WORD_0044: .word 0x00000000
FUNC_END _ZNSt14_Function_base13_Base_managerINSt8__detail11_AnyMatcherINSt7__cxx1112regex_traitsIcEELb1ELb1ELb1EEEE10_M_managerERSt9_Any_dataRKS8_St18_Manager_operation


@ - - - - - - - - - - - - - - - - - - - - - - - - - - - - - 
@ .text._ZNSt17_Function_handlerIFbcENSt8__detail12_CharMatcherINSt7__cxx1112regex_traitsIcEELb0ELb0EEEE9_M_invokeERKSt9_Any_dataOc
@ Size: 0x18
@ - - - - - - - - - - - - - - - - - - - - - - - - - - - - - 

FUNC_BEGIN _ZNSt17_Function_handlerIFbcENSt8__detail12_CharMatcherINSt7__cxx1112regex_traitsIcEELb0ELb0EEEE9_M_invokeERKSt9_Any_dataOc
    /*00000000*/ LDRB        R3, [R1] 
    /*00000004*/ LDRB        R0, [R0, #1] 
    /*00000008*/ SUB         R0, R3, R0 
    /*0000000c*/ CLZ         R0, R0 
    /*00000010*/ LSR         R0, R0, #5 
    /*00000014*/ BX          LR 
FUNC_END _ZNSt17_Function_handlerIFbcENSt8__detail12_CharMatcherINSt7__cxx1112regex_traitsIcEELb0ELb0EEEE9_M_invokeERKSt9_Any_dataOc


@ - - - - - - - - - - - - - - - - - - - - - - - - - - - - - 
@ .text._ZNSt14_Function_base13_Base_managerINSt8__detail12_CharMatcherINSt7__cxx1112regex_traitsIcEELb0ELb0EEEE10_M_managerERSt9_Any_dataRKS8_St18_Manager_operation
@ Size: 0x48
@ - - - - - - - - - - - - - - - - - - - - - - - - - - - - - 

FUNC_BEGIN _ZNSt14_Function_base13_Base_managerINSt8__detail12_CharMatcherINSt7__cxx1112regex_traitsIcEELb0ELb0EEEE10_M_managerERSt9_Any_dataRKS8_St18_Manager_operation
    /*00000000*/ LDR         R3, WORD_0040               @ LDR         R3, [PC, #56]               @ 0x0000000000000040 
    /*00000004*/ CMP         R2, #1 
    /*00000008*/ STREQ       R1, [R0] 
    /*0000000c*/ ADD         R3, PC, R3 
    /*00000010*/ BEQ         _ZNSt14_Function_base13_Base_managerINSt8__detail12_CharMatcherINSt7__cxx1112regex_traitsIcEELb0ELb0EEEE10_M_managerERSt9_Any_dataRKS8_St18_Manager_operation_x24
    /*00000014*/ BCC         _ZNSt14_Function_base13_Base_managerINSt8__detail12_CharMatcherINSt7__cxx1112regex_traitsIcEELb0ELb0EEEE10_M_managerERSt9_Any_dataRKS8_St18_Manager_operation_x2c
    /*00000018*/ CMP         R2, #2 
    /*0000001c*/ LDRHEQ      R3, [R1] 
    /*00000020*/ STRHEQ      R3, [R0] 
    _ZNSt14_Function_base13_Base_managerINSt8__detail12_CharMatcherINSt7__cxx1112regex_traitsIcEELb0ELb0EEEE10_M_managerERSt9_Any_dataRKS8_St18_Manager_operation_x24:
    /*00000024*/ MOV         R0, #0 
    /*00000028*/ BX          LR 
    _ZNSt14_Function_base13_Base_managerINSt8__detail12_CharMatcherINSt7__cxx1112regex_traitsIcEELb0ELb0EEEE10_M_managerERSt9_Any_dataRKS8_St18_Manager_operation_x2c:
    /*0000002c*/ LDR         R2, WORD_0044               @ LDR         R2, [PC, #16]               @ 0x0000000000000044 
    /*00000030*/ LDR         R3, [R3, R2] 
    /*00000034*/ STR         R3, [R0] 
    /*00000038*/ MOV         R0, #0 
    /*0000003c*/ BX          LR 
    /*00000040*/ WORD_0040: .word 0x0000002c
    /*00000044*/ WORD_0044: .word 0x00000000
FUNC_END _ZNSt14_Function_base13_Base_managerINSt8__detail12_CharMatcherINSt7__cxx1112regex_traitsIcEELb0ELb0EEEE10_M_managerERSt9_Any_dataRKS8_St18_Manager_operation


@ - - - - - - - - - - - - - - - - - - - - - - - - - - - - - 
@ .text._ZNSt17_Function_handlerIFbcENSt8__detail12_CharMatcherINSt7__cxx1112regex_traitsIcEELb0ELb1EEEE9_M_invokeERKSt9_Any_dataOc
@ Size: 0x18
@ - - - - - - - - - - - - - - - - - - - - - - - - - - - - - 

FUNC_BEGIN _ZNSt17_Function_handlerIFbcENSt8__detail12_CharMatcherINSt7__cxx1112regex_traitsIcEELb0ELb1EEEE9_M_invokeERKSt9_Any_dataOc
    /*00000000*/ LDRB        R3, [R1] 
    /*00000004*/ LDRB        R0, [R0, #4] 
    /*00000008*/ SUB         R0, R3, R0 
    /*0000000c*/ CLZ         R0, R0 
    /*00000010*/ LSR         R0, R0, #5 
    /*00000014*/ BX          LR 
FUNC_END _ZNSt17_Function_handlerIFbcENSt8__detail12_CharMatcherINSt7__cxx1112regex_traitsIcEELb0ELb1EEEE9_M_invokeERKSt9_Any_dataOc


@ - - - - - - - - - - - - - - - - - - - - - - - - - - - - - 
@ .text._ZNSt14_Function_base13_Base_managerINSt8__detail12_CharMatcherINSt7__cxx1112regex_traitsIcEELb0ELb1EEEE10_M_managerERSt9_Any_dataRKS8_St18_Manager_operation
@ Size: 0x4c
@ - - - - - - - - - - - - - - - - - - - - - - - - - - - - - 

FUNC_BEGIN _ZNSt14_Function_base13_Base_managerINSt8__detail12_CharMatcherINSt7__cxx1112regex_traitsIcEELb0ELb1EEEE10_M_managerERSt9_Any_dataRKS8_St18_Manager_operation
    /*00000000*/ LDR         R3, WORD_0044               @ LDR         R3, [PC, #60]               @ 0x0000000000000044 
    /*00000004*/ CMP         R2, #1 
    /*00000008*/ STREQ       R1, [R0] 
    /*0000000c*/ MOV         IP, R0 
    /*00000010*/ ADD         R3, PC, R3 
    /*00000014*/ BEQ         _ZNSt14_Function_base13_Base_managerINSt8__detail12_CharMatcherINSt7__cxx1112regex_traitsIcEELb0ELb1EEEE10_M_managerERSt9_Any_dataRKS8_St18_Manager_operation_x28
    /*00000018*/ BCC         _ZNSt14_Function_base13_Base_managerINSt8__detail12_CharMatcherINSt7__cxx1112regex_traitsIcEELb0ELb1EEEE10_M_managerERSt9_Any_dataRKS8_St18_Manager_operation_x30
    /*0000001c*/ CMP         R2, #2 
    /*00000020*/ LDMEQ       R1, {R0, R1} 
    /*00000024*/ STMEQ       IP, {R0, R1} 
    _ZNSt14_Function_base13_Base_managerINSt8__detail12_CharMatcherINSt7__cxx1112regex_traitsIcEELb0ELb1EEEE10_M_managerERSt9_Any_dataRKS8_St18_Manager_operation_x28:
    /*00000028*/ MOV         R0, #0 
    /*0000002c*/ BX          LR 
    _ZNSt14_Function_base13_Base_managerINSt8__detail12_CharMatcherINSt7__cxx1112regex_traitsIcEELb0ELb1EEEE10_M_managerERSt9_Any_dataRKS8_St18_Manager_operation_x30:
    /*00000030*/ LDR         R2, WORD_0048               @ LDR         R2, [PC, #16]               @ 0x0000000000000048 
    /*00000034*/ LDR         R3, [R3, R2] 
    /*00000038*/ STR         R3, [R0] 
    /*0000003c*/ MOV         R0, #0 
    /*00000040*/ BX          LR 
    /*00000044*/ WORD_0044: .word 0x0000002c
    /*00000048*/ WORD_0048: .word 0x00000000
FUNC_END _ZNSt14_Function_base13_Base_managerINSt8__detail12_CharMatcherINSt7__cxx1112regex_traitsIcEELb0ELb1EEEE10_M_managerERSt9_Any_dataRKS8_St18_Manager_operation


@ - - - - - - - - - - - - - - - - - - - - - - - - - - - - - 
@ .text._ZNSt14_Function_base13_Base_managerINSt8__detail12_CharMatcherINSt7__cxx1112regex_traitsIcEELb1ELb0EEEE10_M_managerERSt9_Any_dataRKS8_St18_Manager_operation
@ Size: 0x4c
@ - - - - - - - - - - - - - - - - - - - - - - - - - - - - - 

FUNC_BEGIN _ZNSt14_Function_base13_Base_managerINSt8__detail12_CharMatcherINSt7__cxx1112regex_traitsIcEELb1ELb0EEEE10_M_managerERSt9_Any_dataRKS8_St18_Manager_operation
    /*00000000*/ LDR         R3, WORD_0044               @ LDR         R3, [PC, #60]               @ 0x0000000000000044 
    /*00000004*/ CMP         R2, #1 
    /*00000008*/ STREQ       R1, [R0] 
    /*0000000c*/ MOV         IP, R0 
    /*00000010*/ ADD         R3, PC, R3 
    /*00000014*/ BEQ         _ZNSt14_Function_base13_Base_managerINSt8__detail12_CharMatcherINSt7__cxx1112regex_traitsIcEELb1ELb0EEEE10_M_managerERSt9_Any_dataRKS8_St18_Manager_operation_x28
    /*00000018*/ BCC         _ZNSt14_Function_base13_Base_managerINSt8__detail12_CharMatcherINSt7__cxx1112regex_traitsIcEELb1ELb0EEEE10_M_managerERSt9_Any_dataRKS8_St18_Manager_operation_x30
    /*0000001c*/ CMP         R2, #2 
    /*00000020*/ LDMEQ       R1, {R0, R1} 
    /*00000024*/ STMEQ       IP, {R0, R1} 
    _ZNSt14_Function_base13_Base_managerINSt8__detail12_CharMatcherINSt7__cxx1112regex_traitsIcEELb1ELb0EEEE10_M_managerERSt9_Any_dataRKS8_St18_Manager_operation_x28:
    /*00000028*/ MOV         R0, #0 
    /*0000002c*/ BX          LR 
    _ZNSt14_Function_base13_Base_managerINSt8__detail12_CharMatcherINSt7__cxx1112regex_traitsIcEELb1ELb0EEEE10_M_managerERSt9_Any_dataRKS8_St18_Manager_operation_x30:
    /*00000030*/ LDR         R2, WORD_0048               @ LDR         R2, [PC, #16]               @ 0x0000000000000048 
    /*00000034*/ LDR         R3, [R3, R2] 
    /*00000038*/ STR         R3, [R0] 
    /*0000003c*/ MOV         R0, #0 
    /*00000040*/ BX          LR 
    /*00000044*/ WORD_0044: .word 0x0000002c
    /*00000048*/ WORD_0048: .word 0x00000000
FUNC_END _ZNSt14_Function_base13_Base_managerINSt8__detail12_CharMatcherINSt7__cxx1112regex_traitsIcEELb1ELb0EEEE10_M_managerERSt9_Any_dataRKS8_St18_Manager_operation


@ - - - - - - - - - - - - - - - - - - - - - - - - - - - - - 
@ .text._ZNSt14_Function_base13_Base_managerINSt8__detail12_CharMatcherINSt7__cxx1112regex_traitsIcEELb1ELb1EEEE10_M_managerERSt9_Any_dataRKS8_St18_Manager_operation
@ Size: 0x4c
@ - - - - - - - - - - - - - - - - - - - - - - - - - - - - - 

FUNC_BEGIN _ZNSt14_Function_base13_Base_managerINSt8__detail12_CharMatcherINSt7__cxx1112regex_traitsIcEELb1ELb1EEEE10_M_managerERSt9_Any_dataRKS8_St18_Manager_operation
    /*00000000*/ LDR         R3, WORD_0044               @ LDR         R3, [PC, #60]               @ 0x0000000000000044 
    /*00000004*/ CMP         R2, #1 
    /*00000008*/ STREQ       R1, [R0] 
    /*0000000c*/ MOV         IP, R0 
    /*00000010*/ ADD         R3, PC, R3 
    /*00000014*/ BEQ         _ZNSt14_Function_base13_Base_managerINSt8__detail12_CharMatcherINSt7__cxx1112regex_traitsIcEELb1ELb1EEEE10_M_managerERSt9_Any_dataRKS8_St18_Manager_operation_x28
    /*00000018*/ BCC         _ZNSt14_Function_base13_Base_managerINSt8__detail12_CharMatcherINSt7__cxx1112regex_traitsIcEELb1ELb1EEEE10_M_managerERSt9_Any_dataRKS8_St18_Manager_operation_x30
    /*0000001c*/ CMP         R2, #2 
    /*00000020*/ LDMEQ       R1, {R0, R1} 
    /*00000024*/ STMEQ       IP, {R0, R1} 
    _ZNSt14_Function_base13_Base_managerINSt8__detail12_CharMatcherINSt7__cxx1112regex_traitsIcEELb1ELb1EEEE10_M_managerERSt9_Any_dataRKS8_St18_Manager_operation_x28:
    /*00000028*/ MOV         R0, #0 
    /*0000002c*/ BX          LR 
    _ZNSt14_Function_base13_Base_managerINSt8__detail12_CharMatcherINSt7__cxx1112regex_traitsIcEELb1ELb1EEEE10_M_managerERSt9_Any_dataRKS8_St18_Manager_operation_x30:
    /*00000030*/ LDR         R2, WORD_0048               @ LDR         R2, [PC, #16]               @ 0x0000000000000048 
    /*00000034*/ LDR         R3, [R3, R2] 
    /*00000038*/ STR         R3, [R0] 
    /*0000003c*/ MOV         R0, #0 
    /*00000040*/ BX          LR 
    /*00000044*/ WORD_0044: .word 0x0000002c
    /*00000048*/ WORD_0048: .word 0x00000000
FUNC_END _ZNSt14_Function_base13_Base_managerINSt8__detail12_CharMatcherINSt7__cxx1112regex_traitsIcEELb1ELb1EEEE10_M_managerERSt9_Any_dataRKS8_St18_Manager_operation


@ - - - - - - - - - - - - - - - - - - - - - - - - - - - - - 
@ .text._ZNSt17_Function_handlerIFbcENSt8__detail15_BracketMatcherINSt7__cxx1112regex_traitsIcEELb0ELb0EEEE9_M_invokeERKSt9_Any_dataOc
@ Size: 0x2c
@ - - - - - - - - - - - - - - - - - - - - - - - - - - - - - 

FUNC_BEGIN _ZNSt17_Function_handlerIFbcENSt8__detail15_BracketMatcherINSt7__cxx1112regex_traitsIcEELb0ELb0EEEE9_M_invokeERKSt9_Any_dataOc
    /*00000000*/ LDRB        R3, [R1] 
    /*00000004*/ MOV         R1, #1 
    /*00000008*/ LDR         R2, [R0] 
    /*0000000c*/ LSR         R0, R3, #5 
    /*00000010*/ AND         R3, R3, #31 
    /*00000014*/ ADD         R2, R2, R0, LSL #2 
    /*00000018*/ LDR         R2, [R2, #64]               @ 0x40 
    /*0000001c*/ ANDS        R3, R2, R1, LSL R3 
    /*00000020*/ MOVNE       R0, R1 
    /*00000024*/ MOVEQ       R0, #0 
    /*00000028*/ BX          LR 
FUNC_END _ZNSt17_Function_handlerIFbcENSt8__detail15_BracketMatcherINSt7__cxx1112regex_traitsIcEELb0ELb0EEEE9_M_invokeERKSt9_Any_dataOc


@ - - - - - - - - - - - - - - - - - - - - - - - - - - - - - 
@ .text._ZNSt17_Function_handlerIFbcENSt8__detail15_BracketMatcherINSt7__cxx1112regex_traitsIcEELb0ELb1EEEE9_M_invokeERKSt9_Any_dataOc
@ Size: 0x2c
@ - - - - - - - - - - - - - - - - - - - - - - - - - - - - - 

FUNC_BEGIN _ZNSt17_Function_handlerIFbcENSt8__detail15_BracketMatcherINSt7__cxx1112regex_traitsIcEELb0ELb1EEEE9_M_invokeERKSt9_Any_dataOc
    /*00000000*/ LDRB        R3, [R1] 
    /*00000004*/ MOV         R1, #1 
    /*00000008*/ LDR         R2, [R0] 
    /*0000000c*/ LSR         R0, R3, #5 
    /*00000010*/ AND         R3, R3, #31 
    /*00000014*/ ADD         R2, R2, R0, LSL #2 
    /*00000018*/ LDR         R2, [R2, #64]               @ 0x40 
    /*0000001c*/ ANDS        R3, R2, R1, LSL R3 
    /*00000020*/ MOVNE       R0, R1 
    /*00000024*/ MOVEQ       R0, #0 
    /*00000028*/ BX          LR 
FUNC_END _ZNSt17_Function_handlerIFbcENSt8__detail15_BracketMatcherINSt7__cxx1112regex_traitsIcEELb0ELb1EEEE9_M_invokeERKSt9_Any_dataOc


@ - - - - - - - - - - - - - - - - - - - - - - - - - - - - - 
@ .text._ZNSt17_Function_handlerIFbcENSt8__detail15_BracketMatcherINSt7__cxx1112regex_traitsIcEELb1ELb0EEEE9_M_invokeERKSt9_Any_dataOc
@ Size: 0x2c
@ - - - - - - - - - - - - - - - - - - - - - - - - - - - - - 

FUNC_BEGIN _ZNSt17_Function_handlerIFbcENSt8__detail15_BracketMatcherINSt7__cxx1112regex_traitsIcEELb1ELb0EEEE9_M_invokeERKSt9_Any_dataOc
    /*00000000*/ LDRB        R3, [R1] 
    /*00000004*/ MOV         R1, #1 
    /*00000008*/ LDR         R2, [R0] 
    /*0000000c*/ LSR         R0, R3, #5 
    /*00000010*/ AND         R3, R3, #31 
    /*00000014*/ ADD         R2, R2, R0, LSL #2 
    /*00000018*/ LDR         R2, [R2, #64]               @ 0x40 
    /*0000001c*/ ANDS        R3, R2, R1, LSL R3 
    /*00000020*/ MOVNE       R0, R1 
    /*00000024*/ MOVEQ       R0, #0 
    /*00000028*/ BX          LR 
FUNC_END _ZNSt17_Function_handlerIFbcENSt8__detail15_BracketMatcherINSt7__cxx1112regex_traitsIcEELb1ELb0EEEE9_M_invokeERKSt9_Any_dataOc


@ - - - - - - - - - - - - - - - - - - - - - - - - - - - - - 
@ .text._ZNSt17_Function_handlerIFbcENSt8__detail15_BracketMatcherINSt7__cxx1112regex_traitsIcEELb1ELb1EEEE9_M_invokeERKSt9_Any_dataOc
@ Size: 0x2c
@ - - - - - - - - - - - - - - - - - - - - - - - - - - - - - 

FUNC_BEGIN _ZNSt17_Function_handlerIFbcENSt8__detail15_BracketMatcherINSt7__cxx1112regex_traitsIcEELb1ELb1EEEE9_M_invokeERKSt9_Any_dataOc
    /*00000000*/ LDRB        R3, [R1] 
    /*00000004*/ MOV         R1, #1 
    /*00000008*/ LDR         R2, [R0] 
    /*0000000c*/ LSR         R0, R3, #5 
    /*00000010*/ AND         R3, R3, #31 
    /*00000014*/ ADD         R2, R2, R0, LSL #2 
    /*00000018*/ LDR         R2, [R2, #64]               @ 0x40 
    /*0000001c*/ ANDS        R3, R2, R1, LSL R3 
    /*00000020*/ MOVNE       R0, R1 
    /*00000024*/ MOVEQ       R0, #0 
    /*00000028*/ BX          LR 
FUNC_END _ZNSt17_Function_handlerIFbcENSt8__detail15_BracketMatcherINSt7__cxx1112regex_traitsIcEELb1ELb1EEEE9_M_invokeERKSt9_Any_dataOc


@ - - - - - - - - - - - - - - - - - - - - - - - - - - - - - 
@ .text._ZNSt23_Sp_counted_ptr_inplaceINSt8__detail4_NFAINSt7__cxx1112regex_traitsIcEEEESaIS5_ELN9__gnu_cxx12_Lock_policyE2EED2Ev
@ Size: 0x4
@ - - - - - - - - - - - - - - - - - - - - - - - - - - - - - 

FUNC_BEGIN _ZNSt23_Sp_counted_ptr_inplaceINSt8__detail4_NFAINSt7__cxx1112regex_traitsIcEEEESaIS5_ELN9__gnu_cxx12_Lock_policyE2EED2Ev
    /*00000000*/ BX          LR 
FUNC_END _ZNSt23_Sp_counted_ptr_inplaceINSt8__detail4_NFAINSt7__cxx1112regex_traitsIcEEEESaIS5_ELN9__gnu_cxx12_Lock_policyE2EED2Ev


FUNC_BEGIN _ZNSt23_Sp_counted_ptr_inplaceINSt8__detail4_NFAINSt7__cxx1112regex_traitsIcEEEESaIS5_ELN9__gnu_cxx12_Lock_policyE2EED1Ev
    /*00000000*/ BX          LR 
FUNC_END _ZNSt23_Sp_counted_ptr_inplaceINSt8__detail4_NFAINSt7__cxx1112regex_traitsIcEEEESaIS5_ELN9__gnu_cxx12_Lock_policyE2EED1Ev


@ - - - - - - - - - - - - - - - - - - - - - - - - - - - - - 
@ .text._ZNSt23_Sp_counted_ptr_inplaceINSt8__detail4_NFAINSt7__cxx1112regex_traitsIcEEEESaIS5_ELN9__gnu_cxx12_Lock_policyE2EE14_M_get_deleterERKSt9type_info
@ Size: 0x44
@ - - - - - - - - - - - - - - - - - - - - - - - - - - - - - 

FUNC_BEGIN _ZNSt23_Sp_counted_ptr_inplaceINSt8__detail4_NFAINSt7__cxx1112regex_traitsIcEEEESaIS5_ELN9__gnu_cxx12_Lock_policyE2EE14_M_get_deleterERKSt9type_info
    /*00000000*/ MOV         IP, #16384                  @ 0x4000 
    /*00000004*/ PUSH        {R4, LR} 
    /*00000008*/ SUB         IP, SP, IP 
    /*0000000c*/ STR         R0, [IP, #4088]             @ 0xff8 
    /*00000010*/ LDR         R3, WORD_003c               @ LDR         R3, [PC, #36]               @ 0x000000000000003c 
    /*00000014*/ MOV         R4, R0 
    /*00000018*/ LDR         R2, WORD_0040               @ LDR         R2, [PC, #32]               @ 0x0000000000000040 
    /*0000001c*/ MOV         R0, R1 
    /*00000020*/ ADD         R3, PC, R3 
    /*00000024*/ LDR         R2, [R3, R2] 
    /*00000028*/ MOV         R1, R2 
    /*0000002c*/ BL          _ZNKSt9type_infoeqERKS_
    /*00000030*/ CMP         R0, #0 
    /*00000034*/ ADDNE       R0, R4, #12 
    /*00000038*/ POP         {R4, PC} 
    /*0000003c*/ WORD_003c: .word 0x00000014
    /*00000040*/ WORD_0040: .word 0x00000000
FUNC_END _ZNSt23_Sp_counted_ptr_inplaceINSt8__detail4_NFAINSt7__cxx1112regex_traitsIcEEEESaIS5_ELN9__gnu_cxx12_Lock_policyE2EE14_M_get_deleterERKSt9type_info


@ - - - - - - - - - - - - - - - - - - - - - - - - - - - - - 
@ .text._ZNSt23_Sp_counted_ptr_inplaceINSt8__detail4_NFAINSt7__cxx1112regex_traitsIcEEEESaIS5_ELN9__gnu_cxx12_Lock_policyE2EE10_M_destroyEv
@ Size: 0x4
@ - - - - - - - - - - - - - - - - - - - - - - - - - - - - - 

FUNC_BEGIN _ZNSt23_Sp_counted_ptr_inplaceINSt8__detail4_NFAINSt7__cxx1112regex_traitsIcEEEESaIS5_ELN9__gnu_cxx12_Lock_policyE2EE10_M_destroyEv
    _ZNSt23_Sp_counted_ptr_inplaceINSt8__detail4_NFAINSt7__cxx1112regex_traitsIcEEEESaIS5_ELN9__gnu_cxx12_Lock_policyE2EE10_M_destroyEv_x0:
    /*00000000*/ B           _ZNSt23_Sp_counted_ptr_inplaceINSt8__detail4_NFAINSt7__cxx1112regex_traitsIcEEEESaIS5_ELN9__gnu_cxx12_Lock_policyE2EE10_M_destroyEv_x0@ _ZdlPv [R_ARM_JUMP24: +0x0] 
FUNC_END _ZNSt23_Sp_counted_ptr_inplaceINSt8__detail4_NFAINSt7__cxx1112regex_traitsIcEEEESaIS5_ELN9__gnu_cxx12_Lock_policyE2EE10_M_destroyEv


@ - - - - - - - - - - - - - - - - - - - - - - - - - - - - - 
@ .text._ZNSt23_Sp_counted_ptr_inplaceINSt8__detail4_NFAINSt7__cxx1112regex_traitsIcEEEESaIS5_ELN9__gnu_cxx12_Lock_policyE2EED0Ev
@ Size: 0x24
@ - - - - - - - - - - - - - - - - - - - - - - - - - - - - - 

FUNC_BEGIN _ZNSt23_Sp_counted_ptr_inplaceINSt8__detail4_NFAINSt7__cxx1112regex_traitsIcEEEESaIS5_ELN9__gnu_cxx12_Lock_policyE2EED0Ev
    /*00000000*/ MOV         IP, #16384                  @ 0x4000 
    /*00000004*/ PUSH        {R4, LR} 
    /*00000008*/ SUB         IP, SP, IP 
    /*0000000c*/ STR         R0, [IP, #4088]             @ 0xff8 
    /*00000010*/ MOV         R1, #56                     @ 0x38 
    /*00000014*/ MOV         R4, R0 
    /*00000018*/ BL          _ZdlPvj
    /*0000001c*/ MOV         R0, R4 
    /*00000020*/ POP         {R4, PC} 
FUNC_END _ZNSt23_Sp_counted_ptr_inplaceINSt8__detail4_NFAINSt7__cxx1112regex_traitsIcEEEESaIS5_ELN9__gnu_cxx12_Lock_policyE2EED0Ev


@ - - - - - - - - - - - - - - - - - - - - - - - - - - - - - 
@ .text._ZNSt7__cxx1112basic_stringIcSt11char_traitsIcESaIcEE12_M_constructIPcEEvT_S7_St20forward_iterator_tag.isra.93
@ Size: 0xc0
@ - - - - - - - - - - - - - - - - - - - - - - - - - - - - - 

FUNC_BEGIN _ZNSt7__cxx1112basic_stringIcSt11char_traitsIcESaIcEE12_M_constructIPcEEvT_S7_St20forward_iterator_tag.isra.93
    /*00000000*/ MOV         IP, #16384                  @ 0x4000 
    /*00000004*/ PUSH        {R4, R5, R6, LR} 
    /*00000008*/ SUB         IP, SP, IP 
    /*0000000c*/ STR         R0, [IP, #4072]             @ 0xfe8 
    /*00000010*/ CLZ         R3, R1 
    /*00000014*/ CMP         R2, #0 
    /*00000018*/ SUB         SP, SP, #8 
    /*0000001c*/ LSR         R3, R3, #5 
    /*00000020*/ MOVEQ       R3, #0 
    /*00000024*/ CMP         R3, #0 
    /*00000028*/ BEQ         _ZNSt7__cxx1112basic_stringIcSt11char_traitsIcESaIcEE12_M_constructIPcEEvT_S7_St20forward_iterator_tag.isra.93_x38
    /*0000002c*/ LDR         R0, WORD_00bc               @ LDR         R0, [PC, #136]              @ 0x00000000000000bc 
    /*00000030*/ ADD         R0, PC, R0 
    /*00000034*/ BL          _ZSt19__throw_logic_errorPKc
    _ZNSt7__cxx1112basic_stringIcSt11char_traitsIcESaIcEE12_M_constructIPcEEvT_S7_St20forward_iterator_tag.isra.93_x38:
    /*00000038*/ SUB         R4, R2, R1 
    /*0000003c*/ MOV         R6, R1 
    /*00000040*/ STR         R4, [SP, #4] 
    /*00000044*/ CMP         R4, #15 
    /*00000048*/ MOV         R5, R0 
    /*0000004c*/ BHI         _ZNSt7__cxx1112basic_stringIcSt11char_traitsIcESaIcEE12_M_constructIPcEEvT_S7_St20forward_iterator_tag.isra.93_x78
    /*00000050*/ LDR         R0, [R5] 
    /*00000054*/ CMP         R4, #1 
    /*00000058*/ BEQ         _ZNSt7__cxx1112basic_stringIcSt11char_traitsIcESaIcEE12_M_constructIPcEEvT_S7_St20forward_iterator_tag.isra.93_xa8
    /*0000005c*/ CMP         R4, #0 
    /*00000060*/ BNE         _ZNSt7__cxx1112basic_stringIcSt11char_traitsIcESaIcEE12_M_constructIPcEEvT_S7_St20forward_iterator_tag.isra.93_x90
    _ZNSt7__cxx1112basic_stringIcSt11char_traitsIcESaIcEE12_M_constructIPcEEvT_S7_St20forward_iterator_tag.isra.93_x64:
    /*00000064*/ STR         R4, [R5, #4] 
    /*00000068*/ MOV         R3, #0 
    /*0000006c*/ STRB        R3, [R0, R4] 
    /*00000070*/ ADD         SP, SP, #8 
    /*00000074*/ POP         {R4, R5, R6, PC} 
    _ZNSt7__cxx1112basic_stringIcSt11char_traitsIcESaIcEE12_M_constructIPcEEvT_S7_St20forward_iterator_tag.isra.93_x78:
    /*00000078*/ MOV         R2, R3 
    /*0000007c*/ ADD         R1, SP, #4 
    /*00000080*/ BL          _ZNSt7__cxx1112basic_stringIcSt11char_traitsIcESaIcEE9_M_createERjj
    /*00000084*/ LDR         R3, [SP, #4] 
    /*00000088*/ STR         R0, [R5] 
    /*0000008c*/ STR         R3, [R5, #8] 
    _ZNSt7__cxx1112basic_stringIcSt11char_traitsIcESaIcEE12_M_constructIPcEEvT_S7_St20forward_iterator_tag.isra.93_x90:
    /*00000090*/ MOV         R2, R4 
    /*00000094*/ MOV         R1, R6 
    /*00000098*/ BL          memcpy
    /*0000009c*/ LDR         R4, [SP, #4] 
    /*000000a0*/ LDR         R0, [R5] 
    /*000000a4*/ B           _ZNSt7__cxx1112basic_stringIcSt11char_traitsIcESaIcEE12_M_constructIPcEEvT_S7_St20forward_iterator_tag.isra.93_x64
    _ZNSt7__cxx1112basic_stringIcSt11char_traitsIcESaIcEE12_M_constructIPcEEvT_S7_St20forward_iterator_tag.isra.93_xa8:
    /*000000a8*/ LDRB        R3, [R6] 
    /*000000ac*/ STRB        R3, [R0] 
    /*000000b0*/ LDR         R4, [SP, #4] 
    /*000000b4*/ LDR         R0, [R5] 
    /*000000b8*/ B           _ZNSt7__cxx1112basic_stringIcSt11char_traitsIcESaIcEE12_M_constructIPcEEvT_S7_St20forward_iterator_tag.isra.93_x64
    /*000000bc*/ WORD_00bc: .word 0x00000084
FUNC_END _ZNSt7__cxx1112basic_stringIcSt11char_traitsIcESaIcEE12_M_constructIPcEEvT_S7_St20forward_iterator_tag.isra.93


FUNC_BEGIN _ZNSt7__cxx1112basic_stringIcSt11char_traitsIcESaIcEE12_M_constructIPKcEEvT_S8_St20forward_iterator_tag.isra.74
    /*00000000*/ MOV         IP, #16384                  @ 0x4000 
    /*00000004*/ PUSH        {R4, R5, R6, LR} 
    /*00000008*/ SUB         IP, SP, IP 
    /*0000000c*/ STR         R0, [IP, #4072]             @ 0xfe8 
    /*00000010*/ CLZ         R3, R1 
    /*00000014*/ CMP         R2, #0 
    /*00000018*/ SUB         SP, SP, #8 
    /*0000001c*/ LSR         R3, R3, #5 
    /*00000020*/ MOVEQ       R3, #0 
    /*00000024*/ CMP         R3, #0 
    /*00000028*/ BEQ         _ZNSt7__cxx1112basic_stringIcSt11char_traitsIcESaIcEE12_M_constructIPKcEEvT_S8_St20forward_iterator_tag.isra.74_x38
    /*0000002c*/ LDR         R0, WORD_00bc               @ LDR         R0, [PC, #136]              @ 0x00000000000000bc 
    /*00000030*/ ADD         R0, PC, R0 
    /*00000034*/ BL          _ZSt19__throw_logic_errorPKc
    _ZNSt7__cxx1112basic_stringIcSt11char_traitsIcESaIcEE12_M_constructIPKcEEvT_S8_St20forward_iterator_tag.isra.74_x38:
    /*00000038*/ SUB         R4, R2, R1 
    /*0000003c*/ MOV         R6, R1 
    /*00000040*/ STR         R4, [SP, #4] 
    /*00000044*/ CMP         R4, #15 
    /*00000048*/ MOV         R5, R0 
    /*0000004c*/ BHI         _ZNSt7__cxx1112basic_stringIcSt11char_traitsIcESaIcEE12_M_constructIPKcEEvT_S8_St20forward_iterator_tag.isra.74_x78
    /*00000050*/ LDR         R0, [R5] 
    /*00000054*/ CMP         R4, #1 
    /*00000058*/ BEQ         _ZNSt7__cxx1112basic_stringIcSt11char_traitsIcESaIcEE12_M_constructIPKcEEvT_S8_St20forward_iterator_tag.isra.74_xa8
    /*0000005c*/ CMP         R4, #0 
    /*00000060*/ BNE         _ZNSt7__cxx1112basic_stringIcSt11char_traitsIcESaIcEE12_M_constructIPKcEEvT_S8_St20forward_iterator_tag.isra.74_x90
    _ZNSt7__cxx1112basic_stringIcSt11char_traitsIcESaIcEE12_M_constructIPKcEEvT_S8_St20forward_iterator_tag.isra.74_x64:
    /*00000064*/ STR         R4, [R5, #4] 
    /*00000068*/ MOV         R3, #0 
    /*0000006c*/ STRB        R3, [R0, R4] 
    /*00000070*/ ADD         SP, SP, #8 
    /*00000074*/ POP         {R4, R5, R6, PC} 
    _ZNSt7__cxx1112basic_stringIcSt11char_traitsIcESaIcEE12_M_constructIPKcEEvT_S8_St20forward_iterator_tag.isra.74_x78:
    /*00000078*/ MOV         R2, R3 
    /*0000007c*/ ADD         R1, SP, #4 
    /*00000080*/ BL          _ZNSt7__cxx1112basic_stringIcSt11char_traitsIcESaIcEE9_M_createERjj
    /*00000084*/ LDR         R3, [SP, #4] 
    /*00000088*/ STR         R0, [R5] 
    /*0000008c*/ STR         R3, [R5, #8] 
    _ZNSt7__cxx1112basic_stringIcSt11char_traitsIcESaIcEE12_M_constructIPKcEEvT_S8_St20forward_iterator_tag.isra.74_x90:
    /*00000090*/ MOV         R2, R4 
    /*00000094*/ MOV         R1, R6 
    /*00000098*/ BL          memcpy
    /*0000009c*/ LDR         R4, [SP, #4] 
    /*000000a0*/ LDR         R0, [R5] 
    /*000000a4*/ B           _ZNSt7__cxx1112basic_stringIcSt11char_traitsIcESaIcEE12_M_constructIPKcEEvT_S8_St20forward_iterator_tag.isra.74_x64
    _ZNSt7__cxx1112basic_stringIcSt11char_traitsIcESaIcEE12_M_constructIPKcEEvT_S8_St20forward_iterator_tag.isra.74_xa8:
    /*000000a8*/ LDRB        R3, [R6] 
    /*000000ac*/ STRB        R3, [R0] 
    /*000000b0*/ LDR         R4, [SP, #4] 
    /*000000b4*/ LDR         R0, [R5] 
    /*000000b8*/ B           _ZNSt7__cxx1112basic_stringIcSt11char_traitsIcESaIcEE12_M_constructIPKcEEvT_S8_St20forward_iterator_tag.isra.74_x64
    /*000000bc*/ WORD_00bc: .word 0x00000084
FUNC_END _ZNSt7__cxx1112basic_stringIcSt11char_traitsIcESaIcEE12_M_constructIPKcEEvT_S8_St20forward_iterator_tag.isra.74


@ - - - - - - - - - - - - - - - - - - - - - - - - - - - - - 
@ .text.startup._ZNSt7__cxx1112basic_stringIcSt11char_traitsIcESaIcEEC2EPKcRKS3_.isra.77
@ Size: 0x48
@ - - - - - - - - - - - - - - - - - - - - - - - - - - - - - 

FUNC_BEGIN _ZNSt7__cxx1112basic_stringIcSt11char_traitsIcESaIcEEC2EPKcRKS3_.isra.77
    /*00000000*/ MOV         IP, #16384                  @ 0x4000 
    /*00000004*/ PUSH        {R4, R5, R6, LR} 
    /*00000008*/ SUB         IP, SP, IP 
    /*0000000c*/ STR         R0, [IP, #4080]             @ 0xff0 
    /*00000010*/ SUBS        R5, R1, #0 
    /*00000014*/ ADD         R3, R0, #8 
    /*00000018*/ STR         R3, [R0] 
    /*0000001c*/ MOV         R4, R0 
    /*00000020*/ MVNEQ       R2, #0 
    /*00000024*/ BEQ         _ZNSt7__cxx1112basic_stringIcSt11char_traitsIcESaIcEEC2EPKcRKS3_.isra.77_x34
    /*00000028*/ MOV         R0, R5 
    /*0000002c*/ BL          strlen
    /*00000030*/ ADD         R2, R5, R0 
    _ZNSt7__cxx1112basic_stringIcSt11char_traitsIcESaIcEEC2EPKcRKS3_.isra.77_x34:
    /*00000034*/ MOV         R0, R4 
    /*00000038*/ MOV         R1, R5 
    /*0000003c*/ BL          _ZNSt7__cxx1112basic_stringIcSt11char_traitsIcESaIcEE12_M_constructIPKcEEvT_S8_St20forward_iterator_tag.isra.74
    /*00000040*/ MOV         R0, R4 
    /*00000044*/ POP         {R4, R5, R6, PC} 
FUNC_END _ZNSt7__cxx1112basic_stringIcSt11char_traitsIcESaIcEEC2EPKcRKS3_.isra.77


@ - - - - - - - - - - - - - - - - - - - - - - - - - - - - - 
@ .text._ZNSt8__detail6_StateIcED2Ev.part.117
@ Size: 0x1c
@ - - - - - - - - - - - - - - - - - - - - - - - - - - - - - 

FUNC_BEGIN _ZNSt8__detail6_StateIcED2Ev.part.117
    /*00000000*/ LDR         R3, [R0, #16] 
    /*00000004*/ CMP         R3, #0 
    /*00000008*/ BXEQ        LR 
    /*0000000c*/ ADD         R1, R0, #8 
    /*00000010*/ MOV         R2, #3 
    /*00000014*/ MOV         R0, R1 
    /*00000018*/ BX          R3 
FUNC_END _ZNSt8__detail6_StateIcED2Ev.part.117


@ - - - - - - - - - - - - - - - - - - - - - - - - - - - - - 
@ .ARM.extab.text._ZNSt8__detail6_StateIcED2Ev.part.117
@ Size: 0xc
@ - - - - - - - - - - - - - - - - - - - - - - - - - - - - - 

@ - - - - - - - - - - - - - - - - - - - - - - - - - - - - - 
@ .text._ZNSt7__cxx1112basic_stringIcSt11char_traitsIcESaIcEE12_M_constructIN9__gnu_cxx17__normal_iteratorIPKcS4_EEEEvT_SB_St20forward_iterator_tag.isra.132
@ Size: 0x98
@ - - - - - - - - - - - - - - - - - - - - - - - - - - - - - 

FUNC_BEGIN _ZNSt7__cxx1112basic_stringIcSt11char_traitsIcESaIcEE12_M_constructIN9__gnu_cxx17__normal_iteratorIPKcS4_EEEEvT_SB_St20forward_iterator_tag.isra.132
    /*00000000*/ MOV         IP, #16384                  @ 0x4000 
    /*00000004*/ PUSH        {R4, R5, R6, LR} 
    /*00000008*/ SUB         IP, SP, IP 
    /*0000000c*/ STR         R0, [IP, #4072]             @ 0xfe8 
    /*00000010*/ SUB         R4, R2, R1 
    /*00000014*/ SUB         SP, SP, #8 
    /*00000018*/ CMP         R4, #15 
    /*0000001c*/ MOV         R6, R1 
    /*00000020*/ STR         R4, [SP, #4] 
    /*00000024*/ MOV         R5, R0 
    /*00000028*/ BHI         _ZNSt7__cxx1112basic_stringIcSt11char_traitsIcESaIcEE12_M_constructIN9__gnu_cxx17__normal_iteratorIPKcS4_EEEEvT_SB_St20forward_iterator_tag.isra.132_x54
    /*0000002c*/ LDR         R0, [R0] 
    /*00000030*/ CMP         R4, #1 
    /*00000034*/ BEQ         _ZNSt7__cxx1112basic_stringIcSt11char_traitsIcESaIcEE12_M_constructIN9__gnu_cxx17__normal_iteratorIPKcS4_EEEEvT_SB_St20forward_iterator_tag.isra.132_x84
    /*00000038*/ CMP         R4, #0 
    /*0000003c*/ BNE         _ZNSt7__cxx1112basic_stringIcSt11char_traitsIcESaIcEE12_M_constructIN9__gnu_cxx17__normal_iteratorIPKcS4_EEEEvT_SB_St20forward_iterator_tag.isra.132_x6c
    _ZNSt7__cxx1112basic_stringIcSt11char_traitsIcESaIcEE12_M_constructIN9__gnu_cxx17__normal_iteratorIPKcS4_EEEEvT_SB_St20forward_iterator_tag.isra.132_x40:
    /*00000040*/ STR         R4, [R5, #4] 
    /*00000044*/ MOV         R3, #0 
    /*00000048*/ STRB        R3, [R0, R4] 
    /*0000004c*/ ADD         SP, SP, #8 
    /*00000050*/ POP         {R4, R5, R6, PC} 
    _ZNSt7__cxx1112basic_stringIcSt11char_traitsIcESaIcEE12_M_constructIN9__gnu_cxx17__normal_iteratorIPKcS4_EEEEvT_SB_St20forward_iterator_tag.isra.132_x54:
    /*00000054*/ MOV         R2, #0 
    /*00000058*/ ADD         R1, SP, #4 
    /*0000005c*/ BL          _ZNSt7__cxx1112basic_stringIcSt11char_traitsIcESaIcEE9_M_createERjj
    /*00000060*/ LDR         R3, [SP, #4] 
    /*00000064*/ STR         R0, [R5] 
    /*00000068*/ STR         R3, [R5, #8] 
    _ZNSt7__cxx1112basic_stringIcSt11char_traitsIcESaIcEE12_M_constructIN9__gnu_cxx17__normal_iteratorIPKcS4_EEEEvT_SB_St20forward_iterator_tag.isra.132_x6c:
    /*0000006c*/ MOV         R2, R4 
    /*00000070*/ MOV         R1, R6 
    /*00000074*/ BL          memcpy
    /*00000078*/ LDR         R4, [SP, #4] 
    /*0000007c*/ LDR         R0, [R5] 
    /*00000080*/ B           _ZNSt7__cxx1112basic_stringIcSt11char_traitsIcESaIcEE12_M_constructIN9__gnu_cxx17__normal_iteratorIPKcS4_EEEEvT_SB_St20forward_iterator_tag.isra.132_x40
    _ZNSt7__cxx1112basic_stringIcSt11char_traitsIcESaIcEE12_M_constructIN9__gnu_cxx17__normal_iteratorIPKcS4_EEEEvT_SB_St20forward_iterator_tag.isra.132_x84:
    /*00000084*/ LDRB        R3, [R1] 
    /*00000088*/ STRB        R3, [R0] 
    /*0000008c*/ LDR         R4, [SP, #4] 
    /*00000090*/ LDR         R0, [R5] 
    /*00000094*/ B           _ZNSt7__cxx1112basic_stringIcSt11char_traitsIcESaIcEE12_M_constructIN9__gnu_cxx17__normal_iteratorIPKcS4_EEEEvT_SB_St20forward_iterator_tag.isra.132_x40
FUNC_END _ZNSt7__cxx1112basic_stringIcSt11char_traitsIcESaIcEE12_M_constructIN9__gnu_cxx17__normal_iteratorIPKcS4_EEEEvT_SB_St20forward_iterator_tag.isra.132


@ - - - - - - - - - - - - - - - - - - - - - - - - - - - - - 
@ .text._ZNSt17_Function_handlerIFbcENSt8__detail11_AnyMatcherINSt7__cxx1112regex_traitsIcEELb0ELb0ELb0EEEE9_M_invokeERKSt9_Any_dataOc
@ Size: 0x84
@ - - - - - - - - - - - - - - - - - - - - - - - - - - - - - 

FUNC_BEGIN _ZNSt17_Function_handlerIFbcENSt8__detail11_AnyMatcherINSt7__cxx1112regex_traitsIcEELb0ELb0ELb0EEEE9_M_invokeERKSt9_Any_dataOc
    /*00000000*/ MOV         IP, #16384                  @ 0x4000 
    /*00000004*/ PUSH        {R4, R5, R6, R7, R8, LR} 
    /*00000008*/ SUB         IP, SP, IP 
    /*0000000c*/ STR         R0, [IP, #4072]             @ 0xfe8 
    /*00000010*/ LDR         R5, WORD_0078               @ LDR         R5, [PC, #96]               @ 0x0000000000000078 
    /*00000014*/ LDR         R3, WORD_007c               @ LDR         R3, [PC, #96]               @ 0x000000000000007c 
    /*00000018*/ ADD         R5, PC, R5 
    /*0000001c*/ LDRB        R7, [R1] 
    /*00000020*/ LDR         R6, [R5, R3] 
    /*00000024*/ LDRB        R3, [R6] 
    /*00000028*/ DMB         ISH 
    /*0000002c*/ ANDS        R4, R3, #1 
    /*00000030*/ BEQ         _ZNSt17_Function_handlerIFbcENSt8__detail11_AnyMatcherINSt7__cxx1112regex_traitsIcEELb0ELb0ELb0EEEE9_M_invokeERKSt9_Any_dataOc_x4c
    /*00000034*/ LDR         R3, WORD_0080               @ LDR         R3, [PC, #68]               @ 0x0000000000000080 
    /*00000038*/ LDR         R5, [R5, R3] 
    _ZNSt17_Function_handlerIFbcENSt8__detail11_AnyMatcherINSt7__cxx1112regex_traitsIcEELb0ELb0ELb0EEEE9_M_invokeERKSt9_Any_dataOc_x3c:
    /*0000003c*/ LDRB        R0, [R5] 
    /*00000040*/ SUBS        R0, R0, R7 
    /*00000044*/ MOVNE       R0, #1 
    /*00000048*/ POP         {R4, R5, R6, R7, R8, PC} 
    _ZNSt17_Function_handlerIFbcENSt8__detail11_AnyMatcherINSt7__cxx1112regex_traitsIcEELb0ELb0ELb0EEEE9_M_invokeERKSt9_Any_dataOc_x4c:
    /*0000004c*/ MOV         R0, R6 
    /*00000050*/ BL          __cxa_guard_acquire
    /*00000054*/ LDR         R3, WORD_0080               @ LDR         R3, [PC, #36]               @ 0x0000000000000080 
    /*00000058*/ CMP         R0, #0 
    /*0000005c*/ LDREQ       R5, [R5, R3] 
    /*00000060*/ BEQ         _ZNSt17_Function_handlerIFbcENSt8__detail11_AnyMatcherINSt7__cxx1112regex_traitsIcEELb0ELb0ELb0EEEE9_M_invokeERKSt9_Any_dataOc_x3c
    /*00000064*/ LDR         R5, [R5, R3] 
    /*00000068*/ MOV         R0, R6 
    /*0000006c*/ STRB        R4, [R5] 
    /*00000070*/ BL          __cxa_guard_release
    /*00000074*/ B           _ZNSt17_Function_handlerIFbcENSt8__detail11_AnyMatcherINSt7__cxx1112regex_traitsIcEELb0ELb0ELb0EEEE9_M_invokeERKSt9_Any_dataOc_x3c
    /*00000078*/ WORD_0078: .word 0x00000058
    /*0000007c*/ WORD_007c: .word 0x00000000
    /*00000080*/ WORD_0080: .word 0x00000000
FUNC_END _ZNSt17_Function_handlerIFbcENSt8__detail11_AnyMatcherINSt7__cxx1112regex_traitsIcEELb0ELb0ELb0EEEE9_M_invokeERKSt9_Any_dataOc


@ - - - - - - - - - - - - - - - - - - - - - - - - - - - - - 
@ .text._ZNSt17_Function_handlerIFbcENSt8__detail11_AnyMatcherINSt7__cxx1112regex_traitsIcEELb0ELb0ELb1EEEE9_M_invokeERKSt9_Any_dataOc
@ Size: 0x84
@ - - - - - - - - - - - - - - - - - - - - - - - - - - - - - 

FUNC_BEGIN _ZNSt17_Function_handlerIFbcENSt8__detail11_AnyMatcherINSt7__cxx1112regex_traitsIcEELb0ELb0ELb1EEEE9_M_invokeERKSt9_Any_dataOc
    /*00000000*/ MOV         IP, #16384                  @ 0x4000 
    /*00000004*/ PUSH        {R4, R5, R6, R7, R8, LR} 
    /*00000008*/ SUB         IP, SP, IP 
    /*0000000c*/ STR         R0, [IP, #4072]             @ 0xfe8 
    /*00000010*/ LDR         R5, WORD_0078               @ LDR         R5, [PC, #96]               @ 0x0000000000000078 
    /*00000014*/ LDR         R3, WORD_007c               @ LDR         R3, [PC, #96]               @ 0x000000000000007c 
    /*00000018*/ ADD         R5, PC, R5 
    /*0000001c*/ LDRB        R7, [R1] 
    /*00000020*/ LDR         R6, [R5, R3] 
    /*00000024*/ LDRB        R3, [R6] 
    /*00000028*/ DMB         ISH 
    /*0000002c*/ ANDS        R4, R3, #1 
    /*00000030*/ BEQ         _ZNSt17_Function_handlerIFbcENSt8__detail11_AnyMatcherINSt7__cxx1112regex_traitsIcEELb0ELb0ELb1EEEE9_M_invokeERKSt9_Any_dataOc_x4c
    /*00000034*/ LDR         R3, WORD_0080               @ LDR         R3, [PC, #68]               @ 0x0000000000000080 
    /*00000038*/ LDR         R5, [R5, R3] 
    _ZNSt17_Function_handlerIFbcENSt8__detail11_AnyMatcherINSt7__cxx1112regex_traitsIcEELb0ELb0ELb1EEEE9_M_invokeERKSt9_Any_dataOc_x3c:
    /*0000003c*/ LDRB        R0, [R5] 
    /*00000040*/ SUBS        R0, R0, R7 
    /*00000044*/ MOVNE       R0, #1 
    /*00000048*/ POP         {R4, R5, R6, R7, R8, PC} 
    _ZNSt17_Function_handlerIFbcENSt8__detail11_AnyMatcherINSt7__cxx1112regex_traitsIcEELb0ELb0ELb1EEEE9_M_invokeERKSt9_Any_dataOc_x4c:
    /*0000004c*/ MOV         R0, R6 
    /*00000050*/ BL          __cxa_guard_acquire
    /*00000054*/ LDR         R3, WORD_0080               @ LDR         R3, [PC, #36]               @ 0x0000000000000080 
    /*00000058*/ CMP         R0, #0 
    /*0000005c*/ LDREQ       R5, [R5, R3] 
    /*00000060*/ BEQ         _ZNSt17_Function_handlerIFbcENSt8__detail11_AnyMatcherINSt7__cxx1112regex_traitsIcEELb0ELb0ELb1EEEE9_M_invokeERKSt9_Any_dataOc_x3c
    /*00000064*/ LDR         R5, [R5, R3] 
    /*00000068*/ MOV         R0, R6 
    /*0000006c*/ STRB        R4, [R5] 
    /*00000070*/ BL          __cxa_guard_release
    /*00000074*/ B           _ZNSt17_Function_handlerIFbcENSt8__detail11_AnyMatcherINSt7__cxx1112regex_traitsIcEELb0ELb0ELb1EEEE9_M_invokeERKSt9_Any_dataOc_x3c
    /*00000078*/ WORD_0078: .word 0x00000058
    /*0000007c*/ WORD_007c: .word 0x00000000
    /*00000080*/ WORD_0080: .word 0x00000000
FUNC_END _ZNSt17_Function_handlerIFbcENSt8__detail11_AnyMatcherINSt7__cxx1112regex_traitsIcEELb0ELb0ELb1EEEE9_M_invokeERKSt9_Any_dataOc


@ - - - - - - - - - - - - - - - - - - - - - - - - - - - - - 
@ .text._ZNKSt7__cxx1113match_resultsIN9__gnu_cxx17__normal_iteratorIPKcNS_12basic_stringIcSt11char_traitsIcESaIcEEEEESaINS_9sub_matchISA_EEEE3strEj.constprop.568
@ Size: 0xa0
@ - - - - - - - - - - - - - - - - - - - - - - - - - - - - - 

FUNC_BEGIN _ZNKSt7__cxx1113match_resultsIN9__gnu_cxx17__normal_iteratorIPKcNS_12basic_stringIcSt11char_traitsIcESaIcEEEEESaINS_9sub_matchISA_EEEE3strEj.constprop.568
    /*00000000*/ MOV         IP, #16384                  @ 0x4000 
    /*00000004*/ PUSH        {R4, LR} 
    /*00000008*/ SUB         IP, SP, IP 
    /*0000000c*/ STR         R0, [IP, #4088]             @ 0xff8 
    /*00000010*/ LDM         R1, {R2, R3} 
    /*00000014*/ MOV         R4, R0 
    /*00000018*/ CMP         R2, R3 
    /*0000001c*/ BEQ         _ZNKSt7__cxx1113match_resultsIN9__gnu_cxx17__normal_iteratorIPKcNS_12basic_stringIcSt11char_traitsIcESaIcEEEEESaINS_9sub_matchISA_EEEE3strEj.constprop.568_x68
    /*00000020*/ SUB         R1, R3, R2 
    /*00000024*/ MOVW        R3, #43691                  @ 0xaaab 
    /*00000028*/ MOVT        R3, #43690                  @ 0xaaaa 
    /*0000002c*/ ASR         R1, R1, #2 
    /*00000030*/ MUL         R3, R3, R1 
    /*00000034*/ SUB         R3, R3, #3 
    /*00000038*/ CMP         R3, #1 
    /*0000003c*/ ADDHI       R2, R2, #12 
    /*00000040*/ BLS         _ZNKSt7__cxx1113match_resultsIN9__gnu_cxx17__normal_iteratorIPKcNS_12basic_stringIcSt11char_traitsIcESaIcEEEEESaINS_9sub_matchISA_EEEE3strEj.constprop.568_x6c
    /*00000044*/ LDRB        R3, [R2, #8] 
    /*00000048*/ CMP         R3, #0 
    /*0000004c*/ BNE         _ZNKSt7__cxx1113match_resultsIN9__gnu_cxx17__normal_iteratorIPKcNS_12basic_stringIcSt11char_traitsIcESaIcEEEEESaINS_9sub_matchISA_EEEE3strEj.constprop.568_x80
    _ZNKSt7__cxx1113match_resultsIN9__gnu_cxx17__normal_iteratorIPKcNS_12basic_stringIcSt11char_traitsIcESaIcEEEEESaINS_9sub_matchISA_EEEE3strEj.constprop.568_x50:
    /*00000050*/ STR         R3, [R4, #4] 
    /*00000054*/ ADD         R2, R4, #8 
    /*00000058*/ STRB        R3, [R4, #8] 
    /*0000005c*/ MOV         R0, R4 
    /*00000060*/ STR         R2, [R4] 
    /*00000064*/ POP         {R4, PC} 
    _ZNKSt7__cxx1113match_resultsIN9__gnu_cxx17__normal_iteratorIPKcNS_12basic_stringIcSt11char_traitsIcESaIcEEEEESaINS_9sub_matchISA_EEEE3strEj.constprop.568_x68:
    /*00000068*/ MVN         R3, #2 
    _ZNKSt7__cxx1113match_resultsIN9__gnu_cxx17__normal_iteratorIPKcNS_12basic_stringIcSt11char_traitsIcESaIcEEEEESaINS_9sub_matchISA_EEEE3strEj.constprop.568_x6c:
    /*0000006c*/ MOV         R1, #12 
    /*00000070*/ MLA         R2, R1, R3, R2 
    /*00000074*/ LDRB        R3, [R2, #8] 
    /*00000078*/ CMP         R3, #0 
    /*0000007c*/ BEQ         _ZNKSt7__cxx1113match_resultsIN9__gnu_cxx17__normal_iteratorIPKcNS_12basic_stringIcSt11char_traitsIcESaIcEEEEESaINS_9sub_matchISA_EEEE3strEj.constprop.568_x50
    _ZNKSt7__cxx1113match_resultsIN9__gnu_cxx17__normal_iteratorIPKcNS_12basic_stringIcSt11char_traitsIcESaIcEEEEESaINS_9sub_matchISA_EEEE3strEj.constprop.568_x80:
    /*00000080*/ LDR         R1, [R2] 
    /*00000084*/ ADD         R3, R4, #8 
    /*00000088*/ LDR         R2, [R2, #4] 
    /*0000008c*/ MOV         R0, R4 
    /*00000090*/ STR         R3, [R4] 
    /*00000094*/ BL          _ZNSt7__cxx1112basic_stringIcSt11char_traitsIcESaIcEE12_M_constructIN9__gnu_cxx17__normal_iteratorIPKcS4_EEEEvT_SB_St20forward_iterator_tag.isra.132
    /*00000098*/ MOV         R0, R4 
    /*0000009c*/ POP         {R4, PC} 
FUNC_END _ZNKSt7__cxx1113match_resultsIN9__gnu_cxx17__normal_iteratorIPKcNS_12basic_stringIcSt11char_traitsIcESaIcEEEEESaINS_9sub_matchISA_EEEE3strEj.constprop.568


@ - - - - - - - - - - - - - - - - - - - - - - - - - - - - - 
@ .text._ZNKSt7__cxx1112regex_traitsIcE7isctypeEcNS1_10_RegexMaskE.isra.183
@ Size: 0xb0
@ - - - - - - - - - - - - - - - - - - - - - - - - - - - - - 

FUNC_BEGIN _ZNKSt7__cxx1112regex_traitsIcE7isctypeEcNS1_10_RegexMaskE.isra.183
    /*00000000*/ MOV         IP, #16384                  @ 0x4000 
    /*00000004*/ PUSH        {R4, R5, R6, R7, R8, LR} 
    /*00000008*/ SUB         IP, SP, IP 
    /*0000000c*/ STR         R0, [IP, #4072]             @ 0xfe8 
    /*00000010*/ LDR         R7, WORD_00a8               @ LDR         R7, [PC, #144]              @ 0x00000000000000a8 
    /*00000014*/ MOV         R6, R1 
    /*00000018*/ MOV         R8, R2 
    /*0000001c*/ MOV         R4, R3 
    /*00000020*/ ADD         R7, PC, R7 
    /*00000024*/ BL          _ZSt9use_facetISt5ctypeIcEERKT_RKSt6locale
    /*00000028*/ LDR         R2, [R0, #24] 
    /*0000002c*/ LSL         R3, R6, #1 
    /*00000030*/ LDRH        R3, [R2, R3] 
    /*00000034*/ TST         R8, R3 
    /*00000038*/ BNE         _ZNKSt7__cxx1112regex_traitsIcE7isctypeEcNS1_10_RegexMaskE.isra.183_x70
    /*0000003c*/ ANDS        R4, R4, #1 
    /*00000040*/ BEQ         _ZNKSt7__cxx1112regex_traitsIcE7isctypeEcNS1_10_RegexMaskE.isra.183_x68
    /*00000044*/ LDRB        R3, [R0, #28] 
    /*00000048*/ MOV         R5, R0 
    /*0000004c*/ CMP         R3, #0 
    /*00000050*/ BEQ         _ZNKSt7__cxx1112regex_traitsIcE7isctypeEcNS1_10_RegexMaskE.isra.183_x78
    /*00000054*/ LDRB        R0, [R0, #124]              @ 0x7c 
    _ZNKSt7__cxx1112regex_traitsIcE7isctypeEcNS1_10_RegexMaskE.isra.183_x58:
    /*00000058*/ SUB         R0, R6, R0 
    /*0000005c*/ CLZ         R0, R0 
    /*00000060*/ LSR         R0, R0, #5 
    /*00000064*/ POP         {R4, R5, R6, R7, R8, PC} 
    _ZNKSt7__cxx1112regex_traitsIcE7isctypeEcNS1_10_RegexMaskE.isra.183_x68:
    /*00000068*/ MOV         R0, R4 
    /*0000006c*/ POP         {R4, R5, R6, R7, R8, PC} 
    _ZNKSt7__cxx1112regex_traitsIcE7isctypeEcNS1_10_RegexMaskE.isra.183_x70:
    /*00000070*/ MOV         R0, #1 
    /*00000074*/ POP         {R4, R5, R6, R7, R8, PC} 
    _ZNKSt7__cxx1112regex_traitsIcE7isctypeEcNS1_10_RegexMaskE.isra.183_x78:
    /*00000078*/ BL          _ZNKSt5ctypeIcE13_M_widen_initEv
    /*0000007c*/ LDR         R2, [R5] 
    /*00000080*/ LDR         R3, WORD_00ac               @ LDR         R3, [PC, #36]               @ 0x00000000000000ac 
    /*00000084*/ LDR         R2, [R2, #24] 
    /*00000088*/ LDR         R3, [R7, R3] 
    /*0000008c*/ CMP         R2, R3 
    /*00000090*/ MOVEQ       R0, #95                     @ 0x5f 
    /*00000094*/ BEQ         _ZNKSt7__cxx1112regex_traitsIcE7isctypeEcNS1_10_RegexMaskE.isra.183_x58
    /*00000098*/ MOV         R0, R5 
    /*0000009c*/ MOV         R1, #95                     @ 0x5f 
    /*000000a0*/ BLX         R2 
    /*000000a4*/ B           _ZNKSt7__cxx1112regex_traitsIcE7isctypeEcNS1_10_RegexMaskE.isra.183_x58
    /*000000a8*/ WORD_00a8: .word 0x00000080
    /*000000ac*/ WORD_00ac: .word 0x00000000
FUNC_END _ZNKSt7__cxx1112regex_traitsIcE7isctypeEcNS1_10_RegexMaskE.isra.183


@ - - - - - - - - - - - - - - - - - - - - - - - - - - - - - 
@ .text._ZNSt17_Function_handlerIFbcENSt8__detail11_AnyMatcherINSt7__cxx1112regex_traitsIcEELb1ELb1ELb0EEEE9_M_invokeERKSt9_Any_dataOc
@ Size: 0x7c
@ - - - - - - - - - - - - - - - - - - - - - - - - - - - - - 

FUNC_BEGIN _ZNSt17_Function_handlerIFbcENSt8__detail11_AnyMatcherINSt7__cxx1112regex_traitsIcEELb1ELb1ELb0EEEE9_M_invokeERKSt9_Any_dataOc
    /*00000000*/ MOV         IP, #16384                  @ 0x4000 
    /*00000004*/ PUSH        {R4, R5, R6, LR} 
    /*00000008*/ SUB         IP, SP, IP 
    /*0000000c*/ STR         R0, [IP, #4080]             @ 0xff0 
    /*00000010*/ LDRB        R5, [R1] 
    /*00000014*/ MOV         R4, R0 
    /*00000018*/ LDR         R0, [R0] 
    /*0000001c*/ BL          _ZSt9use_facetISt5ctypeIcEERKT_RKSt6locale
    /*00000020*/ LDR         R3, [R0] 
    /*00000024*/ MOV         R1, R5 
    /*00000028*/ LDR         R3, [R3, #16] 
    /*0000002c*/ BLX         R3 
    /*00000030*/ MOV         R5, R0 
    /*00000034*/ LDR         R0, [R4] 
    /*00000038*/ BL          _ZSt9use_facetISt5ctypeIcEERKT_RKSt6locale
    /*0000003c*/ LDR         R3, [R0] 
    /*00000040*/ MOV         R1, #10 
    /*00000044*/ LDR         R3, [R3, #16] 
    /*00000048*/ BLX         R3 
    /*0000004c*/ MOV         R6, R0 
    /*00000050*/ LDR         R0, [R4] 
    /*00000054*/ BL          _ZSt9use_facetISt5ctypeIcEERKT_RKSt6locale
    /*00000058*/ LDR         R3, [R0] 
    /*0000005c*/ MOV         R1, #13 
    /*00000060*/ LDR         R3, [R3, #16] 
    /*00000064*/ BLX         R3 
    /*00000068*/ CMP         R6, R5 
    /*0000006c*/ CMPNE       R0, R5 
    /*00000070*/ MOVNE       R0, #1 
    /*00000074*/ MOVEQ       R0, #0 
    /*00000078*/ POP         {R4, R5, R6, PC} 
FUNC_END _ZNSt17_Function_handlerIFbcENSt8__detail11_AnyMatcherINSt7__cxx1112regex_traitsIcEELb1ELb1ELb0EEEE9_M_invokeERKSt9_Any_dataOc


@ - - - - - - - - - - - - - - - - - - - - - - - - - - - - - 
@ .text._ZNSt17_Function_handlerIFbcENSt8__detail12_CharMatcherINSt7__cxx1112regex_traitsIcEELb1ELb0EEEE9_M_invokeERKSt9_Any_dataOc
@ Size: 0x44
@ - - - - - - - - - - - - - - - - - - - - - - - - - - - - - 

FUNC_BEGIN _ZNSt17_Function_handlerIFbcENSt8__detail12_CharMatcherINSt7__cxx1112regex_traitsIcEELb1ELb0EEEE9_M_invokeERKSt9_Any_dataOc
    /*00000000*/ MOV         IP, #16384                  @ 0x4000 
    /*00000004*/ PUSH        {R4, R5, R6, LR} 
    /*00000008*/ SUB         IP, SP, IP 
    /*0000000c*/ STR         R0, [IP, #4080]             @ 0xff0 
    /*00000010*/ LDRB        R5, [R1] 
    /*00000014*/ MOV         R3, R0 
    /*00000018*/ LDR         R0, [R0] 
    /*0000001c*/ LDRB        R4, [R3, #4] 
    /*00000020*/ BL          _ZSt9use_facetISt5ctypeIcEERKT_RKSt6locale
    /*00000024*/ LDR         R3, [R0] 
    /*00000028*/ MOV         R1, R5 
    /*0000002c*/ LDR         R3, [R3, #16] 
    /*00000030*/ BLX         R3 
    /*00000034*/ SUB         R0, R4, R0 
    /*00000038*/ CLZ         R0, R0 
    /*0000003c*/ LSR         R0, R0, #5 
    /*00000040*/ POP         {R4, R5, R6, PC} 
FUNC_END _ZNSt17_Function_handlerIFbcENSt8__detail12_CharMatcherINSt7__cxx1112regex_traitsIcEELb1ELb0EEEE9_M_invokeERKSt9_Any_dataOc


@ - - - - - - - - - - - - - - - - - - - - - - - - - - - - - 
@ .text._ZNSt17_Function_handlerIFbcENSt8__detail11_AnyMatcherINSt7__cxx1112regex_traitsIcEELb1ELb1ELb1EEEE9_M_invokeERKSt9_Any_dataOc
@ Size: 0x7c
@ - - - - - - - - - - - - - - - - - - - - - - - - - - - - - 

FUNC_BEGIN _ZNSt17_Function_handlerIFbcENSt8__detail11_AnyMatcherINSt7__cxx1112regex_traitsIcEELb1ELb1ELb1EEEE9_M_invokeERKSt9_Any_dataOc
    /*00000000*/ MOV         IP, #16384                  @ 0x4000 
    /*00000004*/ PUSH        {R4, R5, R6, LR} 
    /*00000008*/ SUB         IP, SP, IP 
    /*0000000c*/ STR         R0, [IP, #4080]             @ 0xff0 
    /*00000010*/ LDRB        R5, [R1] 
    /*00000014*/ MOV         R4, R0 
    /*00000018*/ LDR         R0, [R0] 
    /*0000001c*/ BL          _ZSt9use_facetISt5ctypeIcEERKT_RKSt6locale
    /*00000020*/ LDR         R3, [R0] 
    /*00000024*/ MOV         R1, R5 
    /*00000028*/ LDR         R3, [R3, #16] 
    /*0000002c*/ BLX         R3 
    /*00000030*/ MOV         R5, R0 
    /*00000034*/ LDR         R0, [R4] 
    /*00000038*/ BL          _ZSt9use_facetISt5ctypeIcEERKT_RKSt6locale
    /*0000003c*/ LDR         R3, [R0] 
    /*00000040*/ MOV         R1, #10 
    /*00000044*/ LDR         R3, [R3, #16] 
    /*00000048*/ BLX         R3 
    /*0000004c*/ MOV         R6, R0 
    /*00000050*/ LDR         R0, [R4] 
    /*00000054*/ BL          _ZSt9use_facetISt5ctypeIcEERKT_RKSt6locale
    /*00000058*/ LDR         R3, [R0] 
    /*0000005c*/ MOV         R1, #13 
    /*00000060*/ LDR         R3, [R3, #16] 
    /*00000064*/ BLX         R3 
    /*00000068*/ CMP         R6, R5 
    /*0000006c*/ CMPNE       R0, R5 
    /*00000070*/ MOVNE       R0, #1 
    /*00000074*/ MOVEQ       R0, #0 
    /*00000078*/ POP         {R4, R5, R6, PC} 
FUNC_END _ZNSt17_Function_handlerIFbcENSt8__detail11_AnyMatcherINSt7__cxx1112regex_traitsIcEELb1ELb1ELb1EEEE9_M_invokeERKSt9_Any_dataOc


@ - - - - - - - - - - - - - - - - - - - - - - - - - - - - - 
@ .text._ZNSt17_Function_handlerIFbcENSt8__detail12_CharMatcherINSt7__cxx1112regex_traitsIcEELb1ELb1EEEE9_M_invokeERKSt9_Any_dataOc
@ Size: 0x44
@ - - - - - - - - - - - - - - - - - - - - - - - - - - - - - 

FUNC_BEGIN _ZNSt17_Function_handlerIFbcENSt8__detail12_CharMatcherINSt7__cxx1112regex_traitsIcEELb1ELb1EEEE9_M_invokeERKSt9_Any_dataOc
    /*00000000*/ MOV         IP, #16384                  @ 0x4000 
    /*00000004*/ PUSH        {R4, R5, R6, LR} 
    /*00000008*/ SUB         IP, SP, IP 
    /*0000000c*/ STR         R0, [IP, #4080]             @ 0xff0 
    /*00000010*/ LDRB        R5, [R1] 
    /*00000014*/ MOV         R3, R0 
    /*00000018*/ LDR         R0, [R0] 
    /*0000001c*/ LDRB        R4, [R3, #4] 
    /*00000020*/ BL          _ZSt9use_facetISt5ctypeIcEERKT_RKSt6locale
    /*00000024*/ LDR         R3, [R0] 
    /*00000028*/ MOV         R1, R5 
    /*0000002c*/ LDR         R3, [R3, #16] 
    /*00000030*/ BLX         R3 
    /*00000034*/ SUB         R0, R4, R0 
    /*00000038*/ CLZ         R0, R0 
    /*0000003c*/ LSR         R0, R0, #5 
    /*00000040*/ POP         {R4, R5, R6, PC} 
FUNC_END _ZNSt17_Function_handlerIFbcENSt8__detail12_CharMatcherINSt7__cxx1112regex_traitsIcEELb1ELb1EEEE9_M_invokeERKSt9_Any_dataOc


@ - - - - - - - - - - - - - - - - - - - - - - - - - - - - - 
@ .text._ZNKSt8__detail16_RegexTranslatorINSt7__cxx1112regex_traitsIcEELb0ELb1EE17_M_transform_implEcSt17integral_constantIbLb1EE.isra.539
@ Size: 0x170
@ - - - - - - - - - - - - - - - - - - - - - - - - - - - - - 

FUNC_BEGIN _ZNKSt8__detail16_RegexTranslatorINSt7__cxx1112regex_traitsIcEELb0ELb1EE17_M_transform_implEcSt17integral_constantIbLb1EE.isra.539
    /*00000000*/ MOV         IP, #16384                  @ 0x4000 
    /*00000004*/ PUSH        {R4, R5, R6, R7, R8, R9, SL, LR} 
    /*00000008*/ SUB         IP, SP, IP 
    /*0000000c*/ STR         R0, [IP, #4008]             @ 0xfa8 
    /*00000010*/ LDR         R3, WORD_0168               @ LDR         R3, [PC, #336]              @ 0x0000000000000168 
    /*00000014*/ MOV         R4, R1 
    /*00000018*/ LDR         R1, WORD_016c               @ LDR         R1, [PC, #332]              @ 0x000000000000016c 
    /*0000001c*/ SUB         SP, SP, #56                 @ 0x38 
    /*00000020*/ ADD         R3, PC, R3 
    /*00000024*/ MOV         R7, R0 
    /*00000028*/ ADD         R6, SP, #12 
    /*0000002c*/ ADD         R0, SP, #4 
    /*00000030*/ LDR         R8, [R3, R1] 
    /*00000034*/ MOV         R1, #1 
    /*00000038*/ STR         R6, [SP, #4] 
    /*0000003c*/ LDR         IP, [R8] 
    /*00000040*/ STR         IP, [SP, #52]               @ 0x34 
    /*00000044*/ BL          _ZNSt7__cxx1112basic_stringIcSt11char_traitsIcESaIcEE12_M_constructEjc
    /*00000048*/ LDR         R0, [R4] 
    /*0000004c*/ LDR         SL, [SP, #4] 
    /*00000050*/ LDR         R4, [SP, #8] 
    /*00000054*/ BL          _ZSt9use_facetINSt7__cxx117collateIcEEERKT_RKSt6locale
    /*00000058*/ STR         R4, [SP] 
    /*0000005c*/ CMP         R4, #15 
    /*00000060*/ ADD         R5, SP, #36                 @ 0x24 
    /*00000064*/ MOV         R9, R0 
    /*00000068*/ STR         R5, [SP, #28] 
    /*0000006c*/ ADD         R0, SP, #28 
    /*00000070*/ BHI         _ZNKSt8__detail16_RegexTranslatorINSt7__cxx1112regex_traitsIcEELb0ELb1EE17_M_transform_implEcSt17integral_constantIbLb1EE.isra.539_xf4
    /*00000074*/ CMP         R4, #1 
    /*00000078*/ BEQ         _ZNKSt8__detail16_RegexTranslatorINSt7__cxx1112regex_traitsIcEELb0ELb1EE17_M_transform_implEcSt17integral_constantIbLb1EE.isra.539_x124
    /*0000007c*/ CMP         R4, #0 
    /*00000080*/ MOVEQ       R2, R5 
    /*00000084*/ BNE         _ZNKSt8__detail16_RegexTranslatorINSt7__cxx1112regex_traitsIcEELb0ELb1EE17_M_transform_implEcSt17integral_constantIbLb1EE.isra.539_x134
    _ZNKSt8__detail16_RegexTranslatorINSt7__cxx1112regex_traitsIcEELb0ELb1EE17_M_transform_implEcSt17integral_constantIbLb1EE.isra.539_x88:
    /*00000088*/ STR         R4, [SP, #32] 
    /*0000008c*/ MOV         R3, #0 
    /*00000090*/ STRB        R3, [R2, R4] 
    /*00000094*/ MOV         R1, R9 
    /*00000098*/ LDR         R3, [SP, #28] 
    /*0000009c*/ MOV         R0, R7 
    /*000000a0*/ LDR         LR, [SP, #32] 
    /*000000a4*/ LDR         IP, [R9] 
    /*000000a8*/ MOV         R2, R3 
    /*000000ac*/ ADD         R3, R3, LR 
    /*000000b0*/ LDR         R4, [IP, #12] 
    /*000000b4*/ BLX         R4 
    /*000000b8*/ LDR         R0, [SP, #28] 
    /*000000bc*/ CMP         R0, R5 
    /*000000c0*/ BEQ         _ZNKSt8__detail16_RegexTranslatorINSt7__cxx1112regex_traitsIcEELb0ELb1EE17_M_transform_implEcSt17integral_constantIbLb1EE.isra.539_xc8
    /*000000c4*/ BL          _ZdlPv
    _ZNKSt8__detail16_RegexTranslatorINSt7__cxx1112regex_traitsIcEELb0ELb1EE17_M_transform_implEcSt17integral_constantIbLb1EE.isra.539_xc8:
    /*000000c8*/ LDR         R0, [SP, #4] 
    /*000000cc*/ CMP         R0, R6 
    /*000000d0*/ BEQ         _ZNKSt8__detail16_RegexTranslatorINSt7__cxx1112regex_traitsIcEELb0ELb1EE17_M_transform_implEcSt17integral_constantIbLb1EE.isra.539_xd8
    /*000000d4*/ BL          _ZdlPv
    _ZNKSt8__detail16_RegexTranslatorINSt7__cxx1112regex_traitsIcEELb0ELb1EE17_M_transform_implEcSt17integral_constantIbLb1EE.isra.539_xd8:
    /*000000d8*/ LDR         R2, [SP, #52]               @ 0x34 
    /*000000dc*/ MOV         R0, R7 
    /*000000e0*/ LDR         R3, [R8] 
    /*000000e4*/ CMP         R2, R3 
    /*000000e8*/ BNE         _ZNKSt8__detail16_RegexTranslatorINSt7__cxx1112regex_traitsIcEELb0ELb1EE17_M_transform_implEcSt17integral_constantIbLb1EE.isra.539_x13c
    /*000000ec*/ ADD         SP, SP, #56                 @ 0x38 
    /*000000f0*/ POP         {R4, R5, R6, R7, R8, R9, SL, PC} 
    _ZNKSt8__detail16_RegexTranslatorINSt7__cxx1112regex_traitsIcEELb0ELb1EE17_M_transform_implEcSt17integral_constantIbLb1EE.isra.539_xf4:
    /*000000f4*/ MOV         R2, #0 
    /*000000f8*/ MOV         R1, SP 
    /*000000fc*/ BL          _ZNSt7__cxx1112basic_stringIcSt11char_traitsIcESaIcEE9_M_createERjj
    /*00000100*/ LDR         R3, [SP] 
    /*00000104*/ STR         R0, [SP, #28] 
    /*00000108*/ STR         R3, [SP, #36]               @ 0x24 
    _ZNKSt8__detail16_RegexTranslatorINSt7__cxx1112regex_traitsIcEELb0ELb1EE17_M_transform_implEcSt17integral_constantIbLb1EE.isra.539_x10c:
    /*0000010c*/ MOV         R2, R4 
    /*00000110*/ MOV         R1, SL 
    /*00000114*/ BL          memcpy
    /*00000118*/ LDR         R4, [SP] 
    /*0000011c*/ LDR         R2, [SP, #28] 
    /*00000120*/ B           _ZNKSt8__detail16_RegexTranslatorINSt7__cxx1112regex_traitsIcEELb0ELb1EE17_M_transform_implEcSt17integral_constantIbLb1EE.isra.539_x88
    _ZNKSt8__detail16_RegexTranslatorINSt7__cxx1112regex_traitsIcEELb0ELb1EE17_M_transform_implEcSt17integral_constantIbLb1EE.isra.539_x124:
    /*00000124*/ LDRB        R3, [SL] 
    /*00000128*/ MOV         R2, R5 
    /*0000012c*/ STRB        R3, [SP, #36]               @ 0x24 
    /*00000130*/ B           _ZNKSt8__detail16_RegexTranslatorINSt7__cxx1112regex_traitsIcEELb0ELb1EE17_M_transform_implEcSt17integral_constantIbLb1EE.isra.539_x88
    _ZNKSt8__detail16_RegexTranslatorINSt7__cxx1112regex_traitsIcEELb0ELb1EE17_M_transform_implEcSt17integral_constantIbLb1EE.isra.539_x134:
    /*00000134*/ MOV         R0, R5 
    /*00000138*/ B           _ZNKSt8__detail16_RegexTranslatorINSt7__cxx1112regex_traitsIcEELb0ELb1EE17_M_transform_implEcSt17integral_constantIbLb1EE.isra.539_x10c
    _ZNKSt8__detail16_RegexTranslatorINSt7__cxx1112regex_traitsIcEELb0ELb1EE17_M_transform_implEcSt17integral_constantIbLb1EE.isra.539_x13c:
    /*0000013c*/ BL          __stack_chk_fail
    _ZNKSt8__detail16_RegexTranslatorINSt7__cxx1112regex_traitsIcEELb0ELb1EE17_M_transform_implEcSt17integral_constantIbLb1EE.isra.539_x140:
    /*00000140*/ LDR         R0, [SP, #4] 
    /*00000144*/ CMP         R0, R6 
    /*00000148*/ BEQ         _ZNKSt8__detail16_RegexTranslatorINSt7__cxx1112regex_traitsIcEELb0ELb1EE17_M_transform_implEcSt17integral_constantIbLb1EE.isra.539_x150
    /*0000014c*/ BL          _ZdlPv
    _ZNKSt8__detail16_RegexTranslatorINSt7__cxx1112regex_traitsIcEELb0ELb1EE17_M_transform_implEcSt17integral_constantIbLb1EE.isra.539_x150:
    /*00000150*/ BL          __cxa_end_cleanup
    /*00000154*/ LDR         R0, [SP, #28] 
    /*00000158*/ CMP         R0, R5 
    /*0000015c*/ BEQ         _ZNKSt8__detail16_RegexTranslatorINSt7__cxx1112regex_traitsIcEELb0ELb1EE17_M_transform_implEcSt17integral_constantIbLb1EE.isra.539_x140
    /*00000160*/ BL          _ZdlPv
    /*00000164*/ B           _ZNKSt8__detail16_RegexTranslatorINSt7__cxx1112regex_traitsIcEELb0ELb1EE17_M_transform_implEcSt17integral_constantIbLb1EE.isra.539_x140
    /*00000168*/ WORD_0168: .word 0x00000140
    /*0000016c*/ WORD_016c: .word 0x00000000
FUNC_END _ZNKSt8__detail16_RegexTranslatorINSt7__cxx1112regex_traitsIcEELb0ELb1EE17_M_transform_implEcSt17integral_constantIbLb1EE.isra.539


@ - - - - - - - - - - - - - - - - - - - - - - - - - - - - - 
@ .ARM.extab.text._ZNKSt8__detail16_RegexTranslatorINSt7__cxx1112regex_traitsIcEELb0ELb1EE17_M_transform_implEcSt17integral_constantIbLb1EE.isra.539
@ Size: 0x26
@ - - - - - - - - - - - - - - - - - - - - - - - - - - - - - 

@ - - - - - - - - - - - - - - - - - - - - - - - - - - - - - 
@ .text._ZNKSt8__detail16_RegexTranslatorINSt7__cxx1112regex_traitsIcEELb1ELb1EE17_M_transform_implEcSt17integral_constantIbLb1EE.isra.541
@ Size: 0x190
@ - - - - - - - - - - - - - - - - - - - - - - - - - - - - - 

FUNC_BEGIN _ZNKSt8__detail16_RegexTranslatorINSt7__cxx1112regex_traitsIcEELb1ELb1EE17_M_transform_implEcSt17integral_constantIbLb1EE.isra.541
    /*00000000*/ MOV         IP, #16384                  @ 0x4000 
    /*00000004*/ PUSH        {R4, R5, R6, R7, R8, R9, SL, LR} 
    /*00000008*/ SUB         IP, SP, IP 
    /*0000000c*/ STR         R0, [IP, #4008]             @ 0xfa8 
    /*00000010*/ LDR         R3, WORD_0188               @ LDR         R3, [PC, #368]              @ 0x0000000000000188 
    /*00000014*/ SUB         SP, SP, #56                 @ 0x38 
    /*00000018*/ LDR         IP, WORD_018c               @ LDR         IP, [PC, #364]              @ 0x000000000000018c 
    /*0000001c*/ MOV         R7, R0 
    /*00000020*/ ADD         R3, PC, R3 
    /*00000024*/ MOV         R4, R1 
    /*00000028*/ LDR         R0, [R1] 
    /*0000002c*/ MOV         R5, R2 
    /*00000030*/ LDR         R8, [R3, IP] 
    /*00000034*/ ADD         R6, SP, #12 
    /*00000038*/ LDR         R3, [R8] 
    /*0000003c*/ STR         R3, [SP, #52]               @ 0x34 
    /*00000040*/ BL          _ZSt9use_facetISt5ctypeIcEERKT_RKSt6locale
    /*00000044*/ LDR         R3, [R0] 
    /*00000048*/ MOV         R1, R5 
    /*0000004c*/ LDR         R3, [R3, #16] 
    /*00000050*/ BLX         R3 
    /*00000054*/ STR         R6, [SP, #4] 
    /*00000058*/ MOV         R2, R0 
    /*0000005c*/ MOV         R1, #1 
    /*00000060*/ ADD         R0, SP, #4 
    /*00000064*/ BL          _ZNSt7__cxx1112basic_stringIcSt11char_traitsIcESaIcEE12_M_constructEjc
    /*00000068*/ LDR         R0, [R4] 
    /*0000006c*/ LDR         SL, [SP, #4] 
    /*00000070*/ LDR         R4, [SP, #8] 
    /*00000074*/ BL          _ZSt9use_facetINSt7__cxx117collateIcEEERKT_RKSt6locale
    /*00000078*/ STR         R4, [SP] 
    /*0000007c*/ CMP         R4, #15 
    /*00000080*/ ADD         R5, SP, #36                 @ 0x24 
    /*00000084*/ MOV         R9, R0 
    /*00000088*/ STR         R5, [SP, #28] 
    /*0000008c*/ ADD         R0, SP, #28 
    /*00000090*/ BHI         _ZNKSt8__detail16_RegexTranslatorINSt7__cxx1112regex_traitsIcEELb1ELb1EE17_M_transform_implEcSt17integral_constantIbLb1EE.isra.541_x114
    /*00000094*/ CMP         R4, #1 
    /*00000098*/ BEQ         _ZNKSt8__detail16_RegexTranslatorINSt7__cxx1112regex_traitsIcEELb1ELb1EE17_M_transform_implEcSt17integral_constantIbLb1EE.isra.541_x144
    /*0000009c*/ CMP         R4, #0 
    /*000000a0*/ MOVEQ       R2, R5 
    /*000000a4*/ BNE         _ZNKSt8__detail16_RegexTranslatorINSt7__cxx1112regex_traitsIcEELb1ELb1EE17_M_transform_implEcSt17integral_constantIbLb1EE.isra.541_x154
    _ZNKSt8__detail16_RegexTranslatorINSt7__cxx1112regex_traitsIcEELb1ELb1EE17_M_transform_implEcSt17integral_constantIbLb1EE.isra.541_xa8:
    /*000000a8*/ STR         R4, [SP, #32] 
    /*000000ac*/ MOV         R3, #0 
    /*000000b0*/ STRB        R3, [R2, R4] 
    /*000000b4*/ MOV         R1, R9 
    /*000000b8*/ LDR         R3, [SP, #28] 
    /*000000bc*/ MOV         R0, R7 
    /*000000c0*/ LDR         LR, [SP, #32] 
    /*000000c4*/ LDR         IP, [R9] 
    /*000000c8*/ MOV         R2, R3 
    /*000000cc*/ ADD         R3, R3, LR 
    /*000000d0*/ LDR         R4, [IP, #12] 
    /*000000d4*/ BLX         R4 
    /*000000d8*/ LDR         R0, [SP, #28] 
    /*000000dc*/ CMP         R0, R5 
    /*000000e0*/ BEQ         _ZNKSt8__detail16_RegexTranslatorINSt7__cxx1112regex_traitsIcEELb1ELb1EE17_M_transform_implEcSt17integral_constantIbLb1EE.isra.541_xe8
    /*000000e4*/ BL          _ZdlPv
    _ZNKSt8__detail16_RegexTranslatorINSt7__cxx1112regex_traitsIcEELb1ELb1EE17_M_transform_implEcSt17integral_constantIbLb1EE.isra.541_xe8:
    /*000000e8*/ LDR         R0, [SP, #4] 
    /*000000ec*/ CMP         R0, R6 
    /*000000f0*/ BEQ         _ZNKSt8__detail16_RegexTranslatorINSt7__cxx1112regex_traitsIcEELb1ELb1EE17_M_transform_implEcSt17integral_constantIbLb1EE.isra.541_xf8
    /*000000f4*/ BL          _ZdlPv
    _ZNKSt8__detail16_RegexTranslatorINSt7__cxx1112regex_traitsIcEELb1ELb1EE17_M_transform_implEcSt17integral_constantIbLb1EE.isra.541_xf8:
    /*000000f8*/ LDR         R2, [SP, #52]               @ 0x34 
    /*000000fc*/ MOV         R0, R7 
    /*00000100*/ LDR         R3, [R8] 
    /*00000104*/ CMP         R2, R3 
    /*00000108*/ BNE         _ZNKSt8__detail16_RegexTranslatorINSt7__cxx1112regex_traitsIcEELb1ELb1EE17_M_transform_implEcSt17integral_constantIbLb1EE.isra.541_x15c
    /*0000010c*/ ADD         SP, SP, #56                 @ 0x38 
    /*00000110*/ POP         {R4, R5, R6, R7, R8, R9, SL, PC} 
    _ZNKSt8__detail16_RegexTranslatorINSt7__cxx1112regex_traitsIcEELb1ELb1EE17_M_transform_implEcSt17integral_constantIbLb1EE.isra.541_x114:
    /*00000114*/ MOV         R2, #0 
    /*00000118*/ MOV         R1, SP 
    /*0000011c*/ BL          _ZNSt7__cxx1112basic_stringIcSt11char_traitsIcESaIcEE9_M_createERjj
    /*00000120*/ LDR         R3, [SP] 
    /*00000124*/ STR         R0, [SP, #28] 
    /*00000128*/ STR         R3, [SP, #36]               @ 0x24 
    _ZNKSt8__detail16_RegexTranslatorINSt7__cxx1112regex_traitsIcEELb1ELb1EE17_M_transform_implEcSt17integral_constantIbLb1EE.isra.541_x12c:
    /*0000012c*/ MOV         R2, R4 
    /*00000130*/ MOV         R1, SL 
    /*00000134*/ BL          memcpy
    /*00000138*/ LDR         R4, [SP] 
    /*0000013c*/ LDR         R2, [SP, #28] 
    /*00000140*/ B           _ZNKSt8__detail16_RegexTranslatorINSt7__cxx1112regex_traitsIcEELb1ELb1EE17_M_transform_implEcSt17integral_constantIbLb1EE.isra.541_xa8
    _ZNKSt8__detail16_RegexTranslatorINSt7__cxx1112regex_traitsIcEELb1ELb1EE17_M_transform_implEcSt17integral_constantIbLb1EE.isra.541_x144:
    /*00000144*/ LDRB        R3, [SL] 
    /*00000148*/ MOV         R2, R5 
    /*0000014c*/ STRB        R3, [SP, #36]               @ 0x24 
    /*00000150*/ B           _ZNKSt8__detail16_RegexTranslatorINSt7__cxx1112regex_traitsIcEELb1ELb1EE17_M_transform_implEcSt17integral_constantIbLb1EE.isra.541_xa8
    _ZNKSt8__detail16_RegexTranslatorINSt7__cxx1112regex_traitsIcEELb1ELb1EE17_M_transform_implEcSt17integral_constantIbLb1EE.isra.541_x154:
    /*00000154*/ MOV         R0, R5 
    /*00000158*/ B           _ZNKSt8__detail16_RegexTranslatorINSt7__cxx1112regex_traitsIcEELb1ELb1EE17_M_transform_implEcSt17integral_constantIbLb1EE.isra.541_x12c
    _ZNKSt8__detail16_RegexTranslatorINSt7__cxx1112regex_traitsIcEELb1ELb1EE17_M_transform_implEcSt17integral_constantIbLb1EE.isra.541_x15c:
    /*0000015c*/ BL          __stack_chk_fail
    _ZNKSt8__detail16_RegexTranslatorINSt7__cxx1112regex_traitsIcEELb1ELb1EE17_M_transform_implEcSt17integral_constantIbLb1EE.isra.541_x160:
    /*00000160*/ LDR         R0, [SP, #4] 
    /*00000164*/ CMP         R0, R6 
    /*00000168*/ BEQ         _ZNKSt8__detail16_RegexTranslatorINSt7__cxx1112regex_traitsIcEELb1ELb1EE17_M_transform_implEcSt17integral_constantIbLb1EE.isra.541_x170
    /*0000016c*/ BL          _ZdlPv
    _ZNKSt8__detail16_RegexTranslatorINSt7__cxx1112regex_traitsIcEELb1ELb1EE17_M_transform_implEcSt17integral_constantIbLb1EE.isra.541_x170:
    /*00000170*/ BL          __cxa_end_cleanup
    /*00000174*/ LDR         R0, [SP, #28] 
    /*00000178*/ CMP         R0, R5 
    /*0000017c*/ BEQ         _ZNKSt8__detail16_RegexTranslatorINSt7__cxx1112regex_traitsIcEELb1ELb1EE17_M_transform_implEcSt17integral_constantIbLb1EE.isra.541_x160
    /*00000180*/ BL          _ZdlPv
    /*00000184*/ B           _ZNKSt8__detail16_RegexTranslatorINSt7__cxx1112regex_traitsIcEELb1ELb1EE17_M_transform_implEcSt17integral_constantIbLb1EE.isra.541_x160
    /*00000188*/ WORD_0188: .word 0x00000160
    /*0000018c*/ WORD_018c: .word 0x00000000
FUNC_END _ZNKSt8__detail16_RegexTranslatorINSt7__cxx1112regex_traitsIcEELb1ELb1EE17_M_transform_implEcSt17integral_constantIbLb1EE.isra.541


@ - - - - - - - - - - - - - - - - - - - - - - - - - - - - - 
@ .ARM.extab.text._ZNKSt8__detail16_RegexTranslatorINSt7__cxx1112regex_traitsIcEELb1ELb1EE17_M_transform_implEcSt17integral_constantIbLb1EE.isra.541
@ Size: 0x26
@ - - - - - - - - - - - - - - - - - - - - - - - - - - - - - 

@ - - - - - - - - - - - - - - - - - - - - - - - - - - - - - 
@ .text._ZNSt17_Function_handlerIFbcENSt8__detail11_AnyMatcherINSt7__cxx1112regex_traitsIcEELb0ELb1ELb0EEEE9_M_invokeERKSt9_Any_dataOc
@ Size: 0xc0
@ - - - - - - - - - - - - - - - - - - - - - - - - - - - - - 

FUNC_BEGIN _ZNSt17_Function_handlerIFbcENSt8__detail11_AnyMatcherINSt7__cxx1112regex_traitsIcEELb0ELb1ELb0EEEE9_M_invokeERKSt9_Any_dataOc
    /*00000000*/ MOV         IP, #16384                  @ 0x4000 
    /*00000004*/ PUSH        {R4, R5, R6, R7, R8, LR} 
    /*00000008*/ SUB         IP, SP, IP 
    /*0000000c*/ STR         R0, [IP, #4072]             @ 0xfe8 
    /*00000010*/ LDR         R4, WORD_00b4               @ LDR         R4, [PC, #156]              @ 0x00000000000000b4 
    /*00000014*/ MOV         R6, R0 
    /*00000018*/ LDR         R3, WORD_00b8               @ LDR         R3, [PC, #152]              @ 0x00000000000000b8 
    /*0000001c*/ ADD         R4, PC, R4 
    /*00000020*/ LDRB        R7, [R1] 
    /*00000024*/ LDR         R5, [R4, R3] 
    /*00000028*/ LDRB        R3, [R5] 
    /*0000002c*/ DMB         ISH 
    /*00000030*/ TST         R3, #1 
    /*00000034*/ BNE         _ZNSt17_Function_handlerIFbcENSt8__detail11_AnyMatcherINSt7__cxx1112regex_traitsIcEELb0ELb1ELb0EEEE9_M_invokeERKSt9_Any_dataOc_x48
    /*00000038*/ MOV         R0, R5 
    /*0000003c*/ BL          __cxa_guard_acquire
    /*00000040*/ CMP         R0, #0 
    /*00000044*/ BNE         _ZNSt17_Function_handlerIFbcENSt8__detail11_AnyMatcherINSt7__cxx1112regex_traitsIcEELb0ELb1ELb0EEEE9_M_invokeERKSt9_Any_dataOc_x78
    _ZNSt17_Function_handlerIFbcENSt8__detail11_AnyMatcherINSt7__cxx1112regex_traitsIcEELb0ELb1ELb0EEEE9_M_invokeERKSt9_Any_dataOc_x48:
    /*00000048*/ LDR         R3, WORD_00bc               @ LDR         R3, [PC, #108]              @ 0x00000000000000bc 
    /*0000004c*/ LDR         R4, [R4, R3] 
    _ZNSt17_Function_handlerIFbcENSt8__detail11_AnyMatcherINSt7__cxx1112regex_traitsIcEELb0ELb1ELb0EEEE9_M_invokeERKSt9_Any_dataOc_x50:
    /*00000050*/ LDR         R0, [R6] 
    /*00000054*/ BL          _ZSt9use_facetISt5ctypeIcEERKT_RKSt6locale
    /*00000058*/ LDR         R3, [R0] 
    /*0000005c*/ MOV         R1, R7 
    /*00000060*/ LDR         R3, [R3, #16] 
    /*00000064*/ BLX         R3 
    /*00000068*/ LDRB        R3, [R4] 
    /*0000006c*/ SUBS        R0, R3, R0 
    /*00000070*/ MOVNE       R0, #1 
    /*00000074*/ POP         {R4, R5, R6, R7, R8, PC} 
    _ZNSt17_Function_handlerIFbcENSt8__detail11_AnyMatcherINSt7__cxx1112regex_traitsIcEELb0ELb1ELb0EEEE9_M_invokeERKSt9_Any_dataOc_x78:
    /*00000078*/ LDR         R0, [R6] 
    /*0000007c*/ BL          _ZSt9use_facetISt5ctypeIcEERKT_RKSt6locale
    /*00000080*/ LDR         R3, [R0] 
    /*00000084*/ MOV         R1, #0 
    /*00000088*/ LDR         R3, [R3, #16] 
    /*0000008c*/ BLX         R3 
    /*00000090*/ LDR         R3, WORD_00bc               @ LDR         R3, [PC, #36]               @ 0x00000000000000bc 
    /*00000094*/ LDR         R4, [R4, R3] 
    /*00000098*/ STRB        R0, [R4] 
    /*0000009c*/ MOV         R0, R5 
    /*000000a0*/ BL          __cxa_guard_release
    /*000000a4*/ B           _ZNSt17_Function_handlerIFbcENSt8__detail11_AnyMatcherINSt7__cxx1112regex_traitsIcEELb0ELb1ELb0EEEE9_M_invokeERKSt9_Any_dataOc_x50
    /*000000a8*/ MOV         R0, R5 
    /*000000ac*/ BL          __cxa_guard_abort
    /*000000b0*/ BL          __cxa_end_cleanup
    /*000000b4*/ WORD_00b4: .word 0x00000090
    /*000000b8*/ WORD_00b8: .word 0x00000000
    /*000000bc*/ WORD_00bc: .word 0x00000000
FUNC_END _ZNSt17_Function_handlerIFbcENSt8__detail11_AnyMatcherINSt7__cxx1112regex_traitsIcEELb0ELb1ELb0EEEE9_M_invokeERKSt9_Any_dataOc


@ - - - - - - - - - - - - - - - - - - - - - - - - - - - - - 
@ .ARM.extab.text._ZNSt17_Function_handlerIFbcENSt8__detail11_AnyMatcherINSt7__cxx1112regex_traitsIcEELb0ELb1ELb0EEEE9_M_invokeERKSt9_Any_dataOc
@ Size: 0x1a
@ - - - - - - - - - - - - - - - - - - - - - - - - - - - - - 

@ - - - - - - - - - - - - - - - - - - - - - - - - - - - - - 
@ .text._ZNSt17_Function_handlerIFbcENSt8__detail11_AnyMatcherINSt7__cxx1112regex_traitsIcEELb0ELb1ELb1EEEE9_M_invokeERKSt9_Any_dataOc
@ Size: 0xc0
@ - - - - - - - - - - - - - - - - - - - - - - - - - - - - - 

FUNC_BEGIN _ZNSt17_Function_handlerIFbcENSt8__detail11_AnyMatcherINSt7__cxx1112regex_traitsIcEELb0ELb1ELb1EEEE9_M_invokeERKSt9_Any_dataOc
    /*00000000*/ MOV         IP, #16384                  @ 0x4000 
    /*00000004*/ PUSH        {R4, R5, R6, R7, R8, LR} 
    /*00000008*/ SUB         IP, SP, IP 
    /*0000000c*/ STR         R0, [IP, #4072]             @ 0xfe8 
    /*00000010*/ LDR         R4, WORD_00b4               @ LDR         R4, [PC, #156]              @ 0x00000000000000b4 
    /*00000014*/ MOV         R6, R0 
    /*00000018*/ LDR         R3, WORD_00b8               @ LDR         R3, [PC, #152]              @ 0x00000000000000b8 
    /*0000001c*/ ADD         R4, PC, R4 
    /*00000020*/ LDRB        R7, [R1] 
    /*00000024*/ LDR         R5, [R4, R3] 
    /*00000028*/ LDRB        R3, [R5] 
    /*0000002c*/ DMB         ISH 
    /*00000030*/ TST         R3, #1 
    /*00000034*/ BNE         _ZNSt17_Function_handlerIFbcENSt8__detail11_AnyMatcherINSt7__cxx1112regex_traitsIcEELb0ELb1ELb1EEEE9_M_invokeERKSt9_Any_dataOc_x48
    /*00000038*/ MOV         R0, R5 
    /*0000003c*/ BL          __cxa_guard_acquire
    /*00000040*/ CMP         R0, #0 
    /*00000044*/ BNE         _ZNSt17_Function_handlerIFbcENSt8__detail11_AnyMatcherINSt7__cxx1112regex_traitsIcEELb0ELb1ELb1EEEE9_M_invokeERKSt9_Any_dataOc_x78
    _ZNSt17_Function_handlerIFbcENSt8__detail11_AnyMatcherINSt7__cxx1112regex_traitsIcEELb0ELb1ELb1EEEE9_M_invokeERKSt9_Any_dataOc_x48:
    /*00000048*/ LDR         R3, WORD_00bc               @ LDR         R3, [PC, #108]              @ 0x00000000000000bc 
    /*0000004c*/ LDR         R4, [R4, R3] 
    _ZNSt17_Function_handlerIFbcENSt8__detail11_AnyMatcherINSt7__cxx1112regex_traitsIcEELb0ELb1ELb1EEEE9_M_invokeERKSt9_Any_dataOc_x50:
    /*00000050*/ LDR         R0, [R6] 
    /*00000054*/ BL          _ZSt9use_facetISt5ctypeIcEERKT_RKSt6locale
    /*00000058*/ LDR         R3, [R0] 
    /*0000005c*/ MOV         R1, R7 
    /*00000060*/ LDR         R3, [R3, #16] 
    /*00000064*/ BLX         R3 
    /*00000068*/ LDRB        R3, [R4] 
    /*0000006c*/ SUBS        R0, R3, R0 
    /*00000070*/ MOVNE       R0, #1 
    /*00000074*/ POP         {R4, R5, R6, R7, R8, PC} 
    _ZNSt17_Function_handlerIFbcENSt8__detail11_AnyMatcherINSt7__cxx1112regex_traitsIcEELb0ELb1ELb1EEEE9_M_invokeERKSt9_Any_dataOc_x78:
    /*00000078*/ LDR         R0, [R6] 
    /*0000007c*/ BL          _ZSt9use_facetISt5ctypeIcEERKT_RKSt6locale
    /*00000080*/ LDR         R3, [R0] 
    /*00000084*/ MOV         R1, #0 
    /*00000088*/ LDR         R3, [R3, #16] 
    /*0000008c*/ BLX         R3 
    /*00000090*/ LDR         R3, WORD_00bc               @ LDR         R3, [PC, #36]               @ 0x00000000000000bc 
    /*00000094*/ LDR         R4, [R4, R3] 
    /*00000098*/ STRB        R0, [R4] 
    /*0000009c*/ MOV         R0, R5 
    /*000000a0*/ BL          __cxa_guard_release
    /*000000a4*/ B           _ZNSt17_Function_handlerIFbcENSt8__detail11_AnyMatcherINSt7__cxx1112regex_traitsIcEELb0ELb1ELb1EEEE9_M_invokeERKSt9_Any_dataOc_x50
    /*000000a8*/ MOV         R0, R5 
    /*000000ac*/ BL          __cxa_guard_abort
    /*000000b0*/ BL          __cxa_end_cleanup
    /*000000b4*/ WORD_00b4: .word 0x00000090
    /*000000b8*/ WORD_00b8: .word 0x00000000
    /*000000bc*/ WORD_00bc: .word 0x00000000
FUNC_END _ZNSt17_Function_handlerIFbcENSt8__detail11_AnyMatcherINSt7__cxx1112regex_traitsIcEELb0ELb1ELb1EEEE9_M_invokeERKSt9_Any_dataOc


@ - - - - - - - - - - - - - - - - - - - - - - - - - - - - - 
@ .ARM.extab.text._ZNSt17_Function_handlerIFbcENSt8__detail11_AnyMatcherINSt7__cxx1112regex_traitsIcEELb0ELb1ELb1EEEE9_M_invokeERKSt9_Any_dataOc
@ Size: 0x1a
@ - - - - - - - - - - - - - - - - - - - - - - - - - - - - - 

@ - - - - - - - - - - - - - - - - - - - - - - - - - - - - - 
@ .text._ZNSt23_Sp_counted_ptr_inplaceINSt8__detail4_NFAINSt7__cxx1112regex_traitsIcEEEESaIS5_ELN9__gnu_cxx12_Lock_policyE2EE10_M_disposeEv
@ Size: 0xa4
@ - - - - - - - - - - - - - - - - - - - - - - - - - - - - - 

FUNC_BEGIN _ZNSt23_Sp_counted_ptr_inplaceINSt8__detail4_NFAINSt7__cxx1112regex_traitsIcEEEESaIS5_ELN9__gnu_cxx12_Lock_policyE2EE10_M_disposeEv
    /*00000000*/ MOV         IP, #16384                  @ 0x4000 
    /*00000004*/ PUSH        {R4, R5, R6, R7, R8, LR} 
    /*00000008*/ SUB         IP, SP, IP 
    /*0000000c*/ STR         R0, [IP, #4072]             @ 0xfe8 
    /*00000010*/ MOV         R7, R0 
    /*00000014*/ ADD         R0, R0, #52                 @ 0x34 
    /*00000018*/ BL          _ZNSt6localeD1Ev
    /*0000001c*/ LDR         R4, [R7, #40]               @ 0x28 
    /*00000020*/ LDR         R6, [R7, #44]               @ 0x2c 
    /*00000024*/ CMP         R4, R6 
    /*00000028*/ BEQ         _ZNSt23_Sp_counted_ptr_inplaceINSt8__detail4_NFAINSt7__cxx1112regex_traitsIcEEEESaIS5_ELN9__gnu_cxx12_Lock_policyE2EE10_M_disposeEv_x80
    /*0000002c*/ ADD         R5, R4, #8 
    /*00000030*/ B           _ZNSt23_Sp_counted_ptr_inplaceINSt8__detail4_NFAINSt7__cxx1112regex_traitsIcEEEESaIS5_ELN9__gnu_cxx12_Lock_policyE2EE10_M_disposeEv_x44
    _ZNSt23_Sp_counted_ptr_inplaceINSt8__detail4_NFAINSt7__cxx1112regex_traitsIcEEEESaIS5_ELN9__gnu_cxx12_Lock_policyE2EE10_M_disposeEv_x34:
    /*00000034*/ ADD         R4, R4, #24 
    /*00000038*/ ADD         R5, R5, #24 
    /*0000003c*/ CMP         R6, R4 
    /*00000040*/ BEQ         _ZNSt23_Sp_counted_ptr_inplaceINSt8__detail4_NFAINSt7__cxx1112regex_traitsIcEEEESaIS5_ELN9__gnu_cxx12_Lock_policyE2EE10_M_disposeEv_x7c
    _ZNSt23_Sp_counted_ptr_inplaceINSt8__detail4_NFAINSt7__cxx1112regex_traitsIcEEEESaIS5_ELN9__gnu_cxx12_Lock_policyE2EE10_M_disposeEv_x44:
    /*00000044*/ LDR         R3, [R5, #-8] 
    /*00000048*/ CMP         R3, #11 
    /*0000004c*/ BNE         _ZNSt23_Sp_counted_ptr_inplaceINSt8__detail4_NFAINSt7__cxx1112regex_traitsIcEEEESaIS5_ELN9__gnu_cxx12_Lock_policyE2EE10_M_disposeEv_x34
    /*00000050*/ LDR         R3, [R4, #16] 
    /*00000054*/ CMP         R3, #0 
    /*00000058*/ BEQ         _ZNSt23_Sp_counted_ptr_inplaceINSt8__detail4_NFAINSt7__cxx1112regex_traitsIcEEEESaIS5_ELN9__gnu_cxx12_Lock_policyE2EE10_M_disposeEv_x34
    /*0000005c*/ MOV         R1, R5 
    /*00000060*/ MOV         R0, R5 
    /*00000064*/ MOV         R2, #3 
    /*00000068*/ ADD         R4, R4, #24 
    /*0000006c*/ ADD         R5, R5, #24 
    /*00000070*/ BLX         R3 
    /*00000074*/ CMP         R6, R4 
    /*00000078*/ BNE         _ZNSt23_Sp_counted_ptr_inplaceINSt8__detail4_NFAINSt7__cxx1112regex_traitsIcEEEESaIS5_ELN9__gnu_cxx12_Lock_policyE2EE10_M_disposeEv_x44
    _ZNSt23_Sp_counted_ptr_inplaceINSt8__detail4_NFAINSt7__cxx1112regex_traitsIcEEEESaIS5_ELN9__gnu_cxx12_Lock_policyE2EE10_M_disposeEv_x7c:
    /*0000007c*/ LDR         R6, [R7, #40]               @ 0x28 
    _ZNSt23_Sp_counted_ptr_inplaceINSt8__detail4_NFAINSt7__cxx1112regex_traitsIcEEEESaIS5_ELN9__gnu_cxx12_Lock_policyE2EE10_M_disposeEv_x80:
    /*00000080*/ CMP         R6, #0 
    /*00000084*/ BEQ         _ZNSt23_Sp_counted_ptr_inplaceINSt8__detail4_NFAINSt7__cxx1112regex_traitsIcEEEESaIS5_ELN9__gnu_cxx12_Lock_policyE2EE10_M_disposeEv_x90
    /*00000088*/ MOV         R0, R6 
    /*0000008c*/ BL          _ZdlPv
    _ZNSt23_Sp_counted_ptr_inplaceINSt8__detail4_NFAINSt7__cxx1112regex_traitsIcEEEESaIS5_ELN9__gnu_cxx12_Lock_policyE2EE10_M_disposeEv_x90:
    /*00000090*/ LDR         R0, [R7, #12] 
    /*00000094*/ CMP         R0, #0 
    /*00000098*/ POPEQ       {R4, R5, R6, R7, R8, PC} 
    /*0000009c*/ POP         {R4, R5, R6, R7, R8, LR} 
    _ZNSt23_Sp_counted_ptr_inplaceINSt8__detail4_NFAINSt7__cxx1112regex_traitsIcEEEESaIS5_ELN9__gnu_cxx12_Lock_policyE2EE10_M_disposeEv_xa0:
    /*000000a0*/ B           _ZNSt23_Sp_counted_ptr_inplaceINSt8__detail4_NFAINSt7__cxx1112regex_traitsIcEEEESaIS5_ELN9__gnu_cxx12_Lock_policyE2EE10_M_disposeEv_xa0@ _ZdlPv [R_ARM_JUMP24: +0x0] 
FUNC_END _ZNSt23_Sp_counted_ptr_inplaceINSt8__detail4_NFAINSt7__cxx1112regex_traitsIcEEEESaIS5_ELN9__gnu_cxx12_Lock_policyE2EE10_M_disposeEv


@ - - - - - - - - - - - - - - - - - - - - - - - - - - - - - 
@ .ARM.extab.text._ZNSt23_Sp_counted_ptr_inplaceINSt8__detail4_NFAINSt7__cxx1112regex_traitsIcEEEESaIS5_ELN9__gnu_cxx12_Lock_policyE2EE10_M_disposeEv
@ Size: 0xc
@ - - - - - - - - - - - - - - - - - - - - - - - - - - - - - 

@ - - - - - - - - - - - - - - - - - - - - - - - - - - - - - 
@ .text._ZSt19__throw_regex_errorNSt15regex_constants10error_typeEPKc
@ Size: 0x7c
@ - - - - - - - - - - - - - - - - - - - - - - - - - - - - - 

FUNC_BEGIN _ZSt19__throw_regex_errorNSt15regex_constants10error_typeEPKc
    /*00000000*/ MOV         IP, #16384                  @ 0x4000 
    /*00000004*/ PUSH        {R4, R5, R6, R7, R8, LR} 
    /*00000008*/ SUB         IP, SP, IP 
    /*0000000c*/ STR         R0, [IP, #4072]             @ 0xfe8 
    /*00000010*/ LDR         R4, WORD_006c               @ LDR         R4, [PC, #84]               @ 0x000000000000006c 
    /*00000014*/ MOV         R7, R1 
    /*00000018*/ MOV         R6, R0 
    /*0000001c*/ MOV         R0, #12 
    /*00000020*/ ADD         R4, PC, R4 
    /*00000024*/ BL          __cxa_allocate_exception
    /*00000028*/ MOV         R1, R7 
    /*0000002c*/ MOV         R5, R0 
    /*00000030*/ BL          _ZNSt13runtime_errorC2EPKc
    /*00000034*/ LDR         R3, WORD_0070               @ LDR         R3, [PC, #52]               @ 0x0000000000000070 
    /*00000038*/ MOV         R0, R5 
    /*0000003c*/ LDR         R2, WORD_0074               @ LDR         R2, [PC, #48]               @ 0x0000000000000074 
    /*00000040*/ LDR         R1, [R4, R3] 
    /*00000044*/ LDR         R3, WORD_0078               @ LDR         R3, [PC, #44]               @ 0x0000000000000078 
    /*00000048*/ STR         R6, [R5, #8] 
    /*0000004c*/ ADD         R1, R1, #8 
    /*00000050*/ STR         R1, [R5] 
    /*00000054*/ LDR         R2, [R4, R2] 
    /*00000058*/ LDR         R1, [R4, R3] 
    /*0000005c*/ BL          __cxa_throw
    /*00000060*/ MOV         R0, R5 
    /*00000064*/ BL          __cxa_free_exception
    /*00000068*/ BL          __cxa_end_cleanup
    /*0000006c*/ WORD_006c: .word 0x00000044
    /*00000070*/ WORD_0070: .word 0x00000000
    /*00000074*/ WORD_0074: .word 0x00000000
    /*00000078*/ WORD_0078: .word 0x00000000
FUNC_END _ZSt19__throw_regex_errorNSt15regex_constants10error_typeEPKc


@ - - - - - - - - - - - - - - - - - - - - - - - - - - - - - 
@ .ARM.extab.text._ZSt19__throw_regex_errorNSt15regex_constants10error_typeEPKc
@ Size: 0x14
@ - - - - - - - - - - - - - - - - - - - - - - - - - - - - - 

@ - - - - - - - - - - - - - - - - - - - - - - - - - - - - - 
@ .text._ZNSt8__detail8_ScannerIcE18_M_eat_escape_ecmaEv
@ Size: 0x360
@ - - - - - - - - - - - - - - - - - - - - - - - - - - - - - 

FUNC_BEGIN _ZNSt8__detail8_ScannerIcE18_M_eat_escape_ecmaEv
    /*00000000*/ MOV         IP, #16384                  @ 0x4000 
    /*00000004*/ PUSH        {R4, R5, R6, R7, LR} 
    /*00000008*/ SUB         IP, SP, IP 
    /*0000000c*/ STR         R0, [IP, #4064]             @ 0xfe0 
    /*00000010*/ LDR         R3, [R0, #148]              @ 0x94 
    /*00000014*/ SUB         SP, SP, #12 
    /*00000018*/ LDR         R2, [R0, #152]              @ 0x98 
    /*0000001c*/ LDR         R1, WORD_034c               @ LDR         R1, [PC, #808]              @ 0x000000000000034c 
    /*00000020*/ CMP         R3, R2 
    /*00000024*/ ADD         R1, PC, R1 
    /*00000028*/ BEQ         _ZNSt8__detail8_ScannerIcE18_M_eat_escape_ecmaEv_x32c
    /*0000002c*/ MOV         R4, R0 
    /*00000030*/ ADD         R2, R3, #1 
    /*00000034*/ LDR         R0, [R0, #156]              @ 0x9c 
    /*00000038*/ STR         R2, [R4, #148]              @ 0x94 
    /*0000003c*/ LDRB        R5, [R3] 
    /*00000040*/ ADD         R6, R0, R5 
    /*00000044*/ LDRB        R2, [R6, #285]              @ 0x11d 
    /*00000048*/ CMP         R2, #0 
    /*0000004c*/ BEQ         _ZNSt8__detail8_ScannerIcE18_M_eat_escape_ecmaEv_x1c4
    _ZNSt8__detail8_ScannerIcE18_M_eat_escape_ecmaEv_x50:
    /*00000050*/ LDR         R1, [R4, #136]              @ 0x88 
    /*00000054*/ LDRB        R3, [R1] 
    /*00000058*/ CMP         R3, #0 
    /*0000005c*/ BEQ         _ZNSt8__detail8_ScannerIcE18_M_eat_escape_ecmaEv_x80
    /*00000060*/ CMP         R2, R3 
    /*00000064*/ BNE         _ZNSt8__detail8_ScannerIcE18_M_eat_escape_ecmaEv_x74
    /*00000068*/ B           _ZNSt8__detail8_ScannerIcE18_M_eat_escape_ecmaEv_x134
    _ZNSt8__detail8_ScannerIcE18_M_eat_escape_ecmaEv_x6c:
    /*0000006c*/ CMP         R3, R2 
    /*00000070*/ BEQ         _ZNSt8__detail8_ScannerIcE18_M_eat_escape_ecmaEv_x134
    _ZNSt8__detail8_ScannerIcE18_M_eat_escape_ecmaEv_x74:
    /*00000074*/ LDRB        R3, [R1, #2]! 
    /*00000078*/ CMP         R3, #0 
    /*0000007c*/ BNE         _ZNSt8__detail8_ScannerIcE18_M_eat_escape_ecmaEv_x6c
    _ZNSt8__detail8_ScannerIcE18_M_eat_escape_ecmaEv_x80:
    /*00000080*/ CMP         R5, #98                     @ 0x62 
    /*00000084*/ BEQ         _ZNSt8__detail8_ScannerIcE18_M_eat_escape_ecmaEv_x148
    /*00000088*/ CMP         R5, #66                     @ 0x42 
    /*0000008c*/ BEQ         _ZNSt8__detail8_ScannerIcE18_M_eat_escape_ecmaEv_x24c
    /*00000090*/ AND         R3, R5, #223                @ 0xdf 
    /*00000094*/ CMP         R3, #68                     @ 0x44 
    /*00000098*/ BEQ         _ZNSt8__detail8_ScannerIcE18_M_eat_escape_ecmaEv_x19c
    /*0000009c*/ AND         R3, R5, #219                @ 0xdb 
    /*000000a0*/ CMP         R3, #83                     @ 0x53 
    /*000000a4*/ BEQ         _ZNSt8__detail8_ScannerIcE18_M_eat_escape_ecmaEv_x19c
    /*000000a8*/ CMP         R5, #99                     @ 0x63 
    /*000000ac*/ BEQ         _ZNSt8__detail8_ScannerIcE18_M_eat_escape_ecmaEv_x210
    /*000000b0*/ CMP         R5, #117                    @ 0x75 
    /*000000b4*/ CMPNE       R5, #120                    @ 0x78 
    /*000000b8*/ MOVEQ       R0, #1 
    /*000000bc*/ MOVNE       R0, #0 
    /*000000c0*/ BEQ         _ZNSt8__detail8_ScannerIcE18_M_eat_escape_ecmaEv_x2a0
    /*000000c4*/ LDR         R2, [R4, #156]              @ 0x9c 
    /*000000c8*/ LSL         R3, R5, #1 
    /*000000cc*/ LDR         R2, [R2, #24] 
    /*000000d0*/ LDRH        R3, [R2, R3] 
    /*000000d4*/ LDR         R2, [R4, #164]              @ 0xa4 
    /*000000d8*/ ANDS        R1, R3, #2048               @ 0x800 
    /*000000dc*/ BEQ         _ZNSt8__detail8_ScannerIcE18_M_eat_escape_ecmaEv_x260
    /*000000e0*/ STR         R5, [SP] 
    /*000000e4*/ ADD         R6, R4, #160                @ 0xa0 
    /*000000e8*/ MOV         R1, R0 
    /*000000ec*/ MOV         R3, #1 
    /*000000f0*/ MOV         R0, R6 
    /*000000f4*/ BL          _ZNSt7__cxx1112basic_stringIcSt11char_traitsIcESaIcEE14_M_replace_auxEjjjc
    /*000000f8*/ LDR         R3, [R4, #148]              @ 0x94 
    /*000000fc*/ LDR         R2, [R4, #152]              @ 0x98 
    /*00000100*/ CMP         R3, R2 
    /*00000104*/ BEQ         _ZNSt8__detail8_ScannerIcE18_M_eat_escape_ecmaEv_x124
    _ZNSt8__detail8_ScannerIcE18_M_eat_escape_ecmaEv_x108:
    /*00000108*/ LDR         R1, [R4, #156]              @ 0x9c 
    /*0000010c*/ LDRB        R2, [R3] 
    /*00000110*/ LDR         R1, [R1, #24] 
    /*00000114*/ LSL         R2, R2, #1 
    /*00000118*/ LDRH        R2, [R1, R2] 
    /*0000011c*/ TST         R2, #2048                   @ 0x800 
    /*00000120*/ BNE         _ZNSt8__detail8_ScannerIcE18_M_eat_escape_ecmaEv_x278
    _ZNSt8__detail8_ScannerIcE18_M_eat_escape_ecmaEv_x124:
    /*00000124*/ MOV         R3, #4 
    /*00000128*/ STR         R3, [R4, #132]              @ 0x84 
    /*0000012c*/ ADD         SP, SP, #12 
    /*00000130*/ POP         {R4, R5, R6, R7, PC} 
    _ZNSt8__detail8_ScannerIcE18_M_eat_escape_ecmaEv_x134:
    /*00000134*/ CMP         R5, #98                     @ 0x62 
    /*00000138*/ BNE         _ZNSt8__detail8_ScannerIcE18_M_eat_escape_ecmaEv_x174
    /*0000013c*/ LDR         R3, [R4, #124]              @ 0x7c 
    /*00000140*/ CMP         R3, #2 
    /*00000144*/ BEQ         _ZNSt8__detail8_ScannerIcE18_M_eat_escape_ecmaEv_x174
    _ZNSt8__detail8_ScannerIcE18_M_eat_escape_ecmaEv_x148:
    /*00000148*/ LDR         R2, [R4, #164]              @ 0xa4 
    /*0000014c*/ MOV         R3, #24 
    /*00000150*/ STR         R3, [R4, #132]              @ 0x84 
    /*00000154*/ MOV         R3, #112                    @ 0x70 
    _ZNSt8__detail8_ScannerIcE18_M_eat_escape_ecmaEv_x158:
    /*00000158*/ STR         R3, [SP] 
    /*0000015c*/ ADD         R0, R4, #160                @ 0xa0 
    /*00000160*/ MOV         R3, #1 
    /*00000164*/ MOV         R1, #0 
    /*00000168*/ BL          _ZNSt7__cxx1112basic_stringIcSt11char_traitsIcESaIcEE14_M_replace_auxEjjjc
    _ZNSt8__detail8_ScannerIcE18_M_eat_escape_ecmaEv_x16c:
    /*0000016c*/ ADD         SP, SP, #12 
    /*00000170*/ POP         {R4, R5, R6, R7, PC} 
    _ZNSt8__detail8_ScannerIcE18_M_eat_escape_ecmaEv_x174:
    /*00000174*/ LDR         R2, [R4, #164]              @ 0xa4 
    /*00000178*/ MOV         R3, #1 
    /*0000017c*/ STR         R3, [R4, #132]              @ 0x84 
    /*00000180*/ ADD         R0, R4, #160                @ 0xa0 
    /*00000184*/ LDRB        R1, [R1, #1] 
    /*00000188*/ STR         R1, [SP] 
    /*0000018c*/ MOV         R1, #0 
    /*00000190*/ BL          _ZNSt7__cxx1112basic_stringIcSt11char_traitsIcESaIcEE14_M_replace_auxEjjjc
    /*00000194*/ ADD         SP, SP, #12 
    /*00000198*/ POP         {R4, R5, R6, R7, PC} 
    _ZNSt8__detail8_ScannerIcE18_M_eat_escape_ecmaEv_x19c:
    /*0000019c*/ LDR         R2, [R4, #164]              @ 0xa4 
    /*000001a0*/ MOV         R3, #14 
    /*000001a4*/ STR         R5, [SP] 
    /*000001a8*/ ADD         R0, R4, #160                @ 0xa0 
    /*000001ac*/ STR         R3, [R4, #132]              @ 0x84 
    /*000001b0*/ MOV         R1, #0 
    /*000001b4*/ MOV         R3, #1 
    /*000001b8*/ BL          _ZNSt7__cxx1112basic_stringIcSt11char_traitsIcESaIcEE14_M_replace_auxEjjjc
    /*000001bc*/ ADD         SP, SP, #12 
    /*000001c0*/ POP         {R4, R5, R6, R7, PC} 
    _ZNSt8__detail8_ScannerIcE18_M_eat_escape_ecmaEv_x1c4:
    /*000001c4*/ LDR         IP, [R0] 
    /*000001c8*/ LDR         R3, WORD_0350               @ LDR         R3, [PC, #384]              @ 0x0000000000000350 
    /*000001cc*/ LDR         R7, [IP, #32] 
    /*000001d0*/ LDR         R3, [R1, R3] 
    /*000001d4*/ CMP         R7, R3 
    /*000001d8*/ MOVEQ       R2, R5 
    /*000001dc*/ BNE         _ZNSt8__detail8_ScannerIcE18_M_eat_escape_ecmaEv_x200
    _ZNSt8__detail8_ScannerIcE18_M_eat_escape_ecmaEv_x1e0:
    /*000001e0*/ CMP         R2, #0 
    /*000001e4*/ STRBNE      R2, [R6, #285]              @ 0x11d 
    /*000001e8*/ BNE         _ZNSt8__detail8_ScannerIcE18_M_eat_escape_ecmaEv_x50
    /*000001ec*/ LDR         R1, [R4, #136]              @ 0x88 
    /*000001f0*/ LDRB        R3, [R1] 
    /*000001f4*/ CMP         R3, #0 
    /*000001f8*/ BNE         _ZNSt8__detail8_ScannerIcE18_M_eat_escape_ecmaEv_x74
    /*000001fc*/ B           _ZNSt8__detail8_ScannerIcE18_M_eat_escape_ecmaEv_x80
    _ZNSt8__detail8_ScannerIcE18_M_eat_escape_ecmaEv_x200:
    /*00000200*/ MOV         R1, R5 
    /*00000204*/ BLX         R7 
    /*00000208*/ MOV         R2, R0 
    /*0000020c*/ B           _ZNSt8__detail8_ScannerIcE18_M_eat_escape_ecmaEv_x1e0
    _ZNSt8__detail8_ScannerIcE18_M_eat_escape_ecmaEv_x210:
    /*00000210*/ LDR         R1, [R4, #148]              @ 0x94 
    /*00000214*/ LDR         R3, [R4, #152]              @ 0x98 
    /*00000218*/ CMP         R1, R3 
    /*0000021c*/ BEQ         _ZNSt8__detail8_ScannerIcE18_M_eat_escape_ecmaEv_x33c
    /*00000220*/ LDR         R2, [R4, #164]              @ 0xa4 
    /*00000224*/ MOV         R3, #1 
    /*00000228*/ ADD         R0, R1, R3 
    /*0000022c*/ STR         R0, [R4, #148]              @ 0x94 
    /*00000230*/ ADD         R0, R4, #160                @ 0xa0 
    /*00000234*/ STR         R3, [R4, #132]              @ 0x84 
    /*00000238*/ LDRB        R1, [R1] 
    /*0000023c*/ STR         R1, [SP] 
    /*00000240*/ MOV         R1, #0 
    /*00000244*/ BL          _ZNSt7__cxx1112basic_stringIcSt11char_traitsIcESaIcEE14_M_replace_auxEjjjc
    /*00000248*/ B           _ZNSt8__detail8_ScannerIcE18_M_eat_escape_ecmaEv_x16c
    _ZNSt8__detail8_ScannerIcE18_M_eat_escape_ecmaEv_x24c:
    /*0000024c*/ LDR         R2, [R4, #164]              @ 0xa4 
    /*00000250*/ MOV         R3, #24 
    /*00000254*/ STR         R3, [R4, #132]              @ 0x84 
    /*00000258*/ MOV         R3, #110                    @ 0x6e 
    /*0000025c*/ B           _ZNSt8__detail8_ScannerIcE18_M_eat_escape_ecmaEv_x158
    _ZNSt8__detail8_ScannerIcE18_M_eat_escape_ecmaEv_x260:
    /*00000260*/ STR         R5, [SP] 
    /*00000264*/ MOV         R3, #1 
    /*00000268*/ STR         R3, [R4, #132]              @ 0x84 
    /*0000026c*/ ADD         R0, R4, #160                @ 0xa0 
    /*00000270*/ BL          _ZNSt7__cxx1112basic_stringIcSt11char_traitsIcESaIcEE14_M_replace_auxEjjjc
    /*00000274*/ B           _ZNSt8__detail8_ScannerIcE18_M_eat_escape_ecmaEv_x16c
    _ZNSt8__detail8_ScannerIcE18_M_eat_escape_ecmaEv_x278:
    /*00000278*/ ADD         R2, R3, #1 
    /*0000027c*/ MOV         R0, R6 
    /*00000280*/ STR         R2, [R4, #148]              @ 0x94 
    /*00000284*/ LDRB        R1, [R3] 
    /*00000288*/ BL          _ZNSt7__cxx1112basic_stringIcSt11char_traitsIcESaIcEE9push_backEc
    /*0000028c*/ LDR         R3, [R4, #148]              @ 0x94 
    /*00000290*/ LDR         R2, [R4, #152]              @ 0x98 
    /*00000294*/ CMP         R3, R2 
    /*00000298*/ BNE         _ZNSt8__detail8_ScannerIcE18_M_eat_escape_ecmaEv_x108
    /*0000029c*/ B           _ZNSt8__detail8_ScannerIcE18_M_eat_escape_ecmaEv_x124
    _ZNSt8__detail8_ScannerIcE18_M_eat_escape_ecmaEv_x2a0:
    /*000002a0*/ LDR         R2, [R4, #164]              @ 0xa4 
    /*000002a4*/ ADD         R6, R4, #160                @ 0xa0 
    /*000002a8*/ MOV         R0, R6 
    /*000002ac*/ MOV         R1, #0 
    /*000002b0*/ BL          _ZNSt7__cxx1112basic_stringIcSt11char_traitsIcESaIcEE8_M_eraseEjj
    /*000002b4*/ CMP         R5, #120                    @ 0x78 
    /*000002b8*/ MOV         R5, #0 
    /*000002bc*/ MOVEQ       R7, #2 
    /*000002c0*/ MOVNE       R7, #4 
    _ZNSt8__detail8_ScannerIcE18_M_eat_escape_ecmaEv_x2c4:
    /*000002c4*/ LDR         R3, [R4, #148]              @ 0x94 
    /*000002c8*/ LDR         R2, [R4, #152]              @ 0x98 
    /*000002cc*/ CMP         R3, R2 
    /*000002d0*/ BEQ         _ZNSt8__detail8_ScannerIcE18_M_eat_escape_ecmaEv_x2f0
    /*000002d4*/ LDR         R1, [R4, #156]              @ 0x9c 
    /*000002d8*/ LDRB        R2, [R3] 
    /*000002dc*/ LDR         R1, [R1, #24] 
    /*000002e0*/ LSL         R2, R2, #1 
    /*000002e4*/ LDRH        R2, [R1, R2] 
    /*000002e8*/ TST         R2, #4096                   @ 0x1000 
    /*000002ec*/ BNE         _ZNSt8__detail8_ScannerIcE18_M_eat_escape_ecmaEv_x300
    _ZNSt8__detail8_ScannerIcE18_M_eat_escape_ecmaEv_x2f0:
    /*000002f0*/ LDR         R1, WORD_0354               @ LDR         R1, [PC, #92]               @ 0x0000000000000354 
    /*000002f4*/ MOV         R0, #2 
    /*000002f8*/ ADD         R1, PC, R1 
    /*000002fc*/ BL          _ZSt19__throw_regex_errorNSt15regex_constants10error_typeEPKc
    _ZNSt8__detail8_ScannerIcE18_M_eat_escape_ecmaEv_x300:
    /*00000300*/ ADD         R2, R3, #1 
    /*00000304*/ ADD         R5, R5, #1 
    /*00000308*/ STR         R2, [R4, #148]              @ 0x94 
    /*0000030c*/ MOV         R0, R6 
    /*00000310*/ LDRB        R1, [R3] 
    /*00000314*/ BL          _ZNSt7__cxx1112basic_stringIcSt11char_traitsIcESaIcEE9push_backEc
    /*00000318*/ CMP         R7, R5 
    /*0000031c*/ BNE         _ZNSt8__detail8_ScannerIcE18_M_eat_escape_ecmaEv_x2c4
    /*00000320*/ MOV         R3, #3 
    /*00000324*/ STR         R3, [R4, #132]              @ 0x84 
    /*00000328*/ B           _ZNSt8__detail8_ScannerIcE18_M_eat_escape_ecmaEv_x16c
    _ZNSt8__detail8_ScannerIcE18_M_eat_escape_ecmaEv_x32c:
    /*0000032c*/ LDR         R1, WORD_0358               @ LDR         R1, [PC, #36]               @ 0x0000000000000358 
    /*00000330*/ MOV         R0, #2 
    /*00000334*/ ADD         R1, PC, R1 
    /*00000338*/ BL          _ZSt19__throw_regex_errorNSt15regex_constants10error_typeEPKc
    _ZNSt8__detail8_ScannerIcE18_M_eat_escape_ecmaEv_x33c:
    /*0000033c*/ LDR         R1, WORD_035c               @ LDR         R1, [PC, #24]               @ 0x000000000000035c 
    /*00000340*/ MOV         R0, #2 
    /*00000344*/ ADD         R1, PC, R1 
    /*00000348*/ BL          _ZSt19__throw_regex_errorNSt15regex_constants10error_typeEPKc
    /*0000034c*/ WORD_034c: .word 0x00000320
    /*00000350*/ WORD_0350: .word 0x00000000
    /*00000354*/ WORD_0354: .word 0x00000054
    /*00000358*/ WORD_0358: .word 0x0000001c
    /*0000035c*/ WORD_035c: .word 0x00000010
FUNC_END _ZNSt8__detail8_ScannerIcE18_M_eat_escape_ecmaEv


@ - - - - - - - - - - - - - - - - - - - - - - - - - - - - - 
@ .text._ZN10hirtparser11HiRTSetting21monitor_task_affinityEv
@ Size: 0x8
@ - - - - - - - - - - - - - - - - - - - - - - - - - - - - - 

FUNC_BEGIN _ZN10hirtparser11HiRTSetting21monitor_task_affinityEv
    /*00000000*/ LDR         R0, [R0] 
    /*00000004*/ BX          LR 
FUNC_END _ZN10hirtparser11HiRTSetting21monitor_task_affinityEv


@ - - - - - - - - - - - - - - - - - - - - - - - - - - - - - 
@ .text._ZN10hirtparser11HiRTSetting22cpu_task_affinity_sizeEv
@ Size: 0x10
@ - - - - - - - - - - - - - - - - - - - - - - - - - - - - - 

FUNC_BEGIN _ZN10hirtparser11HiRTSetting22cpu_task_affinity_sizeEv
    /*00000000*/ LDMIB       R0, {R0, R3} 
    /*00000004*/ SUB         R0, R3, R0 
    /*00000008*/ ASR         R0, R0, #2 
    /*0000000c*/ BX          LR 
FUNC_END _ZN10hirtparser11HiRTSetting22cpu_task_affinity_sizeEv


@ - - - - - - - - - - - - - - - - - - - - - - - - - - - - - 
@ .text._ZN10hirtparser11HiRTSetting17cpu_task_affinityEi
@ Size: 0xc
@ - - - - - - - - - - - - - - - - - - - - - - - - - - - - - 

FUNC_BEGIN _ZN10hirtparser11HiRTSetting17cpu_task_affinityEi
    /*00000000*/ LDR         R3, [R0, #4] 
    /*00000004*/ LDR         R0, [R3, R1, LSL #2] 
    /*00000008*/ BX          LR 
FUNC_END _ZN10hirtparser11HiRTSetting17cpu_task_affinityEi


@ - - - - - - - - - - - - - - - - - - - - - - - - - - - - - 
@ .text._ZN10hirtparser11HiRTSetting9log_levelEv
@ Size: 0x8
@ - - - - - - - - - - - - - - - - - - - - - - - - - - - - - 

FUNC_BEGIN _ZN10hirtparser11HiRTSetting9log_levelEv
    /*00000000*/ LDR         R0, [R0, #16] 
    /*00000004*/ BX          LR 
FUNC_END _ZN10hirtparser11HiRTSetting9log_levelEv


@ - - - - - - - - - - - - - - - - - - - - - - - - - - - - - 
@ .text._ZNSt7__cxx1111basic_regexIcNS_12regex_traitsIcEEED2Ev
@ Size: 0xf8
@ - - - - - - - - - - - - - - - - - - - - - - - - - - - - - 

FUNC_BEGIN _ZNSt7__cxx1111basic_regexIcNS_12regex_traitsIcEEED2Ev
    /*00000000*/ MOV         IP, #16384                  @ 0x4000 
    /*00000004*/ PUSH        {R4, R5, R6, LR} 
    /*00000008*/ SUB         IP, SP, IP 
    /*0000000c*/ STR         R0, [IP, #4080]             @ 0xff0 
    /*00000010*/ LDR         R5, [R0, #12] 
    /*00000014*/ MOV         R4, R0 
    /*00000018*/ LDR         R3, WORD_00f0               @ LDR         R3, [PC, #208]              @ 0x00000000000000f0 
    /*0000001c*/ CMP         R5, #0 
    /*00000020*/ ADD         R3, PC, R3 
    /*00000024*/ BEQ         _ZNSt7__cxx1111basic_regexIcNS_12regex_traitsIcEEED2Ev_x60
    /*00000028*/ LDR         R2, WORD_00f4               @ LDR         R2, [PC, #196]              @ 0x00000000000000f4 
    /*0000002c*/ LDR         R3, [R3, R2] 
    /*00000030*/ CMP         R3, #0 
    /*00000034*/ BEQ         _ZNSt7__cxx1111basic_regexIcNS_12regex_traitsIcEEED2Ev_x70
    /*00000038*/ ADD         R3, R5, #4 
    /*0000003c*/ DMB         ISH 
    _ZNSt7__cxx1111basic_regexIcNS_12regex_traitsIcEEED2Ev_x40:
    /*00000040*/ LDREX       R2, [R3] 
    /*00000044*/ SUB         R1, R2, #1 
    /*00000048*/ STREX       R0, R1, [R3] 
    /*0000004c*/ CMP         R0, #0 
    /*00000050*/ BNE         _ZNSt7__cxx1111basic_regexIcNS_12regex_traitsIcEEED2Ev_x40
    /*00000054*/ CMP         R2, #1 
    /*00000058*/ DMB         ISH 
    /*0000005c*/ BEQ         _ZNSt7__cxx1111basic_regexIcNS_12regex_traitsIcEEED2Ev_xa4
    _ZNSt7__cxx1111basic_regexIcNS_12regex_traitsIcEEED2Ev_x60:
    /*00000060*/ ADD         R0, R4, #4 
    /*00000064*/ BL          _ZNSt6localeD1Ev
    /*00000068*/ MOV         R0, R4 
    /*0000006c*/ POP         {R4, R5, R6, PC} 
    _ZNSt7__cxx1111basic_regexIcNS_12regex_traitsIcEEED2Ev_x70:
    /*00000070*/ LDR         R3, [R5, #4] 
    /*00000074*/ CMP         R3, #1 
    /*00000078*/ SUB         R3, R3, #1 
    /*0000007c*/ STR         R3, [R5, #4] 
    /*00000080*/ BNE         _ZNSt7__cxx1111basic_regexIcNS_12regex_traitsIcEEED2Ev_x60
    /*00000084*/ LDR         R3, [R5] 
    /*00000088*/ MOV         R0, R5 
    /*0000008c*/ LDR         R3, [R3, #8] 
    /*00000090*/ BLX         R3 
    /*00000094*/ LDR         R2, [R5, #8] 
    /*00000098*/ SUB         R3, R2, #1 
    /*0000009c*/ STR         R3, [R5, #8] 
    /*000000a0*/ B           _ZNSt7__cxx1111basic_regexIcNS_12regex_traitsIcEEED2Ev_xd4
    _ZNSt7__cxx1111basic_regexIcNS_12regex_traitsIcEEED2Ev_xa4:
    /*000000a4*/ LDR         R3, [R5] 
    /*000000a8*/ MOV         R0, R5 
    /*000000ac*/ LDR         R3, [R3, #8] 
    /*000000b0*/ BLX         R3 
    /*000000b4*/ DMB         ISH 
    /*000000b8*/ ADD         R3, R5, #8 
    _ZNSt7__cxx1111basic_regexIcNS_12regex_traitsIcEEED2Ev_xbc:
    /*000000bc*/ LDREX       R2, [R3] 
    /*000000c0*/ SUB         R1, R2, #1 
    /*000000c4*/ STREX       R0, R1, [R3] 
    /*000000c8*/ CMP         R0, #0 
    /*000000cc*/ BNE         _ZNSt7__cxx1111basic_regexIcNS_12regex_traitsIcEEED2Ev_xbc
    /*000000d0*/ DMB         ISH 
    _ZNSt7__cxx1111basic_regexIcNS_12regex_traitsIcEEED2Ev_xd4:
    /*000000d4*/ CMP         R2, #1 
    /*000000d8*/ BNE         _ZNSt7__cxx1111basic_regexIcNS_12regex_traitsIcEEED2Ev_x60
    /*000000dc*/ LDR         R3, [R5] 
    /*000000e0*/ MOV         R0, R5 
    /*000000e4*/ LDR         R3, [R3, #12] 
    /*000000e8*/ BLX         R3 
    /*000000ec*/ B           _ZNSt7__cxx1111basic_regexIcNS_12regex_traitsIcEEED2Ev_x60
    /*000000f0*/ WORD_00f0: .word 0x000000c8
    /*000000f4*/ WORD_00f4: .word 0x00000000
FUNC_END _ZNSt7__cxx1111basic_regexIcNS_12regex_traitsIcEEED2Ev


FUNC_BEGIN _ZNSt7__cxx1111basic_regexIcNS_12regex_traitsIcEEED1Ev
    /*00000000*/ MOV         IP, #16384                  @ 0x4000 
    /*00000004*/ PUSH        {R4, R5, R6, LR} 
    /*00000008*/ SUB         IP, SP, IP 
    /*0000000c*/ STR         R0, [IP, #4080]             @ 0xff0 
    /*00000010*/ LDR         R5, [R0, #12] 
    /*00000014*/ MOV         R4, R0 
    /*00000018*/ LDR         R3, WORD_00f0               @ LDR         R3, [PC, #208]              @ 0x00000000000000f0 
    /*0000001c*/ CMP         R5, #0 
    /*00000020*/ ADD         R3, PC, R3 
    /*00000024*/ BEQ         _ZNSt7__cxx1111basic_regexIcNS_12regex_traitsIcEEED1Ev_x60
    /*00000028*/ LDR         R2, WORD_00f4               @ LDR         R2, [PC, #196]              @ 0x00000000000000f4 
    /*0000002c*/ LDR         R3, [R3, R2] 
    /*00000030*/ CMP         R3, #0 
    /*00000034*/ BEQ         _ZNSt7__cxx1111basic_regexIcNS_12regex_traitsIcEEED1Ev_x70
    /*00000038*/ ADD         R3, R5, #4 
    /*0000003c*/ DMB         ISH 
    _ZNSt7__cxx1111basic_regexIcNS_12regex_traitsIcEEED1Ev_x40:
    /*00000040*/ LDREX       R2, [R3] 
    /*00000044*/ SUB         R1, R2, #1 
    /*00000048*/ STREX       R0, R1, [R3] 
    /*0000004c*/ CMP         R0, #0 
    /*00000050*/ BNE         _ZNSt7__cxx1111basic_regexIcNS_12regex_traitsIcEEED1Ev_x40
    /*00000054*/ CMP         R2, #1 
    /*00000058*/ DMB         ISH 
    /*0000005c*/ BEQ         _ZNSt7__cxx1111basic_regexIcNS_12regex_traitsIcEEED1Ev_xa4
    _ZNSt7__cxx1111basic_regexIcNS_12regex_traitsIcEEED1Ev_x60:
    /*00000060*/ ADD         R0, R4, #4 
    /*00000064*/ BL          _ZNSt6localeD1Ev
    /*00000068*/ MOV         R0, R4 
    /*0000006c*/ POP         {R4, R5, R6, PC} 
    _ZNSt7__cxx1111basic_regexIcNS_12regex_traitsIcEEED1Ev_x70:
    /*00000070*/ LDR         R3, [R5, #4] 
    /*00000074*/ CMP         R3, #1 
    /*00000078*/ SUB         R3, R3, #1 
    /*0000007c*/ STR         R3, [R5, #4] 
    /*00000080*/ BNE         _ZNSt7__cxx1111basic_regexIcNS_12regex_traitsIcEEED1Ev_x60
    /*00000084*/ LDR         R3, [R5] 
    /*00000088*/ MOV         R0, R5 
    /*0000008c*/ LDR         R3, [R3, #8] 
    /*00000090*/ BLX         R3 
    /*00000094*/ LDR         R2, [R5, #8] 
    /*00000098*/ SUB         R3, R2, #1 
    /*0000009c*/ STR         R3, [R5, #8] 
    /*000000a0*/ B           _ZNSt7__cxx1111basic_regexIcNS_12regex_traitsIcEEED1Ev_xd4
    _ZNSt7__cxx1111basic_regexIcNS_12regex_traitsIcEEED1Ev_xa4:
    /*000000a4*/ LDR         R3, [R5] 
    /*000000a8*/ MOV         R0, R5 
    /*000000ac*/ LDR         R3, [R3, #8] 
    /*000000b0*/ BLX         R3 
    /*000000b4*/ DMB         ISH 
    /*000000b8*/ ADD         R3, R5, #8 
    _ZNSt7__cxx1111basic_regexIcNS_12regex_traitsIcEEED1Ev_xbc:
    /*000000bc*/ LDREX       R2, [R3] 
    /*000000c0*/ SUB         R1, R2, #1 
    /*000000c4*/ STREX       R0, R1, [R3] 
    /*000000c8*/ CMP         R0, #0 
    /*000000cc*/ BNE         _ZNSt7__cxx1111basic_regexIcNS_12regex_traitsIcEEED1Ev_xbc
    /*000000d0*/ DMB         ISH 
    _ZNSt7__cxx1111basic_regexIcNS_12regex_traitsIcEEED1Ev_xd4:
    /*000000d4*/ CMP         R2, #1 
    /*000000d8*/ BNE         _ZNSt7__cxx1111basic_regexIcNS_12regex_traitsIcEEED1Ev_x60
    /*000000dc*/ LDR         R3, [R5] 
    /*000000e0*/ MOV         R0, R5 
    /*000000e4*/ LDR         R3, [R3, #12] 
    /*000000e8*/ BLX         R3 
    /*000000ec*/ B           _ZNSt7__cxx1111basic_regexIcNS_12regex_traitsIcEEED1Ev_x60
    /*000000f0*/ WORD_00f0: .word 0x000000c8
    /*000000f4*/ WORD_00f4: .word 0x00000000
FUNC_END _ZNSt7__cxx1111basic_regexIcNS_12regex_traitsIcEEED1Ev


@ - - - - - - - - - - - - - - - - - - - - - - - - - - - - - 
@ .text._ZNSt8_Rb_treeINSt7__cxx1112basic_stringIcSt11char_traitsIcESaIcEEESt4pairIKS5_N10hirtparser20HiRTSetting_LogLevelEESt10_Select1stISA_ESt4lessIS5_ESaISA_EE8_M_eraseEPSt13_Rb_tree_nodeISA_E
@ Size: 0x234
@ - - - - - - - - - - - - - - - - - - - - - - - - - - - - - 

FUNC_BEGIN _ZNSt8_Rb_treeINSt7__cxx1112basic_stringIcSt11char_traitsIcESaIcEEESt4pairIKS5_N10hirtparser20HiRTSetting_LogLevelEESt10_Select1stISA_ESt4lessIS5_ESaISA_EE8_M_eraseEPSt13_Rb_tree_nodeISA_E
    /*00000000*/ MOV         IP, #16384                  @ 0x4000 
    /*00000004*/ PUSH        {R4, R5, R6, R7, R8, R9, SL, FP, LR} 
    /*00000008*/ SUB         IP, SP, IP 
    /*0000000c*/ STR         R0, [IP, #4040]             @ 0xfc8 
    /*00000010*/ SUB         SP, SP, #20 
    /*00000014*/ SUBS        R3, R1, #0 
    /*00000018*/ STR         R3, [SP, #12] 
    /*0000001c*/ BEQ         _ZNSt8_Rb_treeINSt7__cxx1112basic_stringIcSt11char_traitsIcESaIcEEESt4pairIKS5_N10hirtparser20HiRTSetting_LogLevelEESt10_Select1stISA_ESt4lessIS5_ESaISA_EE8_M_eraseEPSt13_Rb_tree_nodeISA_E_x22c
    /*00000020*/ MOV         R5, R0 
    _ZNSt8_Rb_treeINSt7__cxx1112basic_stringIcSt11char_traitsIcESaIcEEESt4pairIKS5_N10hirtparser20HiRTSetting_LogLevelEESt10_Select1stISA_ESt4lessIS5_ESaISA_EE8_M_eraseEPSt13_Rb_tree_nodeISA_E_x24:
    /*00000024*/ LDR         R3, [R3, #12] 
    /*00000028*/ CMP         R3, #0 
    /*0000002c*/ STRNE       R3, [SP, #8] 
    /*00000030*/ BEQ         _ZNSt8_Rb_treeINSt7__cxx1112basic_stringIcSt11char_traitsIcESaIcEEESt4pairIKS5_N10hirtparser20HiRTSetting_LogLevelEESt10_Select1stISA_ESt4lessIS5_ESaISA_EE8_M_eraseEPSt13_Rb_tree_nodeISA_E_x1f8
    _ZNSt8_Rb_treeINSt7__cxx1112basic_stringIcSt11char_traitsIcESaIcEEESt4pairIKS5_N10hirtparser20HiRTSetting_LogLevelEESt10_Select1stISA_ESt4lessIS5_ESaISA_EE8_M_eraseEPSt13_Rb_tree_nodeISA_E_x34:
    /*00000034*/ LDR         R8, [R3, #12] 
    /*00000038*/ CMP         R8, #0 
    /*0000003c*/ STRNE       R8, [SP, #4] 
    /*00000040*/ MOVNE       R3, R8 
    /*00000044*/ BEQ         _ZNSt8_Rb_treeINSt7__cxx1112basic_stringIcSt11char_traitsIcESaIcEEESt4pairIKS5_N10hirtparser20HiRTSetting_LogLevelEESt10_Select1stISA_ESt4lessIS5_ESaISA_EE8_M_eraseEPSt13_Rb_tree_nodeISA_E_x1c4
    _ZNSt8_Rb_treeINSt7__cxx1112basic_stringIcSt11char_traitsIcESaIcEEESt4pairIKS5_N10hirtparser20HiRTSetting_LogLevelEESt10_Select1stISA_ESt4lessIS5_ESaISA_EE8_M_eraseEPSt13_Rb_tree_nodeISA_E_x48:
    /*00000048*/ LDR         R9, [R3, #12] 
    /*0000004c*/ CMP         R9, #0 
    /*00000050*/ BEQ         _ZNSt8_Rb_treeINSt7__cxx1112basic_stringIcSt11char_traitsIcESaIcEEESt4pairIKS5_N10hirtparser20HiRTSetting_LogLevelEESt10_Select1stISA_ESt4lessIS5_ESaISA_EE8_M_eraseEPSt13_Rb_tree_nodeISA_E_x190
    _ZNSt8_Rb_treeINSt7__cxx1112basic_stringIcSt11char_traitsIcESaIcEEESt4pairIKS5_N10hirtparser20HiRTSetting_LogLevelEESt10_Select1stISA_ESt4lessIS5_ESaISA_EE8_M_eraseEPSt13_Rb_tree_nodeISA_E_x54:
    /*00000054*/ LDR         SL, [R9, #12] 
    /*00000058*/ CMP         SL, #0 
    /*0000005c*/ BEQ         _ZNSt8_Rb_treeINSt7__cxx1112basic_stringIcSt11char_traitsIcESaIcEEESt4pairIKS5_N10hirtparser20HiRTSetting_LogLevelEESt10_Select1stISA_ESt4lessIS5_ESaISA_EE8_M_eraseEPSt13_Rb_tree_nodeISA_E_x168
    _ZNSt8_Rb_treeINSt7__cxx1112basic_stringIcSt11char_traitsIcESaIcEEESt4pairIKS5_N10hirtparser20HiRTSetting_LogLevelEESt10_Select1stISA_ESt4lessIS5_ESaISA_EE8_M_eraseEPSt13_Rb_tree_nodeISA_E_x60:
    /*00000060*/ LDR         FP, [SL, #12] 
    /*00000064*/ CMP         FP, #0 
    /*00000068*/ BEQ         _ZNSt8_Rb_treeINSt7__cxx1112basic_stringIcSt11char_traitsIcESaIcEEESt4pairIKS5_N10hirtparser20HiRTSetting_LogLevelEESt10_Select1stISA_ESt4lessIS5_ESaISA_EE8_M_eraseEPSt13_Rb_tree_nodeISA_E_x140
    _ZNSt8_Rb_treeINSt7__cxx1112basic_stringIcSt11char_traitsIcESaIcEEESt4pairIKS5_N10hirtparser20HiRTSetting_LogLevelEESt10_Select1stISA_ESt4lessIS5_ESaISA_EE8_M_eraseEPSt13_Rb_tree_nodeISA_E_x6c:
    /*0000006c*/ LDR         R7, [FP, #12] 
    /*00000070*/ CMP         R7, #0 
    /*00000074*/ BEQ         _ZNSt8_Rb_treeINSt7__cxx1112basic_stringIcSt11char_traitsIcESaIcEEESt4pairIKS5_N10hirtparser20HiRTSetting_LogLevelEESt10_Select1stISA_ESt4lessIS5_ESaISA_EE8_M_eraseEPSt13_Rb_tree_nodeISA_E_x118
    _ZNSt8_Rb_treeINSt7__cxx1112basic_stringIcSt11char_traitsIcESaIcEEESt4pairIKS5_N10hirtparser20HiRTSetting_LogLevelEESt10_Select1stISA_ESt4lessIS5_ESaISA_EE8_M_eraseEPSt13_Rb_tree_nodeISA_E_x78:
    /*00000078*/ LDR         R6, [R7, #12] 
    /*0000007c*/ CMP         R6, #0 
    /*00000080*/ BEQ         _ZNSt8_Rb_treeINSt7__cxx1112basic_stringIcSt11char_traitsIcESaIcEEESt4pairIKS5_N10hirtparser20HiRTSetting_LogLevelEESt10_Select1stISA_ESt4lessIS5_ESaISA_EE8_M_eraseEPSt13_Rb_tree_nodeISA_E_xf0
    _ZNSt8_Rb_treeINSt7__cxx1112basic_stringIcSt11char_traitsIcESaIcEEESt4pairIKS5_N10hirtparser20HiRTSetting_LogLevelEESt10_Select1stISA_ESt4lessIS5_ESaISA_EE8_M_eraseEPSt13_Rb_tree_nodeISA_E_x84:
    /*00000084*/ LDR         R3, [R6, #12] 
    /*00000088*/ CMP         R3, #0 
    /*0000008c*/ MOVNE       R8, R3 
    /*00000090*/ BEQ         _ZNSt8_Rb_treeINSt7__cxx1112basic_stringIcSt11char_traitsIcESaIcEEESt4pairIKS5_N10hirtparser20HiRTSetting_LogLevelEESt10_Select1stISA_ESt4lessIS5_ESaISA_EE8_M_eraseEPSt13_Rb_tree_nodeISA_E_xc8
    _ZNSt8_Rb_treeINSt7__cxx1112basic_stringIcSt11char_traitsIcESaIcEEESt4pairIKS5_N10hirtparser20HiRTSetting_LogLevelEESt10_Select1stISA_ESt4lessIS5_ESaISA_EE8_M_eraseEPSt13_Rb_tree_nodeISA_E_x94:
    /*00000094*/ LDR         R1, [R8, #12] 
    /*00000098*/ MOV         R0, R5 
    /*0000009c*/ BL          _ZNSt8_Rb_treeINSt7__cxx1112basic_stringIcSt11char_traitsIcESaIcEEESt4pairIKS5_N10hirtparser20HiRTSetting_LogLevelEESt10_Select1stISA_ESt4lessIS5_ESaISA_EE8_M_eraseEPSt13_Rb_tree_nodeISA_E
    /*000000a0*/ LDR         R0, [R8, #16] 
    /*000000a4*/ ADD         R2, R8, #24 
    /*000000a8*/ LDR         R4, [R8, #8] 
    /*000000ac*/ CMP         R0, R2 
    /*000000b0*/ BEQ         _ZNSt8_Rb_treeINSt7__cxx1112basic_stringIcSt11char_traitsIcESaIcEEESt4pairIKS5_N10hirtparser20HiRTSetting_LogLevelEESt10_Select1stISA_ESt4lessIS5_ESaISA_EE8_M_eraseEPSt13_Rb_tree_nodeISA_E_xb8
    /*000000b4*/ BL          _ZdlPv
    _ZNSt8_Rb_treeINSt7__cxx1112basic_stringIcSt11char_traitsIcESaIcEEESt4pairIKS5_N10hirtparser20HiRTSetting_LogLevelEESt10_Select1stISA_ESt4lessIS5_ESaISA_EE8_M_eraseEPSt13_Rb_tree_nodeISA_E_xb8:
    /*000000b8*/ MOV         R0, R8 
    /*000000bc*/ BL          _ZdlPv
    /*000000c0*/ SUBS        R8, R4, #0 
    /*000000c4*/ BNE         _ZNSt8_Rb_treeINSt7__cxx1112basic_stringIcSt11char_traitsIcESaIcEEESt4pairIKS5_N10hirtparser20HiRTSetting_LogLevelEESt10_Select1stISA_ESt4lessIS5_ESaISA_EE8_M_eraseEPSt13_Rb_tree_nodeISA_E_x94
    _ZNSt8_Rb_treeINSt7__cxx1112basic_stringIcSt11char_traitsIcESaIcEEESt4pairIKS5_N10hirtparser20HiRTSetting_LogLevelEESt10_Select1stISA_ESt4lessIS5_ESaISA_EE8_M_eraseEPSt13_Rb_tree_nodeISA_E_xc8:
    /*000000c8*/ LDR         R0, [R6, #16] 
    /*000000cc*/ ADD         R3, R6, #24 
    /*000000d0*/ LDR         R4, [R6, #8] 
    /*000000d4*/ CMP         R0, R3 
    /*000000d8*/ BEQ         _ZNSt8_Rb_treeINSt7__cxx1112basic_stringIcSt11char_traitsIcESaIcEEESt4pairIKS5_N10hirtparser20HiRTSetting_LogLevelEESt10_Select1stISA_ESt4lessIS5_ESaISA_EE8_M_eraseEPSt13_Rb_tree_nodeISA_E_xe0
    /*000000dc*/ BL          _ZdlPv
    _ZNSt8_Rb_treeINSt7__cxx1112basic_stringIcSt11char_traitsIcESaIcEEESt4pairIKS5_N10hirtparser20HiRTSetting_LogLevelEESt10_Select1stISA_ESt4lessIS5_ESaISA_EE8_M_eraseEPSt13_Rb_tree_nodeISA_E_xe0:
    /*000000e0*/ MOV         R0, R6 
    /*000000e4*/ BL          _ZdlPv
    /*000000e8*/ SUBS        R6, R4, #0 
    /*000000ec*/ BNE         _ZNSt8_Rb_treeINSt7__cxx1112basic_stringIcSt11char_traitsIcESaIcEEESt4pairIKS5_N10hirtparser20HiRTSetting_LogLevelEESt10_Select1stISA_ESt4lessIS5_ESaISA_EE8_M_eraseEPSt13_Rb_tree_nodeISA_E_x84
    _ZNSt8_Rb_treeINSt7__cxx1112basic_stringIcSt11char_traitsIcESaIcEEESt4pairIKS5_N10hirtparser20HiRTSetting_LogLevelEESt10_Select1stISA_ESt4lessIS5_ESaISA_EE8_M_eraseEPSt13_Rb_tree_nodeISA_E_xf0:
    /*000000f0*/ LDR         R0, [R7, #16] 
    /*000000f4*/ ADD         R3, R7, #24 
    /*000000f8*/ LDR         R4, [R7, #8] 
    /*000000fc*/ CMP         R0, R3 
    /*00000100*/ BEQ         _ZNSt8_Rb_treeINSt7__cxx1112basic_stringIcSt11char_traitsIcESaIcEEESt4pairIKS5_N10hirtparser20HiRTSetting_LogLevelEESt10_Select1stISA_ESt4lessIS5_ESaISA_EE8_M_eraseEPSt13_Rb_tree_nodeISA_E_x108
    /*00000104*/ BL          _ZdlPv
    _ZNSt8_Rb_treeINSt7__cxx1112basic_stringIcSt11char_traitsIcESaIcEEESt4pairIKS5_N10hirtparser20HiRTSetting_LogLevelEESt10_Select1stISA_ESt4lessIS5_ESaISA_EE8_M_eraseEPSt13_Rb_tree_nodeISA_E_x108:
    /*00000108*/ MOV         R0, R7 
    /*0000010c*/ BL          _ZdlPv
    /*00000110*/ SUBS        R7, R4, #0 
    /*00000114*/ BNE         _ZNSt8_Rb_treeINSt7__cxx1112basic_stringIcSt11char_traitsIcESaIcEEESt4pairIKS5_N10hirtparser20HiRTSetting_LogLevelEESt10_Select1stISA_ESt4lessIS5_ESaISA_EE8_M_eraseEPSt13_Rb_tree_nodeISA_E_x78
    _ZNSt8_Rb_treeINSt7__cxx1112basic_stringIcSt11char_traitsIcESaIcEEESt4pairIKS5_N10hirtparser20HiRTSetting_LogLevelEESt10_Select1stISA_ESt4lessIS5_ESaISA_EE8_M_eraseEPSt13_Rb_tree_nodeISA_E_x118:
    /*00000118*/ LDR         R0, [FP, #16] 
    /*0000011c*/ ADD         R3, FP, #24 
    /*00000120*/ LDR         R4, [FP, #8] 
    /*00000124*/ CMP         R0, R3 
    /*00000128*/ BEQ         _ZNSt8_Rb_treeINSt7__cxx1112basic_stringIcSt11char_traitsIcESaIcEEESt4pairIKS5_N10hirtparser20HiRTSetting_LogLevelEESt10_Select1stISA_ESt4lessIS5_ESaISA_EE8_M_eraseEPSt13_Rb_tree_nodeISA_E_x130
    /*0000012c*/ BL          _ZdlPv
    _ZNSt8_Rb_treeINSt7__cxx1112basic_stringIcSt11char_traitsIcESaIcEEESt4pairIKS5_N10hirtparser20HiRTSetting_LogLevelEESt10_Select1stISA_ESt4lessIS5_ESaISA_EE8_M_eraseEPSt13_Rb_tree_nodeISA_E_x130:
    /*00000130*/ MOV         R0, FP 
    /*00000134*/ BL          _ZdlPv
    /*00000138*/ SUBS        FP, R4, #0 
    /*0000013c*/ BNE         _ZNSt8_Rb_treeINSt7__cxx1112basic_stringIcSt11char_traitsIcESaIcEEESt4pairIKS5_N10hirtparser20HiRTSetting_LogLevelEESt10_Select1stISA_ESt4lessIS5_ESaISA_EE8_M_eraseEPSt13_Rb_tree_nodeISA_E_x6c
    _ZNSt8_Rb_treeINSt7__cxx1112basic_stringIcSt11char_traitsIcESaIcEEESt4pairIKS5_N10hirtparser20HiRTSetting_LogLevelEESt10_Select1stISA_ESt4lessIS5_ESaISA_EE8_M_eraseEPSt13_Rb_tree_nodeISA_E_x140:
    /*00000140*/ LDR         R0, [SL, #16] 
    /*00000144*/ ADD         R3, SL, #24 
    /*00000148*/ LDR         R4, [SL, #8] 
    /*0000014c*/ CMP         R0, R3 
    /*00000150*/ BEQ         _ZNSt8_Rb_treeINSt7__cxx1112basic_stringIcSt11char_traitsIcESaIcEEESt4pairIKS5_N10hirtparser20HiRTSetting_LogLevelEESt10_Select1stISA_ESt4lessIS5_ESaISA_EE8_M_eraseEPSt13_Rb_tree_nodeISA_E_x158
    /*00000154*/ BL          _ZdlPv
    _ZNSt8_Rb_treeINSt7__cxx1112basic_stringIcSt11char_traitsIcESaIcEEESt4pairIKS5_N10hirtparser20HiRTSetting_LogLevelEESt10_Select1stISA_ESt4lessIS5_ESaISA_EE8_M_eraseEPSt13_Rb_tree_nodeISA_E_x158:
    /*00000158*/ MOV         R0, SL 
    /*0000015c*/ BL          _ZdlPv
    /*00000160*/ SUBS        SL, R4, #0 
    /*00000164*/ BNE         _ZNSt8_Rb_treeINSt7__cxx1112basic_stringIcSt11char_traitsIcESaIcEEESt4pairIKS5_N10hirtparser20HiRTSetting_LogLevelEESt10_Select1stISA_ESt4lessIS5_ESaISA_EE8_M_eraseEPSt13_Rb_tree_nodeISA_E_x60
    _ZNSt8_Rb_treeINSt7__cxx1112basic_stringIcSt11char_traitsIcESaIcEEESt4pairIKS5_N10hirtparser20HiRTSetting_LogLevelEESt10_Select1stISA_ESt4lessIS5_ESaISA_EE8_M_eraseEPSt13_Rb_tree_nodeISA_E_x168:
    /*00000168*/ LDR         R0, [R9, #16] 
    /*0000016c*/ ADD         R3, R9, #24 
    /*00000170*/ LDR         R4, [R9, #8] 
    /*00000174*/ CMP         R0, R3 
    /*00000178*/ BEQ         _ZNSt8_Rb_treeINSt7__cxx1112basic_stringIcSt11char_traitsIcESaIcEEESt4pairIKS5_N10hirtparser20HiRTSetting_LogLevelEESt10_Select1stISA_ESt4lessIS5_ESaISA_EE8_M_eraseEPSt13_Rb_tree_nodeISA_E_x180
    /*0000017c*/ BL          _ZdlPv
    _ZNSt8_Rb_treeINSt7__cxx1112basic_stringIcSt11char_traitsIcESaIcEEESt4pairIKS5_N10hirtparser20HiRTSetting_LogLevelEESt10_Select1stISA_ESt4lessIS5_ESaISA_EE8_M_eraseEPSt13_Rb_tree_nodeISA_E_x180:
    /*00000180*/ MOV         R0, R9 
    /*00000184*/ BL          _ZdlPv
    /*00000188*/ SUBS        R9, R4, #0 
    /*0000018c*/ BNE         _ZNSt8_Rb_treeINSt7__cxx1112basic_stringIcSt11char_traitsIcESaIcEEESt4pairIKS5_N10hirtparser20HiRTSetting_LogLevelEESt10_Select1stISA_ESt4lessIS5_ESaISA_EE8_M_eraseEPSt13_Rb_tree_nodeISA_E_x54
    _ZNSt8_Rb_treeINSt7__cxx1112basic_stringIcSt11char_traitsIcESaIcEEESt4pairIKS5_N10hirtparser20HiRTSetting_LogLevelEESt10_Select1stISA_ESt4lessIS5_ESaISA_EE8_M_eraseEPSt13_Rb_tree_nodeISA_E_x190:
    /*00000190*/ LDR         R2, [SP, #4] 
    /*00000194*/ LDR         R0, [R2, #16] 
    /*00000198*/ ADD         R3, R2, #24 
    /*0000019c*/ LDR         R4, [R2, #8] 
    /*000001a0*/ CMP         R0, R3 
    /*000001a4*/ MOVEQ       R0, R2 
    /*000001a8*/ BEQ         _ZNSt8_Rb_treeINSt7__cxx1112basic_stringIcSt11char_traitsIcESaIcEEESt4pairIKS5_N10hirtparser20HiRTSetting_LogLevelEESt10_Select1stISA_ESt4lessIS5_ESaISA_EE8_M_eraseEPSt13_Rb_tree_nodeISA_E_x1b4
    /*000001ac*/ BL          _ZdlPv
    /*000001b0*/ LDR         R0, [SP, #4] 
    _ZNSt8_Rb_treeINSt7__cxx1112basic_stringIcSt11char_traitsIcESaIcEEESt4pairIKS5_N10hirtparser20HiRTSetting_LogLevelEESt10_Select1stISA_ESt4lessIS5_ESaISA_EE8_M_eraseEPSt13_Rb_tree_nodeISA_E_x1b4:
    /*000001b4*/ BL          _ZdlPv
    /*000001b8*/ SUBS        R3, R4, #0 
    /*000001bc*/ STR         R3, [SP, #4] 
    /*000001c0*/ BNE         _ZNSt8_Rb_treeINSt7__cxx1112basic_stringIcSt11char_traitsIcESaIcEEESt4pairIKS5_N10hirtparser20HiRTSetting_LogLevelEESt10_Select1stISA_ESt4lessIS5_ESaISA_EE8_M_eraseEPSt13_Rb_tree_nodeISA_E_x48
    _ZNSt8_Rb_treeINSt7__cxx1112basic_stringIcSt11char_traitsIcESaIcEEESt4pairIKS5_N10hirtparser20HiRTSetting_LogLevelEESt10_Select1stISA_ESt4lessIS5_ESaISA_EE8_M_eraseEPSt13_Rb_tree_nodeISA_E_x1c4:
    /*000001c4*/ LDR         R2, [SP, #8] 
    /*000001c8*/ LDR         R0, [R2, #16] 
    /*000001cc*/ ADD         R3, R2, #24 
    /*000001d0*/ LDR         R4, [R2, #8] 
    /*000001d4*/ CMP         R0, R3 
    /*000001d8*/ MOVEQ       R0, R2 
    /*000001dc*/ BEQ         _ZNSt8_Rb_treeINSt7__cxx1112basic_stringIcSt11char_traitsIcESaIcEEESt4pairIKS5_N10hirtparser20HiRTSetting_LogLevelEESt10_Select1stISA_ESt4lessIS5_ESaISA_EE8_M_eraseEPSt13_Rb_tree_nodeISA_E_x1e8
    /*000001e0*/ BL          _ZdlPv
    /*000001e4*/ LDR         R0, [SP, #8] 
    _ZNSt8_Rb_treeINSt7__cxx1112basic_stringIcSt11char_traitsIcESaIcEEESt4pairIKS5_N10hirtparser20HiRTSetting_LogLevelEESt10_Select1stISA_ESt4lessIS5_ESaISA_EE8_M_eraseEPSt13_Rb_tree_nodeISA_E_x1e8:
    /*000001e8*/ BL          _ZdlPv
    /*000001ec*/ SUBS        R3, R4, #0 
    /*000001f0*/ STR         R3, [SP, #8] 
    /*000001f4*/ BNE         _ZNSt8_Rb_treeINSt7__cxx1112basic_stringIcSt11char_traitsIcESaIcEEESt4pairIKS5_N10hirtparser20HiRTSetting_LogLevelEESt10_Select1stISA_ESt4lessIS5_ESaISA_EE8_M_eraseEPSt13_Rb_tree_nodeISA_E_x34
    _ZNSt8_Rb_treeINSt7__cxx1112basic_stringIcSt11char_traitsIcESaIcEEESt4pairIKS5_N10hirtparser20HiRTSetting_LogLevelEESt10_Select1stISA_ESt4lessIS5_ESaISA_EE8_M_eraseEPSt13_Rb_tree_nodeISA_E_x1f8:
    /*000001f8*/ LDR         R2, [SP, #12] 
    /*000001fc*/ LDR         R0, [R2, #16] 
    /*00000200*/ ADD         R3, R2, #24 
    /*00000204*/ LDR         R4, [R2, #8] 
    /*00000208*/ CMP         R0, R3 
    /*0000020c*/ MOVEQ       R0, R2 
    /*00000210*/ BEQ         _ZNSt8_Rb_treeINSt7__cxx1112basic_stringIcSt11char_traitsIcESaIcEEESt4pairIKS5_N10hirtparser20HiRTSetting_LogLevelEESt10_Select1stISA_ESt4lessIS5_ESaISA_EE8_M_eraseEPSt13_Rb_tree_nodeISA_E_x21c
    /*00000214*/ BL          _ZdlPv
    /*00000218*/ LDR         R0, [SP, #12] 
    _ZNSt8_Rb_treeINSt7__cxx1112basic_stringIcSt11char_traitsIcESaIcEEESt4pairIKS5_N10hirtparser20HiRTSetting_LogLevelEESt10_Select1stISA_ESt4lessIS5_ESaISA_EE8_M_eraseEPSt13_Rb_tree_nodeISA_E_x21c:
    /*0000021c*/ BL          _ZdlPv
    /*00000220*/ SUBS        R3, R4, #0 
    /*00000224*/ STR         R3, [SP, #12] 
    /*00000228*/ BNE         _ZNSt8_Rb_treeINSt7__cxx1112basic_stringIcSt11char_traitsIcESaIcEEESt4pairIKS5_N10hirtparser20HiRTSetting_LogLevelEESt10_Select1stISA_ESt4lessIS5_ESaISA_EE8_M_eraseEPSt13_Rb_tree_nodeISA_E_x24
    _ZNSt8_Rb_treeINSt7__cxx1112basic_stringIcSt11char_traitsIcESaIcEEESt4pairIKS5_N10hirtparser20HiRTSetting_LogLevelEESt10_Select1stISA_ESt4lessIS5_ESaISA_EE8_M_eraseEPSt13_Rb_tree_nodeISA_E_x22c:
    /*0000022c*/ ADD         SP, SP, #20 
    /*00000230*/ POP         {R4, R5, R6, R7, R8, R9, SL, FP, PC} 
FUNC_END _ZNSt8_Rb_treeINSt7__cxx1112basic_stringIcSt11char_traitsIcESaIcEEESt4pairIKS5_N10hirtparser20HiRTSetting_LogLevelEESt10_Select1stISA_ESt4lessIS5_ESaISA_EE8_M_eraseEPSt13_Rb_tree_nodeISA_E


@ - - - - - - - - - - - - - - - - - - - - - - - - - - - - - 
@ .text._ZNSt3mapINSt7__cxx1112basic_stringIcSt11char_traitsIcESaIcEEEN10hirtparser20HiRTSetting_LogLevelESt4lessIS5_ESaISt4pairIKS5_S7_EEED2Ev
@ Size: 0x5c
@ - - - - - - - - - - - - - - - - - - - - - - - - - - - - - 

FUNC_BEGIN _ZNSt3mapINSt7__cxx1112basic_stringIcSt11char_traitsIcESaIcEEEN10hirtparser20HiRTSetting_LogLevelESt4lessIS5_ESaISt4pairIKS5_S7_EEED2Ev
    /*00000000*/ MOV         IP, #16384                  @ 0x4000 
    /*00000004*/ PUSH        {R4, R5, R6, LR} 
    /*00000008*/ SUB         IP, SP, IP 
    /*0000000c*/ STR         R0, [IP, #4080]             @ 0xff0 
    /*00000010*/ LDR         R4, [R0, #8] 
    /*00000014*/ MOV         R6, R0 
    /*00000018*/ CMP         R4, #0 
    /*0000001c*/ BEQ         _ZNSt3mapINSt7__cxx1112basic_stringIcSt11char_traitsIcESaIcEEEN10hirtparser20HiRTSetting_LogLevelESt4lessIS5_ESaISt4pairIKS5_S7_EEED2Ev_x54
    _ZNSt3mapINSt7__cxx1112basic_stringIcSt11char_traitsIcESaIcEEEN10hirtparser20HiRTSetting_LogLevelESt4lessIS5_ESaISt4pairIKS5_S7_EEED2Ev_x20:
    /*00000020*/ LDR         R1, [R4, #12] 
    /*00000024*/ MOV         R0, R6 
    /*00000028*/ BL          _ZNSt8_Rb_treeINSt7__cxx1112basic_stringIcSt11char_traitsIcESaIcEEESt4pairIKS5_N10hirtparser20HiRTSetting_LogLevelEESt10_Select1stISA_ESt4lessIS5_ESaISA_EE8_M_eraseEPSt13_Rb_tree_nodeISA_E
    /*0000002c*/ LDR         R0, [R4, #16] 
    /*00000030*/ ADD         R3, R4, #24 
    /*00000034*/ LDR         R5, [R4, #8] 
    /*00000038*/ CMP         R0, R3 
    /*0000003c*/ BEQ         _ZNSt3mapINSt7__cxx1112basic_stringIcSt11char_traitsIcESaIcEEEN10hirtparser20HiRTSetting_LogLevelESt4lessIS5_ESaISt4pairIKS5_S7_EEED2Ev_x44
    /*00000040*/ BL          _ZdlPv
    _ZNSt3mapINSt7__cxx1112basic_stringIcSt11char_traitsIcESaIcEEEN10hirtparser20HiRTSetting_LogLevelESt4lessIS5_ESaISt4pairIKS5_S7_EEED2Ev_x44:
    /*00000044*/ MOV         R0, R4 
    /*00000048*/ BL          _ZdlPv
    /*0000004c*/ SUBS        R4, R5, #0 
    /*00000050*/ BNE         _ZNSt3mapINSt7__cxx1112basic_stringIcSt11char_traitsIcESaIcEEEN10hirtparser20HiRTSetting_LogLevelESt4lessIS5_ESaISt4pairIKS5_S7_EEED2Ev_x20
    _ZNSt3mapINSt7__cxx1112basic_stringIcSt11char_traitsIcESaIcEEEN10hirtparser20HiRTSetting_LogLevelESt4lessIS5_ESaISt4pairIKS5_S7_EEED2Ev_x54:
    /*00000054*/ MOV         R0, R6 
    /*00000058*/ POP         {R4, R5, R6, PC} 
FUNC_END _ZNSt3mapINSt7__cxx1112basic_stringIcSt11char_traitsIcESaIcEEEN10hirtparser20HiRTSetting_LogLevelESt4lessIS5_ESaISt4pairIKS5_S7_EEED2Ev


FUNC_BEGIN _ZNSt3mapINSt7__cxx1112basic_stringIcSt11char_traitsIcESaIcEEEN10hirtparser20HiRTSetting_LogLevelESt4lessIS5_ESaISt4pairIKS5_S7_EEED1Ev
    /*00000000*/ MOV         IP, #16384                  @ 0x4000 
    /*00000004*/ PUSH        {R4, R5, R6, LR} 
    /*00000008*/ SUB         IP, SP, IP 
    /*0000000c*/ STR         R0, [IP, #4080]             @ 0xff0 
    /*00000010*/ LDR         R4, [R0, #8] 
    /*00000014*/ MOV         R6, R0 
    /*00000018*/ CMP         R4, #0 
    /*0000001c*/ BEQ         _ZNSt3mapINSt7__cxx1112basic_stringIcSt11char_traitsIcESaIcEEEN10hirtparser20HiRTSetting_LogLevelESt4lessIS5_ESaISt4pairIKS5_S7_EEED1Ev_x54
    _ZNSt3mapINSt7__cxx1112basic_stringIcSt11char_traitsIcESaIcEEEN10hirtparser20HiRTSetting_LogLevelESt4lessIS5_ESaISt4pairIKS5_S7_EEED1Ev_x20:
    /*00000020*/ LDR         R1, [R4, #12] 
    /*00000024*/ MOV         R0, R6 
    /*00000028*/ BL          _ZNSt8_Rb_treeINSt7__cxx1112basic_stringIcSt11char_traitsIcESaIcEEESt4pairIKS5_N10hirtparser20HiRTSetting_LogLevelEESt10_Select1stISA_ESt4lessIS5_ESaISA_EE8_M_eraseEPSt13_Rb_tree_nodeISA_E
    /*0000002c*/ LDR         R0, [R4, #16] 
    /*00000030*/ ADD         R3, R4, #24 
    /*00000034*/ LDR         R5, [R4, #8] 
    /*00000038*/ CMP         R0, R3 
    /*0000003c*/ BEQ         _ZNSt3mapINSt7__cxx1112basic_stringIcSt11char_traitsIcESaIcEEEN10hirtparser20HiRTSetting_LogLevelESt4lessIS5_ESaISt4pairIKS5_S7_EEED1Ev_x44
    /*00000040*/ BL          _ZdlPv
    _ZNSt3mapINSt7__cxx1112basic_stringIcSt11char_traitsIcESaIcEEEN10hirtparser20HiRTSetting_LogLevelESt4lessIS5_ESaISt4pairIKS5_S7_EEED1Ev_x44:
    /*00000044*/ MOV         R0, R4 
    /*00000048*/ BL          _ZdlPv
    /*0000004c*/ SUBS        R4, R5, #0 
    /*00000050*/ BNE         _ZNSt3mapINSt7__cxx1112basic_stringIcSt11char_traitsIcESaIcEEEN10hirtparser20HiRTSetting_LogLevelESt4lessIS5_ESaISt4pairIKS5_S7_EEED1Ev_x20
    _ZNSt3mapINSt7__cxx1112basic_stringIcSt11char_traitsIcESaIcEEEN10hirtparser20HiRTSetting_LogLevelESt4lessIS5_ESaISt4pairIKS5_S7_EEED1Ev_x54:
    /*00000054*/ MOV         R0, R6 
    /*00000058*/ POP         {R4, R5, R6, PC} 
FUNC_END _ZNSt3mapINSt7__cxx1112basic_stringIcSt11char_traitsIcESaIcEEEN10hirtparser20HiRTSetting_LogLevelESt4lessIS5_ESaISt4pairIKS5_S7_EEED1Ev


@ - - - - - - - - - - - - - - - - - - - - - - - - - - - - - 
@ .text._ZNSt16_Sp_counted_baseILN9__gnu_cxx12_Lock_policyE2EE10_M_releaseEv
@ Size: 0xd4
@ - - - - - - - - - - - - - - - - - - - - - - - - - - - - - 

FUNC_BEGIN _ZNSt16_Sp_counted_baseILN9__gnu_cxx12_Lock_policyE2EE10_M_releaseEv
    /*00000000*/ MOV         IP, #16384                  @ 0x4000 
    /*00000004*/ PUSH        {R4, R5, R6, LR} 
    /*00000008*/ SUB         IP, SP, IP 
    /*0000000c*/ STR         R0, [IP, #4080]             @ 0xff0 
    /*00000010*/ LDR         R3, WORD_00cc               @ LDR         R3, [PC, #180]              @ 0x00000000000000cc 
    /*00000014*/ MOV         R4, R0 
    /*00000018*/ LDR         R2, WORD_00d0               @ LDR         R2, [PC, #176]              @ 0x00000000000000d0 
    /*0000001c*/ ADD         R3, PC, R3 
    /*00000020*/ LDR         R3, [R3, R2] 
    /*00000024*/ CMP         R3, #0 
    /*00000028*/ BEQ         _ZNSt16_Sp_counted_baseILN9__gnu_cxx12_Lock_policyE2EE10_M_releaseEv_x9c
    /*0000002c*/ ADD         R3, R0, #4 
    /*00000030*/ DMB         ISH 
    _ZNSt16_Sp_counted_baseILN9__gnu_cxx12_Lock_policyE2EE10_M_releaseEv_x34:
    /*00000034*/ LDREX       R2, [R3] 
    /*00000038*/ SUB         R1, R2, #1 
    /*0000003c*/ STREX       IP, R1, [R3] 
    /*00000040*/ CMP         IP, #0 
    /*00000044*/ BNE         _ZNSt16_Sp_counted_baseILN9__gnu_cxx12_Lock_policyE2EE10_M_releaseEv_x34
    /*00000048*/ CMP         R2, #1 
    /*0000004c*/ DMB         ISH 
    /*00000050*/ POPNE       {R4, R5, R6, PC} 
    /*00000054*/ MOV         R5, R4 
    /*00000058*/ LDR         R3, [R5], #8 
    /*0000005c*/ LDR         R3, [R3, #8] 
    /*00000060*/ BLX         R3 
    /*00000064*/ DMB         ISH 
    _ZNSt16_Sp_counted_baseILN9__gnu_cxx12_Lock_policyE2EE10_M_releaseEv_x68:
    /*00000068*/ LDREX       R3, [R5] 
    /*0000006c*/ SUB         R2, R3, #1 
    /*00000070*/ STREX       R1, R2, [R5] 
    /*00000074*/ CMP         R1, #0 
    /*00000078*/ BNE         _ZNSt16_Sp_counted_baseILN9__gnu_cxx12_Lock_policyE2EE10_M_releaseEv_x68
    /*0000007c*/ DMB         ISH 
    _ZNSt16_Sp_counted_baseILN9__gnu_cxx12_Lock_policyE2EE10_M_releaseEv_x80:
    /*00000080*/ CMP         R3, #1 
    /*00000084*/ POPNE       {R4, R5, R6, PC} 
    /*00000088*/ LDR         R3, [R4] 
    /*0000008c*/ MOV         R0, R4 
    /*00000090*/ POP         {R4, R5, R6, LR} 
    /*00000094*/ LDR         R3, [R3, #12] 
    /*00000098*/ BX          R3 
    _ZNSt16_Sp_counted_baseILN9__gnu_cxx12_Lock_policyE2EE10_M_releaseEv_x9c:
    /*0000009c*/ LDR         R3, [R0, #4] 
    /*000000a0*/ CMP         R3, #1 
    /*000000a4*/ SUB         R3, R3, #1 
    /*000000a8*/ STR         R3, [R0, #4] 
    /*000000ac*/ POPNE       {R4, R5, R6, PC} 
    /*000000b0*/ LDR         R3, [R0] 
    /*000000b4*/ LDR         R3, [R3, #8] 
    /*000000b8*/ BLX         R3 
    /*000000bc*/ LDR         R3, [R4, #8] 
    /*000000c0*/ SUB         R2, R3, #1 
    /*000000c4*/ STR         R2, [R4, #8] 
    /*000000c8*/ B           _ZNSt16_Sp_counted_baseILN9__gnu_cxx12_Lock_policyE2EE10_M_releaseEv_x80
    /*000000cc*/ WORD_00cc: .word 0x000000a8
    /*000000d0*/ WORD_00d0: .word 0x00000000
FUNC_END _ZNSt16_Sp_counted_baseILN9__gnu_cxx12_Lock_policyE2EE10_M_releaseEv


@ - - - - - - - - - - - - - - - - - - - - - - - - - - - - - 
@ .text._ZNSt8__detail9_ExecutorIN9__gnu_cxx17__normal_iteratorIPKcNSt7__cxx1112basic_stringIcSt11char_traitsIcESaIcEEEEESaINS5_9sub_matchISB_EEENS5_12regex_traitsIcEELb0EED2Ev
@ Size: 0x8c
@ - - - - - - - - - - - - - - - - - - - - - - - - - - - - - 

FUNC_BEGIN _ZNSt8__detail9_ExecutorIN9__gnu_cxx17__normal_iteratorIPKcNSt7__cxx1112basic_stringIcSt11char_traitsIcESaIcEEEEESaINS5_9sub_matchISB_EEENS5_12regex_traitsIcEELb0EED2Ev
    /*00000000*/ MOV         IP, #16384                  @ 0x4000 
    /*00000004*/ PUSH        {R4, R5, R6, LR} 
    /*00000008*/ SUB         IP, SP, IP 
    /*0000000c*/ STR         R0, [IP, #4080]             @ 0xff0 
    /*00000010*/ MOV         R6, R0 
    /*00000014*/ LDR         R0, [R0, #60]               @ 0x3c 
    /*00000018*/ CMP         R0, #0 
    /*0000001c*/ BEQ         _ZNSt8__detail9_ExecutorIN9__gnu_cxx17__normal_iteratorIPKcNSt7__cxx1112basic_stringIcSt11char_traitsIcESaIcEEEEESaINS5_9sub_matchISB_EEENS5_12regex_traitsIcEELb0EED2Ev_x24
    /*00000020*/ BL          _ZdaPv
    _ZNSt8__detail9_ExecutorIN9__gnu_cxx17__normal_iteratorIPKcNSt7__cxx1112basic_stringIcSt11char_traitsIcESaIcEEEEESaINS5_9sub_matchISB_EEENS5_12regex_traitsIcEELb0EED2Ev_x24:
    /*00000024*/ LDR         R4, [R6, #48]               @ 0x30 
    /*00000028*/ LDR         R5, [R6, #52]               @ 0x34 
    /*0000002c*/ CMP         R4, R5 
    /*00000030*/ BEQ         _ZNSt8__detail9_ExecutorIN9__gnu_cxx17__normal_iteratorIPKcNSt7__cxx1112basic_stringIcSt11char_traitsIcESaIcEEEEESaINS5_9sub_matchISB_EEENS5_12regex_traitsIcEELb0EED2Ev_x54
    _ZNSt8__detail9_ExecutorIN9__gnu_cxx17__normal_iteratorIPKcNSt7__cxx1112basic_stringIcSt11char_traitsIcESaIcEEEEESaINS5_9sub_matchISB_EEENS5_12regex_traitsIcEELb0EED2Ev_x34:
    /*00000034*/ LDR         R0, [R4, #4] 
    /*00000038*/ ADD         R4, R4, #16 
    /*0000003c*/ CMP         R0, #0 
    /*00000040*/ BEQ         _ZNSt8__detail9_ExecutorIN9__gnu_cxx17__normal_iteratorIPKcNSt7__cxx1112basic_stringIcSt11char_traitsIcESaIcEEEEESaINS5_9sub_matchISB_EEENS5_12regex_traitsIcEELb0EED2Ev_x48
    /*00000044*/ BL          _ZdlPv
    _ZNSt8__detail9_ExecutorIN9__gnu_cxx17__normal_iteratorIPKcNSt7__cxx1112basic_stringIcSt11char_traitsIcESaIcEEEEESaINS5_9sub_matchISB_EEENS5_12regex_traitsIcEELb0EED2Ev_x48:
    /*00000048*/ CMP         R5, R4 
    /*0000004c*/ BNE         _ZNSt8__detail9_ExecutorIN9__gnu_cxx17__normal_iteratorIPKcNSt7__cxx1112basic_stringIcSt11char_traitsIcESaIcEEEEESaINS5_9sub_matchISB_EEENS5_12regex_traitsIcEELb0EED2Ev_x34
    /*00000050*/ LDR         R5, [R6, #48]               @ 0x30 
    _ZNSt8__detail9_ExecutorIN9__gnu_cxx17__normal_iteratorIPKcNSt7__cxx1112basic_stringIcSt11char_traitsIcESaIcEEEEESaINS5_9sub_matchISB_EEENS5_12regex_traitsIcEELb0EED2Ev_x54:
    /*00000054*/ CMP         R5, #0 
    /*00000058*/ BEQ         _ZNSt8__detail9_ExecutorIN9__gnu_cxx17__normal_iteratorIPKcNSt7__cxx1112basic_stringIcSt11char_traitsIcESaIcEEEEESaINS5_9sub_matchISB_EEENS5_12regex_traitsIcEELb0EED2Ev_x64
    /*0000005c*/ MOV         R0, R5 
    /*00000060*/ BL          _ZdlPv
    _ZNSt8__detail9_ExecutorIN9__gnu_cxx17__normal_iteratorIPKcNSt7__cxx1112basic_stringIcSt11char_traitsIcESaIcEEEEESaINS5_9sub_matchISB_EEENS5_12regex_traitsIcEELb0EED2Ev_x64:
    /*00000064*/ LDR         R0, [R6, #36]               @ 0x24 
    /*00000068*/ CMP         R0, #0 
    /*0000006c*/ BEQ         _ZNSt8__detail9_ExecutorIN9__gnu_cxx17__normal_iteratorIPKcNSt7__cxx1112basic_stringIcSt11char_traitsIcESaIcEEEEESaINS5_9sub_matchISB_EEENS5_12regex_traitsIcEELb0EED2Ev_x74
    /*00000070*/ BL          _ZdlPv
    _ZNSt8__detail9_ExecutorIN9__gnu_cxx17__normal_iteratorIPKcNSt7__cxx1112basic_stringIcSt11char_traitsIcESaIcEEEEESaINS5_9sub_matchISB_EEENS5_12regex_traitsIcEELb0EED2Ev_x74:
    /*00000074*/ LDR         R0, [R6] 
    /*00000078*/ CMP         R0, #0 
    /*0000007c*/ BEQ         _ZNSt8__detail9_ExecutorIN9__gnu_cxx17__normal_iteratorIPKcNSt7__cxx1112basic_stringIcSt11char_traitsIcESaIcEEEEESaINS5_9sub_matchISB_EEENS5_12regex_traitsIcEELb0EED2Ev_x84
    /*00000080*/ BL          _ZdlPv
    _ZNSt8__detail9_ExecutorIN9__gnu_cxx17__normal_iteratorIPKcNSt7__cxx1112basic_stringIcSt11char_traitsIcESaIcEEEEESaINS5_9sub_matchISB_EEENS5_12regex_traitsIcEELb0EED2Ev_x84:
    /*00000084*/ MOV         R0, R6 
    /*00000088*/ POP         {R4, R5, R6, PC} 
FUNC_END _ZNSt8__detail9_ExecutorIN9__gnu_cxx17__normal_iteratorIPKcNSt7__cxx1112basic_stringIcSt11char_traitsIcESaIcEEEEESaINS5_9sub_matchISB_EEENS5_12regex_traitsIcEELb0EED2Ev


FUNC_BEGIN _ZNSt8__detail9_ExecutorIN9__gnu_cxx17__normal_iteratorIPKcNSt7__cxx1112basic_stringIcSt11char_traitsIcESaIcEEEEESaINS5_9sub_matchISB_EEENS5_12regex_traitsIcEELb0EED1Ev
    /*00000000*/ MOV         IP, #16384                  @ 0x4000 
    /*00000004*/ PUSH        {R4, R5, R6, LR} 
    /*00000008*/ SUB         IP, SP, IP 
    /*0000000c*/ STR         R0, [IP, #4080]             @ 0xff0 
    /*00000010*/ MOV         R6, R0 
    /*00000014*/ LDR         R0, [R0, #60]               @ 0x3c 
    /*00000018*/ CMP         R0, #0 
    /*0000001c*/ BEQ         _ZNSt8__detail9_ExecutorIN9__gnu_cxx17__normal_iteratorIPKcNSt7__cxx1112basic_stringIcSt11char_traitsIcESaIcEEEEESaINS5_9sub_matchISB_EEENS5_12regex_traitsIcEELb0EED1Ev_x24
    /*00000020*/ BL          _ZdaPv
    _ZNSt8__detail9_ExecutorIN9__gnu_cxx17__normal_iteratorIPKcNSt7__cxx1112basic_stringIcSt11char_traitsIcESaIcEEEEESaINS5_9sub_matchISB_EEENS5_12regex_traitsIcEELb0EED1Ev_x24:
    /*00000024*/ LDR         R4, [R6, #48]               @ 0x30 
    /*00000028*/ LDR         R5, [R6, #52]               @ 0x34 
    /*0000002c*/ CMP         R4, R5 
    /*00000030*/ BEQ         _ZNSt8__detail9_ExecutorIN9__gnu_cxx17__normal_iteratorIPKcNSt7__cxx1112basic_stringIcSt11char_traitsIcESaIcEEEEESaINS5_9sub_matchISB_EEENS5_12regex_traitsIcEELb0EED1Ev_x54
    _ZNSt8__detail9_ExecutorIN9__gnu_cxx17__normal_iteratorIPKcNSt7__cxx1112basic_stringIcSt11char_traitsIcESaIcEEEEESaINS5_9sub_matchISB_EEENS5_12regex_traitsIcEELb0EED1Ev_x34:
    /*00000034*/ LDR         R0, [R4, #4] 
    /*00000038*/ ADD         R4, R4, #16 
    /*0000003c*/ CMP         R0, #0 
    /*00000040*/ BEQ         _ZNSt8__detail9_ExecutorIN9__gnu_cxx17__normal_iteratorIPKcNSt7__cxx1112basic_stringIcSt11char_traitsIcESaIcEEEEESaINS5_9sub_matchISB_EEENS5_12regex_traitsIcEELb0EED1Ev_x48
    /*00000044*/ BL          _ZdlPv
    _ZNSt8__detail9_ExecutorIN9__gnu_cxx17__normal_iteratorIPKcNSt7__cxx1112basic_stringIcSt11char_traitsIcESaIcEEEEESaINS5_9sub_matchISB_EEENS5_12regex_traitsIcEELb0EED1Ev_x48:
    /*00000048*/ CMP         R5, R4 
    /*0000004c*/ BNE         _ZNSt8__detail9_ExecutorIN9__gnu_cxx17__normal_iteratorIPKcNSt7__cxx1112basic_stringIcSt11char_traitsIcESaIcEEEEESaINS5_9sub_matchISB_EEENS5_12regex_traitsIcEELb0EED1Ev_x34
    /*00000050*/ LDR         R5, [R6, #48]               @ 0x30 
    _ZNSt8__detail9_ExecutorIN9__gnu_cxx17__normal_iteratorIPKcNSt7__cxx1112basic_stringIcSt11char_traitsIcESaIcEEEEESaINS5_9sub_matchISB_EEENS5_12regex_traitsIcEELb0EED1Ev_x54:
    /*00000054*/ CMP         R5, #0 
    /*00000058*/ BEQ         _ZNSt8__detail9_ExecutorIN9__gnu_cxx17__normal_iteratorIPKcNSt7__cxx1112basic_stringIcSt11char_traitsIcESaIcEEEEESaINS5_9sub_matchISB_EEENS5_12regex_traitsIcEELb0EED1Ev_x64
    /*0000005c*/ MOV         R0, R5 
    /*00000060*/ BL          _ZdlPv
    _ZNSt8__detail9_ExecutorIN9__gnu_cxx17__normal_iteratorIPKcNSt7__cxx1112basic_stringIcSt11char_traitsIcESaIcEEEEESaINS5_9sub_matchISB_EEENS5_12regex_traitsIcEELb0EED1Ev_x64:
    /*00000064*/ LDR         R0, [R6, #36]               @ 0x24 
    /*00000068*/ CMP         R0, #0 
    /*0000006c*/ BEQ         _ZNSt8__detail9_ExecutorIN9__gnu_cxx17__normal_iteratorIPKcNSt7__cxx1112basic_stringIcSt11char_traitsIcESaIcEEEEESaINS5_9sub_matchISB_EEENS5_12regex_traitsIcEELb0EED1Ev_x74
    /*00000070*/ BL          _ZdlPv
    _ZNSt8__detail9_ExecutorIN9__gnu_cxx17__normal_iteratorIPKcNSt7__cxx1112basic_stringIcSt11char_traitsIcESaIcEEEEESaINS5_9sub_matchISB_EEENS5_12regex_traitsIcEELb0EED1Ev_x74:
    /*00000074*/ LDR         R0, [R6] 
    /*00000078*/ CMP         R0, #0 
    /*0000007c*/ BEQ         _ZNSt8__detail9_ExecutorIN9__gnu_cxx17__normal_iteratorIPKcNSt7__cxx1112basic_stringIcSt11char_traitsIcESaIcEEEEESaINS5_9sub_matchISB_EEENS5_12regex_traitsIcEELb0EED1Ev_x84
    /*00000080*/ BL          _ZdlPv
    _ZNSt8__detail9_ExecutorIN9__gnu_cxx17__normal_iteratorIPKcNSt7__cxx1112basic_stringIcSt11char_traitsIcESaIcEEEEESaINS5_9sub_matchISB_EEENS5_12regex_traitsIcEELb0EED1Ev_x84:
    /*00000084*/ MOV         R0, R6 
    /*00000088*/ POP         {R4, R5, R6, PC} 
FUNC_END _ZNSt8__detail9_ExecutorIN9__gnu_cxx17__normal_iteratorIPKcNSt7__cxx1112basic_stringIcSt11char_traitsIcESaIcEEEEESaINS5_9sub_matchISB_EEENS5_12regex_traitsIcEELb0EED1Ev


@ - - - - - - - - - - - - - - - - - - - - - - - - - - - - - 
@ .text._ZNSt8__detail9_ExecutorIN9__gnu_cxx17__normal_iteratorIPKcNSt7__cxx1112basic_stringIcSt11char_traitsIcESaIcEEEEESaINS5_9sub_matchISB_EEENS5_12regex_traitsIcEELb1EED2Ev
@ Size: 0x3c
@ - - - - - - - - - - - - - - - - - - - - - - - - - - - - - 

FUNC_BEGIN _ZNSt8__detail9_ExecutorIN9__gnu_cxx17__normal_iteratorIPKcNSt7__cxx1112basic_stringIcSt11char_traitsIcESaIcEEEEESaINS5_9sub_matchISB_EEENS5_12regex_traitsIcEELb1EED2Ev
    /*00000000*/ MOV         IP, #16384                  @ 0x4000 
    /*00000004*/ PUSH        {R4, LR} 
    /*00000008*/ SUB         IP, SP, IP 
    /*0000000c*/ STR         R0, [IP, #4088]             @ 0xff8 
    /*00000010*/ MOV         R4, R0 
    /*00000014*/ LDR         R0, [R0, #36]               @ 0x24 
    /*00000018*/ CMP         R0, #0 
    /*0000001c*/ BEQ         _ZNSt8__detail9_ExecutorIN9__gnu_cxx17__normal_iteratorIPKcNSt7__cxx1112basic_stringIcSt11char_traitsIcESaIcEEEEESaINS5_9sub_matchISB_EEENS5_12regex_traitsIcEELb1EED2Ev_x24
    /*00000020*/ BL          _ZdlPv
    _ZNSt8__detail9_ExecutorIN9__gnu_cxx17__normal_iteratorIPKcNSt7__cxx1112basic_stringIcSt11char_traitsIcESaIcEEEEESaINS5_9sub_matchISB_EEENS5_12regex_traitsIcEELb1EED2Ev_x24:
    /*00000024*/ LDR         R0, [R4] 
    /*00000028*/ CMP         R0, #0 
    /*0000002c*/ BEQ         _ZNSt8__detail9_ExecutorIN9__gnu_cxx17__normal_iteratorIPKcNSt7__cxx1112basic_stringIcSt11char_traitsIcESaIcEEEEESaINS5_9sub_matchISB_EEENS5_12regex_traitsIcEELb1EED2Ev_x34
    /*00000030*/ BL          _ZdlPv
    _ZNSt8__detail9_ExecutorIN9__gnu_cxx17__normal_iteratorIPKcNSt7__cxx1112basic_stringIcSt11char_traitsIcESaIcEEEEESaINS5_9sub_matchISB_EEENS5_12regex_traitsIcEELb1EED2Ev_x34:
    /*00000034*/ MOV         R0, R4 
    /*00000038*/ POP         {R4, PC} 
FUNC_END _ZNSt8__detail9_ExecutorIN9__gnu_cxx17__normal_iteratorIPKcNSt7__cxx1112basic_stringIcSt11char_traitsIcESaIcEEEEESaINS5_9sub_matchISB_EEENS5_12regex_traitsIcEELb1EED2Ev


FUNC_BEGIN _ZNSt8__detail9_ExecutorIN9__gnu_cxx17__normal_iteratorIPKcNSt7__cxx1112basic_stringIcSt11char_traitsIcESaIcEEEEESaINS5_9sub_matchISB_EEENS5_12regex_traitsIcEELb1EED1Ev
    /*00000000*/ MOV         IP, #16384                  @ 0x4000 
    /*00000004*/ PUSH        {R4, LR} 
    /*00000008*/ SUB         IP, SP, IP 
    /*0000000c*/ STR         R0, [IP, #4088]             @ 0xff8 
    /*00000010*/ MOV         R4, R0 
    /*00000014*/ LDR         R0, [R0, #36]               @ 0x24 
    /*00000018*/ CMP         R0, #0 
    /*0000001c*/ BEQ         _ZNSt8__detail9_ExecutorIN9__gnu_cxx17__normal_iteratorIPKcNSt7__cxx1112basic_stringIcSt11char_traitsIcESaIcEEEEESaINS5_9sub_matchISB_EEENS5_12regex_traitsIcEELb1EED1Ev_x24
    /*00000020*/ BL          _ZdlPv
    _ZNSt8__detail9_ExecutorIN9__gnu_cxx17__normal_iteratorIPKcNSt7__cxx1112basic_stringIcSt11char_traitsIcESaIcEEEEESaINS5_9sub_matchISB_EEENS5_12regex_traitsIcEELb1EED1Ev_x24:
    /*00000024*/ LDR         R0, [R4] 
    /*00000028*/ CMP         R0, #0 
    /*0000002c*/ BEQ         _ZNSt8__detail9_ExecutorIN9__gnu_cxx17__normal_iteratorIPKcNSt7__cxx1112basic_stringIcSt11char_traitsIcESaIcEEEEESaINS5_9sub_matchISB_EEENS5_12regex_traitsIcEELb1EED1Ev_x34
    /*00000030*/ BL          _ZdlPv
    _ZNSt8__detail9_ExecutorIN9__gnu_cxx17__normal_iteratorIPKcNSt7__cxx1112basic_stringIcSt11char_traitsIcESaIcEEEEESaINS5_9sub_matchISB_EEENS5_12regex_traitsIcEELb1EED1Ev_x34:
    /*00000034*/ MOV         R0, R4 
    /*00000038*/ POP         {R4, PC} 
FUNC_END _ZNSt8__detail9_ExecutorIN9__gnu_cxx17__normal_iteratorIPKcNSt7__cxx1112basic_stringIcSt11char_traitsIcESaIcEEEEESaINS5_9sub_matchISB_EEENS5_12regex_traitsIcEELb1EED1Ev


@ - - - - - - - - - - - - - - - - - - - - - - - - - - - - - 
@ .text._ZNSt6vectorIiSaIiEE19_M_emplace_back_auxIJiEEEvDpOT_
@ Size: 0xd4
@ - - - - - - - - - - - - - - - - - - - - - - - - - - - - - 

FUNC_BEGIN _ZNSt6vectorIiSaIiEE19_M_emplace_back_auxIJiEEEvDpOT_
    /*00000000*/ MOV         IP, #16384                  @ 0x4000 
    /*00000004*/ PUSH        {R4, R5, R6, R7, R8, R9, SL, LR} 
    /*00000008*/ SUB         IP, SP, IP 
    /*0000000c*/ STR         R0, [IP, #4064]             @ 0xfe0 
    /*00000010*/ LDM         R0, {R2, R3} 
    /*00000014*/ MOV         R6, R0 
    /*00000018*/ MOV         R9, R1 
    /*0000001c*/ SUB         R3, R3, R2 
    /*00000020*/ ASRS        R3, R3, #2 
    /*00000024*/ BEQ         _ZNSt6vectorIiSaIiEE19_M_emplace_back_auxIJiEEEvDpOT__x3c
    /*00000028*/ LSL         R5, R3, #1 
    /*0000002c*/ CMP         R3, R5 
    /*00000030*/ BLS         _ZNSt6vectorIiSaIiEE19_M_emplace_back_auxIJiEEEvDpOT__xb8
    _ZNSt6vectorIiSaIiEE19_M_emplace_back_auxIJiEEEvDpOT__x34:
    /*00000034*/ MVN         R5, #3 
    /*00000038*/ B           _ZNSt6vectorIiSaIiEE19_M_emplace_back_auxIJiEEEvDpOT__x40
    _ZNSt6vectorIiSaIiEE19_M_emplace_back_auxIJiEEEvDpOT__x3c:
    /*0000003c*/ MOV         R5, #4 
    _ZNSt6vectorIiSaIiEE19_M_emplace_back_auxIJiEEEvDpOT__x40:
    /*00000040*/ MOV         R0, R5 
    /*00000044*/ BL          _Znwj
    /*00000048*/ MOV         R7, R0 
    _ZNSt6vectorIiSaIiEE19_M_emplace_back_auxIJiEEEvDpOT__x4c:
    /*0000004c*/ LDR         R8, [R6] 
    /*00000050*/ LDR         R4, [R6, #4] 
    /*00000054*/ LDR         R2, [R9] 
    /*00000058*/ SUB         R4, R4, R8 
    /*0000005c*/ CMN         R7, R4 
    /*00000060*/ ASR         R3, R4, #2 
    /*00000064*/ STRNE       R2, [R7, R4] 
    /*00000068*/ CMP         R3, #0 
    /*0000006c*/ BNE         _ZNSt6vectorIiSaIiEE19_M_emplace_back_auxIJiEEEvDpOT__x9c
    /*00000070*/ CMP         R8, #0 
    /*00000074*/ ADD         R4, R4, #4 
    /*00000078*/ ADD         R4, R7, R4 
    /*0000007c*/ BEQ         _ZNSt6vectorIiSaIiEE19_M_emplace_back_auxIJiEEEvDpOT__x88
    _ZNSt6vectorIiSaIiEE19_M_emplace_back_auxIJiEEEvDpOT__x80:
    /*00000080*/ MOV         R0, R8 
    /*00000084*/ BL          _ZdlPv
    _ZNSt6vectorIiSaIiEE19_M_emplace_back_auxIJiEEEvDpOT__x88:
    /*00000088*/ ADD         R5, R7, R5 
    /*0000008c*/ STR         R5, [R6, #8] 
    /*00000090*/ STR         R7, [R6] 
    /*00000094*/ STR         R4, [R6, #4] 
    /*00000098*/ POP         {R4, R5, R6, R7, R8, R9, SL, PC} 
    _ZNSt6vectorIiSaIiEE19_M_emplace_back_auxIJiEEEvDpOT__x9c:
    /*0000009c*/ MOV         R2, R4 
    /*000000a0*/ MOV         R1, R8 
    /*000000a4*/ MOV         R0, R7 
    /*000000a8*/ ADD         R4, R4, #4 
    /*000000ac*/ ADD         R4, R7, R4 
    /*000000b0*/ BL          memmove
    /*000000b4*/ B           _ZNSt6vectorIiSaIiEE19_M_emplace_back_auxIJiEEEvDpOT__x80
    _ZNSt6vectorIiSaIiEE19_M_emplace_back_auxIJiEEEvDpOT__xb8:
    /*000000b8*/ CMN         R5, #-1073741823            @ 0xc0000001 
    /*000000bc*/ BHI         _ZNSt6vectorIiSaIiEE19_M_emplace_back_auxIJiEEEvDpOT__x34
    /*000000c0*/ CMP         R5, #0 
    /*000000c4*/ LSLNE       R5, R3, #3 
    /*000000c8*/ BNE         _ZNSt6vectorIiSaIiEE19_M_emplace_back_auxIJiEEEvDpOT__x40
    /*000000cc*/ MOV         R7, R5 
    /*000000d0*/ B           _ZNSt6vectorIiSaIiEE19_M_emplace_back_auxIJiEEEvDpOT__x4c
FUNC_END _ZNSt6vectorIiSaIiEE19_M_emplace_back_auxIJiEEEvDpOT_


@ - - - - - - - - - - - - - - - - - - - - - - - - - - - - - 
@ .text._ZNSt6vectorISt4pairIlS_INSt7__cxx119sub_matchIN9__gnu_cxx17__normal_iteratorIPKcNS1_12basic_stringIcSt11char_traitsIcESaIcEEEEEEESaISD_EEESaISG_EED2Ev
@ Size: 0x58
@ - - - - - - - - - - - - - - - - - - - - - - - - - - - - - 

FUNC_BEGIN _ZNSt6vectorISt4pairIlS_INSt7__cxx119sub_matchIN9__gnu_cxx17__normal_iteratorIPKcNS1_12basic_stringIcSt11char_traitsIcESaIcEEEEEEESaISD_EEESaISG_EED2Ev
    /*00000000*/ MOV         IP, #16384                  @ 0x4000 
    /*00000004*/ PUSH        {R4, R5, R6, LR} 
    /*00000008*/ SUB         IP, SP, IP 
    /*0000000c*/ STR         R0, [IP, #4080]             @ 0xff0 
    /*00000010*/ LDM         R0, {R4, R5} 
    /*00000014*/ MOV         R6, R0 
    /*00000018*/ CMP         R4, R5 
    /*0000001c*/ BEQ         _ZNSt6vectorISt4pairIlS_INSt7__cxx119sub_matchIN9__gnu_cxx17__normal_iteratorIPKcNS1_12basic_stringIcSt11char_traitsIcESaIcEEEEEEESaISD_EEESaISG_EED2Ev_x40
    _ZNSt6vectorISt4pairIlS_INSt7__cxx119sub_matchIN9__gnu_cxx17__normal_iteratorIPKcNS1_12basic_stringIcSt11char_traitsIcESaIcEEEEEEESaISD_EEESaISG_EED2Ev_x20:
    /*00000020*/ LDR         R0, [R4, #4] 
    /*00000024*/ ADD         R4, R4, #16 
    /*00000028*/ CMP         R0, #0 
    /*0000002c*/ BEQ         _ZNSt6vectorISt4pairIlS_INSt7__cxx119sub_matchIN9__gnu_cxx17__normal_iteratorIPKcNS1_12basic_stringIcSt11char_traitsIcESaIcEEEEEEESaISD_EEESaISG_EED2Ev_x34
    /*00000030*/ BL          _ZdlPv
    _ZNSt6vectorISt4pairIlS_INSt7__cxx119sub_matchIN9__gnu_cxx17__normal_iteratorIPKcNS1_12basic_stringIcSt11char_traitsIcESaIcEEEEEEESaISD_EEESaISG_EED2Ev_x34:
    /*00000034*/ CMP         R5, R4 
    /*00000038*/ BNE         _ZNSt6vectorISt4pairIlS_INSt7__cxx119sub_matchIN9__gnu_cxx17__normal_iteratorIPKcNS1_12basic_stringIcSt11char_traitsIcESaIcEEEEEEESaISD_EEESaISG_EED2Ev_x20
    /*0000003c*/ LDR         R5, [R6] 
    _ZNSt6vectorISt4pairIlS_INSt7__cxx119sub_matchIN9__gnu_cxx17__normal_iteratorIPKcNS1_12basic_stringIcSt11char_traitsIcESaIcEEEEEEESaISD_EEESaISG_EED2Ev_x40:
    /*00000040*/ CMP         R5, #0 
    /*00000044*/ BEQ         _ZNSt6vectorISt4pairIlS_INSt7__cxx119sub_matchIN9__gnu_cxx17__normal_iteratorIPKcNS1_12basic_stringIcSt11char_traitsIcESaIcEEEEEEESaISD_EEESaISG_EED2Ev_x50
    /*00000048*/ MOV         R0, R5 
    /*0000004c*/ BL          _ZdlPv
    _ZNSt6vectorISt4pairIlS_INSt7__cxx119sub_matchIN9__gnu_cxx17__normal_iteratorIPKcNS1_12basic_stringIcSt11char_traitsIcESaIcEEEEEEESaISD_EEESaISG_EED2Ev_x50:
    /*00000050*/ MOV         R0, R6 
    /*00000054*/ POP         {R4, R5, R6, PC} 
FUNC_END _ZNSt6vectorISt4pairIlS_INSt7__cxx119sub_matchIN9__gnu_cxx17__normal_iteratorIPKcNS1_12basic_stringIcSt11char_traitsIcESaIcEEEEEEESaISD_EEESaISG_EED2Ev


FUNC_BEGIN _ZNSt6vectorISt4pairIlS_INSt7__cxx119sub_matchIN9__gnu_cxx17__normal_iteratorIPKcNS1_12basic_stringIcSt11char_traitsIcESaIcEEEEEEESaISD_EEESaISG_EED1Ev
    /*00000000*/ MOV         IP, #16384                  @ 0x4000 
    /*00000004*/ PUSH        {R4, R5, R6, LR} 
    /*00000008*/ SUB         IP, SP, IP 
    /*0000000c*/ STR         R0, [IP, #4080]             @ 0xff0 
    /*00000010*/ LDM         R0, {R4, R5} 
    /*00000014*/ MOV         R6, R0 
    /*00000018*/ CMP         R4, R5 
    /*0000001c*/ BEQ         _ZNSt6vectorISt4pairIlS_INSt7__cxx119sub_matchIN9__gnu_cxx17__normal_iteratorIPKcNS1_12basic_stringIcSt11char_traitsIcESaIcEEEEEEESaISD_EEESaISG_EED1Ev_x40
    _ZNSt6vectorISt4pairIlS_INSt7__cxx119sub_matchIN9__gnu_cxx17__normal_iteratorIPKcNS1_12basic_stringIcSt11char_traitsIcESaIcEEEEEEESaISD_EEESaISG_EED1Ev_x20:
    /*00000020*/ LDR         R0, [R4, #4] 
    /*00000024*/ ADD         R4, R4, #16 
    /*00000028*/ CMP         R0, #0 
    /*0000002c*/ BEQ         _ZNSt6vectorISt4pairIlS_INSt7__cxx119sub_matchIN9__gnu_cxx17__normal_iteratorIPKcNS1_12basic_stringIcSt11char_traitsIcESaIcEEEEEEESaISD_EEESaISG_EED1Ev_x34
    /*00000030*/ BL          _ZdlPv
    _ZNSt6vectorISt4pairIlS_INSt7__cxx119sub_matchIN9__gnu_cxx17__normal_iteratorIPKcNS1_12basic_stringIcSt11char_traitsIcESaIcEEEEEEESaISD_EEESaISG_EED1Ev_x34:
    /*00000034*/ CMP         R5, R4 
    /*00000038*/ BNE         _ZNSt6vectorISt4pairIlS_INSt7__cxx119sub_matchIN9__gnu_cxx17__normal_iteratorIPKcNS1_12basic_stringIcSt11char_traitsIcESaIcEEEEEEESaISD_EEESaISG_EED1Ev_x20
    /*0000003c*/ LDR         R5, [R6] 
    _ZNSt6vectorISt4pairIlS_INSt7__cxx119sub_matchIN9__gnu_cxx17__normal_iteratorIPKcNS1_12basic_stringIcSt11char_traitsIcESaIcEEEEEEESaISD_EEESaISG_EED1Ev_x40:
    /*00000040*/ CMP         R5, #0 
    /*00000044*/ BEQ         _ZNSt6vectorISt4pairIlS_INSt7__cxx119sub_matchIN9__gnu_cxx17__normal_iteratorIPKcNS1_12basic_stringIcSt11char_traitsIcESaIcEEEEEEESaISD_EEESaISG_EED1Ev_x50
    /*00000048*/ MOV         R0, R5 
    /*0000004c*/ BL          _ZdlPv
    _ZNSt6vectorISt4pairIlS_INSt7__cxx119sub_matchIN9__gnu_cxx17__normal_iteratorIPKcNS1_12basic_stringIcSt11char_traitsIcESaIcEEEEEEESaISD_EEESaISG_EED1Ev_x50:
    /*00000050*/ MOV         R0, R6 
    /*00000054*/ POP         {R4, R5, R6, PC} 
FUNC_END _ZNSt6vectorISt4pairIlS_INSt7__cxx119sub_matchIN9__gnu_cxx17__normal_iteratorIPKcNS1_12basic_stringIcSt11char_traitsIcESaIcEEEEEEESaISD_EEESaISG_EED1Ev


@ - - - - - - - - - - - - - - - - - - - - - - - - - - - - - 
@ .text._ZNSt8_Rb_treeINSt7__cxx1112basic_stringIcSt11char_traitsIcESaIcEEESt4pairIKS5_N10hirtparser20HiRTSetting_LogLevelEESt10_Select1stISA_ESt4lessIS5_ESaISA_EE24_M_get_insert_unique_posERS7_
@ Size: 0xf0
@ - - - - - - - - - - - - - - - - - - - - - - - - - - - - - 

FUNC_BEGIN _ZNSt8_Rb_treeINSt7__cxx1112basic_stringIcSt11char_traitsIcESaIcEEESt4pairIKS5_N10hirtparser20HiRTSetting_LogLevelEESt10_Select1stISA_ESt4lessIS5_ESaISA_EE24_M_get_insert_unique_posERS7_
    /*00000000*/ MOV         IP, #16384                  @ 0x4000 
    /*00000004*/ PUSH        {R4, R5, R6, R7, R8, R9, SL, LR} 
    /*00000008*/ SUB         IP, SP, IP 
    /*0000000c*/ STR         R0, [IP, #4064]             @ 0xfe0 
    /*00000010*/ LDR         R4, [R1, #8] 
    /*00000014*/ MOV         R8, R1 
    /*00000018*/ MOV         R6, R0 
    /*0000001c*/ MOV         R7, R2 
    /*00000020*/ CMP         R4, #0 
    /*00000024*/ ADDEQ       R4, R1, #4 
    /*00000028*/ BEQ         _ZNSt8_Rb_treeINSt7__cxx1112basic_stringIcSt11char_traitsIcESaIcEEESt4pairIKS5_N10hirtparser20HiRTSetting_LogLevelEESt10_Select1stISA_ESt4lessIS5_ESaISA_EE24_M_get_insert_unique_posERS7__xc0
    /*0000002c*/ LDR         R9, [R2, #4] 
    /*00000030*/ LDR         SL, [R2] 
    /*00000034*/ B           _ZNSt8_Rb_treeINSt7__cxx1112basic_stringIcSt11char_traitsIcESaIcEEESt4pairIKS5_N10hirtparser20HiRTSetting_LogLevelEESt10_Select1stISA_ESt4lessIS5_ESaISA_EE24_M_get_insert_unique_posERS7__x68
    _ZNSt8_Rb_treeINSt7__cxx1112basic_stringIcSt11char_traitsIcESaIcEEESt4pairIKS5_N10hirtparser20HiRTSetting_LogLevelEESt10_Select1stISA_ESt4lessIS5_ESaISA_EE24_M_get_insert_unique_posERS7__x38:
    /*00000038*/ LDR         R1, [R4, #16] 
    /*0000003c*/ BL          memcmp
    /*00000040*/ CMP         R0, #0 
    /*00000044*/ BEQ         _ZNSt8_Rb_treeINSt7__cxx1112basic_stringIcSt11char_traitsIcESaIcEEESt4pairIKS5_N10hirtparser20HiRTSetting_LogLevelEESt10_Select1stISA_ESt4lessIS5_ESaISA_EE24_M_get_insert_unique_posERS7__x84
    _ZNSt8_Rb_treeINSt7__cxx1112basic_stringIcSt11char_traitsIcESaIcEEESt4pairIKS5_N10hirtparser20HiRTSetting_LogLevelEESt10_Select1stISA_ESt4lessIS5_ESaISA_EE24_M_get_insert_unique_posERS7__x48:
    /*00000048*/ CMP         R0, #0 
    /*0000004c*/ MOV         R2, #0 
    /*00000050*/ MOVLT       R2, #1 
    /*00000054*/ LDRLT       R3, [R4, #8] 
    /*00000058*/ LDRGE       R3, [R4, #12] 
    /*0000005c*/ CMP         R3, #0 
    /*00000060*/ BEQ         _ZNSt8_Rb_treeINSt7__cxx1112basic_stringIcSt11char_traitsIcESaIcEEESt4pairIKS5_N10hirtparser20HiRTSetting_LogLevelEESt10_Select1stISA_ESt4lessIS5_ESaISA_EE24_M_get_insert_unique_posERS7__x8c
    /*00000064*/ MOV         R4, R3 
    _ZNSt8_Rb_treeINSt7__cxx1112basic_stringIcSt11char_traitsIcESaIcEEESt4pairIKS5_N10hirtparser20HiRTSetting_LogLevelEESt10_Select1stISA_ESt4lessIS5_ESaISA_EE24_M_get_insert_unique_posERS7__x68:
    /*00000068*/ LDR         R5, [R4, #20] 
    /*0000006c*/ MOV         R0, SL 
    /*00000070*/ CMP         R5, R9 
    /*00000074*/ MOVCC       R3, R5 
    /*00000078*/ MOVCS       R3, R9 
    /*0000007c*/ SUBS        R2, R3, #0 
    /*00000080*/ BNE         _ZNSt8_Rb_treeINSt7__cxx1112basic_stringIcSt11char_traitsIcESaIcEEESt4pairIKS5_N10hirtparser20HiRTSetting_LogLevelEESt10_Select1stISA_ESt4lessIS5_ESaISA_EE24_M_get_insert_unique_posERS7__x38
    _ZNSt8_Rb_treeINSt7__cxx1112basic_stringIcSt11char_traitsIcESaIcEEESt4pairIKS5_N10hirtparser20HiRTSetting_LogLevelEESt10_Select1stISA_ESt4lessIS5_ESaISA_EE24_M_get_insert_unique_posERS7__x84:
    /*00000084*/ SUB         R0, R9, R5 
    /*00000088*/ B           _ZNSt8_Rb_treeINSt7__cxx1112basic_stringIcSt11char_traitsIcESaIcEEESt4pairIKS5_N10hirtparser20HiRTSetting_LogLevelEESt10_Select1stISA_ESt4lessIS5_ESaISA_EE24_M_get_insert_unique_posERS7__x48
    _ZNSt8_Rb_treeINSt7__cxx1112basic_stringIcSt11char_traitsIcESaIcEEESt4pairIKS5_N10hirtparser20HiRTSetting_LogLevelEESt10_Select1stISA_ESt4lessIS5_ESaISA_EE24_M_get_insert_unique_posERS7__x8c:
    /*0000008c*/ CMP         R2, #0 
    /*00000090*/ MOVEQ       R5, R4 
    /*00000094*/ BNE         _ZNSt8_Rb_treeINSt7__cxx1112basic_stringIcSt11char_traitsIcESaIcEEESt4pairIKS5_N10hirtparser20HiRTSetting_LogLevelEESt10_Select1stISA_ESt4lessIS5_ESaISA_EE24_M_get_insert_unique_posERS7__xc0
    _ZNSt8_Rb_treeINSt7__cxx1112basic_stringIcSt11char_traitsIcESaIcEEESt4pairIKS5_N10hirtparser20HiRTSetting_LogLevelEESt10_Select1stISA_ESt4lessIS5_ESaISA_EE24_M_get_insert_unique_posERS7__x98:
    /*00000098*/ MOV         R1, R7 
    /*0000009c*/ ADD         R0, R5, #16 
    /*000000a0*/ BL          _ZNKSt7__cxx1112basic_stringIcSt11char_traitsIcESaIcEE7compareERKS4_
    /*000000a4*/ CMP         R0, #0 
    /*000000a8*/ STRGE       R5, [R6] 
    /*000000ac*/ MOVGE       R3, #0 
    /*000000b0*/ STRGE       R3, [R6, #4] 
    /*000000b4*/ BLT         _ZNSt8_Rb_treeINSt7__cxx1112basic_stringIcSt11char_traitsIcESaIcEEESt4pairIKS5_N10hirtparser20HiRTSetting_LogLevelEESt10_Select1stISA_ESt4lessIS5_ESaISA_EE24_M_get_insert_unique_posERS7__xdc
    /*000000b8*/ MOV         R0, R6 
    /*000000bc*/ POP         {R4, R5, R6, R7, R8, R9, SL, PC} 
    _ZNSt8_Rb_treeINSt7__cxx1112basic_stringIcSt11char_traitsIcESaIcEEESt4pairIKS5_N10hirtparser20HiRTSetting_LogLevelEESt10_Select1stISA_ESt4lessIS5_ESaISA_EE24_M_get_insert_unique_posERS7__xc0:
    /*000000c0*/ LDR         R3, [R8, #12] 
    /*000000c4*/ CMP         R3, R4 
    /*000000c8*/ BEQ         _ZNSt8_Rb_treeINSt7__cxx1112basic_stringIcSt11char_traitsIcESaIcEEESt4pairIKS5_N10hirtparser20HiRTSetting_LogLevelEESt10_Select1stISA_ESt4lessIS5_ESaISA_EE24_M_get_insert_unique_posERS7__xdc
    /*000000cc*/ MOV         R0, R4 
    /*000000d0*/ BL          _ZSt18_Rb_tree_decrementPSt18_Rb_tree_node_base
    /*000000d4*/ MOV         R5, R0 
    /*000000d8*/ B           _ZNSt8_Rb_treeINSt7__cxx1112basic_stringIcSt11char_traitsIcESaIcEEESt4pairIKS5_N10hirtparser20HiRTSetting_LogLevelEESt10_Select1stISA_ESt4lessIS5_ESaISA_EE24_M_get_insert_unique_posERS7__x98
    _ZNSt8_Rb_treeINSt7__cxx1112basic_stringIcSt11char_traitsIcESaIcEEESt4pairIKS5_N10hirtparser20HiRTSetting_LogLevelEESt10_Select1stISA_ESt4lessIS5_ESaISA_EE24_M_get_insert_unique_posERS7__xdc:
    /*000000dc*/ STR         R4, [R6, #4] 
    /*000000e0*/ MOV         R3, #0 
    /*000000e4*/ STR         R3, [R6] 
    /*000000e8*/ MOV         R0, R6 
    /*000000ec*/ POP         {R4, R5, R6, R7, R8, R9, SL, PC} 
FUNC_END _ZNSt8_Rb_treeINSt7__cxx1112basic_stringIcSt11char_traitsIcESaIcEEESt4pairIKS5_N10hirtparser20HiRTSetting_LogLevelEESt10_Select1stISA_ESt4lessIS5_ESaISA_EE24_M_get_insert_unique_posERS7_


@ - - - - - - - - - - - - - - - - - - - - - - - - - - - - - 
@ .text._ZNSt3mapINSt7__cxx1112basic_stringIcSt11char_traitsIcESaIcEEEN10hirtparser20HiRTSetting_LogLevelESt4lessIS5_ESaISt4pairIKS5_S7_EEEC2ESt16initializer_listISC_ERKS9_RKSD_
@ Size: 0x180
@ - - - - - - - - - - - - - - - - - - - - - - - - - - - - - 

FUNC_BEGIN _ZNSt3mapINSt7__cxx1112basic_stringIcSt11char_traitsIcESaIcEEEN10hirtparser20HiRTSetting_LogLevelESt4lessIS5_ESaISt4pairIKS5_S7_EEEC2ESt16initializer_listISC_ERKS9_RKSD_
    /*00000000*/ MOV         IP, #16384                  @ 0x4000 
    /*00000004*/ PUSH        {R4, R5, R6, R7, R8, R9, SL, FP, LR} 
    /*00000008*/ SUB         IP, SP, IP 
    /*0000000c*/ STR         R0, [IP, #4040]             @ 0xfc8 
    /*00000010*/ MOV         IP, #28 
    /*00000014*/ ADD         R8, R0, #4 
    /*00000018*/ VMOV.I32    Q8, #0                      @ 0x00000000 
    /*0000001c*/ MLA         R7, IP, R2, R1 
    /*00000020*/ SUB         SP, SP, #20 
    /*00000024*/ MOV         R5, #0 
    /*00000028*/ CMP         R7, R1 
    /*0000002c*/ MOV         R6, R0 
    /*00000030*/ VST1.8      {D16-D17}, [R8] 
    /*00000034*/ STM         SP, {R1, R2} 
    /*00000038*/ STR         R8, [R0, #12] 
    /*0000003c*/ STR         R8, [R0, #16] 
    /*00000040*/ STR         R5, [R0, #20] 
    /*00000044*/ BEQ         _ZNSt3mapINSt7__cxx1112basic_stringIcSt11char_traitsIcESaIcEEEN10hirtparser20HiRTSetting_LogLevelESt4lessIS5_ESaISt4pairIKS5_S7_EEEC2ESt16initializer_listISC_ERKS9_RKSD__x13c
    /*00000048*/ MOV         R4, R1 
    /*0000004c*/ ADD         R9, SP, #8 
    _ZNSt3mapINSt7__cxx1112basic_stringIcSt11char_traitsIcESaIcEEEN10hirtparser20HiRTSetting_LogLevelESt4lessIS5_ESaISt4pairIKS5_S7_EEEC2ESt16initializer_listISC_ERKS9_RKSD__x50:
    /*00000050*/ CMP         R5, #0 
    /*00000054*/ BEQ         _ZNSt3mapINSt7__cxx1112basic_stringIcSt11char_traitsIcESaIcEEEN10hirtparser20HiRTSetting_LogLevelESt4lessIS5_ESaISt4pairIKS5_S7_EEEC2ESt16initializer_listISC_ERKS9_RKSD__x70
    /*00000058*/ LDR         SL, [R6, #16] 
    /*0000005c*/ MOV         R1, R4 
    /*00000060*/ ADD         R0, SL, #16 
    /*00000064*/ BL          _ZNKSt7__cxx1112basic_stringIcSt11char_traitsIcESaIcEE7compareERKS4_
    /*00000068*/ CMP         R0, #0 
    /*0000006c*/ BLT         _ZNSt3mapINSt7__cxx1112basic_stringIcSt11char_traitsIcESaIcEEEN10hirtparser20HiRTSetting_LogLevelESt4lessIS5_ESaISt4pairIKS5_S7_EEEC2ESt16initializer_listISC_ERKS9_RKSD__x150
    _ZNSt3mapINSt7__cxx1112basic_stringIcSt11char_traitsIcESaIcEEEN10hirtparser20HiRTSetting_LogLevelESt4lessIS5_ESaISt4pairIKS5_S7_EEEC2ESt16initializer_listISC_ERKS9_RKSD__x70:
    /*00000070*/ MOV         R2, R4 
    /*00000074*/ MOV         R1, R6 
    /*00000078*/ MOV         R0, R9 
    /*0000007c*/ BL          _ZNSt8_Rb_treeINSt7__cxx1112basic_stringIcSt11char_traitsIcESaIcEEESt4pairIKS5_N10hirtparser20HiRTSetting_LogLevelEESt10_Select1stISA_ESt4lessIS5_ESaISA_EE24_M_get_insert_unique_posERS7_
    /*00000080*/ LDR         FP, [SP, #8] 
    /*00000084*/ LDR         SL, [SP, #12] 
    _ZNSt3mapINSt7__cxx1112basic_stringIcSt11char_traitsIcESaIcEEEN10hirtparser20HiRTSetting_LogLevelESt4lessIS5_ESaISt4pairIKS5_S7_EEEC2ESt16initializer_listISC_ERKS9_RKSD__x88:
    /*00000088*/ CMP         SL, #0 
    /*0000008c*/ BEQ         _ZNSt3mapINSt7__cxx1112basic_stringIcSt11char_traitsIcESaIcEEEN10hirtparser20HiRTSetting_LogLevelESt4lessIS5_ESaISt4pairIKS5_S7_EEEC2ESt16initializer_listISC_ERKS9_RKSD__x130
    /*00000090*/ ADDS        FP, FP, #0 
    /*00000094*/ MOVNE       FP, #1 
    /*00000098*/ CMP         R8, SL 
    /*0000009c*/ ORREQ       FP, FP, #1 
    /*000000a0*/ CMP         FP, #0 
    /*000000a4*/ BNE         _ZNSt3mapINSt7__cxx1112basic_stringIcSt11char_traitsIcESaIcEEEN10hirtparser20HiRTSetting_LogLevelESt4lessIS5_ESaISt4pairIKS5_S7_EEEC2ESt16initializer_listISC_ERKS9_RKSD__xdc
    /*000000a8*/ LDR         FP, [R4, #4] 
    /*000000ac*/ LDR         R5, [SL, #20] 
    /*000000b0*/ CMP         FP, R5 
    /*000000b4*/ MOVCC       R2, FP 
    /*000000b8*/ MOVCS       R2, R5 
    /*000000bc*/ CMP         R2, #0 
    /*000000c0*/ BEQ         _ZNSt3mapINSt7__cxx1112basic_stringIcSt11char_traitsIcESaIcEEEN10hirtparser20HiRTSetting_LogLevelESt4lessIS5_ESaISt4pairIKS5_S7_EEEC2ESt16initializer_listISC_ERKS9_RKSD__x148
    /*000000c4*/ LDR         R1, [SL, #16] 
    /*000000c8*/ LDR         R0, [R4] 
    /*000000cc*/ BL          memcmp
    /*000000d0*/ CMP         R0, #0 
    /*000000d4*/ BEQ         _ZNSt3mapINSt7__cxx1112basic_stringIcSt11char_traitsIcESaIcEEEN10hirtparser20HiRTSetting_LogLevelESt4lessIS5_ESaISt4pairIKS5_S7_EEEC2ESt16initializer_listISC_ERKS9_RKSD__x148
    _ZNSt3mapINSt7__cxx1112basic_stringIcSt11char_traitsIcESaIcEEEN10hirtparser20HiRTSetting_LogLevelESt4lessIS5_ESaISt4pairIKS5_S7_EEEC2ESt16initializer_listISC_ERKS9_RKSD__xd8:
    /*000000d8*/ LSR         FP, R0, #31 
    _ZNSt3mapINSt7__cxx1112basic_stringIcSt11char_traitsIcESaIcEEEN10hirtparser20HiRTSetting_LogLevelESt4lessIS5_ESaISt4pairIKS5_S7_EEEC2ESt16initializer_listISC_ERKS9_RKSD__xdc:
    /*000000dc*/ MOV         R0, #44                     @ 0x2c 
    /*000000e0*/ BL          _Znwj
    /*000000e4*/ LDR         R3, [R4] 
    /*000000e8*/ MOV         R5, R0 
    /*000000ec*/ LDR         R2, [R4, #4] 
    /*000000f0*/ ADD         R1, R0, #24 
    /*000000f4*/ STR         R1, [R5, #16] 
    /*000000f8*/ ADD         R0, R0, #16 
    /*000000fc*/ ADD         R2, R3, R2 
    /*00000100*/ MOV         R1, R3 
    /*00000104*/ BL          _ZNSt7__cxx1112basic_stringIcSt11char_traitsIcESaIcEE12_M_constructIPcEEvT_S7_St20forward_iterator_tag.isra.93
    /*00000108*/ LDR         R3, [R4, #24] 
    /*0000010c*/ MOV         R1, R5 
    /*00000110*/ MOV         R2, SL 
    /*00000114*/ MOV         R0, FP 
    /*00000118*/ STR         R3, [R5, #40]               @ 0x28 
    /*0000011c*/ MOV         R3, R8 
    /*00000120*/ BL          _ZSt29_Rb_tree_insert_and_rebalancebPSt18_Rb_tree_node_baseS0_RS_
    /*00000124*/ LDR         R5, [R6, #20] 
    /*00000128*/ ADD         R5, R5, #1 
    /*0000012c*/ STR         R5, [R6, #20] 
    _ZNSt3mapINSt7__cxx1112basic_stringIcSt11char_traitsIcESaIcEEEN10hirtparser20HiRTSetting_LogLevelESt4lessIS5_ESaISt4pairIKS5_S7_EEEC2ESt16initializer_listISC_ERKS9_RKSD__x130:
    /*00000130*/ ADD         R4, R4, #28 
    /*00000134*/ CMP         R4, R7 
    /*00000138*/ BNE         _ZNSt3mapINSt7__cxx1112basic_stringIcSt11char_traitsIcESaIcEEEN10hirtparser20HiRTSetting_LogLevelESt4lessIS5_ESaISt4pairIKS5_S7_EEEC2ESt16initializer_listISC_ERKS9_RKSD__x50
    _ZNSt3mapINSt7__cxx1112basic_stringIcSt11char_traitsIcESaIcEEEN10hirtparser20HiRTSetting_LogLevelESt4lessIS5_ESaISt4pairIKS5_S7_EEEC2ESt16initializer_listISC_ERKS9_RKSD__x13c:
    /*0000013c*/ MOV         R0, R6 
    /*00000140*/ ADD         SP, SP, #20 
    /*00000144*/ POP         {R4, R5, R6, R7, R8, R9, SL, FP, PC} 
    _ZNSt3mapINSt7__cxx1112basic_stringIcSt11char_traitsIcESaIcEEEN10hirtparser20HiRTSetting_LogLevelESt4lessIS5_ESaISt4pairIKS5_S7_EEEC2ESt16initializer_listISC_ERKS9_RKSD__x148:
    /*00000148*/ SUB         R0, FP, R5 
    /*0000014c*/ B           _ZNSt3mapINSt7__cxx1112basic_stringIcSt11char_traitsIcESaIcEEEN10hirtparser20HiRTSetting_LogLevelESt4lessIS5_ESaISt4pairIKS5_S7_EEEC2ESt16initializer_listISC_ERKS9_RKSD__xd8
    _ZNSt3mapINSt7__cxx1112basic_stringIcSt11char_traitsIcESaIcEEEN10hirtparser20HiRTSetting_LogLevelESt4lessIS5_ESaISt4pairIKS5_S7_EEEC2ESt16initializer_listISC_ERKS9_RKSD__x150:
    /*00000150*/ MOV         FP, #0 
    /*00000154*/ B           _ZNSt3mapINSt7__cxx1112basic_stringIcSt11char_traitsIcESaIcEEEN10hirtparser20HiRTSetting_LogLevelESt4lessIS5_ESaISt4pairIKS5_S7_EEEC2ESt16initializer_listISC_ERKS9_RKSD__x88
    /*00000158*/ BL          __cxa_begin_catch
    /*0000015c*/ MOV         R0, R5 
    /*00000160*/ BL          _ZdlPv
    /*00000164*/ BL          __cxa_rethrow
    _ZNSt3mapINSt7__cxx1112basic_stringIcSt11char_traitsIcESaIcEEEN10hirtparser20HiRTSetting_LogLevelESt4lessIS5_ESaISt4pairIKS5_S7_EEEC2ESt16initializer_listISC_ERKS9_RKSD__x168:
    /*00000168*/ LDR         R1, [R6, #8] 
    /*0000016c*/ MOV         R0, R6 
    /*00000170*/ BL          _ZNSt8_Rb_treeINSt7__cxx1112basic_stringIcSt11char_traitsIcESaIcEEESt4pairIKS5_N10hirtparser20HiRTSetting_LogLevelEESt10_Select1stISA_ESt4lessIS5_ESaISA_EE8_M_eraseEPSt13_Rb_tree_nodeISA_E
    /*00000174*/ BL          __cxa_end_cleanup
    /*00000178*/ BL          __cxa_end_catch
    /*0000017c*/ B           _ZNSt3mapINSt7__cxx1112basic_stringIcSt11char_traitsIcESaIcEEEN10hirtparser20HiRTSetting_LogLevelESt4lessIS5_ESaISt4pairIKS5_S7_EEEC2ESt16initializer_listISC_ERKS9_RKSD__x168
FUNC_END _ZNSt3mapINSt7__cxx1112basic_stringIcSt11char_traitsIcESaIcEEEN10hirtparser20HiRTSetting_LogLevelESt4lessIS5_ESaISt4pairIKS5_S7_EEEC2ESt16initializer_listISC_ERKS9_RKSD_


FUNC_BEGIN _ZNSt3mapINSt7__cxx1112basic_stringIcSt11char_traitsIcESaIcEEEN10hirtparser20HiRTSetting_LogLevelESt4lessIS5_ESaISt4pairIKS5_S7_EEEC1ESt16initializer_listISC_ERKS9_RKSD_
    /*00000000*/ MOV         IP, #16384                  @ 0x4000 
    /*00000004*/ PUSH        {R4, R5, R6, R7, R8, R9, SL, FP, LR} 
    /*00000008*/ SUB         IP, SP, IP 
    /*0000000c*/ STR         R0, [IP, #4040]             @ 0xfc8 
    /*00000010*/ MOV         IP, #28 
    /*00000014*/ ADD         R8, R0, #4 
    /*00000018*/ VMOV.I32    Q8, #0                      @ 0x00000000 
    /*0000001c*/ MLA         R7, IP, R2, R1 
    /*00000020*/ SUB         SP, SP, #20 
    /*00000024*/ MOV         R5, #0 
    /*00000028*/ CMP         R7, R1 
    /*0000002c*/ MOV         R6, R0 
    /*00000030*/ VST1.8      {D16-D17}, [R8] 
    /*00000034*/ STM         SP, {R1, R2} 
    /*00000038*/ STR         R8, [R0, #12] 
    /*0000003c*/ STR         R8, [R0, #16] 
    /*00000040*/ STR         R5, [R0, #20] 
    /*00000044*/ BEQ         _ZNSt3mapINSt7__cxx1112basic_stringIcSt11char_traitsIcESaIcEEEN10hirtparser20HiRTSetting_LogLevelESt4lessIS5_ESaISt4pairIKS5_S7_EEEC1ESt16initializer_listISC_ERKS9_RKSD__x13c
    /*00000048*/ MOV         R4, R1 
    /*0000004c*/ ADD         R9, SP, #8 
    _ZNSt3mapINSt7__cxx1112basic_stringIcSt11char_traitsIcESaIcEEEN10hirtparser20HiRTSetting_LogLevelESt4lessIS5_ESaISt4pairIKS5_S7_EEEC1ESt16initializer_listISC_ERKS9_RKSD__x50:
    /*00000050*/ CMP         R5, #0 
    /*00000054*/ BEQ         _ZNSt3mapINSt7__cxx1112basic_stringIcSt11char_traitsIcESaIcEEEN10hirtparser20HiRTSetting_LogLevelESt4lessIS5_ESaISt4pairIKS5_S7_EEEC1ESt16initializer_listISC_ERKS9_RKSD__x70
    /*00000058*/ LDR         SL, [R6, #16] 
    /*0000005c*/ MOV         R1, R4 
    /*00000060*/ ADD         R0, SL, #16 
    /*00000064*/ BL          _ZNKSt7__cxx1112basic_stringIcSt11char_traitsIcESaIcEE7compareERKS4_
    /*00000068*/ CMP         R0, #0 
    /*0000006c*/ BLT         _ZNSt3mapINSt7__cxx1112basic_stringIcSt11char_traitsIcESaIcEEEN10hirtparser20HiRTSetting_LogLevelESt4lessIS5_ESaISt4pairIKS5_S7_EEEC1ESt16initializer_listISC_ERKS9_RKSD__x150
    _ZNSt3mapINSt7__cxx1112basic_stringIcSt11char_traitsIcESaIcEEEN10hirtparser20HiRTSetting_LogLevelESt4lessIS5_ESaISt4pairIKS5_S7_EEEC1ESt16initializer_listISC_ERKS9_RKSD__x70:
    /*00000070*/ MOV         R2, R4 
    /*00000074*/ MOV         R1, R6 
    /*00000078*/ MOV         R0, R9 
    /*0000007c*/ BL          _ZNSt8_Rb_treeINSt7__cxx1112basic_stringIcSt11char_traitsIcESaIcEEESt4pairIKS5_N10hirtparser20HiRTSetting_LogLevelEESt10_Select1stISA_ESt4lessIS5_ESaISA_EE24_M_get_insert_unique_posERS7_
    /*00000080*/ LDR         FP, [SP, #8] 
    /*00000084*/ LDR         SL, [SP, #12] 
    _ZNSt3mapINSt7__cxx1112basic_stringIcSt11char_traitsIcESaIcEEEN10hirtparser20HiRTSetting_LogLevelESt4lessIS5_ESaISt4pairIKS5_S7_EEEC1ESt16initializer_listISC_ERKS9_RKSD__x88:
    /*00000088*/ CMP         SL, #0 
    /*0000008c*/ BEQ         _ZNSt3mapINSt7__cxx1112basic_stringIcSt11char_traitsIcESaIcEEEN10hirtparser20HiRTSetting_LogLevelESt4lessIS5_ESaISt4pairIKS5_S7_EEEC1ESt16initializer_listISC_ERKS9_RKSD__x130
    /*00000090*/ ADDS        FP, FP, #0 
    /*00000094*/ MOVNE       FP, #1 
    /*00000098*/ CMP         R8, SL 
    /*0000009c*/ ORREQ       FP, FP, #1 
    /*000000a0*/ CMP         FP, #0 
    /*000000a4*/ BNE         _ZNSt3mapINSt7__cxx1112basic_stringIcSt11char_traitsIcESaIcEEEN10hirtparser20HiRTSetting_LogLevelESt4lessIS5_ESaISt4pairIKS5_S7_EEEC1ESt16initializer_listISC_ERKS9_RKSD__xdc
    /*000000a8*/ LDR         FP, [R4, #4] 
    /*000000ac*/ LDR         R5, [SL, #20] 
    /*000000b0*/ CMP         FP, R5 
    /*000000b4*/ MOVCC       R2, FP 
    /*000000b8*/ MOVCS       R2, R5 
    /*000000bc*/ CMP         R2, #0 
    /*000000c0*/ BEQ         _ZNSt3mapINSt7__cxx1112basic_stringIcSt11char_traitsIcESaIcEEEN10hirtparser20HiRTSetting_LogLevelESt4lessIS5_ESaISt4pairIKS5_S7_EEEC1ESt16initializer_listISC_ERKS9_RKSD__x148
    /*000000c4*/ LDR         R1, [SL, #16] 
    /*000000c8*/ LDR         R0, [R4] 
    /*000000cc*/ BL          memcmp
    /*000000d0*/ CMP         R0, #0 
    /*000000d4*/ BEQ         _ZNSt3mapINSt7__cxx1112basic_stringIcSt11char_traitsIcESaIcEEEN10hirtparser20HiRTSetting_LogLevelESt4lessIS5_ESaISt4pairIKS5_S7_EEEC1ESt16initializer_listISC_ERKS9_RKSD__x148
    _ZNSt3mapINSt7__cxx1112basic_stringIcSt11char_traitsIcESaIcEEEN10hirtparser20HiRTSetting_LogLevelESt4lessIS5_ESaISt4pairIKS5_S7_EEEC1ESt16initializer_listISC_ERKS9_RKSD__xd8:
    /*000000d8*/ LSR         FP, R0, #31 
    _ZNSt3mapINSt7__cxx1112basic_stringIcSt11char_traitsIcESaIcEEEN10hirtparser20HiRTSetting_LogLevelESt4lessIS5_ESaISt4pairIKS5_S7_EEEC1ESt16initializer_listISC_ERKS9_RKSD__xdc:
    /*000000dc*/ MOV         R0, #44                     @ 0x2c 
    /*000000e0*/ BL          _Znwj
    /*000000e4*/ LDR         R3, [R4] 
    /*000000e8*/ MOV         R5, R0 
    /*000000ec*/ LDR         R2, [R4, #4] 
    /*000000f0*/ ADD         R1, R0, #24 
    /*000000f4*/ STR         R1, [R5, #16] 
    /*000000f8*/ ADD         R0, R0, #16 
    /*000000fc*/ ADD         R2, R3, R2 
    /*00000100*/ MOV         R1, R3 
    /*00000104*/ BL          _ZNSt7__cxx1112basic_stringIcSt11char_traitsIcESaIcEE12_M_constructIPcEEvT_S7_St20forward_iterator_tag.isra.93
    /*00000108*/ LDR         R3, [R4, #24] 
    /*0000010c*/ MOV         R1, R5 
    /*00000110*/ MOV         R2, SL 
    /*00000114*/ MOV         R0, FP 
    /*00000118*/ STR         R3, [R5, #40]               @ 0x28 
    /*0000011c*/ MOV         R3, R8 
    /*00000120*/ BL          _ZSt29_Rb_tree_insert_and_rebalancebPSt18_Rb_tree_node_baseS0_RS_
    /*00000124*/ LDR         R5, [R6, #20] 
    /*00000128*/ ADD         R5, R5, #1 
    /*0000012c*/ STR         R5, [R6, #20] 
    _ZNSt3mapINSt7__cxx1112basic_stringIcSt11char_traitsIcESaIcEEEN10hirtparser20HiRTSetting_LogLevelESt4lessIS5_ESaISt4pairIKS5_S7_EEEC1ESt16initializer_listISC_ERKS9_RKSD__x130:
    /*00000130*/ ADD         R4, R4, #28 
    /*00000134*/ CMP         R4, R7 
    /*00000138*/ BNE         _ZNSt3mapINSt7__cxx1112basic_stringIcSt11char_traitsIcESaIcEEEN10hirtparser20HiRTSetting_LogLevelESt4lessIS5_ESaISt4pairIKS5_S7_EEEC1ESt16initializer_listISC_ERKS9_RKSD__x50
    _ZNSt3mapINSt7__cxx1112basic_stringIcSt11char_traitsIcESaIcEEEN10hirtparser20HiRTSetting_LogLevelESt4lessIS5_ESaISt4pairIKS5_S7_EEEC1ESt16initializer_listISC_ERKS9_RKSD__x13c:
    /*0000013c*/ MOV         R0, R6 
    /*00000140*/ ADD         SP, SP, #20 
    /*00000144*/ POP         {R4, R5, R6, R7, R8, R9, SL, FP, PC} 
    _ZNSt3mapINSt7__cxx1112basic_stringIcSt11char_traitsIcESaIcEEEN10hirtparser20HiRTSetting_LogLevelESt4lessIS5_ESaISt4pairIKS5_S7_EEEC1ESt16initializer_listISC_ERKS9_RKSD__x148:
    /*00000148*/ SUB         R0, FP, R5 
    /*0000014c*/ B           _ZNSt3mapINSt7__cxx1112basic_stringIcSt11char_traitsIcESaIcEEEN10hirtparser20HiRTSetting_LogLevelESt4lessIS5_ESaISt4pairIKS5_S7_EEEC1ESt16initializer_listISC_ERKS9_RKSD__xd8
    _ZNSt3mapINSt7__cxx1112basic_stringIcSt11char_traitsIcESaIcEEEN10hirtparser20HiRTSetting_LogLevelESt4lessIS5_ESaISt4pairIKS5_S7_EEEC1ESt16initializer_listISC_ERKS9_RKSD__x150:
    /*00000150*/ MOV         FP, #0 
    /*00000154*/ B           _ZNSt3mapINSt7__cxx1112basic_stringIcSt11char_traitsIcESaIcEEEN10hirtparser20HiRTSetting_LogLevelESt4lessIS5_ESaISt4pairIKS5_S7_EEEC1ESt16initializer_listISC_ERKS9_RKSD__x88
    /*00000158*/ BL          __cxa_begin_catch
    /*0000015c*/ MOV         R0, R5 
    /*00000160*/ BL          _ZdlPv
    /*00000164*/ BL          __cxa_rethrow
    _ZNSt3mapINSt7__cxx1112basic_stringIcSt11char_traitsIcESaIcEEEN10hirtparser20HiRTSetting_LogLevelESt4lessIS5_ESaISt4pairIKS5_S7_EEEC1ESt16initializer_listISC_ERKS9_RKSD__x168:
    /*00000168*/ LDR         R1, [R6, #8] 
    /*0000016c*/ MOV         R0, R6 
    /*00000170*/ BL          _ZNSt8_Rb_treeINSt7__cxx1112basic_stringIcSt11char_traitsIcESaIcEEESt4pairIKS5_N10hirtparser20HiRTSetting_LogLevelEESt10_Select1stISA_ESt4lessIS5_ESaISA_EE8_M_eraseEPSt13_Rb_tree_nodeISA_E
    /*00000174*/ BL          __cxa_end_cleanup
    /*00000178*/ BL          __cxa_end_catch
    /*0000017c*/ B           _ZNSt3mapINSt7__cxx1112basic_stringIcSt11char_traitsIcESaIcEEEN10hirtparser20HiRTSetting_LogLevelESt4lessIS5_ESaISt4pairIKS5_S7_EEEC1ESt16initializer_listISC_ERKS9_RKSD__x168
FUNC_END _ZNSt3mapINSt7__cxx1112basic_stringIcSt11char_traitsIcESaIcEEEN10hirtparser20HiRTSetting_LogLevelESt4lessIS5_ESaISt4pairIKS5_S7_EEEC1ESt16initializer_listISC_ERKS9_RKSD_


@ - - - - - - - - - - - - - - - - - - - - - - - - - - - - - 
@ .ARM.extab.text._ZNSt3mapINSt7__cxx1112basic_stringIcSt11char_traitsIcESaIcEEEN10hirtparser20HiRTSetting_LogLevelESt4lessIS5_ESaISt4pairIKS5_S7_EEEC2ESt16initializer_listISC_ERKS9_RKSD_
@ Size: 0x2c
@ - - - - - - - - - - - - - - - - - - - - - - - - - - - - - 

@ - - - - - - - - - - - - - - - - - - - - - - - - - - - - - 
@ .text._ZNSt8__detail9_CompilerINSt7__cxx1112regex_traitsIcEEE6_M_popEv
@ Size: 0x9c
@ - - - - - - - - - - - - - - - - - - - - - - - - - - - - - 

FUNC_BEGIN _ZNSt8__detail9_CompilerINSt7__cxx1112regex_traitsIcEEE6_M_popEv
    /*00000000*/ MOV         IP, #16384                  @ 0x4000 
    /*00000004*/ PUSH        {R4, R5, LR} 
    /*00000008*/ SUB         IP, SP, IP 
    /*0000000c*/ STR         R0, [IP, #4064]             @ 0xfe0 
    /*00000010*/ LDR         R3, [R1, #252]              @ 0xfc 
    /*00000014*/ SUB         SP, SP, #20 
    /*00000018*/ LDR         R2, [R1, #256]              @ 0x100 
    /*0000001c*/ MOV         R5, R1 
    /*00000020*/ MOV         R4, R0 
    /*00000024*/ CMP         R3, R2 
    /*00000028*/ BEQ         _ZNSt8__detail9_CompilerINSt7__cxx1112regex_traitsIcEEE6_M_popEv_x48
    /*0000002c*/ SUB         R3, R3, #12 
    /*00000030*/ LDM         R3, {R0, R1, R2} 
    /*00000034*/ STR         R3, [R5, #252]              @ 0xfc 
    /*00000038*/ STM         R4, {R0, R1, R2} 
    /*0000003c*/ MOV         R0, R4 
    /*00000040*/ ADD         SP, SP, #20 
    /*00000044*/ POP         {R4, R5, PC} 
    _ZNSt8__detail9_CompilerINSt7__cxx1112regex_traitsIcEEE6_M_popEv_x48:
    /*00000048*/ LDR         R2, [R1, #264]              @ 0x108 
    /*0000004c*/ ADD         R5, R5, #252                @ 0xfc 
    /*00000050*/ LDR         R2, [R2, #-4] 
    /*00000054*/ ADD         R2, R2, #492                @ 0x1ec 
    /*00000058*/ LDM         R2, {R0, R1, R2} 
    /*0000005c*/ STM         R4, {R0, R1, R2} 
    /*00000060*/ MOV         R0, R3 
    /*00000064*/ BL          _ZdlPv
    /*00000068*/ LDR         R2, [R5, #12] 
    /*0000006c*/ MOV         R0, R4 
    /*00000070*/ LDR         R3, [R2, #-4]! 
    /*00000074*/ STR         R3, [SP, #4] 
    /*00000078*/ ADD         R1, R3, #492                @ 0x1ec 
    /*0000007c*/ STR         R2, [SP, #12] 
    /*00000080*/ ADD         R3, R3, #504                @ 0x1f8 
    /*00000084*/ STR         R1, [SP] 
    /*00000088*/ STR         R3, [SP, #8] 
    /*0000008c*/ VLD1.64     {D16-D17}, [SP :64] 
    /*00000090*/ VST1.32     {D16-D17}, [R5] 
    /*00000094*/ ADD         SP, SP, #20 
    /*00000098*/ POP         {R4, R5, PC} 
FUNC_END _ZNSt8__detail9_CompilerINSt7__cxx1112regex_traitsIcEEE6_M_popEv


@ - - - - - - - - - - - - - - - - - - - - - - - - - - - - - 
@ .text._ZNSt11_Deque_baseINSt8__detail9_StateSeqINSt7__cxx1112regex_traitsIcEEEESaIS5_EED2Ev
@ Size: 0x54
@ - - - - - - - - - - - - - - - - - - - - - - - - - - - - - 

FUNC_BEGIN _ZNSt11_Deque_baseINSt8__detail9_StateSeqINSt7__cxx1112regex_traitsIcEEEESaIS5_EED2Ev
    /*00000000*/ MOV         IP, #16384                  @ 0x4000 
    /*00000004*/ PUSH        {R4, R5, R6, LR} 
    /*00000008*/ SUB         IP, SP, IP 
    /*0000000c*/ STR         R0, [IP, #4080]             @ 0xff0 
    /*00000010*/ MOV         R6, R0 
    /*00000014*/ LDR         R0, [R0] 
    /*00000018*/ CMP         R0, #0 
    /*0000001c*/ BEQ         _ZNSt11_Deque_baseINSt8__detail9_StateSeqINSt7__cxx1112regex_traitsIcEEEESaIS5_EED2Ev_x4c
    /*00000020*/ LDR         R5, [R6, #36]               @ 0x24 
    /*00000024*/ LDR         R4, [R6, #20] 
    /*00000028*/ ADD         R5, R5, #4 
    /*0000002c*/ CMP         R4, R5 
    /*00000030*/ BCS         _ZNSt11_Deque_baseINSt8__detail9_StateSeqINSt7__cxx1112regex_traitsIcEEEESaIS5_EED2Ev_x48
    _ZNSt11_Deque_baseINSt8__detail9_StateSeqINSt7__cxx1112regex_traitsIcEEEESaIS5_EED2Ev_x34:
    /*00000034*/ LDR         R0, [R4], #4 
    /*00000038*/ BL          _ZdlPv
    /*0000003c*/ CMP         R5, R4 
    /*00000040*/ BHI         _ZNSt11_Deque_baseINSt8__detail9_StateSeqINSt7__cxx1112regex_traitsIcEEEESaIS5_EED2Ev_x34
    /*00000044*/ LDR         R0, [R6] 
    _ZNSt11_Deque_baseINSt8__detail9_StateSeqINSt7__cxx1112regex_traitsIcEEEESaIS5_EED2Ev_x48:
    /*00000048*/ BL          _ZdlPv
    _ZNSt11_Deque_baseINSt8__detail9_StateSeqINSt7__cxx1112regex_traitsIcEEEESaIS5_EED2Ev_x4c:
    /*0000004c*/ MOV         R0, R6 
    /*00000050*/ POP         {R4, R5, R6, PC} 
FUNC_END _ZNSt11_Deque_baseINSt8__detail9_StateSeqINSt7__cxx1112regex_traitsIcEEEESaIS5_EED2Ev


FUNC_BEGIN _ZNSt11_Deque_baseINSt8__detail9_StateSeqINSt7__cxx1112regex_traitsIcEEEESaIS5_EED1Ev
    /*00000000*/ MOV         IP, #16384                  @ 0x4000 
    /*00000004*/ PUSH        {R4, R5, R6, LR} 
    /*00000008*/ SUB         IP, SP, IP 
    /*0000000c*/ STR         R0, [IP, #4080]             @ 0xff0 
    /*00000010*/ MOV         R6, R0 
    /*00000014*/ LDR         R0, [R0] 
    /*00000018*/ CMP         R0, #0 
    /*0000001c*/ BEQ         _ZNSt11_Deque_baseINSt8__detail9_StateSeqINSt7__cxx1112regex_traitsIcEEEESaIS5_EED1Ev_x4c
    /*00000020*/ LDR         R5, [R6, #36]               @ 0x24 
    /*00000024*/ LDR         R4, [R6, #20] 
    /*00000028*/ ADD         R5, R5, #4 
    /*0000002c*/ CMP         R4, R5 
    /*00000030*/ BCS         _ZNSt11_Deque_baseINSt8__detail9_StateSeqINSt7__cxx1112regex_traitsIcEEEESaIS5_EED1Ev_x48
    _ZNSt11_Deque_baseINSt8__detail9_StateSeqINSt7__cxx1112regex_traitsIcEEEESaIS5_EED1Ev_x34:
    /*00000034*/ LDR         R0, [R4], #4 
    /*00000038*/ BL          _ZdlPv
    /*0000003c*/ CMP         R5, R4 
    /*00000040*/ BHI         _ZNSt11_Deque_baseINSt8__detail9_StateSeqINSt7__cxx1112regex_traitsIcEEEESaIS5_EED1Ev_x34
    /*00000044*/ LDR         R0, [R6] 
    _ZNSt11_Deque_baseINSt8__detail9_StateSeqINSt7__cxx1112regex_traitsIcEEEESaIS5_EED1Ev_x48:
    /*00000048*/ BL          _ZdlPv
    _ZNSt11_Deque_baseINSt8__detail9_StateSeqINSt7__cxx1112regex_traitsIcEEEESaIS5_EED1Ev_x4c:
    /*0000004c*/ MOV         R0, R6 
    /*00000050*/ POP         {R4, R5, R6, PC} 
FUNC_END _ZNSt11_Deque_baseINSt8__detail9_StateSeqINSt7__cxx1112regex_traitsIcEEEESaIS5_EED1Ev


@ - - - - - - - - - - - - - - - - - - - - - - - - - - - - - 
@ .text._ZNSt6vectorINSt7__cxx119sub_matchIN9__gnu_cxx17__normal_iteratorIPKcNS0_12basic_stringIcSt11char_traitsIcESaIcEEEEEEESaISC_EE17_M_default_appendEj
@ Size: 0x19c
@ - - - - - - - - - - - - - - - - - - - - - - - - - - - - - 

FUNC_BEGIN _ZNSt6vectorINSt7__cxx119sub_matchIN9__gnu_cxx17__normal_iteratorIPKcNS0_12basic_stringIcSt11char_traitsIcESaIcEEEEEEESaISC_EE17_M_default_appendEj
    /*00000000*/ CMP         R1, #0 
    /*00000004*/ BXEQ        LR 
    /*00000008*/ MOV         IP, #16384                  @ 0x4000 
    /*0000000c*/ PUSH        {R4, R5, R6, R7, R8, LR} 
    /*00000010*/ SUB         IP, SP, IP 
    /*00000014*/ STR         R0, [IP, #4072]             @ 0xfe8 
    /*00000018*/ LDR         LR, [R0, #4] 
    /*0000001c*/ MOVW        R3, #43691                  @ 0xaaab 
    /*00000020*/ LDR         R2, [R0, #8] 
    /*00000024*/ MOVT        R3, #43690                  @ 0xaaaa 
    /*00000028*/ SUB         R2, R2, LR 
    /*0000002c*/ ASR         R2, R2, #2 
    /*00000030*/ MUL         R2, R3, R2 
    /*00000034*/ CMP         R1, R2 
    /*00000038*/ BHI         _ZNSt6vectorINSt7__cxx119sub_matchIN9__gnu_cxx17__normal_iteratorIPKcNS0_12basic_stringIcSt11char_traitsIcESaIcEEEEEEESaISC_EE17_M_default_appendEj_x74
    /*0000003c*/ MOV         R2, R1 
    /*00000040*/ MOV         R3, LR 
    /*00000044*/ MOV         IP, #0 
    _ZNSt6vectorINSt7__cxx119sub_matchIN9__gnu_cxx17__normal_iteratorIPKcNS0_12basic_stringIcSt11char_traitsIcESaIcEEEEEEESaISC_EE17_M_default_appendEj_x48:
    /*00000048*/ CMP         R3, #0 
    /*0000004c*/ ADD         R3, R3, #12 
    /*00000050*/ STRNE       IP, [R3, #-12] 
    /*00000054*/ STRNE       IP, [R3, #-8] 
    /*00000058*/ STRBNE      IP, [R3, #-4] 
    /*0000005c*/ SUBS        R2, R2, #1 
    /*00000060*/ BNE         _ZNSt6vectorINSt7__cxx119sub_matchIN9__gnu_cxx17__normal_iteratorIPKcNS0_12basic_stringIcSt11char_traitsIcESaIcEEEEEEESaISC_EE17_M_default_appendEj_x48
    /*00000064*/ MOV         R3, #12 
    /*00000068*/ MLA         R1, R3, R1, LR 
    /*0000006c*/ STR         R1, [R0, #4] 
    /*00000070*/ POP         {R4, R5, R6, R7, R8, PC} 
    _ZNSt6vectorINSt7__cxx119sub_matchIN9__gnu_cxx17__normal_iteratorIPKcNS0_12basic_stringIcSt11char_traitsIcESaIcEEEEEEESaISC_EE17_M_default_appendEj_x74:
    /*00000074*/ LDR         R8, [R0] 
    /*00000078*/ MOV         R4, R1 
    /*0000007c*/ MOVW        R2, #21845                  @ 0x5555 
    /*00000080*/ MOV         R5, R0 
    /*00000084*/ SUB         R1, LR, R8 
    /*00000088*/ MOVT        R2, #5461                   @ 0x1555 
    /*0000008c*/ ASR         R1, R1, #2 
    /*00000090*/ MUL         R3, R3, R1 
    /*00000094*/ SUB         R1, R2, R3 
    /*00000098*/ CMP         R4, R1 
    /*0000009c*/ BHI         _ZNSt6vectorINSt7__cxx119sub_matchIN9__gnu_cxx17__normal_iteratorIPKcNS0_12basic_stringIcSt11char_traitsIcESaIcEEEEEEESaISC_EE17_M_default_appendEj_x18c
    /*000000a0*/ CMP         R4, R3 
    /*000000a4*/ ADDCS       R6, R3, R4 
    /*000000a8*/ ADDCC       R6, R3, R3 
    /*000000ac*/ CMP         R6, R2 
    /*000000b0*/ CMPLS       R3, R6 
    /*000000b4*/ BLS         _ZNSt6vectorINSt7__cxx119sub_matchIN9__gnu_cxx17__normal_iteratorIPKcNS0_12basic_stringIcSt11char_traitsIcESaIcEEEEEEESaISC_EE17_M_default_appendEj_x16c
    /*000000b8*/ MVN         R6, #3 
    _ZNSt6vectorINSt7__cxx119sub_matchIN9__gnu_cxx17__normal_iteratorIPKcNS0_12basic_stringIcSt11char_traitsIcESaIcEEEEEEESaISC_EE17_M_default_appendEj_xbc:
    /*000000bc*/ MOV         R0, R6 
    /*000000c0*/ BL          _Znwj
    /*000000c4*/ ADD         R6, R0, R6 
    /*000000c8*/ MOV         R7, R0 
    /*000000cc*/ LDM         R5, {R8, LR} 
    _ZNSt6vectorINSt7__cxx119sub_matchIN9__gnu_cxx17__normal_iteratorIPKcNS0_12basic_stringIcSt11char_traitsIcESaIcEEEEEEESaISC_EE17_M_default_appendEj_xd0:
    /*000000d0*/ CMP         R8, LR 
    /*000000d4*/ BEQ         _ZNSt6vectorINSt7__cxx119sub_matchIN9__gnu_cxx17__normal_iteratorIPKcNS0_12basic_stringIcSt11char_traitsIcESaIcEEEEEEESaISC_EE17_M_default_appendEj_x184
    /*000000d8*/ ADD         IP, R8, #12 
    /*000000dc*/ MOVW        R3, #43691                  @ 0xaaab 
    /*000000e0*/ SUB         LR, LR, IP 
    /*000000e4*/ MOV         R2, #12 
    /*000000e8*/ MOVT        R3, #10922                  @ 0x2aaa 
    /*000000ec*/ LSR         LR, LR, #2 
    /*000000f0*/ MUL         LR, R3, LR 
    /*000000f4*/ MOV         R3, R7 
    /*000000f8*/ BIC         LR, LR, #-1073741824        @ 0xc0000000 
    /*000000fc*/ ADD         LR, LR, #1 
    /*00000100*/ MLA         LR, R2, LR, R7 
    _ZNSt6vectorINSt7__cxx119sub_matchIN9__gnu_cxx17__normal_iteratorIPKcNS0_12basic_stringIcSt11char_traitsIcESaIcEEEEEEESaISC_EE17_M_default_appendEj_x104:
    /*00000104*/ CMP         R3, #0 
    /*00000108*/ LDMDBNE     IP, {R0, R1, R2} 
    /*0000010c*/ ADD         IP, IP, #12 
    /*00000110*/ STMNE       R3, {R0, R1, R2} 
    /*00000114*/ ADD         R3, R3, #12 
    /*00000118*/ CMP         R3, LR 
    /*0000011c*/ BNE         _ZNSt6vectorINSt7__cxx119sub_matchIN9__gnu_cxx17__normal_iteratorIPKcNS0_12basic_stringIcSt11char_traitsIcESaIcEEEEEEESaISC_EE17_M_default_appendEj_x104
    _ZNSt6vectorINSt7__cxx119sub_matchIN9__gnu_cxx17__normal_iteratorIPKcNS0_12basic_stringIcSt11char_traitsIcESaIcEEEEEEESaISC_EE17_M_default_appendEj_x120:
    /*00000120*/ MOV         R2, R3 
    /*00000124*/ MOV         IP, R4 
    /*00000128*/ MOV         R1, #0 
    _ZNSt6vectorINSt7__cxx119sub_matchIN9__gnu_cxx17__normal_iteratorIPKcNS0_12basic_stringIcSt11char_traitsIcESaIcEEEEEEESaISC_EE17_M_default_appendEj_x12c:
    /*0000012c*/ CMP         R2, #0 
    /*00000130*/ ADD         R2, R2, #12 
    /*00000134*/ STRNE       R1, [R2, #-12] 
    /*00000138*/ STRNE       R1, [R2, #-8] 
    /*0000013c*/ STRBNE      R1, [R2, #-4] 
    /*00000140*/ SUBS        IP, IP, #1 
    /*00000144*/ BNE         _ZNSt6vectorINSt7__cxx119sub_matchIN9__gnu_cxx17__normal_iteratorIPKcNS0_12basic_stringIcSt11char_traitsIcESaIcEEEEEEESaISC_EE17_M_default_appendEj_x12c
    /*00000148*/ CMP         R8, #0 
    /*0000014c*/ MOV         R1, #12 
    /*00000150*/ MLA         R4, R1, R4, R3 
    /*00000154*/ BEQ         _ZNSt6vectorINSt7__cxx119sub_matchIN9__gnu_cxx17__normal_iteratorIPKcNS0_12basic_stringIcSt11char_traitsIcESaIcEEEEEEESaISC_EE17_M_default_appendEj_x160
    /*00000158*/ MOV         R0, R8 
    /*0000015c*/ BL          _ZdlPv
    _ZNSt6vectorINSt7__cxx119sub_matchIN9__gnu_cxx17__normal_iteratorIPKcNS0_12basic_stringIcSt11char_traitsIcESaIcEEEEEEESaISC_EE17_M_default_appendEj_x160:
    /*00000160*/ STR         R7, [R5] 
    /*00000164*/ STMIB       R5, {R4, R6} 
    /*00000168*/ POP         {R4, R5, R6, R7, R8, PC} 
    _ZNSt6vectorINSt7__cxx119sub_matchIN9__gnu_cxx17__normal_iteratorIPKcNS0_12basic_stringIcSt11char_traitsIcESaIcEEEEEEESaISC_EE17_M_default_appendEj_x16c:
    /*0000016c*/ CMP         R6, #0 
    /*00000170*/ MOVNE       R3, #12 
    /*00000174*/ MULNE       R6, R3, R6 
    /*00000178*/ BNE         _ZNSt6vectorINSt7__cxx119sub_matchIN9__gnu_cxx17__normal_iteratorIPKcNS0_12basic_stringIcSt11char_traitsIcESaIcEEEEEEESaISC_EE17_M_default_appendEj_xbc
    /*0000017c*/ MOV         R7, R6 
    /*00000180*/ B           _ZNSt6vectorINSt7__cxx119sub_matchIN9__gnu_cxx17__normal_iteratorIPKcNS0_12basic_stringIcSt11char_traitsIcESaIcEEEEEEESaISC_EE17_M_default_appendEj_xd0
    _ZNSt6vectorINSt7__cxx119sub_matchIN9__gnu_cxx17__normal_iteratorIPKcNS0_12basic_stringIcSt11char_traitsIcESaIcEEEEEEESaISC_EE17_M_default_appendEj_x184:
    /*00000184*/ MOV         R3, R7 
    /*00000188*/ B           _ZNSt6vectorINSt7__cxx119sub_matchIN9__gnu_cxx17__normal_iteratorIPKcNS0_12basic_stringIcSt11char_traitsIcESaIcEEEEEEESaISC_EE17_M_default_appendEj_x120
    _ZNSt6vectorINSt7__cxx119sub_matchIN9__gnu_cxx17__normal_iteratorIPKcNS0_12basic_stringIcSt11char_traitsIcESaIcEEEEEEESaISC_EE17_M_default_appendEj_x18c:
    /*0000018c*/ LDR         R0, WORD_0198               @ LDR         R0, [PC, #4]                @ 0x0000000000000198 
    /*00000190*/ ADD         R0, PC, R0 
    /*00000194*/ BL          _ZSt20__throw_length_errorPKc
    /*00000198*/ WORD_0198: .word 0x00000000
FUNC_END _ZNSt6vectorINSt7__cxx119sub_matchIN9__gnu_cxx17__normal_iteratorIPKcNS0_12basic_stringIcSt11char_traitsIcESaIcEEEEEEESaISC_EE17_M_default_appendEj


@ - - - - - - - - - - - - - - - - - - - - - - - - - - - - - 
@ .text._ZNSt6vectorINSt7__cxx119sub_matchIN9__gnu_cxx17__normal_iteratorIPKcNS0_12basic_stringIcSt11char_traitsIcESaIcEEEEEEESaISC_EEaSERKSE_
@ Size: 0x1b8
@ - - - - - - - - - - - - - - - - - - - - - - - - - - - - - 

FUNC_BEGIN _ZNSt6vectorINSt7__cxx119sub_matchIN9__gnu_cxx17__normal_iteratorIPKcNS0_12basic_stringIcSt11char_traitsIcESaIcEEEEEEESaISC_EEaSERKSE_
    /*00000000*/ MOV         IP, #16384                  @ 0x4000 
    /*00000004*/ PUSH        {R4, R5, R6, R7, R8, LR} 
    /*00000008*/ SUB         IP, SP, IP 
    /*0000000c*/ STR         R0, [IP, #4072]             @ 0xfe8 
    /*00000010*/ CMP         R1, R0 
    /*00000014*/ MOV         R4, R0 
    /*00000018*/ BEQ         _ZNSt6vectorINSt7__cxx119sub_matchIN9__gnu_cxx17__normal_iteratorIPKcNS0_12basic_stringIcSt11char_traitsIcESaIcEEEEEEESaISC_EEaSERKSE__xac
    /*0000001c*/ LDR         LR, [R0] 
    /*00000020*/ MOVW        R2, #43691                  @ 0xaaab 
    /*00000024*/ LDR         R3, [R0, #8] 
    /*00000028*/ LDR         R7, [R1] 
    /*0000002c*/ LDR         R6, [R1, #4] 
    /*00000030*/ SUB         R3, R3, LR 
    /*00000034*/ SUB         R5, R6, R7 
    /*00000038*/ MOVT        R2, #43690                  @ 0xaaaa 
    /*0000003c*/ ASR         R0, R5, #2 
    /*00000040*/ ASR         R3, R3, #2 
    /*00000044*/ MUL         R0, R2, R0 
    /*00000048*/ MUL         R3, R2, R3 
    /*0000004c*/ CMP         R3, R0 
    /*00000050*/ BCC         _ZNSt6vectorINSt7__cxx119sub_matchIN9__gnu_cxx17__normal_iteratorIPKcNS0_12basic_stringIcSt11char_traitsIcESaIcEEEEEEESaISC_EEaSERKSE__x118
    /*00000054*/ LDR         IP, [R4, #4] 
    /*00000058*/ SUB         R3, IP, LR 
    /*0000005c*/ ASR         R8, R3, #2 
    /*00000060*/ MUL         R8, R2, R8 
    /*00000064*/ CMP         R0, R8 
    /*00000068*/ BHI         _ZNSt6vectorINSt7__cxx119sub_matchIN9__gnu_cxx17__normal_iteratorIPKcNS0_12basic_stringIcSt11char_traitsIcESaIcEEEEEEESaISC_EEaSERKSE__xb4
    /*0000006c*/ CMP         R0, #0 
    /*00000070*/ BLE         _ZNSt6vectorINSt7__cxx119sub_matchIN9__gnu_cxx17__normal_iteratorIPKcNS0_12basic_stringIcSt11char_traitsIcESaIcEEEEEEESaISC_EEaSERKSE__xa4
    /*00000074*/ ADD         R2, R7, #12 
    /*00000078*/ ADD         R3, LR, #12 
    _ZNSt6vectorINSt7__cxx119sub_matchIN9__gnu_cxx17__normal_iteratorIPKcNS0_12basic_stringIcSt11char_traitsIcESaIcEEEEEEESaISC_EEaSERKSE__x7c:
    /*0000007c*/ LDR         R1, [R2, #-12] 
    /*00000080*/ SUBS        R0, R0, #1 
    /*00000084*/ LDRB        IP, [R2, #-4] 
    /*00000088*/ ADD         R3, R3, #12 
    /*0000008c*/ STR         R1, [R3, #-24]              @ 0xffffffe8 
    /*00000090*/ ADD         R2, R2, #12 
    /*00000094*/ LDR         R1, [R2, #-20]              @ 0xffffffec 
    /*00000098*/ STRB        IP, [R3, #-16] 
    /*0000009c*/ STR         R1, [R3, #-20]              @ 0xffffffec 
    /*000000a0*/ BNE         _ZNSt6vectorINSt7__cxx119sub_matchIN9__gnu_cxx17__normal_iteratorIPKcNS0_12basic_stringIcSt11char_traitsIcESaIcEEEEEEESaISC_EEaSERKSE__x7c
    _ZNSt6vectorINSt7__cxx119sub_matchIN9__gnu_cxx17__normal_iteratorIPKcNS0_12basic_stringIcSt11char_traitsIcESaIcEEEEEEESaISC_EEaSERKSE__xa4:
    /*000000a4*/ ADD         R5, LR, R5 
    _ZNSt6vectorINSt7__cxx119sub_matchIN9__gnu_cxx17__normal_iteratorIPKcNS0_12basic_stringIcSt11char_traitsIcESaIcEEEEEEESaISC_EEaSERKSE__xa8:
    /*000000a8*/ STR         R5, [R4, #4] 
    _ZNSt6vectorINSt7__cxx119sub_matchIN9__gnu_cxx17__normal_iteratorIPKcNS0_12basic_stringIcSt11char_traitsIcESaIcEEEEEEESaISC_EEaSERKSE__xac:
    /*000000ac*/ MOV         R0, R4 
    /*000000b0*/ POP         {R4, R5, R6, R7, R8, PC} 
    _ZNSt6vectorINSt7__cxx119sub_matchIN9__gnu_cxx17__normal_iteratorIPKcNS0_12basic_stringIcSt11char_traitsIcESaIcEEEEEEESaISC_EEaSERKSE__xb4:
    /*000000b4*/ ADD         R3, R7, R3 
    /*000000b8*/ CMP         R8, #0 
    /*000000bc*/ ADDGT       R2, R7, #12 
    /*000000c0*/ ADDGT       R1, LR, #12 
    /*000000c4*/ BLE         _ZNSt6vectorINSt7__cxx119sub_matchIN9__gnu_cxx17__normal_iteratorIPKcNS0_12basic_stringIcSt11char_traitsIcESaIcEEEEEEESaISC_EEaSERKSE__xf0
    _ZNSt6vectorINSt7__cxx119sub_matchIN9__gnu_cxx17__normal_iteratorIPKcNS0_12basic_stringIcSt11char_traitsIcESaIcEEEEEEESaISC_EEaSERKSE__xc8:
    /*000000c8*/ LDR         R0, [R2, #-12] 
    /*000000cc*/ SUBS        R8, R8, #1 
    /*000000d0*/ LDRB        R7, [R2, #-4] 
    /*000000d4*/ ADD         R1, R1, #12 
    /*000000d8*/ STR         R0, [R1, #-24]              @ 0xffffffe8 
    /*000000dc*/ ADD         R2, R2, #12 
    /*000000e0*/ LDR         R0, [R2, #-20]              @ 0xffffffec 
    /*000000e4*/ STRB        R7, [R1, #-16] 
    /*000000e8*/ STR         R0, [R1, #-20]              @ 0xffffffec 
    /*000000ec*/ BNE         _ZNSt6vectorINSt7__cxx119sub_matchIN9__gnu_cxx17__normal_iteratorIPKcNS0_12basic_stringIcSt11char_traitsIcESaIcEEEEEEESaISC_EEaSERKSE__xc8
    _ZNSt6vectorINSt7__cxx119sub_matchIN9__gnu_cxx17__normal_iteratorIPKcNS0_12basic_stringIcSt11char_traitsIcESaIcEEEEEEESaISC_EEaSERKSE__xf0:
    /*000000f0*/ CMP         R3, R6 
    /*000000f4*/ BEQ         _ZNSt6vectorINSt7__cxx119sub_matchIN9__gnu_cxx17__normal_iteratorIPKcNS0_12basic_stringIcSt11char_traitsIcESaIcEEEEEEESaISC_EEaSERKSE__xa4
    _ZNSt6vectorINSt7__cxx119sub_matchIN9__gnu_cxx17__normal_iteratorIPKcNS0_12basic_stringIcSt11char_traitsIcESaIcEEEEEEESaISC_EEaSERKSE__xf8:
    /*000000f8*/ CMP         IP, #0 
    /*000000fc*/ LDMNE       R3, {R0, R1, R2} 
    /*00000100*/ ADD         R3, R3, #12 
    /*00000104*/ STMNE       IP, {R0, R1, R2} 
    /*00000108*/ CMP         R6, R3 
    /*0000010c*/ ADD         IP, IP, #12 
    /*00000110*/ BNE         _ZNSt6vectorINSt7__cxx119sub_matchIN9__gnu_cxx17__normal_iteratorIPKcNS0_12basic_stringIcSt11char_traitsIcESaIcEEEEEEESaISC_EEaSERKSE__xf8
    /*00000114*/ B           _ZNSt6vectorINSt7__cxx119sub_matchIN9__gnu_cxx17__normal_iteratorIPKcNS0_12basic_stringIcSt11char_traitsIcESaIcEEEEEEESaISC_EEaSERKSE__xa4
    _ZNSt6vectorINSt7__cxx119sub_matchIN9__gnu_cxx17__normal_iteratorIPKcNS0_12basic_stringIcSt11char_traitsIcESaIcEEEEEEESaISC_EEaSERKSE__x118:
    /*00000118*/ CMP         R0, #0 
    /*0000011c*/ MOVEQ       R8, R0 
    /*00000120*/ BEQ         _ZNSt6vectorINSt7__cxx119sub_matchIN9__gnu_cxx17__normal_iteratorIPKcNS0_12basic_stringIcSt11char_traitsIcESaIcEEEEEEESaISC_EEaSERKSE__x144
    /*00000124*/ MOVW        R3, #21845                  @ 0x5555 
    /*00000128*/ MOVT        R3, #5461                   @ 0x1555 
    /*0000012c*/ CMP         R0, R3 
    /*00000130*/ BHI         _ZNSt6vectorINSt7__cxx119sub_matchIN9__gnu_cxx17__normal_iteratorIPKcNS0_12basic_stringIcSt11char_traitsIcESaIcEEEEEEESaISC_EEaSERKSE__x1b4
    /*00000134*/ MOV         R0, R5 
    /*00000138*/ BL          _Znwj
    /*0000013c*/ LDR         LR, [R4] 
    /*00000140*/ MOV         R8, R0 
    _ZNSt6vectorINSt7__cxx119sub_matchIN9__gnu_cxx17__normal_iteratorIPKcNS0_12basic_stringIcSt11char_traitsIcESaIcEEEEEEESaISC_EEaSERKSE__x144:
    /*00000144*/ CMP         R7, R6 
    /*00000148*/ BEQ         _ZNSt6vectorINSt7__cxx119sub_matchIN9__gnu_cxx17__normal_iteratorIPKcNS0_12basic_stringIcSt11char_traitsIcESaIcEEEEEEESaISC_EEaSERKSE__x194
    /*0000014c*/ ADD         IP, R7, #12 
    /*00000150*/ MOVW        R3, #43691                  @ 0xaaab 
    /*00000154*/ SUB         R6, R6, IP 
    /*00000158*/ MOV         R2, #12 
    /*0000015c*/ MOVT        R3, #10922                  @ 0x2aaa 
    /*00000160*/ LSR         R6, R6, #2 
    /*00000164*/ MUL         R6, R3, R6 
    /*00000168*/ MOV         R3, R8 
    /*0000016c*/ BIC         R6, R6, #-1073741824        @ 0xc0000000 
    /*00000170*/ ADD         R6, R6, #1 
    /*00000174*/ MLA         R6, R2, R6, R8 
    _ZNSt6vectorINSt7__cxx119sub_matchIN9__gnu_cxx17__normal_iteratorIPKcNS0_12basic_stringIcSt11char_traitsIcESaIcEEEEEEESaISC_EEaSERKSE__x178:
    /*00000178*/ CMP         R3, #0 
    /*0000017c*/ LDMDBNE     IP, {R0, R1, R2} 
    /*00000180*/ ADD         IP, IP, #12 
    /*00000184*/ STMNE       R3, {R0, R1, R2} 
    /*00000188*/ ADD         R3, R3, #12 
    /*0000018c*/ CMP         R6, R3 
    /*00000190*/ BNE         _ZNSt6vectorINSt7__cxx119sub_matchIN9__gnu_cxx17__normal_iteratorIPKcNS0_12basic_stringIcSt11char_traitsIcESaIcEEEEEEESaISC_EEaSERKSE__x178
    _ZNSt6vectorINSt7__cxx119sub_matchIN9__gnu_cxx17__normal_iteratorIPKcNS0_12basic_stringIcSt11char_traitsIcESaIcEEEEEEESaISC_EEaSERKSE__x194:
    /*00000194*/ CMP         LR, #0 
    /*00000198*/ BEQ         _ZNSt6vectorINSt7__cxx119sub_matchIN9__gnu_cxx17__normal_iteratorIPKcNS0_12basic_stringIcSt11char_traitsIcESaIcEEEEEEESaISC_EEaSERKSE__x1a4
    /*0000019c*/ MOV         R0, LR 
    /*000001a0*/ BL          _ZdlPv
    _ZNSt6vectorINSt7__cxx119sub_matchIN9__gnu_cxx17__normal_iteratorIPKcNS0_12basic_stringIcSt11char_traitsIcESaIcEEEEEEESaISC_EEaSERKSE__x1a4:
    /*000001a4*/ ADD         R5, R8, R5 
    /*000001a8*/ STR         R5, [R4, #8] 
    /*000001ac*/ STR         R8, [R4] 
    /*000001b0*/ B           _ZNSt6vectorINSt7__cxx119sub_matchIN9__gnu_cxx17__normal_iteratorIPKcNS0_12basic_stringIcSt11char_traitsIcESaIcEEEEEEESaISC_EEaSERKSE__xa8
    _ZNSt6vectorINSt7__cxx119sub_matchIN9__gnu_cxx17__normal_iteratorIPKcNS0_12basic_stringIcSt11char_traitsIcESaIcEEEEEEESaISC_EEaSERKSE__x1b4:
    /*000001b4*/ BL          _ZSt17__throw_bad_allocv
FUNC_END _ZNSt6vectorINSt7__cxx119sub_matchIN9__gnu_cxx17__normal_iteratorIPKcNS0_12basic_stringIcSt11char_traitsIcESaIcEEEEEEESaISC_EEaSERKSE_


@ - - - - - - - - - - - - - - - - - - - - - - - - - - - - - 
@ .text._ZNSt8__detail8_ScannerIcE17_M_eat_escape_awkEv
@ Size: 0x290
@ - - - - - - - - - - - - - - - - - - - - - - - - - - - - - 

FUNC_BEGIN _ZNSt8__detail8_ScannerIcE17_M_eat_escape_awkEv
    /*00000000*/ MOV         IP, #16384                  @ 0x4000 
    /*00000004*/ PUSH        {R4, R5, R6, R7, R8, R9, LR} 
    /*00000008*/ SUB         IP, SP, IP 
    /*0000000c*/ STR         R0, [IP, #4056]             @ 0xfd8 
    /*00000010*/ LDR         R3, [R0, #148]              @ 0x94 
    /*00000014*/ MOV         R4, R0 
    /*00000018*/ LDR         R0, [R0, #156]              @ 0x9c 
    /*0000001c*/ SUB         SP, SP, #12 
    /*00000020*/ LDR         R1, WORD_0284               @ LDR         R1, [PC, #604]              @ 0x0000000000000284 
    /*00000024*/ ADD         R2, R3, #1 
    /*00000028*/ STR         R2, [R4, #148]              @ 0x94 
    /*0000002c*/ LDRB        R5, [R3] 
    /*00000030*/ ADD         R1, PC, R1 
    /*00000034*/ ADD         R6, R0, R5 
    /*00000038*/ LDRB        R2, [R6, #285]              @ 0x11d 
    /*0000003c*/ CMP         R2, #0 
    /*00000040*/ BEQ         _ZNSt8__detail8_ScannerIcE17_M_eat_escape_awkEv_x94
    _ZNSt8__detail8_ScannerIcE17_M_eat_escape_awkEv_x44:
    /*00000044*/ LDR         R1, [R4, #136]              @ 0x88 
    /*00000048*/ LDRB        R3, [R1] 
    /*0000004c*/ CMP         R3, #0 
    /*00000050*/ BNE         _ZNSt8__detail8_ScannerIcE17_M_eat_escape_awkEv_x64
    /*00000054*/ B           _ZNSt8__detail8_ScannerIcE17_M_eat_escape_awkEv_xc8
    _ZNSt8__detail8_ScannerIcE17_M_eat_escape_awkEv_x58:
    /*00000058*/ LDRB        R3, [R1, #2]! 
    /*0000005c*/ CMP         R3, #0 
    /*00000060*/ BEQ         _ZNSt8__detail8_ScannerIcE17_M_eat_escape_awkEv_xc8
    _ZNSt8__detail8_ScannerIcE17_M_eat_escape_awkEv_x64:
    /*00000064*/ CMP         R2, R3 
    /*00000068*/ BNE         _ZNSt8__detail8_ScannerIcE17_M_eat_escape_awkEv_x58
    /*0000006c*/ LDR         R2, [R4, #164]              @ 0xa4 
    /*00000070*/ MOV         R3, #1 
    /*00000074*/ STR         R3, [R4, #132]              @ 0x84 
    /*00000078*/ ADD         R0, R4, #160                @ 0xa0 
    /*0000007c*/ LDRB        R1, [R1, #1] 
    /*00000080*/ STR         R1, [SP] 
    /*00000084*/ MOV         R1, #0 
    /*00000088*/ BL          _ZNSt7__cxx1112basic_stringIcSt11char_traitsIcESaIcEE14_M_replace_auxEjjjc
    /*0000008c*/ ADD         SP, SP, #12 
    /*00000090*/ POP         {R4, R5, R6, R7, R8, R9, PC} 
    _ZNSt8__detail8_ScannerIcE17_M_eat_escape_awkEv_x94:
    /*00000094*/ LDR         IP, [R0] 
    /*00000098*/ LDR         R3, WORD_0288               @ LDR         R3, [PC, #488]              @ 0x0000000000000288 
    /*0000009c*/ LDR         R7, [IP, #32] 
    /*000000a0*/ LDR         R3, [R1, R3] 
    /*000000a4*/ CMP         R7, R3 
    /*000000a8*/ MOVEQ       R2, R5 
    /*000000ac*/ BNE         _ZNSt8__detail8_ScannerIcE17_M_eat_escape_awkEv_x274
    _ZNSt8__detail8_ScannerIcE17_M_eat_escape_awkEv_xb0:
    /*000000b0*/ CMP         R2, #0 
    /*000000b4*/ BNE         _ZNSt8__detail8_ScannerIcE17_M_eat_escape_awkEv_x264
    /*000000b8*/ LDR         R1, [R4, #136]              @ 0x88 
    /*000000bc*/ LDRB        R3, [R1] 
    /*000000c0*/ CMP         R3, #0 
    /*000000c4*/ BNE         _ZNSt8__detail8_ScannerIcE17_M_eat_escape_awkEv_x58
    _ZNSt8__detail8_ScannerIcE17_M_eat_escape_awkEv_xc8:
    /*000000c8*/ LDR         R2, [R4, #156]              @ 0x9c 
    /*000000cc*/ LSL         R3, R5, #1 
    /*000000d0*/ LDR         R2, [R2, #24] 
    /*000000d4*/ LDRH        R3, [R2, R3] 
    /*000000d8*/ TST         R3, #2048                   @ 0x800 
    /*000000dc*/ BEQ         _ZNSt8__detail8_ScannerIcE17_M_eat_escape_awkEv_x254
    /*000000e0*/ SUB         R3, R5, #56                 @ 0x38 
    /*000000e4*/ CMP         R3, #1 
    /*000000e8*/ BLS         _ZNSt8__detail8_ScannerIcE17_M_eat_escape_awkEv_x254
    /*000000ec*/ LDR         R2, [R4, #164]              @ 0xa4 
    /*000000f0*/ ADD         R6, R4, #160                @ 0xa0 
    /*000000f4*/ STR         R5, [SP] 
    /*000000f8*/ MOV         R3, #1 
    /*000000fc*/ MOV         R0, R6 
    /*00000100*/ MOV         R1, #0 
    /*00000104*/ BL          _ZNSt7__cxx1112basic_stringIcSt11char_traitsIcESaIcEE14_M_replace_auxEjjjc
    /*00000108*/ LDR         R2, [R4, #148]              @ 0x94 
    /*0000010c*/ LDR         R3, [R4, #152]              @ 0x98 
    /*00000110*/ CMP         R3, R2 
    /*00000114*/ BEQ         _ZNSt8__detail8_ScannerIcE17_M_eat_escape_awkEv_x244
    /*00000118*/ LDRB        R3, [R2] 
    /*0000011c*/ LDR         R0, [R4, #156]              @ 0x9c 
    /*00000120*/ LSL         R1, R3, #1 
    /*00000124*/ SUB         R3, R3, #56                 @ 0x38 
    /*00000128*/ LDR         R0, [R0, #24] 
    /*0000012c*/ CMP         R3, #1 
    /*00000130*/ MOVLS       R3, #0 
    /*00000134*/ MOVHI       R3, #1 
    /*00000138*/ LDRH        R1, [R0, R1] 
    /*0000013c*/ ANDS        R3, R3, R1, LSR #11 
    /*00000140*/ BEQ         _ZNSt8__detail8_ScannerIcE17_M_eat_escape_awkEv_x244
    /*00000144*/ LDR         R3, [R4, #160]              @ 0xa0 
    /*00000148*/ ADD         R5, R4, #168                @ 0xa8 
    /*0000014c*/ LDR         R8, [R4, #164]              @ 0xa4 
    /*00000150*/ ADD         R1, R2, #1 
    /*00000154*/ CMP         R5, R3 
    /*00000158*/ STR         R1, [R4, #148]              @ 0x94 
    /*0000015c*/ ADD         R7, R8, #1 
    /*00000160*/ LDRB        R9, [R2] 
    /*00000164*/ MOVEQ       R2, #15 
    /*00000168*/ LDRNE       R2, [R4, #168]              @ 0xa8 
    /*0000016c*/ CMP         R2, R7 
    /*00000170*/ BCS         _ZNSt8__detail8_ScannerIcE17_M_eat_escape_awkEv_x194
    /*00000174*/ MOV         R3, #0 
    /*00000178*/ MOV         R2, #1 
    /*0000017c*/ STR         R2, [SP] 
    /*00000180*/ MOV         R1, R8 
    /*00000184*/ MOV         R2, R3 
    /*00000188*/ MOV         R0, R6 
    /*0000018c*/ BL          _ZNSt7__cxx1112basic_stringIcSt11char_traitsIcESaIcEE9_M_mutateEjjPKcj
    /*00000190*/ LDR         R3, [R4, #160]              @ 0xa0 
    _ZNSt8__detail8_ScannerIcE17_M_eat_escape_awkEv_x194:
    /*00000194*/ STRB        R9, [R3, R8] 
    /*00000198*/ MOV         R2, #0 
    /*0000019c*/ LDR         R3, [R4, #160]              @ 0xa0 
    /*000001a0*/ STR         R7, [R4, #164]              @ 0xa4 
    /*000001a4*/ STRB        R2, [R3, R7] 
    /*000001a8*/ LDR         R2, [R4, #148]              @ 0x94 
    /*000001ac*/ LDR         R3, [R4, #152]              @ 0x98 
    /*000001b0*/ CMP         R2, R3 
    /*000001b4*/ BEQ         _ZNSt8__detail8_ScannerIcE17_M_eat_escape_awkEv_x244
    /*000001b8*/ LDRB        R3, [R2] 
    /*000001bc*/ LDR         R0, [R4, #156]              @ 0x9c 
    /*000001c0*/ LSL         R1, R3, #1 
    /*000001c4*/ SUB         R3, R3, #56                 @ 0x38 
    /*000001c8*/ LDR         R0, [R0, #24] 
    /*000001cc*/ CMP         R3, #1 
    /*000001d0*/ MOVLS       R3, #0 
    /*000001d4*/ MOVHI       R3, #1 
    /*000001d8*/ LDRH        R1, [R0, R1] 
    /*000001dc*/ ANDS        R3, R3, R1, LSR #11 
    /*000001e0*/ BEQ         _ZNSt8__detail8_ScannerIcE17_M_eat_escape_awkEv_x244
    /*000001e4*/ LDR         R3, [R4, #160]              @ 0xa0 
    /*000001e8*/ ADD         R1, R2, #1 
    /*000001ec*/ LDR         R7, [R4, #164]              @ 0xa4 
    /*000001f0*/ CMP         R3, R5 
    /*000001f4*/ STR         R1, [R4, #148]              @ 0x94 
    /*000001f8*/ ADD         R5, R7, #1 
    /*000001fc*/ LDRB        R8, [R2] 
    /*00000200*/ LDRNE       R2, [R4, #168]              @ 0xa8 
    /*00000204*/ BEQ         _ZNSt8__detail8_ScannerIcE17_M_eat_escape_awkEv_x26c
    _ZNSt8__detail8_ScannerIcE17_M_eat_escape_awkEv_x208:
    /*00000208*/ CMP         R5, R2 
    /*0000020c*/ BLS         _ZNSt8__detail8_ScannerIcE17_M_eat_escape_awkEv_x230
    /*00000210*/ MOV         R3, #0 
    /*00000214*/ MOV         R2, #1 
    /*00000218*/ STR         R2, [SP] 
    /*0000021c*/ MOV         R0, R6 
    /*00000220*/ MOV         R2, R3 
    /*00000224*/ MOV         R1, R7 
    /*00000228*/ BL          _ZNSt7__cxx1112basic_stringIcSt11char_traitsIcESaIcEE9_M_mutateEjjPKcj
    /*0000022c*/ LDR         R3, [R4, #160]              @ 0xa0 
    _ZNSt8__detail8_ScannerIcE17_M_eat_escape_awkEv_x230:
    /*00000230*/ STRB        R8, [R3, R7] 
    /*00000234*/ MOV         R2, #0 
    /*00000238*/ LDR         R3, [R4, #160]              @ 0xa0 
    /*0000023c*/ STR         R5, [R4, #164]              @ 0xa4 
    /*00000240*/ STRB        R2, [R3, R5] 
    _ZNSt8__detail8_ScannerIcE17_M_eat_escape_awkEv_x244:
    /*00000244*/ MOV         R3, #2 
    /*00000248*/ STR         R3, [R4, #132]              @ 0x84 
    /*0000024c*/ ADD         SP, SP, #12 
    /*00000250*/ POP         {R4, R5, R6, R7, R8, R9, PC} 
    _ZNSt8__detail8_ScannerIcE17_M_eat_escape_awkEv_x254:
    /*00000254*/ LDR         R1, WORD_028c               @ LDR         R1, [PC, #48]               @ 0x000000000000028c 
    /*00000258*/ MOV         R0, #2 
    /*0000025c*/ ADD         R1, PC, R1 
    /*00000260*/ BL          _ZSt19__throw_regex_errorNSt15regex_constants10error_typeEPKc
    _ZNSt8__detail8_ScannerIcE17_M_eat_escape_awkEv_x264:
    /*00000264*/ STRB        R2, [R6, #285]              @ 0x11d 
    /*00000268*/ B           _ZNSt8__detail8_ScannerIcE17_M_eat_escape_awkEv_x44
    _ZNSt8__detail8_ScannerIcE17_M_eat_escape_awkEv_x26c:
    /*0000026c*/ MOV         R2, #15 
    /*00000270*/ B           _ZNSt8__detail8_ScannerIcE17_M_eat_escape_awkEv_x208
    _ZNSt8__detail8_ScannerIcE17_M_eat_escape_awkEv_x274:
    /*00000274*/ MOV         R1, R5 
    /*00000278*/ BLX         R7 
    /*0000027c*/ MOV         R2, R0 
    /*00000280*/ B           _ZNSt8__detail8_ScannerIcE17_M_eat_escape_awkEv_xb0
    /*00000284*/ WORD_0284: .word 0x0000024c
    /*00000288*/ WORD_0288: .word 0x00000000
    /*0000028c*/ WORD_028c: .word 0x00000028
FUNC_END _ZNSt8__detail8_ScannerIcE17_M_eat_escape_awkEv


@ - - - - - - - - - - - - - - - - - - - - - - - - - - - - - 
@ .text._ZNSt8__detail8_ScannerIcE19_M_eat_escape_posixEv
@ Size: 0x15c
@ - - - - - - - - - - - - - - - - - - - - - - - - - - - - - 

FUNC_BEGIN _ZNSt8__detail8_ScannerIcE19_M_eat_escape_posixEv
    /*00000000*/ MOV         IP, #16384                  @ 0x4000 
    /*00000004*/ PUSH        {R4, R5, R6, R7, R8, LR} 
    /*00000008*/ SUB         IP, SP, IP 
    /*0000000c*/ STR         R0, [IP, #4064]             @ 0xfe0 
    /*00000010*/ LDR         R3, [R0, #148]              @ 0x94 
    /*00000014*/ SUB         SP, SP, #8 
    /*00000018*/ LDR         R1, [R0, #152]              @ 0x98 
    /*0000001c*/ LDR         R2, WORD_0150               @ LDR         R2, [PC, #300]              @ 0x0000000000000150 
    /*00000020*/ CMP         R3, R1 
    /*00000024*/ ADD         R2, PC, R2 
    /*00000028*/ BEQ         _ZNSt8__detail8_ScannerIcE19_M_eat_escape_posixEv_x140
    /*0000002c*/ LDRB        R5, [R3] 
    /*00000030*/ MOV         R4, R0 
    /*00000034*/ LDR         R0, [R0, #156]              @ 0x9c 
    /*00000038*/ LDR         R7, [R4, #140]              @ 0x8c 
    /*0000003c*/ ADD         R6, R0, R5 
    /*00000040*/ LDRB        R1, [R6, #285]              @ 0x11d 
    /*00000044*/ CMP         R1, #0 
    /*00000048*/ BEQ         _ZNSt8__detail8_ScannerIcE19_M_eat_escape_posixEv_xf0
    _ZNSt8__detail8_ScannerIcE19_M_eat_escape_posixEv_x4c:
    /*0000004c*/ MOV         R0, R7 
    /*00000050*/ BL          strchr
    /*00000054*/ CMP         R0, #0 
    /*00000058*/ BEQ         _ZNSt8__detail8_ScannerIcE19_M_eat_escape_posixEv_x68
    /*0000005c*/ LDRB        R3, [R0] 
    /*00000060*/ CMP         R3, #0 
    /*00000064*/ BNE         _ZNSt8__detail8_ScannerIcE19_M_eat_escape_posixEv_xbc
    _ZNSt8__detail8_ScannerIcE19_M_eat_escape_posixEv_x68:
    /*00000068*/ LDR         R3, [R4, #128]              @ 0x80 
    /*0000006c*/ ANDS        R1, R3, #128                @ 0x80 
    /*00000070*/ BNE         _ZNSt8__detail8_ScannerIcE19_M_eat_escape_posixEv_x11c
    /*00000074*/ TST         R3, #288                    @ 0x120 
    /*00000078*/ BEQ         _ZNSt8__detail8_ScannerIcE19_M_eat_escape_posixEv_xbc
    /*0000007c*/ LDR         R2, [R4, #156]              @ 0x9c 
    /*00000080*/ LSL         R3, R5, #1 
    /*00000084*/ LDR         R0, [R2, #24] 
    /*00000088*/ SUBS        R2, R5, #48                 @ 0x30 
    /*0000008c*/ LDRH        R3, [R0, R3] 
    /*00000090*/ MOVNE       R2, #1 
    /*00000094*/ ANDS        R3, R2, R3, LSR #11 
    /*00000098*/ BEQ         _ZNSt8__detail8_ScannerIcE19_M_eat_escape_posixEv_xbc
    /*0000009c*/ LDR         R2, [R4, #164]              @ 0xa4 
    /*000000a0*/ MOV         R3, #4 
    /*000000a4*/ STR         R5, [SP] 
    /*000000a8*/ ADD         R0, R4, #160                @ 0xa0 
    /*000000ac*/ STR         R3, [R4, #132]              @ 0x84 
    /*000000b0*/ MOV         R3, #1 
    /*000000b4*/ BL          _ZNSt7__cxx1112basic_stringIcSt11char_traitsIcESaIcEE14_M_replace_auxEjjjc
    /*000000b8*/ B           _ZNSt8__detail8_ScannerIcE19_M_eat_escape_posixEv_xdc
    _ZNSt8__detail8_ScannerIcE19_M_eat_escape_posixEv_xbc:
    /*000000bc*/ LDR         R2, [R4, #164]              @ 0xa4 
    /*000000c0*/ MOV         R1, #1 
    /*000000c4*/ STR         R5, [SP] 
    /*000000c8*/ MOV         R3, R1 
    /*000000cc*/ STR         R1, [R4, #132]              @ 0x84 
    /*000000d0*/ ADD         R0, R4, #160                @ 0xa0 
    /*000000d4*/ MOV         R1, #0 
    /*000000d8*/ BL          _ZNSt7__cxx1112basic_stringIcSt11char_traitsIcESaIcEE14_M_replace_auxEjjjc
    _ZNSt8__detail8_ScannerIcE19_M_eat_escape_posixEv_xdc:
    /*000000dc*/ LDR         R3, [R4, #148]              @ 0x94 
    /*000000e0*/ ADD         R3, R3, #1 
    /*000000e4*/ STR         R3, [R4, #148]              @ 0x94 
    /*000000e8*/ ADD         SP, SP, #8 
    /*000000ec*/ POP         {R4, R5, R6, R7, R8, PC} 
    _ZNSt8__detail8_ScannerIcE19_M_eat_escape_posixEv_xf0:
    /*000000f0*/ LDR         IP, [R0] 
    /*000000f4*/ LDR         R3, WORD_0154               @ LDR         R3, [PC, #88]               @ 0x0000000000000154 
    /*000000f8*/ LDR         R8, [IP, #32] 
    /*000000fc*/ LDR         R3, [R2, R3] 
    /*00000100*/ CMP         R8, R3 
    /*00000104*/ MOVEQ       R1, R5 
    /*00000108*/ MOVEQ       R0, R5 
    /*0000010c*/ BNE         _ZNSt8__detail8_ScannerIcE19_M_eat_escape_posixEv_x12c
    _ZNSt8__detail8_ScannerIcE19_M_eat_escape_posixEv_x110:
    /*00000110*/ CMP         R0, #0 
    /*00000114*/ STRBNE      R0, [R6, #285]              @ 0x11d 
    /*00000118*/ B           _ZNSt8__detail8_ScannerIcE19_M_eat_escape_posixEv_x4c
    _ZNSt8__detail8_ScannerIcE19_M_eat_escape_posixEv_x11c:
    /*0000011c*/ MOV         R0, R4 
    /*00000120*/ ADD         SP, SP, #8 
    /*00000124*/ POP         {R4, R5, R6, R7, R8, LR} 
    _ZNSt8__detail8_ScannerIcE19_M_eat_escape_posixEv_x128:
    /*00000128*/ B           _ZNSt8__detail8_ScannerIcE19_M_eat_escape_posixEv_x128@ _ZNSt8__detail8_ScannerIcE17_M_eat_escape_awkEv [R_ARM_JUMP24: .text._ZNSt8__detail8_ScannerIcE17_M_eat_escape_awkEv+0x0] 
    _ZNSt8__detail8_ScannerIcE19_M_eat_escape_posixEv_x12c:
    /*0000012c*/ MOV         R2, R1 
    /*00000130*/ MOV         R1, R5 
    /*00000134*/ BLX         R8 
    /*00000138*/ MOV         R1, R0 
    /*0000013c*/ B           _ZNSt8__detail8_ScannerIcE19_M_eat_escape_posixEv_x110
    _ZNSt8__detail8_ScannerIcE19_M_eat_escape_posixEv_x140:
    /*00000140*/ LDR         R1, WORD_0158               @ LDR         R1, [PC, #16]               @ 0x0000000000000158 
    /*00000144*/ MOV         R0, #2 
    /*00000148*/ ADD         R1, PC, R1 
    /*0000014c*/ BL          _ZSt19__throw_regex_errorNSt15regex_constants10error_typeEPKc
    /*00000150*/ WORD_0150: .word 0x00000124
    /*00000154*/ WORD_0154: .word 0x00000000
    /*00000158*/ WORD_0158: .word 0x00000008
FUNC_END _ZNSt8__detail8_ScannerIcE19_M_eat_escape_posixEv


@ - - - - - - - - - - - - - - - - - - - - - - - - - - - - - 
@ .text._ZNSt8__detail8_ScannerIcE14_M_scan_normalEv
@ Size: 0x3a0
@ - - - - - - - - - - - - - - - - - - - - - - - - - - - - - 

FUNC_BEGIN _ZNSt8__detail8_ScannerIcE14_M_scan_normalEv
    /*00000000*/ MOV         IP, #16384                  @ 0x4000 
    /*00000004*/ PUSH        {R4, R5, R6, R7, R8, R9, SL, LR} 
    /*00000008*/ SUB         IP, SP, IP 
    /*0000000c*/ STR         R0, [IP, #4056]             @ 0xfd8 
    /*00000010*/ LDR         R3, [R0, #148]              @ 0x94 
    /*00000014*/ MOV         R4, R0 
    /*00000018*/ LDR         R0, [R0, #156]              @ 0x9c 
    /*0000001c*/ SUB         SP, SP, #8 
    /*00000020*/ LDR         R7, WORD_038c               @ LDR         R7, [PC, #868]              @ 0x000000000000038c 
    /*00000024*/ ADD         R2, R3, #1 
    /*00000028*/ STR         R2, [R4, #148]              @ 0x94 
    /*0000002c*/ LDRB        R5, [R3] 
    /*00000030*/ ADD         R7, PC, R7 
    /*00000034*/ ADD         R6, R0, R5 
    /*00000038*/ LDR         R8, [R4, #140]              @ 0x8c 
    /*0000003c*/ LDRB        R1, [R6, #285]              @ 0x11d 
    /*00000040*/ CMP         R1, #0 
    /*00000044*/ BEQ         _ZNSt8__detail8_ScannerIcE14_M_scan_normalEv_xe4
    _ZNSt8__detail8_ScannerIcE14_M_scan_normalEv_x48:
    /*00000048*/ MOV         R0, R8 
    /*0000004c*/ BL          strchr
    /*00000050*/ CMP         R0, #0 
    /*00000054*/ BEQ         _ZNSt8__detail8_ScannerIcE14_M_scan_normalEv_x2f8
    /*00000058*/ CMP         R5, #92                     @ 0x5c 
    /*0000005c*/ BEQ         _ZNSt8__detail8_ScannerIcE14_M_scan_normalEv_x110
    /*00000060*/ CMP         R5, #40                     @ 0x28 
    /*00000064*/ BEQ         _ZNSt8__detail8_ScannerIcE14_M_scan_normalEv_x154
    _ZNSt8__detail8_ScannerIcE14_M_scan_normalEv_x68:
    /*00000068*/ CMP         R5, #41                     @ 0x29 
    /*0000006c*/ MOVEQ       R3, #8 
    /*00000070*/ STREQ       R3, [R4, #132]              @ 0x84 
    /*00000074*/ BEQ         _ZNSt8__detail8_ScannerIcE14_M_scan_normalEv_xdc
    /*00000078*/ CMP         R5, #91                     @ 0x5b 
    /*0000007c*/ BEQ         _ZNSt8__detail8_ScannerIcE14_M_scan_normalEv_x240
    /*00000080*/ CMP         R5, #123                    @ 0x7b 
    /*00000084*/ BEQ         _ZNSt8__detail8_ScannerIcE14_M_scan_normalEv_x278
    /*00000088*/ AND         R3, R5, #223                @ 0xdf 
    /*0000008c*/ CMP         R3, #93                     @ 0x5d 
    /*00000090*/ BEQ         _ZNSt8__detail8_ScannerIcE14_M_scan_normalEv_x21c
    /*00000094*/ LDR         R8, [R4, #156]              @ 0x9c 
    /*00000098*/ MOV         R6, R4 
    /*0000009c*/ MOV         R9, R5 
    /*000000a0*/ ADD         R3, R8, R5 
    /*000000a4*/ LDRB        R2, [R3, #285]              @ 0x11d 
    /*000000a8*/ CMP         R2, #0 
    /*000000ac*/ BEQ         _ZNSt8__detail8_ScannerIcE14_M_scan_normalEv_x2a0
    _ZNSt8__detail8_ScannerIcE14_M_scan_normalEv_xb0:
    /*000000b0*/ LDRB        R3, [R4] 
    /*000000b4*/ CMP         R3, #0 
    /*000000b8*/ BNE         _ZNSt8__detail8_ScannerIcE14_M_scan_normalEv_xcc
    /*000000bc*/ B           _ZNSt8__detail8_ScannerIcE14_M_scan_normalEv_xdc
    _ZNSt8__detail8_ScannerIcE14_M_scan_normalEv_xc0:
    /*000000c0*/ LDRB        R3, [R6, #8]! 
    /*000000c4*/ CMP         R3, #0 
    /*000000c8*/ BEQ         _ZNSt8__detail8_ScannerIcE14_M_scan_normalEv_xdc
    _ZNSt8__detail8_ScannerIcE14_M_scan_normalEv_xcc:
    /*000000cc*/ CMP         R2, R3 
    /*000000d0*/ BNE         _ZNSt8__detail8_ScannerIcE14_M_scan_normalEv_xc0
    /*000000d4*/ LDR         R3, [R6, #4] 
    /*000000d8*/ STR         R3, [R4, #132]              @ 0x84 
    _ZNSt8__detail8_ScannerIcE14_M_scan_normalEv_xdc:
    /*000000dc*/ ADD         SP, SP, #8 
    /*000000e0*/ POP         {R4, R5, R6, R7, R8, R9, SL, PC} 
    _ZNSt8__detail8_ScannerIcE14_M_scan_normalEv_xe4:
    /*000000e4*/ LDR         R2, [R0] 
    /*000000e8*/ LDR         R3, WORD_0390               @ LDR         R3, [PC, #672]              @ 0x0000000000000390 
    /*000000ec*/ LDR         R9, [R2, #32] 
    /*000000f0*/ LDR         R3, [R7, R3] 
    /*000000f4*/ CMP         R9, R3 
    /*000000f8*/ MOVEQ       R1, R5 
    /*000000fc*/ MOVEQ       R0, R5 
    /*00000100*/ BNE         _ZNSt8__detail8_ScannerIcE14_M_scan_normalEv_x28c
    _ZNSt8__detail8_ScannerIcE14_M_scan_normalEv_x104:
    /*00000104*/ CMP         R0, #32 
    /*00000108*/ STRBNE      R0, [R6, #285]              @ 0x11d 
    /*0000010c*/ B           _ZNSt8__detail8_ScannerIcE14_M_scan_normalEv_x48
    _ZNSt8__detail8_ScannerIcE14_M_scan_normalEv_x110:
    /*00000110*/ LDR         R3, [R4, #148]              @ 0x94 
    /*00000114*/ LDR         R2, [R4, #152]              @ 0x98 
    /*00000118*/ CMP         R3, R2 
    /*0000011c*/ BEQ         _ZNSt8__detail8_ScannerIcE14_M_scan_normalEv_x36c
    /*00000120*/ LDR         R2, [R4, #128]              @ 0x80 
    /*00000124*/ TST         R2, #288                    @ 0x120 
    /*00000128*/ BEQ         _ZNSt8__detail8_ScannerIcE14_M_scan_normalEv_x178
    /*0000012c*/ LDRB        R2, [R3] 
    /*00000130*/ SUB         R1, R2, #40                 @ 0x28 
    /*00000134*/ CMP         R2, #123                    @ 0x7b 
    /*00000138*/ CMPNE       R1, #1 
    /*0000013c*/ BHI         _ZNSt8__detail8_ScannerIcE14_M_scan_normalEv_x178
    /*00000140*/ ADD         R2, R3, #1 
    /*00000144*/ STR         R2, [R4, #148]              @ 0x94 
    /*00000148*/ LDRB        R5, [R3] 
    /*0000014c*/ CMP         R5, #40                     @ 0x28 
    /*00000150*/ BNE         _ZNSt8__detail8_ScannerIcE14_M_scan_normalEv_x68
    _ZNSt8__detail8_ScannerIcE14_M_scan_normalEv_x154:
    /*00000154*/ LDR         R2, [R4, #128]              @ 0x80 
    /*00000158*/ TST         R2, #16 
    /*0000015c*/ BNE         _ZNSt8__detail8_ScannerIcE14_M_scan_normalEv_x1a0
    _ZNSt8__detail8_ScannerIcE14_M_scan_normalEv_x160:
    /*00000160*/ TST         R2, #2 
    /*00000164*/ MOVNE       R3, #6 
    /*00000168*/ STRNE       R3, [R4, #132]              @ 0x84 
    /*0000016c*/ MOVEQ       R3, #5 
    /*00000170*/ STREQ       R3, [R4, #132]              @ 0x84 
    /*00000174*/ B           _ZNSt8__detail8_ScannerIcE14_M_scan_normalEv_xdc
    _ZNSt8__detail8_ScannerIcE14_M_scan_normalEv_x178:
    /*00000178*/ LDR         R0, [R4, #188]              @ 0xbc 
    /*0000017c*/ TST         R0, #1 
    /*00000180*/ BEQ         _ZNSt8__detail8_ScannerIcE14_M_scan_normalEv_x210
    /*00000184*/ LDR         R2, [R4, R0, ASR #1] 
    /*00000188*/ LDR         R3, [R4, #184]              @ 0xb8 
    /*0000018c*/ ADD         R0, R4, R0, ASR #1 
    /*00000190*/ LDR         R3, [R2, R3] 
    _ZNSt8__detail8_ScannerIcE14_M_scan_normalEv_x194:
    /*00000194*/ ADD         SP, SP, #8 
    /*00000198*/ POP         {R4, R5, R6, R7, R8, R9, SL, LR} 
    /*0000019c*/ BX          R3 
    _ZNSt8__detail8_ScannerIcE14_M_scan_normalEv_x1a0:
    /*000001a0*/ LDR         R3, [R4, #148]              @ 0x94 
    /*000001a4*/ LDRB        R1, [R3] 
    /*000001a8*/ CMP         R1, #63                     @ 0x3f 
    /*000001ac*/ BNE         _ZNSt8__detail8_ScannerIcE14_M_scan_normalEv_x160
    /*000001b0*/ LDR         R1, [R4, #152]              @ 0x98 
    /*000001b4*/ ADD         R2, R3, #1 
    /*000001b8*/ STR         R2, [R4, #148]              @ 0x94 
    /*000001bc*/ CMP         R2, R1 
    /*000001c0*/ BEQ         _ZNSt8__detail8_ScannerIcE14_M_scan_normalEv_x37c
    /*000001c4*/ LDRB        R2, [R3, #1] 
    /*000001c8*/ CMP         R2, #58                     @ 0x3a 
    /*000001cc*/ BEQ         _ZNSt8__detail8_ScannerIcE14_M_scan_normalEv_x32c
    /*000001d0*/ CMP         R2, #61                     @ 0x3d 
    /*000001d4*/ BEQ         _ZNSt8__detail8_ScannerIcE14_M_scan_normalEv_x340
    /*000001d8*/ CMP         R2, #33                     @ 0x21 
    /*000001dc*/ BNE         _ZNSt8__detail8_ScannerIcE14_M_scan_normalEv_x35c
    /*000001e0*/ LDR         R2, [R4, #164]              @ 0xa4 
    /*000001e4*/ ADD         R3, R3, #2 
    /*000001e8*/ STR         R3, [R4, #148]              @ 0x94 
    /*000001ec*/ MOV         R3, #7 
    /*000001f0*/ STR         R3, [R4, #132]              @ 0x84 
    /*000001f4*/ MOV         R3, #110                    @ 0x6e 
    _ZNSt8__detail8_ScannerIcE14_M_scan_normalEv_x1f8:
    /*000001f8*/ STR         R3, [SP] 
    /*000001fc*/ ADD         R0, R4, #160                @ 0xa0 
    /*00000200*/ MOV         R3, #1 
    /*00000204*/ MOV         R1, #0 
    /*00000208*/ BL          _ZNSt7__cxx1112basic_stringIcSt11char_traitsIcESaIcEE14_M_replace_auxEjjjc
    /*0000020c*/ B           _ZNSt8__detail8_ScannerIcE14_M_scan_normalEv_xdc
    _ZNSt8__detail8_ScannerIcE14_M_scan_normalEv_x210:
    /*00000210*/ ADD         R0, R4, R0, ASR #1 
    /*00000214*/ LDR         R3, [R4, #184]              @ 0xb8 
    /*00000218*/ B           _ZNSt8__detail8_ScannerIcE14_M_scan_normalEv_x194
    _ZNSt8__detail8_ScannerIcE14_M_scan_normalEv_x21c:
    /*0000021c*/ LDR         R2, [R4, #164]              @ 0xa4 
    /*00000220*/ MOV         R1, #1 
    /*00000224*/ STR         R5, [SP] 
    /*00000228*/ MOV         R3, R1 
    /*0000022c*/ STR         R1, [R4, #132]              @ 0x84 
    /*00000230*/ ADD         R0, R4, #160                @ 0xa0 
    /*00000234*/ MOV         R1, #0 
    /*00000238*/ BL          _ZNSt7__cxx1112basic_stringIcSt11char_traitsIcESaIcEE14_M_replace_auxEjjjc
    /*0000023c*/ B           _ZNSt8__detail8_ScannerIcE14_M_scan_normalEv_xdc
    _ZNSt8__detail8_ScannerIcE14_M_scan_normalEv_x240:
    /*00000240*/ LDR         R3, [R4, #148]              @ 0x94 
    /*00000244*/ MOV         R0, #2 
    /*00000248*/ LDR         R1, [R4, #152]              @ 0x98 
    /*0000024c*/ MOV         R2, #1 
    /*00000250*/ STR         R0, [R4, #124]              @ 0x7c 
    /*00000254*/ CMP         R3, R1 
    /*00000258*/ STRB        R2, [R4, #144]              @ 0x90 
    /*0000025c*/ BEQ         _ZNSt8__detail8_ScannerIcE14_M_scan_normalEv_x26c
    /*00000260*/ LDRB        R2, [R3] 
    /*00000264*/ CMP         R2, #94                     @ 0x5e 
    /*00000268*/ BEQ         _ZNSt8__detail8_ScannerIcE14_M_scan_normalEv_x318
    _ZNSt8__detail8_ScannerIcE14_M_scan_normalEv_x26c:
    /*0000026c*/ MOV         R3, #9 
    /*00000270*/ STR         R3, [R4, #132]              @ 0x84 
    /*00000274*/ B           _ZNSt8__detail8_ScannerIcE14_M_scan_normalEv_xdc
    _ZNSt8__detail8_ScannerIcE14_M_scan_normalEv_x278:
    /*00000278*/ MOV         R2, #1 
    /*0000027c*/ MOV         R3, #12 
    /*00000280*/ STR         R2, [R4, #124]              @ 0x7c 
    /*00000284*/ STR         R3, [R4, #132]              @ 0x84 
    /*00000288*/ B           _ZNSt8__detail8_ScannerIcE14_M_scan_normalEv_xdc
    _ZNSt8__detail8_ScannerIcE14_M_scan_normalEv_x28c:
    /*0000028c*/ MOV         R1, R5 
    /*00000290*/ MOV         R2, #32 
    /*00000294*/ BLX         R9 
    /*00000298*/ MOV         R1, R0 
    /*0000029c*/ B           _ZNSt8__detail8_ScannerIcE14_M_scan_normalEv_x104
    _ZNSt8__detail8_ScannerIcE14_M_scan_normalEv_x2a0:
    /*000002a0*/ LDR         R1, [R8] 
    /*000002a4*/ LDR         R3, WORD_0390               @ LDR         R3, [PC, #228]              @ 0x0000000000000390 
    /*000002a8*/ LDR         SL, [R1, #32] 
    /*000002ac*/ LDR         R3, [R7, R3] 
    /*000002b0*/ CMP         SL, R3 
    /*000002b4*/ BNE         _ZNSt8__detail8_ScannerIcE14_M_scan_normalEv_x2e4
    _ZNSt8__detail8_ScannerIcE14_M_scan_normalEv_x2b8:
    /*000002b8*/ CMP         R5, #0 
    /*000002bc*/ BNE         _ZNSt8__detail8_ScannerIcE14_M_scan_normalEv_x2d4
    /*000002c0*/ LDRB        R3, [R4] 
    /*000002c4*/ CMP         R3, #0 
    /*000002c8*/ BEQ         _ZNSt8__detail8_ScannerIcE14_M_scan_normalEv_xdc
    /*000002cc*/ MOV         R2, R5 
    /*000002d0*/ B           _ZNSt8__detail8_ScannerIcE14_M_scan_normalEv_xc0
    _ZNSt8__detail8_ScannerIcE14_M_scan_normalEv_x2d4:
    /*000002d4*/ ADD         R8, R8, R9 
    /*000002d8*/ MOV         R2, R5 
    /*000002dc*/ STRB        R5, [R8, #285]              @ 0x11d 
    /*000002e0*/ B           _ZNSt8__detail8_ScannerIcE14_M_scan_normalEv_xb0
    _ZNSt8__detail8_ScannerIcE14_M_scan_normalEv_x2e4:
    /*000002e4*/ MOV         R1, R5 
    /*000002e8*/ MOV         R0, R8 
    /*000002ec*/ BLX         SL 
    /*000002f0*/ MOV         R5, R0 
    /*000002f4*/ B           _ZNSt8__detail8_ScannerIcE14_M_scan_normalEv_x2b8
    _ZNSt8__detail8_ScannerIcE14_M_scan_normalEv_x2f8:
    /*000002f8*/ LDR         R2, [R4, #164]              @ 0xa4 
    /*000002fc*/ MOV         R3, #1 
    /*00000300*/ STR         R5, [SP] 
    /*00000304*/ MOV         R1, R0 
    /*00000308*/ STR         R3, [R4, #132]              @ 0x84 
    /*0000030c*/ ADD         R0, R4, #160                @ 0xa0 
    /*00000310*/ BL          _ZNSt7__cxx1112basic_stringIcSt11char_traitsIcESaIcEE14_M_replace_auxEjjjc
    /*00000314*/ B           _ZNSt8__detail8_ScannerIcE14_M_scan_normalEv_xdc
    _ZNSt8__detail8_ScannerIcE14_M_scan_normalEv_x318:
    /*00000318*/ ADD         R3, R3, #1 
    /*0000031c*/ MOV         R2, #10 
    /*00000320*/ STR         R3, [R4, #148]              @ 0x94 
    /*00000324*/ STR         R2, [R4, #132]              @ 0x84 
    /*00000328*/ B           _ZNSt8__detail8_ScannerIcE14_M_scan_normalEv_xdc
    _ZNSt8__detail8_ScannerIcE14_M_scan_normalEv_x32c:
    /*0000032c*/ ADD         R3, R3, #2 
    /*00000330*/ MOV         R2, #6 
    /*00000334*/ STR         R3, [R4, #148]              @ 0x94 
    /*00000338*/ STR         R2, [R4, #132]              @ 0x84 
    /*0000033c*/ B           _ZNSt8__detail8_ScannerIcE14_M_scan_normalEv_xdc
    _ZNSt8__detail8_ScannerIcE14_M_scan_normalEv_x340:
    /*00000340*/ LDR         R2, [R4, #164]              @ 0xa4 
    /*00000344*/ ADD         R3, R3, #2 
    /*00000348*/ STR         R3, [R4, #148]              @ 0x94 
    /*0000034c*/ MOV         R3, #7 
    /*00000350*/ STR         R3, [R4, #132]              @ 0x84 
    /*00000354*/ MOV         R3, #112                    @ 0x70 
    /*00000358*/ B           _ZNSt8__detail8_ScannerIcE14_M_scan_normalEv_x1f8
    _ZNSt8__detail8_ScannerIcE14_M_scan_normalEv_x35c:
    /*0000035c*/ LDR         R1, WORD_0394               @ LDR         R1, [PC, #48]               @ 0x0000000000000394 
    /*00000360*/ MOV         R0, #5 
    /*00000364*/ ADD         R1, PC, R1 
    /*00000368*/ BL          _ZSt19__throw_regex_errorNSt15regex_constants10error_typeEPKc
    _ZNSt8__detail8_ScannerIcE14_M_scan_normalEv_x36c:
    /*0000036c*/ LDR         R1, WORD_0398               @ LDR         R1, [PC, #36]               @ 0x0000000000000398 
    /*00000370*/ MOV         R0, #2 
    /*00000374*/ ADD         R1, PC, R1 
    /*00000378*/ BL          _ZSt19__throw_regex_errorNSt15regex_constants10error_typeEPKc
    _ZNSt8__detail8_ScannerIcE14_M_scan_normalEv_x37c:
    /*0000037c*/ LDR         R1, WORD_039c               @ LDR         R1, [PC, #24]               @ 0x000000000000039c 
    /*00000380*/ MOV         R0, #5 
    /*00000384*/ ADD         R1, PC, R1 
    /*00000388*/ BL          _ZSt19__throw_regex_errorNSt15regex_constants10error_typeEPKc
    /*0000038c*/ WORD_038c: .word 0x00000354
    /*00000390*/ WORD_0390: .word 0x00000000
    /*00000394*/ WORD_0394: .word 0x00000028
    /*00000398*/ WORD_0398: .word 0x0000001c
    /*0000039c*/ WORD_039c: .word 0x00000010
FUNC_END _ZNSt8__detail8_ScannerIcE14_M_scan_normalEv


@ - - - - - - - - - - - - - - - - - - - - - - - - - - - - - 
@ .text._ZNSt8__detail8_ScannerIcE16_M_scan_in_braceEv
@ Size: 0x1dc
@ - - - - - - - - - - - - - - - - - - - - - - - - - - - - - 

FUNC_BEGIN _ZNSt8__detail8_ScannerIcE16_M_scan_in_braceEv
    /*00000000*/ MOV         IP, #16384                  @ 0x4000 
    /*00000004*/ PUSH        {R4, R5, R6, R7, R8, R9, SL, FP, LR} 
    /*00000008*/ SUB         IP, SP, IP 
    /*0000000c*/ STR         R0, [IP, #4048]             @ 0xfd0 
    /*00000010*/ LDR         R3, [R0, #148]              @ 0x94 
    /*00000014*/ SUB         SP, SP, #12 
    /*00000018*/ LDR         LR, [R0, #152]              @ 0x98 
    /*0000001c*/ CMP         R3, LR 
    /*00000020*/ BEQ         _ZNSt8__detail8_ScannerIcE16_M_scan_in_braceEv_x1c4
    /*00000024*/ LDR         R2, [R0, #156]              @ 0x9c 
    /*00000028*/ ADD         IP, R3, #1 
    /*0000002c*/ STR         IP, [R0, #148]              @ 0x94 
    /*00000030*/ MOV         R4, R0 
    /*00000034*/ LDRB        R1, [R3] 
    /*00000038*/ LDR         R0, [R2, #24] 
    /*0000003c*/ LSL         R2, R1, #1 
    /*00000040*/ LDRH        R2, [R0, R2] 
    /*00000044*/ ANDS        R2, R2, #2048               @ 0x800 
    /*00000048*/ BNE         _ZNSt8__detail8_ScannerIcE16_M_scan_in_braceEv_xc8
    /*0000004c*/ CMP         R1, #44                     @ 0x2c 
    /*00000050*/ MOVEQ       R3, #25 
    /*00000054*/ STREQ       R3, [R4, #132]              @ 0x84 
    /*00000058*/ BEQ         _ZNSt8__detail8_ScannerIcE16_M_scan_in_braceEv_xa4
    /*0000005c*/ LDR         R0, [R4, #128]              @ 0x80 
    /*00000060*/ ANDS        R0, R0, #288                @ 0x120 
    /*00000064*/ BEQ         _ZNSt8__detail8_ScannerIcE16_M_scan_in_braceEv_xac
    /*00000068*/ CMP         LR, IP 
    /*0000006c*/ SUB         R1, R1, #92                 @ 0x5c 
    /*00000070*/ CLZ         R1, R1 
    /*00000074*/ LSR         R1, R1, #5 
    /*00000078*/ MOVEQ       R1, #0 
    /*0000007c*/ CMP         R1, #0 
    /*00000080*/ BEQ         _ZNSt8__detail8_ScannerIcE16_M_scan_in_braceEv_x1b4
    /*00000084*/ LDRB        R1, [R3, #1] 
    /*00000088*/ CMP         R1, #125                    @ 0x7d 
    /*0000008c*/ BNE         _ZNSt8__detail8_ScannerIcE16_M_scan_in_braceEv_x1b4
    /*00000090*/ STR         R2, [R4, #124]              @ 0x7c 
    /*00000094*/ ADD         R3, R3, #2 
    /*00000098*/ STR         R3, [R4, #148]              @ 0x94 
    /*0000009c*/ MOV         R3, #13 
    /*000000a0*/ STR         R3, [R4, #132]              @ 0x84 
    _ZNSt8__detail8_ScannerIcE16_M_scan_in_braceEv_xa4:
    /*000000a4*/ ADD         SP, SP, #12 
    /*000000a8*/ POP         {R4, R5, R6, R7, R8, R9, SL, FP, PC} 
    _ZNSt8__detail8_ScannerIcE16_M_scan_in_braceEv_xac:
    /*000000ac*/ CMP         R1, #125                    @ 0x7d 
    /*000000b0*/ BNE         _ZNSt8__detail8_ScannerIcE16_M_scan_in_braceEv_x1b4
    /*000000b4*/ STR         R0, [R4, #124]              @ 0x7c 
    /*000000b8*/ MOV         R3, #13 
    /*000000bc*/ STR         R3, [R4, #132]              @ 0x84 
    /*000000c0*/ ADD         SP, SP, #12 
    /*000000c4*/ POP         {R4, R5, R6, R7, R8, R9, SL, FP, PC} 
    _ZNSt8__detail8_ScannerIcE16_M_scan_in_braceEv_xc8:
    /*000000c8*/ LDR         R2, [R4, #164]              @ 0xa4 
    /*000000cc*/ MOV         R3, #26 
    /*000000d0*/ STR         R1, [SP] 
    /*000000d4*/ ADD         R8, R4, #160                @ 0xa0 
    /*000000d8*/ STR         R3, [R4, #132]              @ 0x84 
    /*000000dc*/ MOV         R0, R8 
    /*000000e0*/ MOV         R3, #1 
    /*000000e4*/ MOV         R1, #0 
    /*000000e8*/ BL          _ZNSt7__cxx1112basic_stringIcSt11char_traitsIcESaIcEE14_M_replace_auxEjjjc
    /*000000ec*/ LDR         R3, [R4, #148]              @ 0x94 
    /*000000f0*/ LDR         R2, [R4, #152]              @ 0x98 
    /*000000f4*/ CMP         R3, R2 
    /*000000f8*/ BEQ         _ZNSt8__detail8_ScannerIcE16_M_scan_in_braceEv_xa4
    /*000000fc*/ LDR         R1, [R4, #156]              @ 0x9c 
    /*00000100*/ LDRB        R2, [R3] 
    /*00000104*/ LDR         R1, [R1, #24] 
    /*00000108*/ LSL         R2, R2, #1 
    /*0000010c*/ LDRH        R2, [R1, R2] 
    /*00000110*/ TST         R2, #2048                   @ 0x800 
    /*00000114*/ BEQ         _ZNSt8__detail8_ScannerIcE16_M_scan_in_braceEv_xa4
    /*00000118*/ ADD         R7, R4, #168                @ 0xa8 
    /*0000011c*/ MOV         R9, #1 
    /*00000120*/ MOV         R6, #0 
    _ZNSt8__detail8_ScannerIcE16_M_scan_in_braceEv_x124:
    /*00000124*/ LDR         R2, [R4, #160]              @ 0xa0 
    /*00000128*/ ADD         R1, R3, #1 
    /*0000012c*/ LDR         SL, [R4, #164]              @ 0xa4 
    /*00000130*/ CMP         R2, R7 
    /*00000134*/ STR         R1, [R4, #148]              @ 0x94 
    /*00000138*/ ADD         R5, SL, #1 
    /*0000013c*/ LDRB        FP, [R3] 
    /*00000140*/ LDRNE       R3, [R4, #168]              @ 0xa8 
    /*00000144*/ BEQ         _ZNSt8__detail8_ScannerIcE16_M_scan_in_braceEv_x1ac
    _ZNSt8__detail8_ScannerIcE16_M_scan_in_braceEv_x148:
    /*00000148*/ CMP         R5, R3 
    /*0000014c*/ BLS         _ZNSt8__detail8_ScannerIcE16_M_scan_in_braceEv_x16c
    /*00000150*/ STR         R9, [SP] 
    /*00000154*/ MOV         R3, #0 
    /*00000158*/ MOV         R2, R3 
    /*0000015c*/ MOV         R1, SL 
    /*00000160*/ MOV         R0, R8 
    /*00000164*/ BL          _ZNSt7__cxx1112basic_stringIcSt11char_traitsIcESaIcEE9_M_mutateEjjPKcj
    /*00000168*/ LDR         R2, [R4, #160]              @ 0xa0 
    _ZNSt8__detail8_ScannerIcE16_M_scan_in_braceEv_x16c:
    /*0000016c*/ STRB        FP, [R2, SL] 
    /*00000170*/ LDR         R3, [R4, #160]              @ 0xa0 
    /*00000174*/ STR         R5, [R4, #164]              @ 0xa4 
    /*00000178*/ STRB        R6, [R3, R5] 
    /*0000017c*/ LDR         R3, [R4, #148]              @ 0x94 
    /*00000180*/ LDR         R2, [R4, #152]              @ 0x98 
    /*00000184*/ CMP         R3, R2 
    /*00000188*/ BEQ         _ZNSt8__detail8_ScannerIcE16_M_scan_in_braceEv_xa4
    /*0000018c*/ LDR         R1, [R4, #156]              @ 0x9c 
    /*00000190*/ LDRB        R2, [R3] 
    /*00000194*/ LDR         R1, [R1, #24] 
    /*00000198*/ LSL         R2, R2, #1 
    /*0000019c*/ LDRH        R2, [R1, R2] 
    /*000001a0*/ TST         R2, #2048                   @ 0x800 
    /*000001a4*/ BNE         _ZNSt8__detail8_ScannerIcE16_M_scan_in_braceEv_x124
    /*000001a8*/ B           _ZNSt8__detail8_ScannerIcE16_M_scan_in_braceEv_xa4
    _ZNSt8__detail8_ScannerIcE16_M_scan_in_braceEv_x1ac:
    /*000001ac*/ MOV         R3, #15 
    /*000001b0*/ B           _ZNSt8__detail8_ScannerIcE16_M_scan_in_braceEv_x148
    _ZNSt8__detail8_ScannerIcE16_M_scan_in_braceEv_x1b4:
    /*000001b4*/ LDR         R1, WORD_01d4               @ LDR         R1, [PC, #24]               @ 0x00000000000001d4 
    /*000001b8*/ MOV         R0, #7 
    /*000001bc*/ ADD         R1, PC, R1 
    /*000001c0*/ BL          _ZSt19__throw_regex_errorNSt15regex_constants10error_typeEPKc
    _ZNSt8__detail8_ScannerIcE16_M_scan_in_braceEv_x1c4:
    /*000001c4*/ LDR         R1, WORD_01d8               @ LDR         R1, [PC, #12]               @ 0x00000000000001d8 
    /*000001c8*/ MOV         R0, #6 
    /*000001cc*/ ADD         R1, PC, R1 
    /*000001d0*/ BL          _ZSt19__throw_regex_errorNSt15regex_constants10error_typeEPKc
    /*000001d4*/ WORD_01d4: .word 0x00000010
    /*000001d8*/ WORD_01d8: .word 0x00000004
FUNC_END _ZNSt8__detail8_ScannerIcE16_M_scan_in_braceEv


@ - - - - - - - - - - - - - - - - - - - - - - - - - - - - - 
@ .text._ZNSt11_Deque_baseINSt8__detail9_StateSeqINSt7__cxx1112regex_traitsIcEEEESaIS5_EE17_M_initialize_mapEj
@ Size: 0x12c
@ - - - - - - - - - - - - - - - - - - - - - - - - - - - - - 

FUNC_BEGIN _ZNSt11_Deque_baseINSt8__detail9_StateSeqINSt7__cxx1112regex_traitsIcEEEESaIS5_EE17_M_initialize_mapEj
    /*00000000*/ MOV         IP, #16384                  @ 0x4000 
    /*00000004*/ PUSH        {R3, R4, R5, R6, R7, R8, R9, SL, FP, LR} 
    /*00000008*/ SUB         IP, SP, IP 
    /*0000000c*/ STR         R0, [IP, #4056]             @ 0xfd8 
    /*00000010*/ MOVW        R3, #3121                   @ 0xc31 
    /*00000014*/ MOV         R6, R0 
    /*00000018*/ MOVT        R3, #12483                  @ 0x30c3 
    /*0000001c*/ MOV         SL, R1 
    /*00000020*/ LSR         R7, R1, #1 
    /*00000024*/ UMULL       R3, R5, R3, R7 
    /*00000028*/ LSR         R5, R5, #2 
    /*0000002c*/ ADD         R0, R5, #3 
    /*00000030*/ ADD         R5, R5, #1 
    /*00000034*/ CMP         R0, #8 
    /*00000038*/ MOVCC       R0, #8 
    /*0000003c*/ STR         R0, [R6, #4] 
    /*00000040*/ LSL         R0, R0, #2 
    /*00000044*/ BL          _Znwj
    /*00000048*/ LDR         R9, [R6, #4] 
    /*0000004c*/ MOV         FP, R0 
    /*00000050*/ STR         R0, [R6] 
    /*00000054*/ SUB         R9, R9, R5 
    /*00000058*/ LSR         R9, R9, #1 
    /*0000005c*/ ADD         R8, R0, R9, LSL #2 
    /*00000060*/ ADD         R5, R8, R5, LSL #2 
    /*00000064*/ CMP         R8, R5 
    /*00000068*/ BCS         _ZNSt11_Deque_baseINSt8__detail9_StateSeqINSt7__cxx1112regex_traitsIcEEEESaIS5_EE17_M_initialize_mapEj_x84
    /*0000006c*/ MOV         R4, R8 
    _ZNSt11_Deque_baseINSt8__detail9_StateSeqINSt7__cxx1112regex_traitsIcEEEESaIS5_EE17_M_initialize_mapEj_x70:
    /*00000070*/ MOV         R0, #504                    @ 0x1f8 
    /*00000074*/ BL          _Znwj
    /*00000078*/ STR         R0, [R4], #4 
    /*0000007c*/ CMP         R5, R4 
    /*00000080*/ BHI         _ZNSt11_Deque_baseINSt8__detail9_StateSeqINSt7__cxx1112regex_traitsIcEEEESaIS5_EE17_M_initialize_mapEj_x70
    _ZNSt11_Deque_baseINSt8__detail9_StateSeqINSt7__cxx1112regex_traitsIcEEEESaIS5_EE17_M_initialize_mapEj_x84:
    /*00000084*/ LDR         R1, [R5, #-4] 
    /*00000088*/ MOVW        R3, #3121                   @ 0xc31 
    /*0000008c*/ MOVT        R3, #12483                  @ 0x30c3 
    /*00000090*/ MOV         R0, #42                     @ 0x2a 
    /*00000094*/ UMULL       R2, R3, R3, R7 
    /*00000098*/ LDR         R2, [FP, R9, LSL #2] 
    /*0000009c*/ SUB         R5, R5, #4 
    /*000000a0*/ LSR         R3, R3, #2 
    /*000000a4*/ MLS         R3, R0, R3, SL 
    /*000000a8*/ STR         R2, [R6, #12] 
    /*000000ac*/ MOV         R0, #12 
    /*000000b0*/ MLA         R3, R0, R3, R1 
    /*000000b4*/ STR         R2, [R6, #8] 
    /*000000b8*/ ADD         R2, R2, #504                @ 0x1f8 
    /*000000bc*/ STR         R2, [R6, #16] 
    /*000000c0*/ ADD         R2, R1, #504                @ 0x1f8 
    /*000000c4*/ STR         R8, [R6, #20] 
    /*000000c8*/ STR         R1, [R6, #28] 
    /*000000cc*/ STR         R5, [R6, #36]               @ 0x24 
    /*000000d0*/ STR         R3, [R6, #24] 
    /*000000d4*/ STR         R2, [R6, #32] 
    /*000000d8*/ POP         {R3, R4, R5, R6, R7, R8, R9, SL, FP, PC} 
    /*000000dc*/ BL          __cxa_begin_catch
    /*000000e0*/ CMP         R8, R4 
    /*000000e4*/ BCS         _ZNSt11_Deque_baseINSt8__detail9_StateSeqINSt7__cxx1112regex_traitsIcEEEESaIS5_EE17_M_initialize_mapEj_xf8
    _ZNSt11_Deque_baseINSt8__detail9_StateSeqINSt7__cxx1112regex_traitsIcEEEESaIS5_EE17_M_initialize_mapEj_xe8:
    /*000000e8*/ LDR         R0, [R8], #4 
    /*000000ec*/ BL          _ZdlPv
    /*000000f0*/ CMP         R8, R4 
    /*000000f4*/ BCC         _ZNSt11_Deque_baseINSt8__detail9_StateSeqINSt7__cxx1112regex_traitsIcEEEESaIS5_EE17_M_initialize_mapEj_xe8
    _ZNSt11_Deque_baseINSt8__detail9_StateSeqINSt7__cxx1112regex_traitsIcEEEESaIS5_EE17_M_initialize_mapEj_xf8:
    /*000000f8*/ BL          __cxa_rethrow
    /*000000fc*/ MOV         R4, R0 
    /*00000100*/ BL          __cxa_end_catch
    /*00000104*/ MOV         R0, R4 
    /*00000108*/ BL          __cxa_begin_catch
    /*0000010c*/ LDR         R0, [R6] 
    /*00000110*/ BL          _ZdlPv
    /*00000114*/ MOV         R3, #0 
    /*00000118*/ STR         R3, [R6] 
    /*0000011c*/ STR         R3, [R6, #4] 
    /*00000120*/ BL          __cxa_rethrow
    /*00000124*/ BL          __cxa_end_catch
    /*00000128*/ BL          __cxa_end_cleanup
FUNC_END _ZNSt11_Deque_baseINSt8__detail9_StateSeqINSt7__cxx1112regex_traitsIcEEEESaIS5_EE17_M_initialize_mapEj


@ - - - - - - - - - - - - - - - - - - - - - - - - - - - - - 
@ .ARM.extab.text._ZNSt11_Deque_baseINSt8__detail9_StateSeqINSt7__cxx1112regex_traitsIcEEEESaIS5_EE17_M_initialize_mapEj
@ Size: 0x30
@ - - - - - - - - - - - - - - - - - - - - - - - - - - - - - 

@ - - - - - - - - - - - - - - - - - - - - - - - - - - - - - 
@ .text._ZNSt6vectorIjSaIjEE19_M_emplace_back_auxIJRKjEEEvDpOT_
@ Size: 0xd4
@ - - - - - - - - - - - - - - - - - - - - - - - - - - - - - 

FUNC_BEGIN _ZNSt6vectorIjSaIjEE19_M_emplace_back_auxIJRKjEEEvDpOT_
    /*00000000*/ MOV         IP, #16384                  @ 0x4000 
    /*00000004*/ PUSH        {R4, R5, R6, R7, R8, R9, SL, LR} 
    /*00000008*/ SUB         IP, SP, IP 
    /*0000000c*/ STR         R0, [IP, #4064]             @ 0xfe0 
    /*00000010*/ LDM         R0, {R2, R3} 
    /*00000014*/ MOV         R6, R0 
    /*00000018*/ MOV         R9, R1 
    /*0000001c*/ SUB         R3, R3, R2 
    /*00000020*/ ASRS        R3, R3, #2 
    /*00000024*/ BEQ         _ZNSt6vectorIjSaIjEE19_M_emplace_back_auxIJRKjEEEvDpOT__x3c
    /*00000028*/ LSL         R5, R3, #1 
    /*0000002c*/ CMP         R3, R5 
    /*00000030*/ BLS         _ZNSt6vectorIjSaIjEE19_M_emplace_back_auxIJRKjEEEvDpOT__xb8
    _ZNSt6vectorIjSaIjEE19_M_emplace_back_auxIJRKjEEEvDpOT__x34:
    /*00000034*/ MVN         R5, #3 
    /*00000038*/ B           _ZNSt6vectorIjSaIjEE19_M_emplace_back_auxIJRKjEEEvDpOT__x40
    _ZNSt6vectorIjSaIjEE19_M_emplace_back_auxIJRKjEEEvDpOT__x3c:
    /*0000003c*/ MOV         R5, #4 
    _ZNSt6vectorIjSaIjEE19_M_emplace_back_auxIJRKjEEEvDpOT__x40:
    /*00000040*/ MOV         R0, R5 
    /*00000044*/ BL          _Znwj
    /*00000048*/ MOV         R7, R0 
    _ZNSt6vectorIjSaIjEE19_M_emplace_back_auxIJRKjEEEvDpOT__x4c:
    /*0000004c*/ LDR         R8, [R6] 
    /*00000050*/ LDR         R4, [R6, #4] 
    /*00000054*/ LDR         R2, [R9] 
    /*00000058*/ SUB         R4, R4, R8 
    /*0000005c*/ CMN         R7, R4 
    /*00000060*/ ASR         R3, R4, #2 
    /*00000064*/ STRNE       R2, [R7, R4] 
    /*00000068*/ CMP         R3, #0 
    /*0000006c*/ BNE         _ZNSt6vectorIjSaIjEE19_M_emplace_back_auxIJRKjEEEvDpOT__x9c
    /*00000070*/ CMP         R8, #0 
    /*00000074*/ ADD         R4, R4, #4 
    /*00000078*/ ADD         R4, R7, R4 
    /*0000007c*/ BEQ         _ZNSt6vectorIjSaIjEE19_M_emplace_back_auxIJRKjEEEvDpOT__x88
    _ZNSt6vectorIjSaIjEE19_M_emplace_back_auxIJRKjEEEvDpOT__x80:
    /*00000080*/ MOV         R0, R8 
    /*00000084*/ BL          _ZdlPv
    _ZNSt6vectorIjSaIjEE19_M_emplace_back_auxIJRKjEEEvDpOT__x88:
    /*00000088*/ ADD         R5, R7, R5 
    /*0000008c*/ STR         R5, [R6, #8] 
    /*00000090*/ STR         R7, [R6] 
    /*00000094*/ STR         R4, [R6, #4] 
    /*00000098*/ POP         {R4, R5, R6, R7, R8, R9, SL, PC} 
    _ZNSt6vectorIjSaIjEE19_M_emplace_back_auxIJRKjEEEvDpOT__x9c:
    /*0000009c*/ MOV         R2, R4 
    /*000000a0*/ MOV         R1, R8 
    /*000000a4*/ MOV         R0, R7 
    /*000000a8*/ ADD         R4, R4, #4 
    /*000000ac*/ ADD         R4, R7, R4 
    /*000000b0*/ BL          memmove
    /*000000b4*/ B           _ZNSt6vectorIjSaIjEE19_M_emplace_back_auxIJRKjEEEvDpOT__x80
    _ZNSt6vectorIjSaIjEE19_M_emplace_back_auxIJRKjEEEvDpOT__xb8:
    /*000000b8*/ CMN         R5, #-1073741823            @ 0xc0000001 
    /*000000bc*/ BHI         _ZNSt6vectorIjSaIjEE19_M_emplace_back_auxIJRKjEEEvDpOT__x34
    /*000000c0*/ CMP         R5, #0 
    /*000000c4*/ LSLNE       R5, R3, #3 
    /*000000c8*/ BNE         _ZNSt6vectorIjSaIjEE19_M_emplace_back_auxIJRKjEEEvDpOT__x40
    /*000000cc*/ MOV         R7, R5 
    /*000000d0*/ B           _ZNSt6vectorIjSaIjEE19_M_emplace_back_auxIJRKjEEEvDpOT__x4c
FUNC_END _ZNSt6vectorIjSaIjEE19_M_emplace_back_auxIJRKjEEEvDpOT_


@ - - - - - - - - - - - - - - - - - - - - - - - - - - - - - 
@ .text._ZNKSt7__cxx1112regex_traitsIcE9transformIN9__gnu_cxx17__normal_iteratorIPKcNS_12basic_stringIcSt11char_traitsIcESaIcEEEEEEESB_T_SD_
@ Size: 0xcc
@ - - - - - - - - - - - - - - - - - - - - - - - - - - - - - 

FUNC_BEGIN _ZNKSt7__cxx1112regex_traitsIcE9transformIN9__gnu_cxx17__normal_iteratorIPKcNS_12basic_stringIcSt11char_traitsIcESaIcEEEEEEESB_T_SD_
    /*00000000*/ MOV         IP, #16384                  @ 0x4000 
    /*00000004*/ PUSH        {R4, R5, R6, R7, R8, R9, LR} 
    /*00000008*/ SUB         IP, SP, IP 
    /*0000000c*/ STR         R0, [IP, #4032]             @ 0xfc0 
    /*00000010*/ LDR         IP, WORD_00c4               @ LDR         IP, [PC, #172]              @ 0x00000000000000c4 
    /*00000014*/ SUB         SP, SP, #36                 @ 0x24 
    /*00000018*/ LDR         LR, WORD_00c8               @ LDR         LR, [PC, #168]              @ 0x00000000000000c8 
    /*0000001c*/ MOV         R8, R2 
    /*00000020*/ ADD         IP, PC, IP 
    /*00000024*/ MOV         R6, R0 
    /*00000028*/ MOV         R0, R1 
    /*0000002c*/ MOV         R9, R3 
    /*00000030*/ LDR         R5, [IP, LR] 
    /*00000034*/ ADD         R4, SP, #12 
    /*00000038*/ LDR         R2, [R5] 
    /*0000003c*/ STR         R2, [SP, #28] 
    /*00000040*/ BL          _ZSt9use_facetINSt7__cxx117collateIcEEERKT_RKSt6locale
    /*00000044*/ STR         R4, [SP, #4] 
    /*00000048*/ MOV         R7, R0 
    /*0000004c*/ MOV         R2, R9 
    /*00000050*/ ADD         R0, SP, #4 
    /*00000054*/ MOV         R1, R8 
    /*00000058*/ BL          _ZNSt7__cxx1112basic_stringIcSt11char_traitsIcESaIcEE12_M_constructIN9__gnu_cxx17__normal_iteratorIPKcS4_EEEEvT_SB_St20forward_iterator_tag.isra.132
    /*0000005c*/ LDR         R2, [R7] 
    /*00000060*/ MOV         R1, R7 
    /*00000064*/ LDR         R3, [SP, #4] 
    /*00000068*/ MOV         R0, R6 
    /*0000006c*/ LDR         IP, [SP, #8] 
    /*00000070*/ LDR         R7, [R2, #12] 
    /*00000074*/ MOV         R2, R3 
    /*00000078*/ ADD         R3, R3, IP 
    /*0000007c*/ BLX         R7 
    /*00000080*/ LDR         R0, [SP, #4] 
    /*00000084*/ CMP         R0, R4 
    /*00000088*/ BEQ         _ZNKSt7__cxx1112regex_traitsIcE9transformIN9__gnu_cxx17__normal_iteratorIPKcNS_12basic_stringIcSt11char_traitsIcESaIcEEEEEEESB_T_SD__x90
    /*0000008c*/ BL          _ZdlPv
    _ZNKSt7__cxx1112regex_traitsIcE9transformIN9__gnu_cxx17__normal_iteratorIPKcNS_12basic_stringIcSt11char_traitsIcESaIcEEEEEEESB_T_SD__x90:
    /*00000090*/ LDR         R2, [SP, #28] 
    /*00000094*/ MOV         R0, R6 
    /*00000098*/ LDR         R3, [R5] 
    /*0000009c*/ CMP         R2, R3 
    /*000000a0*/ BNE         _ZNKSt7__cxx1112regex_traitsIcE9transformIN9__gnu_cxx17__normal_iteratorIPKcNS_12basic_stringIcSt11char_traitsIcESaIcEEEEEEESB_T_SD__xac
    /*000000a4*/ ADD         SP, SP, #36                 @ 0x24 
    /*000000a8*/ POP         {R4, R5, R6, R7, R8, R9, PC} 
    _ZNKSt7__cxx1112regex_traitsIcE9transformIN9__gnu_cxx17__normal_iteratorIPKcNS_12basic_stringIcSt11char_traitsIcESaIcEEEEEEESB_T_SD__xac:
    /*000000ac*/ BL          __stack_chk_fail
    /*000000b0*/ LDR         R0, [SP, #4] 
    /*000000b4*/ CMP         R0, R4 
    /*000000b8*/ BEQ         _ZNKSt7__cxx1112regex_traitsIcE9transformIN9__gnu_cxx17__normal_iteratorIPKcNS_12basic_stringIcSt11char_traitsIcESaIcEEEEEEESB_T_SD__xc0
    /*000000bc*/ BL          _ZdlPv
    _ZNKSt7__cxx1112regex_traitsIcE9transformIN9__gnu_cxx17__normal_iteratorIPKcNS_12basic_stringIcSt11char_traitsIcESaIcEEEEEEESB_T_SD__xc0:
    /*000000c0*/ BL          __cxa_end_cleanup
    /*000000c4*/ WORD_00c4: .word 0x0000009c
    /*000000c8*/ WORD_00c8: .word 0x00000000
FUNC_END _ZNKSt7__cxx1112regex_traitsIcE9transformIN9__gnu_cxx17__normal_iteratorIPKcNS_12basic_stringIcSt11char_traitsIcESaIcEEEEEEESB_T_SD_


@ - - - - - - - - - - - - - - - - - - - - - - - - - - - - - 
@ .ARM.extab.text._ZNKSt7__cxx1112regex_traitsIcE9transformIN9__gnu_cxx17__normal_iteratorIPKcNS_12basic_stringIcSt11char_traitsIcESaIcEEEEEEESB_T_SD_
@ Size: 0x1a
@ - - - - - - - - - - - - - - - - - - - - - - - - - - - - - 

@ - - - - - - - - - - - - - - - - - - - - - - - - - - - - - 
@ .text._ZSteqIcEN9__gnu_cxx11__enable_ifIXsrSt9__is_charIT_E7__valueEbE6__typeERKNSt7__cxx1112basic_stringIS3_St11char_traitsIS3_ESaIS3_EEESE_
@ Size: 0x50
@ - - - - - - - - - - - - - - - - - - - - - - - - - - - - - 

FUNC_BEGIN _ZSteqIcEN9__gnu_cxx11__enable_ifIXsrSt9__is_charIT_E7__valueEbE6__typeERKNSt7__cxx1112basic_stringIS3_St11char_traitsIS3_ESaIS3_EEESE_
    /*00000000*/ LDR         R2, [R0, #4] 
    /*00000004*/ LDR         R3, [R1, #4] 
    /*00000008*/ CMP         R2, R3 
    /*0000000c*/ BEQ         _ZSteqIcEN9__gnu_cxx11__enable_ifIXsrSt9__is_charIT_E7__valueEbE6__typeERKNSt7__cxx1112basic_stringIS3_St11char_traitsIS3_ESaIS3_EEESE__x18
    /*00000010*/ MOV         R0, #0 
    /*00000014*/ BX          LR 
    _ZSteqIcEN9__gnu_cxx11__enable_ifIXsrSt9__is_charIT_E7__valueEbE6__typeERKNSt7__cxx1112basic_stringIS3_St11char_traitsIS3_ESaIS3_EEESE__x18:
    /*00000018*/ CMP         R2, #0 
    /*0000001c*/ BNE         _ZSteqIcEN9__gnu_cxx11__enable_ifIXsrSt9__is_charIT_E7__valueEbE6__typeERKNSt7__cxx1112basic_stringIS3_St11char_traitsIS3_ESaIS3_EEESE__x28
    /*00000020*/ MOV         R0, #1 
    /*00000024*/ BX          LR 
    _ZSteqIcEN9__gnu_cxx11__enable_ifIXsrSt9__is_charIT_E7__valueEbE6__typeERKNSt7__cxx1112basic_stringIS3_St11char_traitsIS3_ESaIS3_EEESE__x28:
    /*00000028*/ MOV         IP, #16384                  @ 0x4000 
    /*0000002c*/ PUSH        {R4, LR} 
    /*00000030*/ SUB         IP, SP, IP 
    /*00000034*/ STR         R0, [IP, #4088]             @ 0xff8 
    /*00000038*/ LDR         R1, [R1] 
    /*0000003c*/ LDR         R0, [R0] 
    /*00000040*/ BL          memcmp
    /*00000044*/ CLZ         R0, R0 
    /*00000048*/ LSR         R0, R0, #5 
    /*0000004c*/ POP         {R4, PC} 
FUNC_END _ZSteqIcEN9__gnu_cxx11__enable_ifIXsrSt9__is_charIT_E7__valueEbE6__typeERKNSt7__cxx1112basic_stringIS3_St11char_traitsIS3_ESaIS3_EEESE_


@ - - - - - - - - - - - - - - - - - - - - - - - - - - - - - 
@ .text._ZNSt8__detail8_ScannerIcE12_M_eat_classEc
@ Size: 0x140
@ - - - - - - - - - - - - - - - - - - - - - - - - - - - - - 

FUNC_BEGIN _ZNSt8__detail8_ScannerIcE12_M_eat_classEc
    /*00000000*/ MOV         IP, #16384                  @ 0x4000 
    /*00000004*/ PUSH        {R4, R5, R6, R7, R8, R9, SL, FP, LR} 
    /*00000008*/ SUB         IP, SP, IP 
    /*0000000c*/ STR         R0, [IP, #4048]             @ 0xfd0 
    /*00000010*/ LDR         R3, [R0, #160]              @ 0xa0 
    /*00000014*/ MOV         R8, #0 
    /*00000018*/ STR         R8, [R0, #164]              @ 0xa4 
    /*0000001c*/ SUB         SP, SP, #12 
    /*00000020*/ STRB        R8, [R3] 
    /*00000024*/ MOV         R9, R1 
    /*00000028*/ LDR         R3, [R0, #148]              @ 0x94 
    /*0000002c*/ LDR         R2, [R0, #152]              @ 0x98 
    /*00000030*/ CMP         R2, R3 
    /*00000034*/ BEQ         _ZNSt8__detail8_ScannerIcE12_M_eat_classEc_xcc
    /*00000038*/ LDRB        R1, [R3] 
    /*0000003c*/ MOV         R4, R0 
    /*00000040*/ CMP         R1, R9 
    /*00000044*/ BEQ         _ZNSt8__detail8_ScannerIcE12_M_eat_classEc_xe4
    /*00000048*/ ADD         FP, R0, #160                @ 0xa0 
    /*0000004c*/ ADD         SL, R0, #168                @ 0xa8 
    /*00000050*/ B           _ZNSt8__detail8_ScannerIcE12_M_eat_classEc_x60
    _ZNSt8__detail8_ScannerIcE12_M_eat_classEc_x54:
    /*00000054*/ LDRB        R1, [R3] 
    /*00000058*/ CMP         R1, R9 
    /*0000005c*/ BEQ         _ZNSt8__detail8_ScannerIcE12_M_eat_classEc_xe4
    _ZNSt8__detail8_ScannerIcE12_M_eat_classEc_x60:
    /*00000060*/ LDR         R2, [R4, #160]              @ 0xa0 
    /*00000064*/ ADD         R1, R3, #1 
    /*00000068*/ LDR         R6, [R4, #164]              @ 0xa4 
    /*0000006c*/ CMP         R2, SL 
    /*00000070*/ STR         R1, [R4, #148]              @ 0x94 
    /*00000074*/ ADD         R5, R6, #1 
    /*00000078*/ LDRB        R7, [R3] 
    /*0000007c*/ MOVEQ       R3, #15 
    /*00000080*/ LDRNE       R3, [R4, #168]              @ 0xa8 
    /*00000084*/ CMP         R5, R3 
    /*00000088*/ BLS         _ZNSt8__detail8_ScannerIcE12_M_eat_classEc_xac
    /*0000008c*/ MOV         R3, #1 
    /*00000090*/ MOV         R1, R6 
    /*00000094*/ STR         R3, [SP] 
    /*00000098*/ MOV         R3, #0 
    /*0000009c*/ MOV         R2, R3 
    /*000000a0*/ MOV         R0, FP 
    /*000000a4*/ BL          _ZNSt7__cxx1112basic_stringIcSt11char_traitsIcESaIcEE9_M_mutateEjjPKcj
    /*000000a8*/ LDR         R2, [R4, #160]              @ 0xa0 
    _ZNSt8__detail8_ScannerIcE12_M_eat_classEc_xac:
    /*000000ac*/ STRB        R7, [R2, R6] 
    /*000000b0*/ LDR         R3, [R4, #160]              @ 0xa0 
    /*000000b4*/ STR         R5, [R4, #164]              @ 0xa4 
    /*000000b8*/ STRB        R8, [R3, R5] 
    /*000000bc*/ LDR         R3, [R4, #148]              @ 0x94 
    /*000000c0*/ LDR         R2, [R4, #152]              @ 0x98 
    /*000000c4*/ CMP         R3, R2 
    /*000000c8*/ BNE         _ZNSt8__detail8_ScannerIcE12_M_eat_classEc_x54
    _ZNSt8__detail8_ScannerIcE12_M_eat_classEc_xcc:
    /*000000cc*/ CMP         R9, #58                     @ 0x3a 
    /*000000d0*/ BEQ         _ZNSt8__detail8_ScannerIcE12_M_eat_classEc_x128
    /*000000d4*/ LDR         R1, WORD_0138               @ LDR         R1, [PC, #92]               @ 0x0000000000000138 
    /*000000d8*/ MOV         R0, #0 
    /*000000dc*/ ADD         R1, PC, R1 
    /*000000e0*/ BL          _ZSt19__throw_regex_errorNSt15regex_constants10error_typeEPKc
    _ZNSt8__detail8_ScannerIcE12_M_eat_classEc_xe4:
    /*000000e4*/ ADD         R1, R3, #1 
    /*000000e8*/ SUB         R2, R2, R1 
    /*000000ec*/ CLZ         R2, R2 
    /*000000f0*/ STR         R1, [R4, #148]              @ 0x94 
    /*000000f4*/ LSR         R2, R2, #5 
    /*000000f8*/ LDRB        R1, [R3] 
    /*000000fc*/ CMP         R1, R9 
    /*00000100*/ ORRNE       R2, R2, #1 
    /*00000104*/ CMP         R2, #0 
    /*00000108*/ BNE         _ZNSt8__detail8_ScannerIcE12_M_eat_classEc_xcc
    /*0000010c*/ ADD         R2, R3, #2 
    /*00000110*/ STR         R2, [R4, #148]              @ 0x94 
    /*00000114*/ LDRB        R3, [R3, #1] 
    /*00000118*/ CMP         R3, #93                     @ 0x5d 
    /*0000011c*/ BNE         _ZNSt8__detail8_ScannerIcE12_M_eat_classEc_xcc
    /*00000120*/ ADD         SP, SP, #12 
    /*00000124*/ POP         {R4, R5, R6, R7, R8, R9, SL, FP, PC} 
    _ZNSt8__detail8_ScannerIcE12_M_eat_classEc_x128:
    /*00000128*/ LDR         R1, WORD_013c               @ LDR         R1, [PC, #12]               @ 0x000000000000013c 
    /*0000012c*/ MOV         R0, #1 
    /*00000130*/ ADD         R1, PC, R1 
    /*00000134*/ BL          _ZSt19__throw_regex_errorNSt15regex_constants10error_typeEPKc
    /*00000138*/ WORD_0138: .word 0x00000054
    /*0000013c*/ WORD_013c: .word 0x00000004
FUNC_END _ZNSt8__detail8_ScannerIcE12_M_eat_classEc


@ - - - - - - - - - - - - - - - - - - - - - - - - - - - - - 
@ .text._ZNSt8__detail8_ScannerIcE18_M_scan_in_bracketEv
@ Size: 0x180
@ - - - - - - - - - - - - - - - - - - - - - - - - - - - - - 

FUNC_BEGIN _ZNSt8__detail8_ScannerIcE18_M_scan_in_bracketEv
    /*00000000*/ MOV         IP, #16384                  @ 0x4000 
    /*00000004*/ PUSH        {R4, LR} 
    /*00000008*/ SUB         IP, SP, IP 
    /*0000000c*/ STR         R0, [IP, #4080]             @ 0xff0 
    /*00000010*/ LDR         R3, [R0, #148]              @ 0x94 
    /*00000014*/ SUB         SP, SP, #8 
    /*00000018*/ LDR         R2, [R0, #152]              @ 0x98 
    /*0000001c*/ CMP         R3, R2 
    /*00000020*/ BEQ         _ZNSt8__detail8_ScannerIcE18_M_scan_in_bracketEv_x158
    /*00000024*/ ADD         IP, R3, #1 
    /*00000028*/ MOV         R4, R0 
    /*0000002c*/ STR         IP, [R0, #148]              @ 0x94 
    /*00000030*/ LDRB        R1, [R3] 
    /*00000034*/ CMP         R1, #91                     @ 0x5b 
    /*00000038*/ BEQ         _ZNSt8__detail8_ScannerIcE18_M_scan_in_bracketEv_x7c
    /*0000003c*/ CMP         R1, #93                     @ 0x5d 
    /*00000040*/ BEQ         _ZNSt8__detail8_ScannerIcE18_M_scan_in_bracketEv_xcc
    /*00000044*/ CMP         R1, #92                     @ 0x5c 
    /*00000048*/ BEQ         _ZNSt8__detail8_ScannerIcE18_M_scan_in_bracketEv_xf8
    _ZNSt8__detail8_ScannerIcE18_M_scan_in_bracketEv_x4c:
    /*0000004c*/ LDR         R2, [R4, #164]              @ 0xa4 
    /*00000050*/ MOV         R0, #1 
    /*00000054*/ STR         R1, [SP] 
    /*00000058*/ MOV         R3, R0 
    /*0000005c*/ STR         R0, [R4, #132]              @ 0x84 
    /*00000060*/ MOV         R1, #0 
    /*00000064*/ ADD         R0, R4, #160                @ 0xa0 
    /*00000068*/ BL          _ZNSt7__cxx1112basic_stringIcSt11char_traitsIcESaIcEE14_M_replace_auxEjjjc
    /*0000006c*/ MOV         R3, #0 
    /*00000070*/ STRB        R3, [R4, #144]              @ 0x90 
    /*00000074*/ ADD         SP, SP, #8 
    /*00000078*/ POP         {R4, PC} 
    _ZNSt8__detail8_ScannerIcE18_M_scan_in_bracketEv_x7c:
    /*0000007c*/ CMP         R2, IP 
    /*00000080*/ BEQ         _ZNSt8__detail8_ScannerIcE18_M_scan_in_bracketEv_x168
    /*00000084*/ LDRB        R2, [R3, #1] 
    /*00000088*/ CMP         R2, #46                     @ 0x2e 
    /*0000008c*/ MOVEQ       R1, #16 
    /*00000090*/ BEQ         _ZNSt8__detail8_ScannerIcE18_M_scan_in_bracketEv_xa8
    /*00000094*/ CMP         R2, #58                     @ 0x3a 
    /*00000098*/ BEQ         _ZNSt8__detail8_ScannerIcE18_M_scan_in_bracketEv_x150
    /*0000009c*/ CMP         R2, #61                     @ 0x3d 
    /*000000a0*/ MOVEQ       R1, #17 
    /*000000a4*/ BNE         _ZNSt8__detail8_ScannerIcE18_M_scan_in_bracketEv_x4c
    _ZNSt8__detail8_ScannerIcE18_M_scan_in_bracketEv_xa8:
    /*000000a8*/ STR         R1, [R4, #132]              @ 0x84 
    /*000000ac*/ ADD         R2, R3, #2 
    /*000000b0*/ STR         R2, [R4, #148]              @ 0x94 
    /*000000b4*/ LDRB        R1, [R3, #1] 
    /*000000b8*/ BL          _ZNSt8__detail8_ScannerIcE12_M_eat_classEc
    /*000000bc*/ MOV         R3, #0 
    /*000000c0*/ STRB        R3, [R4, #144]              @ 0x90 
    /*000000c4*/ ADD         SP, SP, #8 
    /*000000c8*/ POP         {R4, PC} 
    _ZNSt8__detail8_ScannerIcE18_M_scan_in_bracketEv_xcc:
    /*000000cc*/ LDR         R3, [R0, #128]              @ 0x80 
    /*000000d0*/ TST         R3, #16 
    /*000000d4*/ BEQ         _ZNSt8__detail8_ScannerIcE18_M_scan_in_bracketEv_x12c
    _ZNSt8__detail8_ScannerIcE18_M_scan_in_bracketEv_xd8:
    /*000000d8*/ MOV         R3, #0 
    /*000000dc*/ MOV         R2, #11 
    /*000000e0*/ STR         R3, [R4, #124]              @ 0x7c 
    /*000000e4*/ MOV         R3, #0 
    /*000000e8*/ STR         R2, [R4, #132]              @ 0x84 
    /*000000ec*/ STRB        R3, [R4, #144]              @ 0x90 
    /*000000f0*/ ADD         SP, SP, #8 
    /*000000f4*/ POP         {R4, PC} 
    _ZNSt8__detail8_ScannerIcE18_M_scan_in_bracketEv_xf8:
    /*000000f8*/ LDR         R3, [R4, #128]              @ 0x80 
    /*000000fc*/ TST         R3, #144                    @ 0x90 
    /*00000100*/ BEQ         _ZNSt8__detail8_ScannerIcE18_M_scan_in_bracketEv_x4c
    /*00000104*/ LDR         R0, [R4, #188]              @ 0xbc 
    /*00000108*/ TST         R0, #1 
    /*0000010c*/ BNE         _ZNSt8__detail8_ScannerIcE18_M_scan_in_bracketEv_x13c
    /*00000110*/ ADD         R0, R4, R0, ASR #1 
    /*00000114*/ LDR         R3, [R4, #184]              @ 0xb8 
    _ZNSt8__detail8_ScannerIcE18_M_scan_in_bracketEv_x118:
    /*00000118*/ BLX         R3 
    /*0000011c*/ MOV         R3, #0 
    /*00000120*/ STRB        R3, [R4, #144]              @ 0x90 
    /*00000124*/ ADD         SP, SP, #8 
    /*00000128*/ POP         {R4, PC} 
    _ZNSt8__detail8_ScannerIcE18_M_scan_in_bracketEv_x12c:
    /*0000012c*/ LDRB        R3, [R0, #144]              @ 0x90 
    /*00000130*/ CMP         R3, #0 
    /*00000134*/ BNE         _ZNSt8__detail8_ScannerIcE18_M_scan_in_bracketEv_x4c
    /*00000138*/ B           _ZNSt8__detail8_ScannerIcE18_M_scan_in_bracketEv_xd8
    _ZNSt8__detail8_ScannerIcE18_M_scan_in_bracketEv_x13c:
    /*0000013c*/ LDR         R2, [R4, R0, ASR #1] 
    /*00000140*/ LDR         R3, [R4, #184]              @ 0xb8 
    /*00000144*/ ADD         R0, R4, R0, ASR #1 
    /*00000148*/ LDR         R3, [R2, R3] 
    /*0000014c*/ B           _ZNSt8__detail8_ScannerIcE18_M_scan_in_bracketEv_x118
    _ZNSt8__detail8_ScannerIcE18_M_scan_in_bracketEv_x150:
    /*00000150*/ MOV         R1, #15 
    /*00000154*/ B           _ZNSt8__detail8_ScannerIcE18_M_scan_in_bracketEv_xa8
    _ZNSt8__detail8_ScannerIcE18_M_scan_in_bracketEv_x158:
    /*00000158*/ LDR         R1, WORD_0178               @ LDR         R1, [PC, #24]               @ 0x0000000000000178 
    /*0000015c*/ MOV         R0, #4 
    /*00000160*/ ADD         R1, PC, R1 
    /*00000164*/ BL          _ZSt19__throw_regex_errorNSt15regex_constants10error_typeEPKc
    _ZNSt8__detail8_ScannerIcE18_M_scan_in_bracketEv_x168:
    /*00000168*/ LDR         R1, WORD_017c               @ LDR         R1, [PC, #12]               @ 0x000000000000017c 
    /*0000016c*/ MOV         R0, #4 
    /*00000170*/ ADD         R1, PC, R1 
    /*00000174*/ BL          _ZSt19__throw_regex_errorNSt15regex_constants10error_typeEPKc
    /*00000178*/ WORD_0178: .word 0x00000010
    /*0000017c*/ WORD_017c: .word 0x00000004
FUNC_END _ZNSt8__detail8_ScannerIcE18_M_scan_in_bracketEv


@ - - - - - - - - - - - - - - - - - - - - - - - - - - - - - 
@ .text._ZNSt8__detail8_ScannerIcE10_M_advanceEv
@ Size: 0x44
@ - - - - - - - - - - - - - - - - - - - - - - - - - - - - - 

FUNC_BEGIN _ZNSt8__detail8_ScannerIcE10_M_advanceEv
    /*00000000*/ LDR         R1, [R0, #148]              @ 0x94 
    /*00000004*/ LDR         R2, [R0, #152]              @ 0x98 
    /*00000008*/ CMP         R1, R2 
    /*0000000c*/ BEQ         _ZNSt8__detail8_ScannerIcE10_M_advanceEv_x34
    /*00000010*/ LDR         R3, [R0, #124]              @ 0x7c 
    /*00000014*/ CMP         R3, #0 
    /*00000018*/ BEQ         _ZNSt8__detail8_ScannerIcE10_M_advanceEv_x30
    /*0000001c*/ CMP         R3, #2 
    /*00000020*/ BEQ         _ZNSt8__detail8_ScannerIcE10_M_advanceEv_x40
    /*00000024*/ CMP         R3, #1 
    /*00000028*/ BXNE        LR 
    _ZNSt8__detail8_ScannerIcE10_M_advanceEv_x2c:
    /*0000002c*/ B           _ZNSt8__detail8_ScannerIcE10_M_advanceEv_x2c@ _ZNSt8__detail8_ScannerIcE16_M_scan_in_braceEv [R_ARM_JUMP24: .text._ZNSt8__detail8_ScannerIcE16_M_scan_in_braceEv+0x0] 
    _ZNSt8__detail8_ScannerIcE10_M_advanceEv_x30:
    /*00000030*/ B           _ZNSt8__detail8_ScannerIcE10_M_advanceEv_x30@ _ZNSt8__detail8_ScannerIcE14_M_scan_normalEv [R_ARM_JUMP24: .text._ZNSt8__detail8_ScannerIcE14_M_scan_normalEv+0x0] 
    _ZNSt8__detail8_ScannerIcE10_M_advanceEv_x34:
    /*00000034*/ MOV         R2, #27 
    /*00000038*/ STR         R2, [R0, #132]              @ 0x84 
    /*0000003c*/ BX          LR 
    _ZNSt8__detail8_ScannerIcE10_M_advanceEv_x40:
    /*00000040*/ B           _ZNSt8__detail8_ScannerIcE10_M_advanceEv_x40@ _ZNSt8__detail8_ScannerIcE18_M_scan_in_bracketEv [R_ARM_JUMP24: .text._ZNSt8__detail8_ScannerIcE18_M_scan_in_bracketEv+0x0] 
FUNC_END _ZNSt8__detail8_ScannerIcE10_M_advanceEv


@ - - - - - - - - - - - - - - - - - - - - - - - - - - - - - 
@ .text._ZNSt8__detail8_ScannerIcEC2EPKcS3_NSt15regex_constants18syntax_option_typeESt6locale
@ Size: 0x228
@ - - - - - - - - - - - - - - - - - - - - - - - - - - - - - 

FUNC_BEGIN _ZNSt8__detail8_ScannerIcEC2EPKcS3_NSt15regex_constants18syntax_option_typeESt6locale
    /*00000000*/ MOV         IP, #16384                  @ 0x4000 
    /*00000004*/ PUSH        {R4, R5, R6, R7, R8, R9, SL, FP, LR} 
    /*00000008*/ SUB         IP, SP, IP 
    /*0000000c*/ STR         R0, [IP, #4048]             @ 0xfd0 
    /*00000010*/ LDR         IP, WORD_01f8               @ LDR         IP, [PC, #480]              @ 0x00000000000001f8 
    /*00000014*/ SUB         SP, SP, #12 
    /*00000018*/ LDR         R6, WORD_01fc               @ LDR         R6, [PC, #476]              @ 0x00000000000001fc 
    /*0000001c*/ MOV         R9, R1 
    /*00000020*/ ADD         IP, PC, IP 
    /*00000024*/ MOV         R4, R0 
    /*00000028*/ STR         R2, [SP, #4] 
    /*0000002c*/ MOV         R8, IP 
    /*00000030*/ LDR         FP, WORD_0200               @ LDR         FP, [PC, #456]              @ 0x0000000000000200 
    /*00000034*/ MOV         R1, IP 
    /*00000038*/ LDR         R5, WORD_0204               @ LDR         R5, [PC, #452]              @ 0x0000000000000204 
    /*0000003c*/ MOV         R2, #72                     @ 0x48 
    /*00000040*/ ADD         R6, PC, R6 
    /*00000044*/ MOV         R7, R3 
    /*00000048*/ ADD         FP, PC, FP 
    /*0000004c*/ BL          memcpy
    /*00000050*/ ADD         R5, PC, R5 
    /*00000054*/ MOV         R3, R8 
    /*00000058*/ ADD         SL, R4, #72                 @ 0x48 
    /*0000005c*/ MOV         IP, R8 
    /*00000060*/ LDR         R0, [R3, #72]!              @ 0x48 
    /*00000064*/ MOV         LR, SL 
    /*00000068*/ ADD         R8, R4, #88                 @ 0x58 
    /*0000006c*/ TST         R7, #16 
    /*00000070*/ LDR         R1, [R3, #4] 
    /*00000074*/ LDR         R2, [R3, #8] 
    /*00000078*/ LDR         R3, [R3, #12] 
    /*0000007c*/ STMIA       LR!, {R0, R1, R2, R3} 
    /*00000080*/ MOV         LR, R8 
    /*00000084*/ LDR         R0, [IP, #88]!              @ 0x58 
    /*00000088*/ LDR         R1, [IP, #4] 
    /*0000008c*/ LDR         R2, [IP, #8] 
    /*00000090*/ LDR         R3, [IP, #12] 
    /*00000094*/ STMIA       LR!, {R0, R1, R2, R3} 
    /*00000098*/ MOV         R2, #0 
    /*0000009c*/ LDR         R3, WORD_0208               @ LDR         R3, [PC, #356]              @ 0x0000000000000208 
    /*000000a0*/ LDR         R0, [IP, #16] 
    /*000000a4*/ LDRH        R1, [IP, #20] 
    /*000000a8*/ ADD         R3, PC, R3 
    /*000000ac*/ STR         R0, [LR] 
    /*000000b0*/ STRH        R1, [LR, #4] 
    /*000000b4*/ STR         R7, [R4, #128]              @ 0x80 
    /*000000b8*/ STR         R2, [R4, #124]              @ 0x7c 
    /*000000bc*/ STR         R6, [R4, #112]              @ 0x70 
    /*000000c0*/ STR         FP, [R4, #116]              @ 0x74 
    /*000000c4*/ STR         R3, [R4, #120]              @ 0x78 
    /*000000c8*/ STRNE       SL, [R4, #136]              @ 0x88 
    /*000000cc*/ BNE         _ZNSt8__detail8_ScannerIcEC2EPKcS3_NSt15regex_constants18syntax_option_typeESt6locale_x108
    /*000000d0*/ STR         R8, [R4, #136]              @ 0x88 
    /*000000d4*/ TST         R7, #32 
    /*000000d8*/ MOVNE       R6, FP 
    /*000000dc*/ BNE         _ZNSt8__detail8_ScannerIcEC2EPKcS3_NSt15regex_constants18syntax_option_typeESt6locale_x108
    /*000000e0*/ TST         R7, #64                     @ 0x40 
    /*000000e4*/ MOVNE       R6, R3 
    /*000000e8*/ BNE         _ZNSt8__detail8_ScannerIcEC2EPKcS3_NSt15regex_constants18syntax_option_typeESt6locale_x108
    /*000000ec*/ TST         R7, #256                    @ 0x100 
    /*000000f0*/ BNE         _ZNSt8__detail8_ScannerIcEC2EPKcS3_NSt15regex_constants18syntax_option_typeESt6locale_x1c4
    /*000000f4*/ TST         R7, #512                    @ 0x200 
    /*000000f8*/ BNE         _ZNSt8__detail8_ScannerIcEC2EPKcS3_NSt15regex_constants18syntax_option_typeESt6locale_x1d0
    /*000000fc*/ TST         R7, #128                    @ 0x80 
    /*00000100*/ MOVNE       R6, R3 
    /*00000104*/ MOVEQ       R6, #0 
    _ZNSt8__detail8_ScannerIcEC2EPKcS3_NSt15regex_constants18syntax_option_typeESt6locale_x108:
    /*00000108*/ LDR         R3, WORD_020c               @ LDR         R3, [PC, #252]              @ 0x000000000000020c 
    /*0000010c*/ MOV         R7, #0 
    /*00000110*/ LDR         R2, [SP, #4] 
    /*00000114*/ STR         R6, [R4, #140]              @ 0x8c 
    /*00000118*/ STR         R2, [R4, #152]              @ 0x98 
    /*0000011c*/ STR         R9, [R4, #148]              @ 0x94 
    /*00000120*/ STRB        R7, [R4, #144]              @ 0x90 
    /*00000124*/ LDR         R0, [R5, R3] 
    /*00000128*/ BL          _ZNKSt6locale2id5_M_idEv
    /*0000012c*/ LDR         R3, [SP, #48]               @ 0x30 
    /*00000130*/ LDR         R3, [R3] 
    /*00000134*/ LDR         R2, [R3, #8] 
    /*00000138*/ LDR         R3, [R3, #4] 
    /*0000013c*/ CMP         R0, R2 
    /*00000140*/ BCS         _ZNSt8__detail8_ScannerIcEC2EPKcS3_NSt15regex_constants18syntax_option_typeESt6locale_x1dc
    /*00000144*/ LDR         R0, [R3, R0, LSL #2] 
    /*00000148*/ CMP         R0, R7 
    /*0000014c*/ BEQ         _ZNSt8__detail8_ScannerIcEC2EPKcS3_NSt15regex_constants18syntax_option_typeESt6locale_x1dc
    /*00000150*/ LDR         R2, WORD_0210               @ LDR         R2, [PC, #184]              @ 0x0000000000000210 
    /*00000154*/ MOV         R3, R7 
    /*00000158*/ LDR         R1, WORD_0214               @ LDR         R1, [PC, #180]              @ 0x0000000000000214 
    /*0000015c*/ LDR         R2, [R5, R2] 
    /*00000160*/ LDR         R1, [R5, R1] 
    /*00000164*/ BL          __dynamic_cast
    /*00000168*/ CMP         R0, #0 
    /*0000016c*/ BEQ         _ZNSt8__detail8_ScannerIcEC2EPKcS3_NSt15regex_constants18syntax_option_typeESt6locale_x1e0
    /*00000170*/ LDR         R3, [R4, #128]              @ 0x80 
    /*00000174*/ ADD         R6, R4, #168                @ 0xa8 
    /*00000178*/ STR         R0, [R4, #156]              @ 0x9c 
    /*0000017c*/ STR         R7, [R4, #164]              @ 0xa4 
    /*00000180*/ TST         R3, #16 
    /*00000184*/ STRB        R7, [R4, #168]              @ 0xa8 
    /*00000188*/ STR         R6, [R4, #160]              @ 0xa0 
    /*0000018c*/ BNE         _ZNSt8__detail8_ScannerIcEC2EPKcS3_NSt15regex_constants18syntax_option_typeESt6locale_x1b8
    /*00000190*/ LDR         R3, WORD_0218               @ LDR         R3, [PC, #128]              @ 0x0000000000000218 
    /*00000194*/ LDR         R3, [R5, R3] 
    _ZNSt8__detail8_ScannerIcEC2EPKcS3_NSt15regex_constants18syntax_option_typeESt6locale_x198:
    /*00000198*/ STR         R3, [R4, #184]              @ 0xb8 
    /*0000019c*/ MOV         R3, #0 
    /*000001a0*/ STR         R3, [R4, #188]              @ 0xbc 
    /*000001a4*/ MOV         R0, R4 
    /*000001a8*/ BL          _ZNSt8__detail8_ScannerIcE10_M_advanceEv
    /*000001ac*/ MOV         R0, R4 
    /*000001b0*/ ADD         SP, SP, #12 
    /*000001b4*/ POP         {R4, R5, R6, R7, R8, R9, SL, FP, PC} 
    _ZNSt8__detail8_ScannerIcEC2EPKcS3_NSt15regex_constants18syntax_option_typeESt6locale_x1b8:
    /*000001b8*/ LDR         R3, WORD_021c               @ LDR         R3, [PC, #92]               @ 0x000000000000021c 
    /*000001bc*/ LDR         R3, [R5, R3] 
    /*000001c0*/ B           _ZNSt8__detail8_ScannerIcEC2EPKcS3_NSt15regex_constants18syntax_option_typeESt6locale_x198
    _ZNSt8__detail8_ScannerIcEC2EPKcS3_NSt15regex_constants18syntax_option_typeESt6locale_x1c4:
    /*000001c4*/ LDR         R6, WORD_0220               @ LDR         R6, [PC, #84]               @ 0x0000000000000220 
    /*000001c8*/ ADD         R6, PC, R6 
    /*000001cc*/ B           _ZNSt8__detail8_ScannerIcEC2EPKcS3_NSt15regex_constants18syntax_option_typeESt6locale_x108
    _ZNSt8__detail8_ScannerIcEC2EPKcS3_NSt15regex_constants18syntax_option_typeESt6locale_x1d0:
    /*000001d0*/ LDR         R6, WORD_0224               @ LDR         R6, [PC, #76]               @ 0x0000000000000224 
    /*000001d4*/ ADD         R6, PC, R6 
    /*000001d8*/ B           _ZNSt8__detail8_ScannerIcEC2EPKcS3_NSt15regex_constants18syntax_option_typeESt6locale_x108
    _ZNSt8__detail8_ScannerIcEC2EPKcS3_NSt15regex_constants18syntax_option_typeESt6locale_x1dc:
    /*000001dc*/ BL          _ZSt16__throw_bad_castv
    _ZNSt8__detail8_ScannerIcEC2EPKcS3_NSt15regex_constants18syntax_option_typeESt6locale_x1e0:
    /*000001e0*/ BL          __cxa_bad_cast
    /*000001e4*/ LDR         R0, [R4, #160]              @ 0xa0 
    /*000001e8*/ CMP         R6, R0 
    /*000001ec*/ BEQ         _ZNSt8__detail8_ScannerIcEC2EPKcS3_NSt15regex_constants18syntax_option_typeESt6locale_x1f4
    /*000001f0*/ BL          _ZdlPv
    _ZNSt8__detail8_ScannerIcEC2EPKcS3_NSt15regex_constants18syntax_option_typeESt6locale_x1f4:
    /*000001f4*/ BL          __cxa_end_cleanup
    /*000001f8*/ WORD_01f8: .word 0x000001d0
    /*000001fc*/ WORD_01fc: .word 0x000001b4
    /*00000200*/ WORD_0200: .word 0x000001b0
    /*00000204*/ WORD_0204: .word 0x000001ac
    /*00000208*/ WORD_0208: .word 0x00000158
    /*0000020c*/ WORD_020c: .word 0x00000000
    /*00000210*/ WORD_0210: .word 0x00000000
    /*00000214*/ WORD_0214: .word 0x00000000
    /*00000218*/ WORD_0218: .word 0x00000000
    /*0000021c*/ WORD_021c: .word 0x00000000
    /*00000220*/ WORD_0220: .word 0x00000050
    /*00000224*/ WORD_0224: .word 0x00000048
FUNC_END _ZNSt8__detail8_ScannerIcEC2EPKcS3_NSt15regex_constants18syntax_option_typeESt6locale


FUNC_BEGIN _ZNSt8__detail8_ScannerIcEC1EPKcS3_NSt15regex_constants18syntax_option_typeESt6locale
    /*00000000*/ MOV         IP, #16384                  @ 0x4000 
    /*00000004*/ PUSH        {R4, R5, R6, R7, R8, R9, SL, FP, LR} 
    /*00000008*/ SUB         IP, SP, IP 
    /*0000000c*/ STR         R0, [IP, #4048]             @ 0xfd0 
    /*00000010*/ LDR         IP, WORD_01f8               @ LDR         IP, [PC, #480]              @ 0x00000000000001f8 
    /*00000014*/ SUB         SP, SP, #12 
    /*00000018*/ LDR         R6, WORD_01fc               @ LDR         R6, [PC, #476]              @ 0x00000000000001fc 
    /*0000001c*/ MOV         R9, R1 
    /*00000020*/ ADD         IP, PC, IP 
    /*00000024*/ MOV         R4, R0 
    /*00000028*/ STR         R2, [SP, #4] 
    /*0000002c*/ MOV         R8, IP 
    /*00000030*/ LDR         FP, WORD_0200               @ LDR         FP, [PC, #456]              @ 0x0000000000000200 
    /*00000034*/ MOV         R1, IP 
    /*00000038*/ LDR         R5, WORD_0204               @ LDR         R5, [PC, #452]              @ 0x0000000000000204 
    /*0000003c*/ MOV         R2, #72                     @ 0x48 
    /*00000040*/ ADD         R6, PC, R6 
    /*00000044*/ MOV         R7, R3 
    /*00000048*/ ADD         FP, PC, FP 
    /*0000004c*/ BL          memcpy
    /*00000050*/ ADD         R5, PC, R5 
    /*00000054*/ MOV         R3, R8 
    /*00000058*/ ADD         SL, R4, #72                 @ 0x48 
    /*0000005c*/ MOV         IP, R8 
    /*00000060*/ LDR         R0, [R3, #72]!              @ 0x48 
    /*00000064*/ MOV         LR, SL 
    /*00000068*/ ADD         R8, R4, #88                 @ 0x58 
    /*0000006c*/ TST         R7, #16 
    /*00000070*/ LDR         R1, [R3, #4] 
    /*00000074*/ LDR         R2, [R3, #8] 
    /*00000078*/ LDR         R3, [R3, #12] 
    /*0000007c*/ STMIA       LR!, {R0, R1, R2, R3} 
    /*00000080*/ MOV         LR, R8 
    /*00000084*/ LDR         R0, [IP, #88]!              @ 0x58 
    /*00000088*/ LDR         R1, [IP, #4] 
    /*0000008c*/ LDR         R2, [IP, #8] 
    /*00000090*/ LDR         R3, [IP, #12] 
    /*00000094*/ STMIA       LR!, {R0, R1, R2, R3} 
    /*00000098*/ MOV         R2, #0 
    /*0000009c*/ LDR         R3, WORD_0208               @ LDR         R3, [PC, #356]              @ 0x0000000000000208 
    /*000000a0*/ LDR         R0, [IP, #16] 
    /*000000a4*/ LDRH        R1, [IP, #20] 
    /*000000a8*/ ADD         R3, PC, R3 
    /*000000ac*/ STR         R0, [LR] 
    /*000000b0*/ STRH        R1, [LR, #4] 
    /*000000b4*/ STR         R7, [R4, #128]              @ 0x80 
    /*000000b8*/ STR         R2, [R4, #124]              @ 0x7c 
    /*000000bc*/ STR         R6, [R4, #112]              @ 0x70 
    /*000000c0*/ STR         FP, [R4, #116]              @ 0x74 
    /*000000c4*/ STR         R3, [R4, #120]              @ 0x78 
    /*000000c8*/ STRNE       SL, [R4, #136]              @ 0x88 
    /*000000cc*/ BNE         _ZNSt8__detail8_ScannerIcEC1EPKcS3_NSt15regex_constants18syntax_option_typeESt6locale_x108
    /*000000d0*/ STR         R8, [R4, #136]              @ 0x88 
    /*000000d4*/ TST         R7, #32 
    /*000000d8*/ MOVNE       R6, FP 
    /*000000dc*/ BNE         _ZNSt8__detail8_ScannerIcEC1EPKcS3_NSt15regex_constants18syntax_option_typeESt6locale_x108
    /*000000e0*/ TST         R7, #64                     @ 0x40 
    /*000000e4*/ MOVNE       R6, R3 
    /*000000e8*/ BNE         _ZNSt8__detail8_ScannerIcEC1EPKcS3_NSt15regex_constants18syntax_option_typeESt6locale_x108
    /*000000ec*/ TST         R7, #256                    @ 0x100 
    /*000000f0*/ BNE         _ZNSt8__detail8_ScannerIcEC1EPKcS3_NSt15regex_constants18syntax_option_typeESt6locale_x1c4
    /*000000f4*/ TST         R7, #512                    @ 0x200 
    /*000000f8*/ BNE         _ZNSt8__detail8_ScannerIcEC1EPKcS3_NSt15regex_constants18syntax_option_typeESt6locale_x1d0
    /*000000fc*/ TST         R7, #128                    @ 0x80 
    /*00000100*/ MOVNE       R6, R3 
    /*00000104*/ MOVEQ       R6, #0 
    _ZNSt8__detail8_ScannerIcEC1EPKcS3_NSt15regex_constants18syntax_option_typeESt6locale_x108:
    /*00000108*/ LDR         R3, WORD_020c               @ LDR         R3, [PC, #252]              @ 0x000000000000020c 
    /*0000010c*/ MOV         R7, #0 
    /*00000110*/ LDR         R2, [SP, #4] 
    /*00000114*/ STR         R6, [R4, #140]              @ 0x8c 
    /*00000118*/ STR         R2, [R4, #152]              @ 0x98 
    /*0000011c*/ STR         R9, [R4, #148]              @ 0x94 
    /*00000120*/ STRB        R7, [R4, #144]              @ 0x90 
    /*00000124*/ LDR         R0, [R5, R3] 
    /*00000128*/ BL          _ZNKSt6locale2id5_M_idEv
    /*0000012c*/ LDR         R3, [SP, #48]               @ 0x30 
    /*00000130*/ LDR         R3, [R3] 
    /*00000134*/ LDR         R2, [R3, #8] 
    /*00000138*/ LDR         R3, [R3, #4] 
    /*0000013c*/ CMP         R0, R2 
    /*00000140*/ BCS         _ZNSt8__detail8_ScannerIcEC1EPKcS3_NSt15regex_constants18syntax_option_typeESt6locale_x1dc
    /*00000144*/ LDR         R0, [R3, R0, LSL #2] 
    /*00000148*/ CMP         R0, R7 
    /*0000014c*/ BEQ         _ZNSt8__detail8_ScannerIcEC1EPKcS3_NSt15regex_constants18syntax_option_typeESt6locale_x1dc
    /*00000150*/ LDR         R2, WORD_0210               @ LDR         R2, [PC, #184]              @ 0x0000000000000210 
    /*00000154*/ MOV         R3, R7 
    /*00000158*/ LDR         R1, WORD_0214               @ LDR         R1, [PC, #180]              @ 0x0000000000000214 
    /*0000015c*/ LDR         R2, [R5, R2] 
    /*00000160*/ LDR         R1, [R5, R1] 
    /*00000164*/ BL          __dynamic_cast
    /*00000168*/ CMP         R0, #0 
    /*0000016c*/ BEQ         _ZNSt8__detail8_ScannerIcEC1EPKcS3_NSt15regex_constants18syntax_option_typeESt6locale_x1e0
    /*00000170*/ LDR         R3, [R4, #128]              @ 0x80 
    /*00000174*/ ADD         R6, R4, #168                @ 0xa8 
    /*00000178*/ STR         R0, [R4, #156]              @ 0x9c 
    /*0000017c*/ STR         R7, [R4, #164]              @ 0xa4 
    /*00000180*/ TST         R3, #16 
    /*00000184*/ STRB        R7, [R4, #168]              @ 0xa8 
    /*00000188*/ STR         R6, [R4, #160]              @ 0xa0 
    /*0000018c*/ BNE         _ZNSt8__detail8_ScannerIcEC1EPKcS3_NSt15regex_constants18syntax_option_typeESt6locale_x1b8
    /*00000190*/ LDR         R3, WORD_0218               @ LDR         R3, [PC, #128]              @ 0x0000000000000218 
    /*00000194*/ LDR         R3, [R5, R3] 
    _ZNSt8__detail8_ScannerIcEC1EPKcS3_NSt15regex_constants18syntax_option_typeESt6locale_x198:
    /*00000198*/ STR         R3, [R4, #184]              @ 0xb8 
    /*0000019c*/ MOV         R3, #0 
    /*000001a0*/ STR         R3, [R4, #188]              @ 0xbc 
    /*000001a4*/ MOV         R0, R4 
    /*000001a8*/ BL          _ZNSt8__detail8_ScannerIcE10_M_advanceEv
    /*000001ac*/ MOV         R0, R4 
    /*000001b0*/ ADD         SP, SP, #12 
    /*000001b4*/ POP         {R4, R5, R6, R7, R8, R9, SL, FP, PC} 
    _ZNSt8__detail8_ScannerIcEC1EPKcS3_NSt15regex_constants18syntax_option_typeESt6locale_x1b8:
    /*000001b8*/ LDR         R3, WORD_021c               @ LDR         R3, [PC, #92]               @ 0x000000000000021c 
    /*000001bc*/ LDR         R3, [R5, R3] 
    /*000001c0*/ B           _ZNSt8__detail8_ScannerIcEC1EPKcS3_NSt15regex_constants18syntax_option_typeESt6locale_x198
    _ZNSt8__detail8_ScannerIcEC1EPKcS3_NSt15regex_constants18syntax_option_typeESt6locale_x1c4:
    /*000001c4*/ LDR         R6, WORD_0220               @ LDR         R6, [PC, #84]               @ 0x0000000000000220 
    /*000001c8*/ ADD         R6, PC, R6 
    /*000001cc*/ B           _ZNSt8__detail8_ScannerIcEC1EPKcS3_NSt15regex_constants18syntax_option_typeESt6locale_x108
    _ZNSt8__detail8_ScannerIcEC1EPKcS3_NSt15regex_constants18syntax_option_typeESt6locale_x1d0:
    /*000001d0*/ LDR         R6, WORD_0224               @ LDR         R6, [PC, #76]               @ 0x0000000000000224 
    /*000001d4*/ ADD         R6, PC, R6 
    /*000001d8*/ B           _ZNSt8__detail8_ScannerIcEC1EPKcS3_NSt15regex_constants18syntax_option_typeESt6locale_x108
    _ZNSt8__detail8_ScannerIcEC1EPKcS3_NSt15regex_constants18syntax_option_typeESt6locale_x1dc:
    /*000001dc*/ BL          _ZSt16__throw_bad_castv
    _ZNSt8__detail8_ScannerIcEC1EPKcS3_NSt15regex_constants18syntax_option_typeESt6locale_x1e0:
    /*000001e0*/ BL          __cxa_bad_cast
    /*000001e4*/ LDR         R0, [R4, #160]              @ 0xa0 
    /*000001e8*/ CMP         R6, R0 
    /*000001ec*/ BEQ         _ZNSt8__detail8_ScannerIcEC1EPKcS3_NSt15regex_constants18syntax_option_typeESt6locale_x1f4
    /*000001f0*/ BL          _ZdlPv
    _ZNSt8__detail8_ScannerIcEC1EPKcS3_NSt15regex_constants18syntax_option_typeESt6locale_x1f4:
    /*000001f4*/ BL          __cxa_end_cleanup
    /*000001f8*/ WORD_01f8: .word 0x000001d0
    /*000001fc*/ WORD_01fc: .word 0x000001b4
    /*00000200*/ WORD_0200: .word 0x000001b0
    /*00000204*/ WORD_0204: .word 0x000001ac
    /*00000208*/ WORD_0208: .word 0x00000158
    /*0000020c*/ WORD_020c: .word 0x00000000
    /*00000210*/ WORD_0210: .word 0x00000000
    /*00000214*/ WORD_0214: .word 0x00000000
    /*00000218*/ WORD_0218: .word 0x00000000
    /*0000021c*/ WORD_021c: .word 0x00000000
    /*00000220*/ WORD_0220: .word 0x00000050
    /*00000224*/ WORD_0224: .word 0x00000048
FUNC_END _ZNSt8__detail8_ScannerIcEC1EPKcS3_NSt15regex_constants18syntax_option_typeESt6locale


@ - - - - - - - - - - - - - - - - - - - - - - - - - - - - - 
@ .ARM.extab.text._ZNSt8__detail8_ScannerIcEC2EPKcS3_NSt15regex_constants18syntax_option_typeESt6locale
@ Size: 0x17
@ - - - - - - - - - - - - - - - - - - - - - - - - - - - - - 

@ - - - - - - - - - - - - - - - - - - - - - - - - - - - - - 
@ .text._ZZNSt8__detail9_CompilerINSt7__cxx1112regex_traitsIcEEE13_M_quantifierEvENKUlvE_clEv
@ Size: 0x7c
@ - - - - - - - - - - - - - - - - - - - - - - - - - - - - - 

FUNC_BEGIN _ZZNSt8__detail9_CompilerINSt7__cxx1112regex_traitsIcEEE13_M_quantifierEvENKUlvE_clEv
    /*00000000*/ MOV         IP, #16384                  @ 0x4000 
    /*00000004*/ PUSH        {R4, R5, R6, LR} 
    /*00000008*/ SUB         IP, SP, IP 
    /*0000000c*/ STR         R0, [IP, #4080]             @ 0xff0 
    /*00000010*/ LDR         R3, [R0] 
    /*00000014*/ LDR         R1, [R3, #252]              @ 0xfc 
    /*00000018*/ LDR         R2, [R3, #236]              @ 0xec 
    /*0000001c*/ CMP         R1, R2 
    /*00000020*/ BEQ         _ZZNSt8__detail9_CompilerINSt7__cxx1112regex_traitsIcEEE13_M_quantifierEvENKUlvE_clEv_x68
    /*00000024*/ LDR         R5, [R0, #4] 
    /*00000028*/ LDRB        R4, [R5] 
    /*0000002c*/ CMP         R4, #0 
    /*00000030*/ BEQ         _ZZNSt8__detail9_CompilerINSt7__cxx1112regex_traitsIcEEE13_M_quantifierEvENKUlvE_clEv_x44
    /*00000034*/ LDR         R2, [R3, #136]              @ 0x88 
    /*00000038*/ CMP         R2, #18 
    /*0000003c*/ MOVNE       R4, #0 
    /*00000040*/ BEQ         _ZZNSt8__detail9_CompilerINSt7__cxx1112regex_traitsIcEEE13_M_quantifierEvENKUlvE_clEv_x4c
    _ZZNSt8__detail9_CompilerINSt7__cxx1112regex_traitsIcEEE13_M_quantifierEvENKUlvE_clEv_x44:
    /*00000044*/ STRB        R4, [R5] 
    /*00000048*/ POP         {R4, R5, R6, PC} 
    _ZZNSt8__detail9_CompilerINSt7__cxx1112regex_traitsIcEEE13_M_quantifierEvENKUlvE_clEv_x4c:
    /*0000004c*/ ADD         R6, R3, #4 
    /*00000050*/ ADD         R0, R3, #204                @ 0xcc 
    /*00000054*/ ADD         R1, R3, #164                @ 0xa4 
    /*00000058*/ BL          _ZNSt7__cxx1112basic_stringIcSt11char_traitsIcESaIcEE9_M_assignERKS4_
    /*0000005c*/ MOV         R0, R6 
    /*00000060*/ BL          _ZNSt8__detail8_ScannerIcE10_M_advanceEv
    /*00000064*/ B           _ZZNSt8__detail9_CompilerINSt7__cxx1112regex_traitsIcEEE13_M_quantifierEvENKUlvE_clEv_x44
    _ZZNSt8__detail9_CompilerINSt7__cxx1112regex_traitsIcEEE13_M_quantifierEvENKUlvE_clEv_x68:
    /*00000068*/ LDR         R1, WORD_0078               @ LDR         R1, [PC, #8]                @ 0x0000000000000078 
    /*0000006c*/ MOV         R0, #10 
    /*00000070*/ ADD         R1, PC, R1 
    /*00000074*/ BL          _ZSt19__throw_regex_errorNSt15regex_constants10error_typeEPKc
    /*00000078*/ WORD_0078: .word 0x00000000
FUNC_END _ZZNSt8__detail9_CompilerINSt7__cxx1112regex_traitsIcEEE13_M_quantifierEvENKUlvE_clEv


@ - - - - - - - - - - - - - - - - - - - - - - - - - - - - - 
@ .text._ZNSt6vectorINSt7__cxx119sub_matchIN9__gnu_cxx17__normal_iteratorIPKcNS0_12basic_stringIcSt11char_traitsIcESaIcEEEEEEESaISC_EEC2ERKSE_
@ Size: 0xd8
@ - - - - - - - - - - - - - - - - - - - - - - - - - - - - - 

FUNC_BEGIN _ZNSt6vectorINSt7__cxx119sub_matchIN9__gnu_cxx17__normal_iteratorIPKcNS0_12basic_stringIcSt11char_traitsIcESaIcEEEEEEESaISC_EEC2ERKSE_
    /*00000000*/ MOV         IP, #16384                  @ 0x4000 
    /*00000004*/ PUSH        {R4, R5, R6, LR} 
    /*00000008*/ SUB         IP, SP, IP 
    /*0000000c*/ STR         R0, [IP, #4080]             @ 0xff0 
    /*00000010*/ LDR         R5, [R1, #4] 
    /*00000014*/ MOV         R6, R1 
    /*00000018*/ LDR         R1, [R1] 
    /*0000001c*/ MOVW        R3, #43691                  @ 0xaaab 
    /*00000020*/ MOVT        R3, #43690                  @ 0xaaaa 
    /*00000024*/ MOV         R2, #0 
    /*00000028*/ SUB         R5, R5, R1 
    /*0000002c*/ MOV         R4, R0 
    /*00000030*/ STR         R2, [R0] 
    /*00000034*/ ASR         R1, R5, #2 
    /*00000038*/ MUL         R3, R3, R1 
    /*0000003c*/ STR         R2, [R0, #4] 
    /*00000040*/ CMP         R3, R2 
    /*00000044*/ STR         R2, [R0, #8] 
    /*00000048*/ BEQ         _ZNSt6vectorINSt7__cxx119sub_matchIN9__gnu_cxx17__normal_iteratorIPKcNS0_12basic_stringIcSt11char_traitsIcESaIcEEEEEEESaISC_EEC2ERKSE__x68
    /*0000004c*/ MOVW        R2, #21845                  @ 0x5555 
    /*00000050*/ MOVT        R2, #5461                   @ 0x1555 
    /*00000054*/ CMP         R3, R2 
    /*00000058*/ BHI         _ZNSt6vectorINSt7__cxx119sub_matchIN9__gnu_cxx17__normal_iteratorIPKcNS0_12basic_stringIcSt11char_traitsIcESaIcEEEEEEESaISC_EEC2ERKSE__xd4
    /*0000005c*/ MOV         R0, R5 
    /*00000060*/ BL          _Znwj
    /*00000064*/ MOV         R3, R0 
    _ZNSt6vectorINSt7__cxx119sub_matchIN9__gnu_cxx17__normal_iteratorIPKcNS0_12basic_stringIcSt11char_traitsIcESaIcEEEEEEESaISC_EEC2ERKSE__x68:
    /*00000068*/ ADD         R5, R3, R5 
    /*0000006c*/ STR         R5, [R4, #8] 
    /*00000070*/ STR         R3, [R4] 
    /*00000074*/ STR         R3, [R4, #4] 
    /*00000078*/ LDM         R6, {IP, LR} 
    /*0000007c*/ CMP         IP, LR 
    /*00000080*/ BEQ         _ZNSt6vectorINSt7__cxx119sub_matchIN9__gnu_cxx17__normal_iteratorIPKcNS0_12basic_stringIcSt11char_traitsIcESaIcEEEEEEESaISC_EEC2ERKSE__xc8
    /*00000084*/ ADD         IP, IP, #12 
    /*00000088*/ MOVW        R2, #43691                  @ 0xaaab 
    /*0000008c*/ SUB         LR, LR, IP 
    /*00000090*/ MOV         R1, #12 
    /*00000094*/ MOVT        R2, #10922                  @ 0x2aaa 
    /*00000098*/ LSR         LR, LR, #2 
    /*0000009c*/ MUL         LR, R2, LR 
    /*000000a0*/ BIC         LR, LR, #-1073741824        @ 0xc0000000 
    /*000000a4*/ ADD         LR, LR, #1 
    /*000000a8*/ MLA         LR, R1, LR, R3 
    _ZNSt6vectorINSt7__cxx119sub_matchIN9__gnu_cxx17__normal_iteratorIPKcNS0_12basic_stringIcSt11char_traitsIcESaIcEEEEEEESaISC_EEC2ERKSE__xac:
    /*000000ac*/ CMP         R3, #0 
    /*000000b0*/ LDMDBNE     IP, {R0, R1, R2} 
    /*000000b4*/ ADD         IP, IP, #12 
    /*000000b8*/ STMNE       R3, {R0, R1, R2} 
    /*000000bc*/ ADD         R3, R3, #12 
    /*000000c0*/ CMP         R3, LR 
    /*000000c4*/ BNE         _ZNSt6vectorINSt7__cxx119sub_matchIN9__gnu_cxx17__normal_iteratorIPKcNS0_12basic_stringIcSt11char_traitsIcESaIcEEEEEEESaISC_EEC2ERKSE__xac
    _ZNSt6vectorINSt7__cxx119sub_matchIN9__gnu_cxx17__normal_iteratorIPKcNS0_12basic_stringIcSt11char_traitsIcESaIcEEEEEEESaISC_EEC2ERKSE__xc8:
    /*000000c8*/ STR         R3, [R4, #4] 
    /*000000cc*/ MOV         R0, R4 
    /*000000d0*/ POP         {R4, R5, R6, PC} 
    _ZNSt6vectorINSt7__cxx119sub_matchIN9__gnu_cxx17__normal_iteratorIPKcNS0_12basic_stringIcSt11char_traitsIcESaIcEEEEEEESaISC_EEC2ERKSE__xd4:
    /*000000d4*/ BL          _ZSt17__throw_bad_allocv
FUNC_END _ZNSt6vectorINSt7__cxx119sub_matchIN9__gnu_cxx17__normal_iteratorIPKcNS0_12basic_stringIcSt11char_traitsIcESaIcEEEEEEESaISC_EEC2ERKSE_


FUNC_BEGIN _ZNSt6vectorINSt7__cxx119sub_matchIN9__gnu_cxx17__normal_iteratorIPKcNS0_12basic_stringIcSt11char_traitsIcESaIcEEEEEEESaISC_EEC1ERKSE_
    /*00000000*/ MOV         IP, #16384                  @ 0x4000 
    /*00000004*/ PUSH        {R4, R5, R6, LR} 
    /*00000008*/ SUB         IP, SP, IP 
    /*0000000c*/ STR         R0, [IP, #4080]             @ 0xff0 
    /*00000010*/ LDR         R5, [R1, #4] 
    /*00000014*/ MOV         R6, R1 
    /*00000018*/ LDR         R1, [R1] 
    /*0000001c*/ MOVW        R3, #43691                  @ 0xaaab 
    /*00000020*/ MOVT        R3, #43690                  @ 0xaaaa 
    /*00000024*/ MOV         R2, #0 
    /*00000028*/ SUB         R5, R5, R1 
    /*0000002c*/ MOV         R4, R0 
    /*00000030*/ STR         R2, [R0] 
    /*00000034*/ ASR         R1, R5, #2 
    /*00000038*/ MUL         R3, R3, R1 
    /*0000003c*/ STR         R2, [R0, #4] 
    /*00000040*/ CMP         R3, R2 
    /*00000044*/ STR         R2, [R0, #8] 
    /*00000048*/ BEQ         _ZNSt6vectorINSt7__cxx119sub_matchIN9__gnu_cxx17__normal_iteratorIPKcNS0_12basic_stringIcSt11char_traitsIcESaIcEEEEEEESaISC_EEC1ERKSE__x68
    /*0000004c*/ MOVW        R2, #21845                  @ 0x5555 
    /*00000050*/ MOVT        R2, #5461                   @ 0x1555 
    /*00000054*/ CMP         R3, R2 
    /*00000058*/ BHI         _ZNSt6vectorINSt7__cxx119sub_matchIN9__gnu_cxx17__normal_iteratorIPKcNS0_12basic_stringIcSt11char_traitsIcESaIcEEEEEEESaISC_EEC1ERKSE__xd4
    /*0000005c*/ MOV         R0, R5 
    /*00000060*/ BL          _Znwj
    /*00000064*/ MOV         R3, R0 
    _ZNSt6vectorINSt7__cxx119sub_matchIN9__gnu_cxx17__normal_iteratorIPKcNS0_12basic_stringIcSt11char_traitsIcESaIcEEEEEEESaISC_EEC1ERKSE__x68:
    /*00000068*/ ADD         R5, R3, R5 
    /*0000006c*/ STR         R5, [R4, #8] 
    /*00000070*/ STR         R3, [R4] 
    /*00000074*/ STR         R3, [R4, #4] 
    /*00000078*/ LDM         R6, {IP, LR} 
    /*0000007c*/ CMP         IP, LR 
    /*00000080*/ BEQ         _ZNSt6vectorINSt7__cxx119sub_matchIN9__gnu_cxx17__normal_iteratorIPKcNS0_12basic_stringIcSt11char_traitsIcESaIcEEEEEEESaISC_EEC1ERKSE__xc8
    /*00000084*/ ADD         IP, IP, #12 
    /*00000088*/ MOVW        R2, #43691                  @ 0xaaab 
    /*0000008c*/ SUB         LR, LR, IP 
    /*00000090*/ MOV         R1, #12 
    /*00000094*/ MOVT        R2, #10922                  @ 0x2aaa 
    /*00000098*/ LSR         LR, LR, #2 
    /*0000009c*/ MUL         LR, R2, LR 
    /*000000a0*/ BIC         LR, LR, #-1073741824        @ 0xc0000000 
    /*000000a4*/ ADD         LR, LR, #1 
    /*000000a8*/ MLA         LR, R1, LR, R3 
    _ZNSt6vectorINSt7__cxx119sub_matchIN9__gnu_cxx17__normal_iteratorIPKcNS0_12basic_stringIcSt11char_traitsIcESaIcEEEEEEESaISC_EEC1ERKSE__xac:
    /*000000ac*/ CMP         R3, #0 
    /*000000b0*/ LDMDBNE     IP, {R0, R1, R2} 
    /*000000b4*/ ADD         IP, IP, #12 
    /*000000b8*/ STMNE       R3, {R0, R1, R2} 
    /*000000bc*/ ADD         R3, R3, #12 
    /*000000c0*/ CMP         R3, LR 
    /*000000c4*/ BNE         _ZNSt6vectorINSt7__cxx119sub_matchIN9__gnu_cxx17__normal_iteratorIPKcNS0_12basic_stringIcSt11char_traitsIcESaIcEEEEEEESaISC_EEC1ERKSE__xac
    _ZNSt6vectorINSt7__cxx119sub_matchIN9__gnu_cxx17__normal_iteratorIPKcNS0_12basic_stringIcSt11char_traitsIcESaIcEEEEEEESaISC_EEC1ERKSE__xc8:
    /*000000c8*/ STR         R3, [R4, #4] 
    /*000000cc*/ MOV         R0, R4 
    /*000000d0*/ POP         {R4, R5, R6, PC} 
    _ZNSt6vectorINSt7__cxx119sub_matchIN9__gnu_cxx17__normal_iteratorIPKcNS0_12basic_stringIcSt11char_traitsIcESaIcEEEEEEESaISC_EEC1ERKSE__xd4:
    /*000000d4*/ BL          _ZSt17__throw_bad_allocv
FUNC_END _ZNSt6vectorINSt7__cxx119sub_matchIN9__gnu_cxx17__normal_iteratorIPKcNS0_12basic_stringIcSt11char_traitsIcESaIcEEEEEEESaISC_EEC1ERKSE_


@ - - - - - - - - - - - - - - - - - - - - - - - - - - - - - 
@ .text._ZNSt6vectorISt4pairIlS_INSt7__cxx119sub_matchIN9__gnu_cxx17__normal_iteratorIPKcNS1_12basic_stringIcSt11char_traitsIcESaIcEEEEEEESaISD_EEESaISG_EE19_M_emplace_back_auxIJRlRKSF_EEEvDpOT_
@ Size: 0x1a8
@ - - - - - - - - - - - - - - - - - - - - - - - - - - - - - 

FUNC_BEGIN _ZNSt6vectorISt4pairIlS_INSt7__cxx119sub_matchIN9__gnu_cxx17__normal_iteratorIPKcNS1_12basic_stringIcSt11char_traitsIcESaIcEEEEEEESaISD_EEESaISG_EE19_M_emplace_back_auxIJRlRKSF_EEEvDpOT_
    /*00000000*/ MOV         IP, #16384                  @ 0x4000 
    /*00000004*/ PUSH        {R4, R5, R6, R7, R8, R9, SL, LR} 
    /*00000008*/ SUB         IP, SP, IP 
    /*0000000c*/ STR         R0, [IP, #4064]             @ 0xfe0 
    /*00000010*/ LDR         IP, [R0] 
    /*00000014*/ MOV         R6, R0 
    /*00000018*/ LDR         R0, [R0, #4] 
    /*0000001c*/ MOV         R4, R1 
    /*00000020*/ MOV         R5, R2 
    /*00000024*/ SUB         R3, R0, IP 
    /*00000028*/ ASRS        R8, R3, #4 
    /*0000002c*/ BEQ         _ZNSt6vectorISt4pairIlS_INSt7__cxx119sub_matchIN9__gnu_cxx17__normal_iteratorIPKcNS1_12basic_stringIcSt11char_traitsIcESaIcEEEEEEESaISD_EEESaISG_EE19_M_emplace_back_auxIJRlRKSF_EEEvDpOT__x13c
    /*00000030*/ LSL         R2, R8, #1 
    /*00000034*/ CMP         R8, R2 
    /*00000038*/ BLS         _ZNSt6vectorISt4pairIlS_INSt7__cxx119sub_matchIN9__gnu_cxx17__normal_iteratorIPKcNS1_12basic_stringIcSt11char_traitsIcESaIcEEEEEEESaISD_EEESaISG_EE19_M_emplace_back_auxIJRlRKSF_EEEvDpOT__x14c
    _ZNSt6vectorISt4pairIlS_INSt7__cxx119sub_matchIN9__gnu_cxx17__normal_iteratorIPKcNS1_12basic_stringIcSt11char_traitsIcESaIcEEEEEEESaISD_EEESaISG_EE19_M_emplace_back_auxIJRlRKSF_EEEvDpOT__x3c:
    /*0000003c*/ MVN         R8, #15 
    _ZNSt6vectorISt4pairIlS_INSt7__cxx119sub_matchIN9__gnu_cxx17__normal_iteratorIPKcNS1_12basic_stringIcSt11char_traitsIcESaIcEEEEEEESaISD_EEESaISG_EE19_M_emplace_back_auxIJRlRKSF_EEEvDpOT__x40:
    /*00000040*/ MOV         R0, R8 
    /*00000044*/ BL          _Znwj
    /*00000048*/ LDR         IP, [R6] 
    /*0000004c*/ MOV         R7, R0 
    /*00000050*/ LDR         R0, [R6, #4] 
    /*00000054*/ SUB         R3, R0, IP 
    _ZNSt6vectorISt4pairIlS_INSt7__cxx119sub_matchIN9__gnu_cxx17__normal_iteratorIPKcNS1_12basic_stringIcSt11char_traitsIcESaIcEEEEEEESaISD_EEESaISG_EE19_M_emplace_back_auxIJRlRKSF_EEEvDpOT__x58:
    /*00000058*/ ADDS        R2, R7, R3 
    /*0000005c*/ BEQ         _ZNSt6vectorISt4pairIlS_INSt7__cxx119sub_matchIN9__gnu_cxx17__normal_iteratorIPKcNS1_12basic_stringIcSt11char_traitsIcESaIcEEEEEEESaISD_EEESaISG_EE19_M_emplace_back_auxIJRlRKSF_EEEvDpOT__x7c
    /*00000060*/ LDR         R0, [R4] 
    /*00000064*/ MOV         R1, R5 
    /*00000068*/ STR         R0, [R7, R3] 
    /*0000006c*/ ADD         R0, R2, #4 
    /*00000070*/ BL          _ZNSt6vectorINSt7__cxx119sub_matchIN9__gnu_cxx17__normal_iteratorIPKcNS0_12basic_stringIcSt11char_traitsIcESaIcEEEEEEESaISC_EEC1ERKSE_
    /*00000074*/ LDR         IP, [R6] 
    /*00000078*/ LDR         R0, [R6, #4] 
    _ZNSt6vectorISt4pairIlS_INSt7__cxx119sub_matchIN9__gnu_cxx17__normal_iteratorIPKcNS1_12basic_stringIcSt11char_traitsIcESaIcEEEEEEESaISD_EEESaISG_EE19_M_emplace_back_auxIJRlRKSF_EEEvDpOT__x7c:
    /*0000007c*/ CMP         R0, IP 
    /*00000080*/ BEQ         _ZNSt6vectorISt4pairIlS_INSt7__cxx119sub_matchIN9__gnu_cxx17__normal_iteratorIPKcNS1_12basic_stringIcSt11char_traitsIcESaIcEEEEEEESaISD_EEESaISG_EE19_M_emplace_back_auxIJRlRKSF_EEEvDpOT__x144
    /*00000084*/ MOV         R3, R7 
    /*00000088*/ MOV         R4, IP 
    /*0000008c*/ MOV         R2, #0 
    _ZNSt6vectorISt4pairIlS_INSt7__cxx119sub_matchIN9__gnu_cxx17__normal_iteratorIPKcNS1_12basic_stringIcSt11char_traitsIcESaIcEEEEEEESaISD_EEESaISG_EE19_M_emplace_back_auxIJRlRKSF_EEEvDpOT__x90:
    /*00000090*/ CMP         R3, #0 
    /*00000094*/ BEQ         _ZNSt6vectorISt4pairIlS_INSt7__cxx119sub_matchIN9__gnu_cxx17__normal_iteratorIPKcNS1_12basic_stringIcSt11char_traitsIcESaIcEEEEEEESaISD_EEESaISG_EE19_M_emplace_back_auxIJRlRKSF_EEEvDpOT__xd8
    /*00000098*/ LDR         LR, [R4] 
    /*0000009c*/ STR         R2, [R3, #8] 
    /*000000a0*/ STR         R2, [R3, #12] 
    /*000000a4*/ STR         R2, [R3, #4] 
    /*000000a8*/ LDR         R1, [R4, #4] 
    /*000000ac*/ STR         LR, [R3] 
    /*000000b0*/ STR         R1, [R3, #4] 
    /*000000b4*/ STR         R2, [R4, #4] 
    /*000000b8*/ LDR         LR, [R4, #8] 
    /*000000bc*/ LDR         R1, [R3, #8] 
    /*000000c0*/ STR         LR, [R3, #8] 
    /*000000c4*/ STR         R1, [R4, #8] 
    /*000000c8*/ LDR         LR, [R4, #12] 
    /*000000cc*/ LDR         R1, [R3, #12] 
    /*000000d0*/ STR         LR, [R3, #12] 
    /*000000d4*/ STR         R1, [R4, #12] 
    _ZNSt6vectorISt4pairIlS_INSt7__cxx119sub_matchIN9__gnu_cxx17__normal_iteratorIPKcNS1_12basic_stringIcSt11char_traitsIcESaIcEEEEEEESaISD_EEESaISG_EE19_M_emplace_back_auxIJRlRKSF_EEEvDpOT__xd8:
    /*000000d8*/ ADD         R4, R4, #16 
    /*000000dc*/ ADD         R3, R3, #16 
    /*000000e0*/ CMP         R0, R4 
    /*000000e4*/ BNE         _ZNSt6vectorISt4pairIlS_INSt7__cxx119sub_matchIN9__gnu_cxx17__normal_iteratorIPKcNS1_12basic_stringIcSt11char_traitsIcESaIcEEEEEEESaISD_EEESaISG_EE19_M_emplace_back_auxIJRlRKSF_EEEvDpOT__x90
    /*000000e8*/ ADD         R5, IP, #16 
    /*000000ec*/ SUB         R9, R4, R5 
    /*000000f0*/ ADD         R9, R9, #32 
    /*000000f4*/ ADD         R9, R7, R9 
    /*000000f8*/ B           _ZNSt6vectorISt4pairIlS_INSt7__cxx119sub_matchIN9__gnu_cxx17__normal_iteratorIPKcNS1_12basic_stringIcSt11char_traitsIcESaIcEEEEEEESaISD_EEESaISG_EE19_M_emplace_back_auxIJRlRKSF_EEEvDpOT__x100
    _ZNSt6vectorISt4pairIlS_INSt7__cxx119sub_matchIN9__gnu_cxx17__normal_iteratorIPKcNS1_12basic_stringIcSt11char_traitsIcESaIcEEEEEEESaISD_EEESaISG_EE19_M_emplace_back_auxIJRlRKSF_EEEvDpOT__xfc:
    /*000000fc*/ ADD         R5, R5, #16 
    _ZNSt6vectorISt4pairIlS_INSt7__cxx119sub_matchIN9__gnu_cxx17__normal_iteratorIPKcNS1_12basic_stringIcSt11char_traitsIcESaIcEEEEEEESaISD_EEESaISG_EE19_M_emplace_back_auxIJRlRKSF_EEEvDpOT__x100:
    /*00000100*/ LDR         R0, [IP, #4] 
    /*00000104*/ CMP         R0, #0 
    /*00000108*/ BEQ         _ZNSt6vectorISt4pairIlS_INSt7__cxx119sub_matchIN9__gnu_cxx17__normal_iteratorIPKcNS1_12basic_stringIcSt11char_traitsIcESaIcEEEEEEESaISD_EEESaISG_EE19_M_emplace_back_auxIJRlRKSF_EEEvDpOT__x110
    /*0000010c*/ BL          _ZdlPv
    _ZNSt6vectorISt4pairIlS_INSt7__cxx119sub_matchIN9__gnu_cxx17__normal_iteratorIPKcNS1_12basic_stringIcSt11char_traitsIcESaIcEEEEEEESaISD_EEESaISG_EE19_M_emplace_back_auxIJRlRKSF_EEEvDpOT__x110:
    /*00000110*/ CMP         R5, R4 
    /*00000114*/ MOV         IP, R5 
    /*00000118*/ BNE         _ZNSt6vectorISt4pairIlS_INSt7__cxx119sub_matchIN9__gnu_cxx17__normal_iteratorIPKcNS1_12basic_stringIcSt11char_traitsIcESaIcEEEEEEESaISD_EEESaISG_EE19_M_emplace_back_auxIJRlRKSF_EEEvDpOT__xfc
    /*0000011c*/ LDR         R0, [R6] 
    _ZNSt6vectorISt4pairIlS_INSt7__cxx119sub_matchIN9__gnu_cxx17__normal_iteratorIPKcNS1_12basic_stringIcSt11char_traitsIcESaIcEEEEEEESaISD_EEESaISG_EE19_M_emplace_back_auxIJRlRKSF_EEEvDpOT__x120:
    /*00000120*/ CMP         R0, #0 
    /*00000124*/ BEQ         _ZNSt6vectorISt4pairIlS_INSt7__cxx119sub_matchIN9__gnu_cxx17__normal_iteratorIPKcNS1_12basic_stringIcSt11char_traitsIcESaIcEEEEEEESaISD_EEESaISG_EE19_M_emplace_back_auxIJRlRKSF_EEEvDpOT__x12c
    /*00000128*/ BL          _ZdlPv
    _ZNSt6vectorISt4pairIlS_INSt7__cxx119sub_matchIN9__gnu_cxx17__normal_iteratorIPKcNS1_12basic_stringIcSt11char_traitsIcESaIcEEEEEEESaISD_EEESaISG_EE19_M_emplace_back_auxIJRlRKSF_EEEvDpOT__x12c:
    /*0000012c*/ ADD         R8, R7, R8 
    /*00000130*/ STR         R8, [R6, #8] 
    /*00000134*/ STM         R6, {R7, R9} 
    /*00000138*/ POP         {R4, R5, R6, R7, R8, R9, SL, PC} 
    _ZNSt6vectorISt4pairIlS_INSt7__cxx119sub_matchIN9__gnu_cxx17__normal_iteratorIPKcNS1_12basic_stringIcSt11char_traitsIcESaIcEEEEEEESaISD_EEESaISG_EE19_M_emplace_back_auxIJRlRKSF_EEEvDpOT__x13c:
    /*0000013c*/ MOV         R8, #16 
    /*00000140*/ B           _ZNSt6vectorISt4pairIlS_INSt7__cxx119sub_matchIN9__gnu_cxx17__normal_iteratorIPKcNS1_12basic_stringIcSt11char_traitsIcESaIcEEEEEEESaISD_EEESaISG_EE19_M_emplace_back_auxIJRlRKSF_EEEvDpOT__x40
    _ZNSt6vectorISt4pairIlS_INSt7__cxx119sub_matchIN9__gnu_cxx17__normal_iteratorIPKcNS1_12basic_stringIcSt11char_traitsIcESaIcEEEEEEESaISD_EEESaISG_EE19_M_emplace_back_auxIJRlRKSF_EEEvDpOT__x144:
    /*00000144*/ ADD         R9, R7, #16 
    /*00000148*/ B           _ZNSt6vectorISt4pairIlS_INSt7__cxx119sub_matchIN9__gnu_cxx17__normal_iteratorIPKcNS1_12basic_stringIcSt11char_traitsIcESaIcEEEEEEESaISD_EEESaISG_EE19_M_emplace_back_auxIJRlRKSF_EEEvDpOT__x120
    _ZNSt6vectorISt4pairIlS_INSt7__cxx119sub_matchIN9__gnu_cxx17__normal_iteratorIPKcNS1_12basic_stringIcSt11char_traitsIcESaIcEEEEEEESaISD_EEESaISG_EE19_M_emplace_back_auxIJRlRKSF_EEEvDpOT__x14c:
    /*0000014c*/ CMN         R2, #-268435455             @ 0xf0000001 
    /*00000150*/ BHI         _ZNSt6vectorISt4pairIlS_INSt7__cxx119sub_matchIN9__gnu_cxx17__normal_iteratorIPKcNS1_12basic_stringIcSt11char_traitsIcESaIcEEEEEEESaISD_EEESaISG_EE19_M_emplace_back_auxIJRlRKSF_EEEvDpOT__x3c
    /*00000154*/ CMP         R2, #0 
    /*00000158*/ LSLNE       R8, R8, #5 
    /*0000015c*/ BNE         _ZNSt6vectorISt4pairIlS_INSt7__cxx119sub_matchIN9__gnu_cxx17__normal_iteratorIPKcNS1_12basic_stringIcSt11char_traitsIcESaIcEEEEEEESaISD_EEESaISG_EE19_M_emplace_back_auxIJRlRKSF_EEEvDpOT__x40
    /*00000160*/ MOV         R8, R2 
    /*00000164*/ MOV         R7, R2 
    /*00000168*/ B           _ZNSt6vectorISt4pairIlS_INSt7__cxx119sub_matchIN9__gnu_cxx17__normal_iteratorIPKcNS1_12basic_stringIcSt11char_traitsIcESaIcEEEEEEESaISD_EEESaISG_EE19_M_emplace_back_auxIJRlRKSF_EEEvDpOT__x58
    /*0000016c*/ BL          __cxa_begin_catch
    /*00000170*/ CMP         R7, #0 
    /*00000174*/ BEQ         _ZNSt6vectorISt4pairIlS_INSt7__cxx119sub_matchIN9__gnu_cxx17__normal_iteratorIPKcNS1_12basic_stringIcSt11char_traitsIcESaIcEEEEEEESaISD_EEESaISG_EE19_M_emplace_back_auxIJRlRKSF_EEEvDpOT__x184
    /*00000178*/ MOV         R0, R7 
    /*0000017c*/ BL          _ZdlPv
    _ZNSt6vectorISt4pairIlS_INSt7__cxx119sub_matchIN9__gnu_cxx17__normal_iteratorIPKcNS1_12basic_stringIcSt11char_traitsIcESaIcEEEEEEESaISD_EEESaISG_EE19_M_emplace_back_auxIJRlRKSF_EEEvDpOT__x180:
    /*00000180*/ BL          __cxa_rethrow
    _ZNSt6vectorISt4pairIlS_INSt7__cxx119sub_matchIN9__gnu_cxx17__normal_iteratorIPKcNS1_12basic_stringIcSt11char_traitsIcESaIcEEEEEEESaISD_EEESaISG_EE19_M_emplace_back_auxIJRlRKSF_EEEvDpOT__x184:
    /*00000184*/ LDM         R6, {R2, R3} 
    /*00000188*/ SUB         R3, R3, R2 
    /*0000018c*/ LDR         R0, [R3, #4] 
    /*00000190*/ CMP         R0, #0 
    /*00000194*/ BEQ         _ZNSt6vectorISt4pairIlS_INSt7__cxx119sub_matchIN9__gnu_cxx17__normal_iteratorIPKcNS1_12basic_stringIcSt11char_traitsIcESaIcEEEEEEESaISD_EEESaISG_EE19_M_emplace_back_auxIJRlRKSF_EEEvDpOT__x180
    /*00000198*/ BL          _ZdlPv
    /*0000019c*/ B           _ZNSt6vectorISt4pairIlS_INSt7__cxx119sub_matchIN9__gnu_cxx17__normal_iteratorIPKcNS1_12basic_stringIcSt11char_traitsIcESaIcEEEEEEESaISD_EEESaISG_EE19_M_emplace_back_auxIJRlRKSF_EEEvDpOT__x180
    /*000001a0*/ BL          __cxa_end_catch
    /*000001a4*/ BL          __cxa_end_cleanup
FUNC_END _ZNSt6vectorISt4pairIlS_INSt7__cxx119sub_matchIN9__gnu_cxx17__normal_iteratorIPKcNS1_12basic_stringIcSt11char_traitsIcESaIcEEEEEEESaISD_EEESaISG_EE19_M_emplace_back_auxIJRlRKSF_EEEvDpOT_


@ - - - - - - - - - - - - - - - - - - - - - - - - - - - - - 
@ .ARM.extab.text._ZNSt6vectorISt4pairIlS_INSt7__cxx119sub_matchIN9__gnu_cxx17__normal_iteratorIPKcNS1_12basic_stringIcSt11char_traitsIcESaIcEEEEEEESaISD_EEESaISG_EE19_M_emplace_back_auxIJRlRKSF_EEEvDpOT_
@ Size: 0x28
@ - - - - - - - - - - - - - - - - - - - - - - - - - - - - - 

@ - - - - - - - - - - - - - - - - - - - - - - - - - - - - - 
@ .text._ZNSt6vectorINSt8__detail6_StateIcEESaIS2_EE19_M_emplace_back_auxIJS2_EEEvDpOT_
@ Size: 0x2fc
@ - - - - - - - - - - - - - - - - - - - - - - - - - - - - - 

FUNC_BEGIN _ZNSt6vectorINSt8__detail6_StateIcEESaIS2_EE19_M_emplace_back_auxIJS2_EEEvDpOT_
    /*00000000*/ MOV         IP, #16384                  @ 0x4000 
    /*00000004*/ PUSH        {R4, R5, R6, R7, R8, R9, SL, FP, LR} 
    /*00000008*/ SUB         IP, SP, IP 
    /*0000000c*/ STR         R0, [IP, #4032]             @ 0xfc0 
    /*00000010*/ LDR         R2, WORD_02f4               @ LDR         R2, [PC, #732]              @ 0x00000000000002f4 
    /*00000014*/ MOV         R8, R0 
    /*00000018*/ LDR         R0, WORD_02f8               @ LDR         R0, [PC, #728]              @ 0x00000000000002f8 
    /*0000001c*/ SUB         SP, SP, #28 
    /*00000020*/ ADD         R2, PC, R2 
    /*00000024*/ MOVW        R3, #43691                  @ 0xaaab 
    /*00000028*/ LDR         R4, [R8] 
    /*0000002c*/ MOV         R5, R1 
    /*00000030*/ LDR         R7, [R8, #4] 
    /*00000034*/ LDR         R2, [R2, R0] 
    /*00000038*/ SUB         IP, R7, R4 
    /*0000003c*/ MOVT        R3, #43690                  @ 0xaaaa 
    /*00000040*/ MOV         R1, R2 
    /*00000044*/ STR         R2, [SP, #4] 
    /*00000048*/ ASR         R2, IP, #3 
    /*0000004c*/ MUL         R3, R3, R2 
    /*00000050*/ LDR         R2, [R1] 
    /*00000054*/ CMP         R3, #0 
    /*00000058*/ STR         R2, [SP, #20] 
    /*0000005c*/ BEQ         _ZNSt6vectorINSt8__detail6_StateIcEESaIS2_EE19_M_emplace_back_auxIJS2_EEEvDpOT__x1cc
    /*00000060*/ LSL         SL, R3, #1 
    /*00000064*/ CMP         R3, SL 
    /*00000068*/ BLS         _ZNSt6vectorINSt8__detail6_StateIcEESaIS2_EE19_M_emplace_back_auxIJS2_EEEvDpOT__x280
    _ZNSt6vectorINSt8__detail6_StateIcEESaIS2_EE19_M_emplace_back_auxIJS2_EEEvDpOT__x6c:
    /*0000006c*/ MVN         SL, #15 
    _ZNSt6vectorINSt8__detail6_StateIcEESaIS2_EE19_M_emplace_back_auxIJS2_EEEvDpOT__x70:
    /*00000070*/ MOV         R0, SL 
    /*00000074*/ BL          _Znwj
    /*00000078*/ LDM         R8, {R4, R7} 
    /*0000007c*/ MOV         R9, R0 
    /*00000080*/ SUB         IP, R7, R4 
    _ZNSt6vectorINSt8__detail6_StateIcEESaIS2_EE19_M_emplace_back_auxIJS2_EEEvDpOT__x84:
    /*00000084*/ ADDS        IP, R9, IP 
    /*00000088*/ BEQ         _ZNSt6vectorINSt8__detail6_StateIcEESaIS2_EE19_M_emplace_back_auxIJS2_EEEvDpOT__xb0
    /*0000008c*/ LDR         FP, [R5] 
    /*00000090*/ MOV         R6, R5 
    /*00000094*/ MOV         LR, IP 
    /*00000098*/ LDM         R6!, {R0, R1, R2, R3} 
    /*0000009c*/ CMP         FP, #11 
    /*000000a0*/ STMIA       LR!, {R0, R1, R2, R3} 
    /*000000a4*/ LDM         R6, {R0, R1} 
    /*000000a8*/ STM         LR, {R0, R1} 
    /*000000ac*/ BEQ         _ZNSt6vectorINSt8__detail6_StateIcEESaIS2_EE19_M_emplace_back_auxIJS2_EEEvDpOT__x1d4
    _ZNSt6vectorINSt8__detail6_StateIcEESaIS2_EE19_M_emplace_back_auxIJS2_EEEvDpOT__xb0:
    /*000000b0*/ CMP         R7, R4 
    /*000000b4*/ BEQ         _ZNSt6vectorINSt8__detail6_StateIcEESaIS2_EE19_M_emplace_back_auxIJS2_EEEvDpOT__x220
    /*000000b8*/ ADD         R4, R4, #8 
    /*000000bc*/ ADD         R5, R9, #8 
    /*000000c0*/ MOV         R6, R9 
    /*000000c4*/ MOV         FP, #0 
    /*000000c8*/ B           _ZNSt6vectorINSt8__detail6_StateIcEESaIS2_EE19_M_emplace_back_auxIJS2_EEEvDpOT__xe8
    _ZNSt6vectorINSt8__detail6_StateIcEESaIS2_EE19_M_emplace_back_auxIJS2_EEEvDpOT__xcc:
    /*000000cc*/ ADD         R3, R4, #16 
    /*000000d0*/ ADD         R5, R5, #24 
    /*000000d4*/ CMP         R7, R3 
    /*000000d8*/ ADD         R4, R4, #24 
    /*000000dc*/ ADD         R3, R6, #24 
    /*000000e0*/ BEQ         _ZNSt6vectorINSt8__detail6_StateIcEESaIS2_EE19_M_emplace_back_auxIJS2_EEEvDpOT__x148
    /*000000e4*/ MOV         R6, R3 
    _ZNSt6vectorINSt8__detail6_StateIcEESaIS2_EE19_M_emplace_back_auxIJS2_EEEvDpOT__xe8:
    /*000000e8*/ CMP         R6, #0 
    /*000000ec*/ BEQ         _ZNSt6vectorINSt8__detail6_StateIcEESaIS2_EE19_M_emplace_back_auxIJS2_EEEvDpOT__xcc
    /*000000f0*/ SUB         LR, R4, #8 
    /*000000f4*/ SUB         IP, R5, #8 
    /*000000f8*/ LDM         LR!, {R0, R1, R2, R3} 
    /*000000fc*/ STMIA       IP!, {R0, R1, R2, R3} 
    /*00000100*/ LDM         LR, {R0, R1} 
    /*00000104*/ STM         IP, {R0, R1} 
    /*00000108*/ LDR         R3, [R4, #-8] 
    /*0000010c*/ CMP         R3, #11 
    /*00000110*/ BNE         _ZNSt6vectorINSt8__detail6_StateIcEESaIS2_EE19_M_emplace_back_auxIJS2_EEEvDpOT__xcc
    /*00000114*/ STR         FP, [R5, #8] 
    /*00000118*/ LDR         R3, [R4, #8] 
    /*0000011c*/ CMP         R3, #0 
    /*00000120*/ BEQ         _ZNSt6vectorINSt8__detail6_StateIcEESaIS2_EE19_M_emplace_back_auxIJS2_EEEvDpOT__xcc
    /*00000124*/ MOV         R2, #2 
    /*00000128*/ MOV         R1, R4 
    /*0000012c*/ MOV         R0, R5 
    /*00000130*/ BLX         R3 
    /*00000134*/ LDR         R2, [R4, #12] 
    /*00000138*/ LDR         R3, [R4, #8] 
    /*0000013c*/ STR         R2, [R5, #12] 
    /*00000140*/ STR         R3, [R5, #8] 
    /*00000144*/ B           _ZNSt6vectorINSt8__detail6_StateIcEESaIS2_EE19_M_emplace_back_auxIJS2_EEEvDpOT__xcc
    _ZNSt6vectorINSt8__detail6_StateIcEESaIS2_EE19_M_emplace_back_auxIJS2_EEEvDpOT__x148:
    /*00000148*/ LDR         R4, [R8] 
    /*0000014c*/ ADD         R6, R6, #48                 @ 0x30 
    /*00000150*/ LDR         R7, [R8, #4] 
    /*00000154*/ CMP         R4, R7 
    /*00000158*/ BNE         _ZNSt6vectorINSt8__detail6_StateIcEESaIS2_EE19_M_emplace_back_auxIJS2_EEEvDpOT__x16c
    /*0000015c*/ B           _ZNSt6vectorINSt8__detail6_StateIcEESaIS2_EE19_M_emplace_back_auxIJS2_EEEvDpOT__x190
    _ZNSt6vectorINSt8__detail6_StateIcEESaIS2_EE19_M_emplace_back_auxIJS2_EEEvDpOT__x160:
    /*00000160*/ ADD         R4, R4, #24 
    /*00000164*/ CMP         R7, R4 
    /*00000168*/ BEQ         _ZNSt6vectorINSt8__detail6_StateIcEESaIS2_EE19_M_emplace_back_auxIJS2_EEEvDpOT__x18c
    _ZNSt6vectorINSt8__detail6_StateIcEESaIS2_EE19_M_emplace_back_auxIJS2_EEEvDpOT__x16c:
    /*0000016c*/ LDR         R3, [R4] 
    /*00000170*/ CMP         R3, #11 
    /*00000174*/ BNE         _ZNSt6vectorINSt8__detail6_StateIcEESaIS2_EE19_M_emplace_back_auxIJS2_EEEvDpOT__x160
    /*00000178*/ MOV         R0, R4 
    /*0000017c*/ ADD         R4, R4, #24 
    /*00000180*/ BL          _ZNSt8__detail6_StateIcED2Ev.part.117
    /*00000184*/ CMP         R7, R4 
    /*00000188*/ BNE         _ZNSt6vectorINSt8__detail6_StateIcEESaIS2_EE19_M_emplace_back_auxIJS2_EEEvDpOT__x16c
    _ZNSt6vectorINSt8__detail6_StateIcEESaIS2_EE19_M_emplace_back_auxIJS2_EEEvDpOT__x18c:
    /*0000018c*/ LDR         R7, [R8] 
    _ZNSt6vectorINSt8__detail6_StateIcEESaIS2_EE19_M_emplace_back_auxIJS2_EEEvDpOT__x190:
    /*00000190*/ CMP         R7, #0 
    /*00000194*/ BEQ         _ZNSt6vectorINSt8__detail6_StateIcEESaIS2_EE19_M_emplace_back_auxIJS2_EEEvDpOT__x1a0
    /*00000198*/ MOV         R0, R7 
    /*0000019c*/ BL          _ZdlPv
    _ZNSt6vectorINSt8__detail6_StateIcEESaIS2_EE19_M_emplace_back_auxIJS2_EEEvDpOT__x1a0:
    /*000001a0*/ LDR         R3, [SP, #4] 
    /*000001a4*/ LDR         R2, [SP, #20] 
    /*000001a8*/ LDR         R3, [R3] 
    /*000001ac*/ ADD         SL, R9, SL 
    /*000001b0*/ CMP         R2, R3 
    /*000001b4*/ STR         SL, [R8, #8] 
    /*000001b8*/ STR         R9, [R8] 
    /*000001bc*/ STR         R6, [R8, #4] 
    /*000001c0*/ BNE         _ZNSt6vectorINSt8__detail6_StateIcEESaIS2_EE19_M_emplace_back_auxIJS2_EEEvDpOT__x2a8
    /*000001c4*/ ADD         SP, SP, #28 
    /*000001c8*/ POP         {R4, R5, R6, R7, R8, R9, SL, FP, PC} 
    _ZNSt6vectorINSt8__detail6_StateIcEESaIS2_EE19_M_emplace_back_auxIJS2_EEEvDpOT__x1cc:
    /*000001cc*/ MOV         SL, #24 
    /*000001d0*/ B           _ZNSt6vectorINSt8__detail6_StateIcEESaIS2_EE19_M_emplace_back_auxIJS2_EEEvDpOT__x70
    _ZNSt6vectorINSt8__detail6_StateIcEESaIS2_EE19_M_emplace_back_auxIJS2_EEEvDpOT__x1d4:
    /*000001d4*/ ADD         LR, R5, #8 
    /*000001d8*/ ADD         R2, IP, #8 
    /*000001dc*/ ADD         R3, SP, #12 
    /*000001e0*/ MOV         R6, #0 
    /*000001e4*/ LDM         LR, {R0, R1} 
    /*000001e8*/ STM         R3, {R0, R1} 
    /*000001ec*/ LDM         R2, {R0, R1} 
    /*000001f0*/ STM         LR, {R0, R1} 
    /*000001f4*/ LDM         R3, {R0, R1} 
    /*000001f8*/ LDR         LR, [R5, #20] 
    /*000001fc*/ STM         R2, {R0, R1} 
    /*00000200*/ LDR         R3, [R5, #16] 
    /*00000204*/ LDR         R2, [IP, #20] 
    /*00000208*/ LDM         R8, {R4, R7} 
    /*0000020c*/ STR         LR, [IP, #20] 
    /*00000210*/ STR         R2, [R5, #20] 
    /*00000214*/ STR         R3, [IP, #16] 
    /*00000218*/ STR         R6, [R5, #16] 
    /*0000021c*/ B           _ZNSt6vectorINSt8__detail6_StateIcEESaIS2_EE19_M_emplace_back_auxIJS2_EEEvDpOT__xb0
    _ZNSt6vectorINSt8__detail6_StateIcEESaIS2_EE19_M_emplace_back_auxIJS2_EEEvDpOT__x220:
    /*00000220*/ ADD         R6, R9, #24 
    /*00000224*/ B           _ZNSt6vectorINSt8__detail6_StateIcEESaIS2_EE19_M_emplace_back_auxIJS2_EEEvDpOT__x190
    /*00000228*/ LDR         R3, [R6, #16] 
    /*0000022c*/ MOV         R4, R0 
    /*00000230*/ CMP         R3, #0 
    /*00000234*/ BEQ         _ZNSt6vectorINSt8__detail6_StateIcEESaIS2_EE19_M_emplace_back_auxIJS2_EEEvDpOT__x248
    /*00000238*/ MOV         R2, #3 
    /*0000023c*/ MOV         R1, R5 
    /*00000240*/ MOV         R0, R5 
    /*00000244*/ BLX         R3 
    _ZNSt6vectorINSt8__detail6_StateIcEESaIS2_EE19_M_emplace_back_auxIJS2_EEEvDpOT__x248:
    /*00000248*/ MOV         R0, R4 
    /*0000024c*/ BL          __cxa_begin_catch
    /*00000250*/ CMP         R9, R6 
    /*00000254*/ BEQ         _ZNSt6vectorINSt8__detail6_StateIcEESaIS2_EE19_M_emplace_back_auxIJS2_EEEvDpOT__x27c
    /*00000258*/ MOV         R4, R9 
    _ZNSt6vectorINSt8__detail6_StateIcEESaIS2_EE19_M_emplace_back_auxIJS2_EEEvDpOT__x25c:
    /*0000025c*/ LDR         R3, [R4] 
    /*00000260*/ CMP         R3, #11 
    /*00000264*/ BNE         _ZNSt6vectorINSt8__detail6_StateIcEESaIS2_EE19_M_emplace_back_auxIJS2_EEEvDpOT__x270
    /*00000268*/ MOV         R0, R4 
    /*0000026c*/ BL          _ZNSt8__detail6_StateIcED2Ev.part.117
    _ZNSt6vectorINSt8__detail6_StateIcEESaIS2_EE19_M_emplace_back_auxIJS2_EEEvDpOT__x270:
    /*00000270*/ ADD         R4, R4, #24 
    /*00000274*/ CMP         R6, R4 
    /*00000278*/ BNE         _ZNSt6vectorINSt8__detail6_StateIcEESaIS2_EE19_M_emplace_back_auxIJS2_EEEvDpOT__x25c
    _ZNSt6vectorINSt8__detail6_StateIcEESaIS2_EE19_M_emplace_back_auxIJS2_EEEvDpOT__x27c:
    /*0000027c*/ BL          __cxa_rethrow
    _ZNSt6vectorINSt8__detail6_StateIcEESaIS2_EE19_M_emplace_back_auxIJS2_EEEvDpOT__x280:
    /*00000280*/ MOVW        R3, #43690                  @ 0xaaaa 
    /*00000284*/ MOVT        R3, #2730                   @ 0xaaa 
    /*00000288*/ CMP         SL, R3 
    /*0000028c*/ BHI         _ZNSt6vectorINSt8__detail6_StateIcEESaIS2_EE19_M_emplace_back_auxIJS2_EEEvDpOT__x6c
    /*00000290*/ CMP         SL, #0 
    /*00000294*/ MOVNE       R3, #24 
    /*00000298*/ MULNE       SL, R3, SL 
    /*0000029c*/ BNE         _ZNSt6vectorINSt8__detail6_StateIcEESaIS2_EE19_M_emplace_back_auxIJS2_EEEvDpOT__x70
    /*000002a0*/ MOV         R9, SL 
    /*000002a4*/ B           _ZNSt6vectorINSt8__detail6_StateIcEESaIS2_EE19_M_emplace_back_auxIJS2_EEEvDpOT__x84
    _ZNSt6vectorINSt8__detail6_StateIcEESaIS2_EE19_M_emplace_back_auxIJS2_EEEvDpOT__x2a8:
    /*000002a8*/ BL          __stack_chk_fail
    /*000002ac*/ MOV         R4, R0 
    /*000002b0*/ BL          __cxa_end_catch
    /*000002b4*/ MOV         R0, R4 
    /*000002b8*/ BL          __cxa_begin_catch
    /*000002bc*/ LDM         R8, {R2, R3} 
    /*000002c0*/ SUB         R3, R3, R2 
    /*000002c4*/ ADD         R0, R9, R3 
    /*000002c8*/ LDR         R3, [R9, R3] 
    /*000002cc*/ CMP         R3, #11 
    /*000002d0*/ BNE         _ZNSt6vectorINSt8__detail6_StateIcEESaIS2_EE19_M_emplace_back_auxIJS2_EEEvDpOT__x2d8
    /*000002d4*/ BL          _ZNSt8__detail6_StateIcED2Ev.part.117
    _ZNSt6vectorINSt8__detail6_StateIcEESaIS2_EE19_M_emplace_back_auxIJS2_EEEvDpOT__x2d8:
    /*000002d8*/ CMP         R9, #0 
    /*000002dc*/ BEQ         _ZNSt6vectorINSt8__detail6_StateIcEESaIS2_EE19_M_emplace_back_auxIJS2_EEEvDpOT__x2e8
    /*000002e0*/ MOV         R0, R9 
    /*000002e4*/ BL          _ZdlPv
    _ZNSt6vectorINSt8__detail6_StateIcEESaIS2_EE19_M_emplace_back_auxIJS2_EEEvDpOT__x2e8:
    /*000002e8*/ BL          __cxa_rethrow
    /*000002ec*/ BL          __cxa_end_catch
    /*000002f0*/ BL          __cxa_end_cleanup
    /*000002f4*/ WORD_02f4: .word 0x000002cc
    /*000002f8*/ WORD_02f8: .word 0x00000000
FUNC_END _ZNSt6vectorINSt8__detail6_StateIcEESaIS2_EE19_M_emplace_back_auxIJS2_EEEvDpOT_


@ - - - - - - - - - - - - - - - - - - - - - - - - - - - - - 
@ .ARM.extab.text._ZNSt6vectorINSt8__detail6_StateIcEESaIS2_EE19_M_emplace_back_auxIJS2_EEEvDpOT_
@ Size: 0x30
@ - - - - - - - - - - - - - - - - - - - - - - - - - - - - - 

@ - - - - - - - - - - - - - - - - - - - - - - - - - - - - - 
@ .text._ZNSt8__detail4_NFAINSt7__cxx1112regex_traitsIcEEE15_M_insert_stateENS_6_StateIcEE
@ Size: 0x140
@ - - - - - - - - - - - - - - - - - - - - - - - - - - - - - 

FUNC_BEGIN _ZNSt8__detail4_NFAINSt7__cxx1112regex_traitsIcEEE15_M_insert_stateENS_6_StateIcEE
    /*00000000*/ MOV         IP, #16384                  @ 0x4000 
    /*00000004*/ PUSH        {R4, R5, R6, R7, LR} 
    /*00000008*/ SUB         IP, SP, IP 
    /*0000000c*/ STR         R0, [IP, #4056]             @ 0xfd8 
    /*00000010*/ LDR         R3, WORD_0134               @ LDR         R3, [PC, #284]              @ 0x0000000000000134 
    /*00000014*/ SUB         SP, SP, #20 
    /*00000018*/ LDR         R2, WORD_0138               @ LDR         R2, [PC, #280]              @ 0x0000000000000138 
    /*0000001c*/ MOV         R6, R0 
    /*00000020*/ ADD         R3, PC, R3 
    /*00000024*/ LDR         IP, [R0, #32] 
    /*00000028*/ LDR         R5, [R3, R2] 
    /*0000002c*/ LDR         R2, [R0, #36]               @ 0x24 
    /*00000030*/ LDR         R3, [R5] 
    /*00000034*/ CMP         IP, R2 
    /*00000038*/ STR         R3, [SP, #12] 
    /*0000003c*/ BEQ         _ZNSt8__detail4_NFAINSt7__cxx1112regex_traitsIcEEE15_M_insert_stateENS_6_StateIcEE_x110
    /*00000040*/ CMP         IP, #0 
    /*00000044*/ BEQ         _ZNSt8__detail4_NFAINSt7__cxx1112regex_traitsIcEEE15_M_insert_stateENS_6_StateIcEE_x70
    /*00000048*/ MOV         R4, R1 
    /*0000004c*/ MOV         R7, R1 
    /*00000050*/ MOV         LR, IP 
    /*00000054*/ LDM         R4!, {R0, R1, R2, R3} 
    /*00000058*/ STMIA       LR!, {R0, R1, R2, R3} 
    /*0000005c*/ LDM         R4, {R0, R1} 
    /*00000060*/ STM         LR, {R0, R1} 
    /*00000064*/ LDR         R3, [R7] 
    /*00000068*/ CMP         R3, #11 
    /*0000006c*/ BEQ         _ZNSt8__detail4_NFAINSt7__cxx1112regex_traitsIcEEE15_M_insert_stateENS_6_StateIcEE_xbc
    _ZNSt8__detail4_NFAINSt7__cxx1112regex_traitsIcEEE15_M_insert_stateENS_6_StateIcEE_x70:
    /*00000070*/ ADD         IP, IP, #24 
    /*00000074*/ STR         IP, [R6, #32] 
    _ZNSt8__detail4_NFAINSt7__cxx1112regex_traitsIcEEE15_M_insert_stateENS_6_StateIcEE_x78:
    /*00000078*/ LDR         R2, [R6, #28] 
    /*0000007c*/ MOVW        R0, #43691                  @ 0xaaab 
    /*00000080*/ MOVT        R0, #43690                  @ 0xaaaa 
    /*00000084*/ MOVW        R3, #34464                  @ 0x86a0 
    /*00000088*/ SUB         IP, IP, R2 
    /*0000008c*/ MOVT        R3, #1 
    /*00000090*/ ASR         IP, IP, #3 
    /*00000094*/ MUL         R0, R0, IP 
    /*00000098*/ CMP         R0, R3 
    /*0000009c*/ BHI         _ZNSt8__detail4_NFAINSt7__cxx1112regex_traitsIcEEE15_M_insert_stateENS_6_StateIcEE_x120
    /*000000a0*/ LDR         R2, [SP, #12] 
    /*000000a4*/ SUB         R0, R0, #1 
    /*000000a8*/ LDR         R3, [R5] 
    /*000000ac*/ CMP         R2, R3 
    /*000000b0*/ BNE         _ZNSt8__detail4_NFAINSt7__cxx1112regex_traitsIcEEE15_M_insert_stateENS_6_StateIcEE_x130
    /*000000b4*/ ADD         SP, SP, #20 
    /*000000b8*/ POP         {R4, R5, R6, R7, PC} 
    _ZNSt8__detail4_NFAINSt7__cxx1112regex_traitsIcEEE15_M_insert_stateENS_6_StateIcEE_xbc:
    /*000000bc*/ ADD         LR, R7, #8 
    /*000000c0*/ MOV         R3, #0 
    /*000000c4*/ STR         R3, [IP, #16] 
    /*000000c8*/ ADD         R2, IP, #8 
    /*000000cc*/ LDM         LR, {R0, R1} 
    /*000000d0*/ ADD         R3, SP, #4 
    /*000000d4*/ STM         R3, {R0, R1} 
    /*000000d8*/ LDM         R2, {R0, R1} 
    /*000000dc*/ STM         LR, {R0, R1} 
    /*000000e0*/ LDM         R3, {R0, R1} 
    /*000000e4*/ STM         R2, {R0, R1} 
    /*000000e8*/ LDR         R0, [IP, #16] 
    /*000000ec*/ LDR         R2, [IP, #20] 
    /*000000f0*/ LDR         R1, [R7, #16] 
    /*000000f4*/ LDR         R3, [R7, #20] 
    /*000000f8*/ STR         R0, [R7, #16] 
    /*000000fc*/ STR         R1, [IP, #16] 
    /*00000100*/ STR         R2, [R7, #20] 
    /*00000104*/ STR         R3, [IP, #20] 
    /*00000108*/ LDR         IP, [R6, #32] 
    /*0000010c*/ B           _ZNSt8__detail4_NFAINSt7__cxx1112regex_traitsIcEEE15_M_insert_stateENS_6_StateIcEE_x70
    _ZNSt8__detail4_NFAINSt7__cxx1112regex_traitsIcEEE15_M_insert_stateENS_6_StateIcEE_x110:
    /*00000110*/ ADD         R0, R0, #28 
    /*00000114*/ BL          _ZNSt6vectorINSt8__detail6_StateIcEESaIS2_EE19_M_emplace_back_auxIJS2_EEEvDpOT_
    /*00000118*/ LDR         IP, [R6, #32] 
    /*0000011c*/ B           _ZNSt8__detail4_NFAINSt7__cxx1112regex_traitsIcEEE15_M_insert_stateENS_6_StateIcEE_x78
    _ZNSt8__detail4_NFAINSt7__cxx1112regex_traitsIcEEE15_M_insert_stateENS_6_StateIcEE_x120:
    /*00000120*/ LDR         R1, WORD_013c               @ LDR         R1, [PC, #20]               @ 0x000000000000013c 
    /*00000124*/ MOV         R0, #9 
    /*00000128*/ ADD         R1, PC, R1 
    /*0000012c*/ BL          _ZSt19__throw_regex_errorNSt15regex_constants10error_typeEPKc
    _ZNSt8__detail4_NFAINSt7__cxx1112regex_traitsIcEEE15_M_insert_stateENS_6_StateIcEE_x130:
    /*00000130*/ BL          __stack_chk_fail
    /*00000134*/ WORD_0134: .word 0x0000010c
    /*00000138*/ WORD_0138: .word 0x00000000
    /*0000013c*/ WORD_013c: .word 0x0000000c
FUNC_END _ZNSt8__detail4_NFAINSt7__cxx1112regex_traitsIcEEE15_M_insert_stateENS_6_StateIcEE


@ - - - - - - - - - - - - - - - - - - - - - - - - - - - - - 
@ .text._ZNSt8__detail4_NFAINSt7__cxx1112regex_traitsIcEEE15_M_insert_dummyEv
@ Size: 0xa8
@ - - - - - - - - - - - - - - - - - - - - - - - - - - - - - 

FUNC_BEGIN _ZNSt8__detail4_NFAINSt7__cxx1112regex_traitsIcEEE15_M_insert_dummyEv
    /*00000000*/ MOV         IP, #16384                  @ 0x4000 
    /*00000004*/ PUSH        {R4, R5, R6, LR} 
    /*00000008*/ SUB         IP, SP, IP 
    /*0000000c*/ STR         R0, [IP, #4048]             @ 0xfd0 
    /*00000010*/ LDR         R3, WORD_00a0               @ LDR         R3, [PC, #136]              @ 0x00000000000000a0 
    /*00000014*/ SUB         SP, SP, #32 
    /*00000018*/ LDR         R2, WORD_00a4               @ LDR         R2, [PC, #132]              @ 0x00000000000000a4 
    /*0000001c*/ MOV         R1, SP 
    /*00000020*/ ADD         R3, PC, R3 
    /*00000024*/ MOV         R5, SP 
    /*00000028*/ VLDR        D16, [PC, #104]             @ 0x0000000000000098 
    /*0000002c*/ LDR         R4, [R3, R2] 
    /*00000030*/ LDR         R3, [R4] 
    /*00000034*/ VSTR        D16, [SP] 
    /*00000038*/ STR         R3, [SP, #28] 
    /*0000003c*/ BL          _ZNSt8__detail4_NFAINSt7__cxx1112regex_traitsIcEEE15_M_insert_stateENS_6_StateIcEE
    /*00000040*/ LDR         R3, [SP] 
    /*00000044*/ MOV         R6, R0 
    /*00000048*/ CMP         R3, #11 
    /*0000004c*/ BEQ         _ZNSt8__detail4_NFAINSt7__cxx1112regex_traitsIcEEE15_M_insert_dummyEv_x6c
    _ZNSt8__detail4_NFAINSt7__cxx1112regex_traitsIcEEE15_M_insert_dummyEv_x50:
    /*00000050*/ LDR         R2, [SP, #28] 
    /*00000054*/ MOV         R0, R6 
    /*00000058*/ LDR         R3, [R4] 
    /*0000005c*/ CMP         R2, R3 
    /*00000060*/ BNE         _ZNSt8__detail4_NFAINSt7__cxx1112regex_traitsIcEEE15_M_insert_dummyEv_x78
    /*00000064*/ ADD         SP, SP, #32 
    /*00000068*/ POP         {R4, R5, R6, PC} 
    _ZNSt8__detail4_NFAINSt7__cxx1112regex_traitsIcEEE15_M_insert_dummyEv_x6c:
    /*0000006c*/ MOV         R0, SP 
    /*00000070*/ BL          _ZNSt8__detail6_StateIcED2Ev.part.117
    /*00000074*/ B           _ZNSt8__detail4_NFAINSt7__cxx1112regex_traitsIcEEE15_M_insert_dummyEv_x50
    _ZNSt8__detail4_NFAINSt7__cxx1112regex_traitsIcEEE15_M_insert_dummyEv_x78:
    /*00000078*/ BL          __stack_chk_fail
    /*0000007c*/ LDR         R3, [SP] 
    /*00000080*/ CMP         R3, #11 
    /*00000084*/ BNE         _ZNSt8__detail4_NFAINSt7__cxx1112regex_traitsIcEEE15_M_insert_dummyEv_x90
    /*00000088*/ MOV         R0, R5 
    /*0000008c*/ BL          _ZNSt8__detail6_StateIcED2Ev.part.117
    _ZNSt8__detail4_NFAINSt7__cxx1112regex_traitsIcEEE15_M_insert_dummyEv_x90:
    /*00000090*/ BL          __cxa_end_cleanup
    /*00000094*/ NOP         {0} 
    /*00000098*/ ANDEQ       R0, R0, SL 
    /*0000009c*/ @           <UNDEFINED> instruction: 0xffffffff 
    /*000000a0*/ WORD_00a0: .word 0x00000078
    /*000000a4*/ WORD_00a4: .word 0x00000000
FUNC_END _ZNSt8__detail4_NFAINSt7__cxx1112regex_traitsIcEEE15_M_insert_dummyEv


@ - - - - - - - - - - - - - - - - - - - - - - - - - - - - - 
@ .ARM.extab.text._ZNSt8__detail4_NFAINSt7__cxx1112regex_traitsIcEEE15_M_insert_dummyEv
@ Size: 0x15
@ - - - - - - - - - - - - - - - - - - - - - - - - - - - - - 

@ - - - - - - - - - - - - - - - - - - - - - - - - - - - - - 
@ .text._ZNSt8__detail4_NFAINSt7__cxx1112regex_traitsIcEEE21_M_insert_subexpr_endEv
@ Size: 0x108
@ - - - - - - - - - - - - - - - - - - - - - - - - - - - - - 

FUNC_BEGIN _ZNSt8__detail4_NFAINSt7__cxx1112regex_traitsIcEEE21_M_insert_subexpr_endEv
    /*00000000*/ MOV         IP, #16384                  @ 0x4000 
    /*00000004*/ PUSH        {R4, R5, R6, R7, R8, LR} 
    /*00000008*/ SUB         IP, SP, IP 
    /*0000000c*/ STR         R0, [IP, #4016]             @ 0xfb0 
    /*00000010*/ VLDR        D16, [PC, #224]             @ 0x00000000000000f8 
    /*00000014*/ LDR         R3, WORD_0100               @ LDR         R3, [PC, #228]              @ 0x0000000000000100 
    /*00000018*/ SUB         SP, SP, #56                 @ 0x38 
    /*0000001c*/ LDR         R2, WORD_0104               @ LDR         R2, [PC, #224]              @ 0x0000000000000104 
    /*00000020*/ MOV         LR, SP 
    /*00000024*/ ADD         R3, PC, R3 
    /*00000028*/ MOV         R4, R0 
    /*0000002c*/ LDR         R5, [R0, #4] 
    /*00000030*/ ADD         IP, SP, #28 
    /*00000034*/ LDR         R7, [R3, R2] 
    /*00000038*/ MOV         R8, IP 
    /*0000003c*/ VSTR        D16, [SP] 
    /*00000040*/ LDR         R2, [R7] 
    /*00000044*/ MOV         R6, SP 
    /*00000048*/ LDR         R3, [R5, #-4]! 
    /*0000004c*/ STR         R2, [SP, #52]               @ 0x34 
    /*00000050*/ STR         R3, [SP, #8] 
    /*00000054*/ LDM         LR!, {R0, R1, R2, R3} 
    /*00000058*/ STR         R5, [R4, #4] 
    /*0000005c*/ STMIA       IP!, {R0, R1, R2, R3} 
    /*00000060*/ LDM         LR, {R0, R1} 
    /*00000064*/ STM         IP, {R0, R1} 
    /*00000068*/ MOV         R0, R4 
    /*0000006c*/ MOV         R1, R8 
    /*00000070*/ BL          _ZNSt8__detail4_NFAINSt7__cxx1112regex_traitsIcEEE15_M_insert_stateENS_6_StateIcEE
    /*00000074*/ LDR         R3, [SP, #28] 
    /*00000078*/ MOV         R4, R0 
    /*0000007c*/ CMP         R3, #11 
    /*00000080*/ BEQ         _ZNSt8__detail4_NFAINSt7__cxx1112regex_traitsIcEEE21_M_insert_subexpr_endEv_xb8
    _ZNSt8__detail4_NFAINSt7__cxx1112regex_traitsIcEEE21_M_insert_subexpr_endEv_x84:
    /*00000084*/ LDR         R3, [SP] 
    /*00000088*/ CMP         R3, #11 
    /*0000008c*/ BEQ         _ZNSt8__detail4_NFAINSt7__cxx1112regex_traitsIcEEE21_M_insert_subexpr_endEv_xac
    _ZNSt8__detail4_NFAINSt7__cxx1112regex_traitsIcEEE21_M_insert_subexpr_endEv_x90:
    /*00000090*/ LDR         R2, [SP, #52]               @ 0x34 
    /*00000094*/ MOV         R0, R4 
    /*00000098*/ LDR         R3, [R7] 
    /*0000009c*/ CMP         R2, R3 
    /*000000a0*/ BNE         _ZNSt8__detail4_NFAINSt7__cxx1112regex_traitsIcEEE21_M_insert_subexpr_endEv_xc4
    /*000000a4*/ ADD         SP, SP, #56                 @ 0x38 
    /*000000a8*/ POP         {R4, R5, R6, R7, R8, PC} 
    _ZNSt8__detail4_NFAINSt7__cxx1112regex_traitsIcEEE21_M_insert_subexpr_endEv_xac:
    /*000000ac*/ MOV         R0, R6 
    /*000000b0*/ BL          _ZNSt8__detail6_StateIcED2Ev.part.117
    /*000000b4*/ B           _ZNSt8__detail4_NFAINSt7__cxx1112regex_traitsIcEEE21_M_insert_subexpr_endEv_x90
    _ZNSt8__detail4_NFAINSt7__cxx1112regex_traitsIcEEE21_M_insert_subexpr_endEv_xb8:
    /*000000b8*/ MOV         R0, R8 
    /*000000bc*/ BL          _ZNSt8__detail6_StateIcED2Ev.part.117
    /*000000c0*/ B           _ZNSt8__detail4_NFAINSt7__cxx1112regex_traitsIcEEE21_M_insert_subexpr_endEv_x84
    _ZNSt8__detail4_NFAINSt7__cxx1112regex_traitsIcEEE21_M_insert_subexpr_endEv_xc4:
    /*000000c4*/ BL          __stack_chk_fail
    /*000000c8*/ LDR         R3, [SP, #28] 
    /*000000cc*/ CMP         R3, #11 
    /*000000d0*/ BNE         _ZNSt8__detail4_NFAINSt7__cxx1112regex_traitsIcEEE21_M_insert_subexpr_endEv_xdc
    /*000000d4*/ MOV         R0, R8 
    /*000000d8*/ BL          _ZNSt8__detail6_StateIcED2Ev.part.117
    _ZNSt8__detail4_NFAINSt7__cxx1112regex_traitsIcEEE21_M_insert_subexpr_endEv_xdc:
    /*000000dc*/ LDR         R3, [SP] 
    /*000000e0*/ CMP         R3, #11 
    /*000000e4*/ BNE         _ZNSt8__detail4_NFAINSt7__cxx1112regex_traitsIcEEE21_M_insert_subexpr_endEv_xf0
    /*000000e8*/ MOV         R0, R6 
    /*000000ec*/ BL          _ZNSt8__detail6_StateIcED2Ev.part.117
    _ZNSt8__detail4_NFAINSt7__cxx1112regex_traitsIcEEE21_M_insert_subexpr_endEv_xf0:
    /*000000f0*/ BL          __cxa_end_cleanup
    /*000000f4*/ NOP         {0} 
    /*000000f8*/ ANDEQ       R0, R0, R9 
    /*000000fc*/ @           <UNDEFINED> instruction: 0xffffffff 
    /*00000100*/ WORD_0100: .word 0x000000d4
    /*00000104*/ WORD_0104: .word 0x00000000
FUNC_END _ZNSt8__detail4_NFAINSt7__cxx1112regex_traitsIcEEE21_M_insert_subexpr_endEv


@ - - - - - - - - - - - - - - - - - - - - - - - - - - - - - 
@ .ARM.extab.text._ZNSt8__detail4_NFAINSt7__cxx1112regex_traitsIcEEE21_M_insert_subexpr_endEv
@ Size: 0x16
@ - - - - - - - - - - - - - - - - - - - - - - - - - - - - - 

@ - - - - - - - - - - - - - - - - - - - - - - - - - - - - - 
@ .text._ZNSt8__detail4_NFAINSt7__cxx1112regex_traitsIcEEE23_M_insert_subexpr_beginEv
@ Size: 0x140
@ - - - - - - - - - - - - - - - - - - - - - - - - - - - - - 

FUNC_BEGIN _ZNSt8__detail4_NFAINSt7__cxx1112regex_traitsIcEEE23_M_insert_subexpr_beginEv
    /*00000000*/ MOV         IP, #16384                  @ 0x4000 
    /*00000004*/ PUSH        {R4, R5, R6, R7, LR} 
    /*00000008*/ SUB         IP, SP, IP 
    /*0000000c*/ STR         R0, [IP, #4008]             @ 0xfa8 
    /*00000010*/ LDR         R2, WORD_0138               @ LDR         R2, [PC, #288]              @ 0x0000000000000138 
    /*00000014*/ SUB         SP, SP, #68                 @ 0x44 
    /*00000018*/ LDR         R1, WORD_013c               @ LDR         R1, [PC, #284]              @ 0x000000000000013c 
    /*0000001c*/ MOV         R4, R0 
    /*00000020*/ ADD         R2, PC, R2 
    /*00000024*/ LDR         R3, [R0, #4] 
    /*00000028*/ LDR         R5, [R2, R1] 
    /*0000002c*/ LDR         R1, [R0, #8] 
    /*00000030*/ LDR         R2, [R0, #20] 
    /*00000034*/ CMP         R3, R1 
    /*00000038*/ LDR         R1, [R5] 
    /*0000003c*/ ADD         IP, R2, #1 
    /*00000040*/ STR         IP, [R0, #20] 
    /*00000044*/ STR         R2, [SP, #4] 
    /*00000048*/ STR         R1, [SP, #60]               @ 0x3c 
    /*0000004c*/ BEQ         _ZNSt8__detail4_NFAINSt7__cxx1112regex_traitsIcEEE23_M_insert_subexpr_beginEv_xec
    /*00000050*/ CMP         R3, #0 
    /*00000054*/ ADD         R3, R3, #4 
    /*00000058*/ STRNE       R2, [R3, #-4] 
    /*0000005c*/ LDRNE       R2, [SP, #4] 
    /*00000060*/ STR         R3, [R0, #4] 
    _ZNSt8__detail4_NFAINSt7__cxx1112regex_traitsIcEEE23_M_insert_subexpr_beginEv_x64:
    /*00000064*/ VLDR        D16, [PC, #196]             @ 0x0000000000000130 
    /*00000068*/ STR         R2, [SP, #16] 
    /*0000006c*/ ADD         R6, SP, #8 
    /*00000070*/ MOV         LR, R6 
    /*00000074*/ ADD         IP, SP, #36                 @ 0x24 
    /*00000078*/ VSTR        D16, [SP, #8] 
    /*0000007c*/ MOV         R7, IP 
    /*00000080*/ LDM         LR!, {R0, R1, R2, R3} 
    /*00000084*/ STMIA       IP!, {R0, R1, R2, R3} 
    /*00000088*/ LDM         LR, {R0, R1} 
    /*0000008c*/ STM         IP, {R0, R1} 
    /*00000090*/ MOV         R0, R4 
    /*00000094*/ MOV         R1, R7 
    /*00000098*/ BL          _ZNSt8__detail4_NFAINSt7__cxx1112regex_traitsIcEEE15_M_insert_stateENS_6_StateIcEE
    /*0000009c*/ LDR         R3, [SP, #36]               @ 0x24 
    /*000000a0*/ MOV         R4, R0 
    /*000000a4*/ CMP         R3, #11 
    /*000000a8*/ BEQ         _ZNSt8__detail4_NFAINSt7__cxx1112regex_traitsIcEEE23_M_insert_subexpr_beginEv_xe0
    _ZNSt8__detail4_NFAINSt7__cxx1112regex_traitsIcEEE23_M_insert_subexpr_beginEv_xac:
    /*000000ac*/ LDR         R3, [SP, #8] 
    /*000000b0*/ CMP         R3, #11 
    /*000000b4*/ BEQ         _ZNSt8__detail4_NFAINSt7__cxx1112regex_traitsIcEEE23_M_insert_subexpr_beginEv_xd4
    _ZNSt8__detail4_NFAINSt7__cxx1112regex_traitsIcEEE23_M_insert_subexpr_beginEv_xb8:
    /*000000b8*/ LDR         R2, [SP, #60]               @ 0x3c 
    /*000000bc*/ MOV         R0, R4 
    /*000000c0*/ LDR         R3, [R5] 
    /*000000c4*/ CMP         R2, R3 
    /*000000c8*/ BNE         _ZNSt8__detail4_NFAINSt7__cxx1112regex_traitsIcEEE23_M_insert_subexpr_beginEv_xfc
    /*000000cc*/ ADD         SP, SP, #68                 @ 0x44 
    /*000000d0*/ POP         {R4, R5, R6, R7, PC} 
    _ZNSt8__detail4_NFAINSt7__cxx1112regex_traitsIcEEE23_M_insert_subexpr_beginEv_xd4:
    /*000000d4*/ MOV         R0, R6 
    /*000000d8*/ BL          _ZNSt8__detail6_StateIcED2Ev.part.117
    /*000000dc*/ B           _ZNSt8__detail4_NFAINSt7__cxx1112regex_traitsIcEEE23_M_insert_subexpr_beginEv_xb8
    _ZNSt8__detail4_NFAINSt7__cxx1112regex_traitsIcEEE23_M_insert_subexpr_beginEv_xe0:
    /*000000e0*/ MOV         R0, R7 
    /*000000e4*/ BL          _ZNSt8__detail6_StateIcED2Ev.part.117
    /*000000e8*/ B           _ZNSt8__detail4_NFAINSt7__cxx1112regex_traitsIcEEE23_M_insert_subexpr_beginEv_xac
    _ZNSt8__detail4_NFAINSt7__cxx1112regex_traitsIcEEE23_M_insert_subexpr_beginEv_xec:
    /*000000ec*/ ADD         R1, SP, #4 
    /*000000f0*/ BL          _ZNSt6vectorIjSaIjEE19_M_emplace_back_auxIJRKjEEEvDpOT_
    /*000000f4*/ LDR         R2, [SP, #4] 
    /*000000f8*/ B           _ZNSt8__detail4_NFAINSt7__cxx1112regex_traitsIcEEE23_M_insert_subexpr_beginEv_x64
    _ZNSt8__detail4_NFAINSt7__cxx1112regex_traitsIcEEE23_M_insert_subexpr_beginEv_xfc:
    /*000000fc*/ BL          __stack_chk_fail
    /*00000100*/ LDR         R3, [SP, #36]               @ 0x24 
    /*00000104*/ CMP         R3, #11 
    /*00000108*/ BNE         _ZNSt8__detail4_NFAINSt7__cxx1112regex_traitsIcEEE23_M_insert_subexpr_beginEv_x114
    /*0000010c*/ MOV         R0, R7 
    /*00000110*/ BL          _ZNSt8__detail6_StateIcED2Ev.part.117
    _ZNSt8__detail4_NFAINSt7__cxx1112regex_traitsIcEEE23_M_insert_subexpr_beginEv_x114:
    /*00000114*/ LDR         R3, [SP, #8] 
    /*00000118*/ CMP         R3, #11 
    /*0000011c*/ BNE         _ZNSt8__detail4_NFAINSt7__cxx1112regex_traitsIcEEE23_M_insert_subexpr_beginEv_x128
    /*00000120*/ MOV         R0, R6 
    /*00000124*/ BL          _ZNSt8__detail6_StateIcED2Ev.part.117
    _ZNSt8__detail4_NFAINSt7__cxx1112regex_traitsIcEEE23_M_insert_subexpr_beginEv_x128:
    /*00000128*/ BL          __cxa_end_cleanup
    /*0000012c*/ NOP         {0} 
    /*00000130*/ ANDEQ       R0, R0, R8 
    /*00000134*/ @           <UNDEFINED> instruction: 0xffffffff 
    /*00000138*/ WORD_0138: .word 0x00000110
    /*0000013c*/ WORD_013c: .word 0x00000000
FUNC_END _ZNSt8__detail4_NFAINSt7__cxx1112regex_traitsIcEEE23_M_insert_subexpr_beginEv


@ - - - - - - - - - - - - - - - - - - - - - - - - - - - - - 
@ .ARM.extab.text._ZNSt8__detail4_NFAINSt7__cxx1112regex_traitsIcEEE23_M_insert_subexpr_beginEv
@ Size: 0x17
@ - - - - - - - - - - - - - - - - - - - - - - - - - - - - - 

@ - - - - - - - - - - - - - - - - - - - - - - - - - - - - - 
@ .text._ZNSt8__detail9_CompilerINSt7__cxx1112regex_traitsIcEEE16_M_cur_int_valueEi
@ Size: 0x3ec
@ - - - - - - - - - - - - - - - - - - - - - - - - - - - - - 

FUNC_BEGIN _ZNSt8__detail9_CompilerINSt7__cxx1112regex_traitsIcEEE16_M_cur_int_valueEi
    /*00000000*/ MOV         IP, #16384                  @ 0x4000 
    /*00000004*/ PUSH        {R4, R5, R6, R7, R8, R9, SL, FP, LR} 
    /*00000008*/ SUB         IP, SP, IP 
    /*0000000c*/ STR         R0, [IP, #3760]             @ 0xeb0 
    /*00000010*/ LDR         R9, WORD_03d0               @ LDR         R9, [PC, #952]              @ 0x00000000000003d0 
    /*00000014*/ SUB         SP, SP, #300                @ 0x12c 
    /*00000018*/ LDR         R3, WORD_03d4               @ LDR         R3, [PC, #948]              @ 0x00000000000003d4 
    /*0000001c*/ ADD         R9, PC, R9 
    /*00000020*/ STR         R1, [SP, #4] 
    /*00000024*/ LDR         R6, [R0, #208]              @ 0xd0 
    /*00000028*/ LDR         R3, [R9, R3] 
    /*0000002c*/ CMP         R6, #0 
    /*00000030*/ STR         R3, [SP, #48]               @ 0x30 
    /*00000034*/ LDR         R3, [R3] 
    /*00000038*/ STR         R3, [SP, #292]              @ 0x124 
    /*0000003c*/ BEQ         _ZNSt8__detail9_CompilerINSt7__cxx1112regex_traitsIcEEE16_M_cur_int_valueEi_x2f8
    /*00000040*/ LDR         R3, WORD_03d8               @ LDR         R3, [PC, #912]              @ 0x00000000000003d8 
    /*00000044*/ ADD         R1, SP, #64                 @ 0x40 
    /*00000048*/ LDR         R2, WORD_03dc               @ LDR         R2, [PC, #908]              @ 0x00000000000003dc 
    /*0000004c*/ MOV         FP, #0 
    /*00000050*/ LDR         R3, [R9, R3] 
    /*00000054*/ MOV         SL, R0 
    /*00000058*/ LDR         R2, [R9, R2] 
    /*0000005c*/ MOV         R6, FP 
    /*00000060*/ STR         R3, [SP, #52]               @ 0x34 
    /*00000064*/ ADD         R3, R3, #8 
    /*00000068*/ STR         R3, [SP, #20] 
    /*0000006c*/ ADD         R3, SP, #88                 @ 0x58 
    /*00000070*/ LDR         R7, [R2, #4] 
    /*00000074*/ MOV         R4, FP 
    /*00000078*/ LDR         R2, [R2, #8] 
    /*0000007c*/ STR         R3, [SP, #8] 
    /*00000080*/ ADD         R3, SP, #156                @ 0x9c 
    /*00000084*/ STR         R1, [SP, #40]               @ 0x28 
    /*00000088*/ ADD         R1, SP, #72                 @ 0x48 
    /*0000008c*/ STR         R3, [SP] 
    /*00000090*/ ADD         R3, SP, #276                @ 0x114 
    /*00000094*/ STR         R1, [SP, #16] 
    /*00000098*/ STR         R2, [SP, #12] 
    /*0000009c*/ STR         R3, [SP, #44]               @ 0x2c 
    /*000000a0*/ B           _ZNSt8__detail9_CompilerINSt7__cxx1112regex_traitsIcEEE16_M_cur_int_valueEi_x150
    _ZNSt8__detail9_CompilerINSt7__cxx1112regex_traitsIcEEE16_M_cur_int_valueEi_xa4:
    /*000000a4*/ CMP         R3, #16 
    /*000000a8*/ BEQ         _ZNSt8__detail9_CompilerINSt7__cxx1112regex_traitsIcEEE16_M_cur_int_valueEi_x2d4
    _ZNSt8__detail9_CompilerINSt7__cxx1112regex_traitsIcEEE16_M_cur_int_valueEi_xac:
    /*000000ac*/ LDR         R0, [SP, #8] 
    /*000000b0*/ ADD         R1, SP, #60                 @ 0x3c 
    /*000000b4*/ BL          _ZNSi10_M_extractIlEERSiRT_
    /*000000b8*/ LDR         R3, [SP, #176]              @ 0xb0 
    /*000000bc*/ LDR         R0, [SP, #132]              @ 0x84 
    /*000000c0*/ LDR         R2, [SP, #28] 
    /*000000c4*/ TST         R3, #5 
    /*000000c8*/ LDR         R3, [SP, #32] 
    /*000000cc*/ MVNNE       R6, #0 
    /*000000d0*/ LDREQ       R6, [SP, #60]               @ 0x3c 
    /*000000d4*/ CMP         R0, R2 
    /*000000d8*/ ADD         R3, R3, #8 
    /*000000dc*/ STR         R3, [SP, #96]               @ 0x60 
    /*000000e0*/ ADD         R3, R5, #12 
    /*000000e4*/ STR         R3, [SP, #88]               @ 0x58 
    /*000000e8*/ ADD         R5, R5, #32 
    /*000000ec*/ STR         R5, [SP, #156]              @ 0x9c 
    /*000000f0*/ BEQ         _ZNSt8__detail9_CompilerINSt7__cxx1112regex_traitsIcEEE16_M_cur_int_valueEi_xf8
    /*000000f4*/ BL          _ZdlPv
    _ZNSt8__detail9_CompilerINSt7__cxx1112regex_traitsIcEEE16_M_cur_int_valueEi_xf8:
    /*000000f8*/ LDR         R3, [SP, #24] 
    /*000000fc*/ MOV         R0, R8 
    /*00000100*/ ADD         FP, FP, #1 
    /*00000104*/ ADD         R3, R3, #8 
    /*00000108*/ STR         R3, [SP, #96]               @ 0x60 
    /*0000010c*/ BL          _ZNSt6localeD1Ev
    /*00000110*/ LDR         R3, [R7, #-12] 
    /*00000114*/ ADD         R2, SP, #296                @ 0x128 
    /*00000118*/ STR         R7, [SP, #88]               @ 0x58 
    /*0000011c*/ ADD         R3, R2, R3 
    /*00000120*/ LDR         R2, [SP, #12] 
    /*00000124*/ LDR         R0, [SP] 
    /*00000128*/ STR         R2, [R3, #-208]             @ 0xffffff30 
    /*0000012c*/ LDR         R3, [SP, #20] 
    /*00000130*/ STR         R4, [SP, #92]               @ 0x5c 
    /*00000134*/ STR         R3, [SP, #156]              @ 0x9c 
    /*00000138*/ BL          _ZNSt8ios_baseD2Ev
    /*0000013c*/ LDR         R3, [SL, #208]              @ 0xd0 
    /*00000140*/ LDR         R2, [SP, #36]               @ 0x24 
    /*00000144*/ CMP         FP, R3 
    /*00000148*/ ADD         R6, R2, R6 
    /*0000014c*/ BCS         _ZNSt8__detail9_CompilerINSt7__cxx1112regex_traitsIcEEE16_M_cur_int_valueEi_x2f8
    _ZNSt8__detail9_CompilerINSt7__cxx1112regex_traitsIcEEE16_M_cur_int_valueEi_x150:
    /*00000150*/ LDR         R3, [SL, #204]              @ 0xcc 
    /*00000154*/ MOV         R1, #1 
    /*00000158*/ LDR         R0, [SP, #40]               @ 0x28 
    /*0000015c*/ LDRB        R2, [R3, FP] 
    /*00000160*/ LDR         R3, [SP, #4] 
    /*00000164*/ MUL         R3, R6, R3 
    /*00000168*/ STR         R3, [SP, #36]               @ 0x24 
    /*0000016c*/ LDR         R3, [SP, #16] 
    /*00000170*/ STR         R3, [SP, #64]               @ 0x40 
    /*00000174*/ BL          _ZNSt7__cxx1112basic_stringIcSt11char_traitsIcESaIcEE12_M_constructEjc
    /*00000178*/ LDR         R0, [SP] 
    /*0000017c*/ BL          _ZNSt8ios_baseC2Ev
    /*00000180*/ LDR         R3, [SP, #20] 
    /*00000184*/ ADD         R2, SP, #296                @ 0x128 
    /*00000188*/ VMOV.I32    Q8, #0                      @ 0x00000000 
    /*0000018c*/ STR         R3, [SP, #156]              @ 0x9c 
    /*00000190*/ MOV         R1, #0 
    /*00000194*/ LDR         R3, [SP, #44]               @ 0x2c 
    /*00000198*/ STRB        R4, [SP, #272]              @ 0x110 
    /*0000019c*/ VST1.32     {D16-D17}, [R3] 
    /*000001a0*/ STR         R4, [SP, #268]              @ 0x10c 
    /*000001a4*/ STRB        R4, [SP, #273]              @ 0x111 
    /*000001a8*/ LDR         R3, [R7, #-12] 
    /*000001ac*/ STR         R7, [SP, #88]               @ 0x58 
    /*000001b0*/ ADD         R3, R2, R3 
    /*000001b4*/ LDR         R2, [SP, #12] 
    /*000001b8*/ STR         R2, [R3, #-208]             @ 0xffffff30 
    /*000001bc*/ STR         R4, [SP, #92]               @ 0x5c 
    /*000001c0*/ LDR         R3, [SP, #8] 
    /*000001c4*/ LDR         R0, [R7, #-12] 
    /*000001c8*/ ADD         R0, R3, R0 
    /*000001cc*/ BL          _ZNSt9basic_iosIcSt11char_traitsIcEE4initEPSt15basic_streambufIcS1_E
    /*000001d0*/ LDR         R2, WORD_03e0               @ LDR         R2, [PC, #520]              @ 0x00000000000003e0 
    /*000001d4*/ ADD         R8, SP, #124                @ 0x7c 
    /*000001d8*/ LDR         R3, WORD_03e4               @ LDR         R3, [PC, #516]              @ 0x00000000000003e4 
    /*000001dc*/ MOV         R0, R8 
    /*000001e0*/ LDR         R5, [R9, R2] 
    /*000001e4*/ ADD         R2, SP, #140                @ 0x8c 
    /*000001e8*/ STR         R2, [SP, #28] 
    /*000001ec*/ MOV         R6, R2 
    /*000001f0*/ ADD         R1, R5, #12 
    /*000001f4*/ ADD         R2, R5, #32 
    /*000001f8*/ STR         R1, [SP, #88]               @ 0x58 
    /*000001fc*/ STR         R2, [SP, #156]              @ 0x9c 
    /*00000200*/ LDR         R3, [R9, R3] 
    /*00000204*/ STR         R4, [SP, #100]              @ 0x64 
    /*00000208*/ STR         R3, [SP, #24] 
    /*0000020c*/ ADD         R3, R3, #8 
    /*00000210*/ STR         R3, [SP, #96]               @ 0x60 
    /*00000214*/ STR         R4, [SP, #104]              @ 0x68 
    /*00000218*/ STR         R4, [SP, #108]              @ 0x6c 
    /*0000021c*/ STR         R4, [SP, #112]              @ 0x70 
    /*00000220*/ STR         R4, [SP, #116]              @ 0x74 
    /*00000224*/ STR         R4, [SP, #120]              @ 0x78 
    /*00000228*/ BL          _ZNSt6localeC1Ev
    /*0000022c*/ LDR         R3, WORD_03e8               @ LDR         R3, [PC, #436]              @ 0x00000000000003e8 
    /*00000230*/ ADD         R0, SP, #296                @ 0x128 
    /*00000234*/ LDR         R2, [SP, #64]               @ 0x40 
    /*00000238*/ LDR         R3, [R9, R3] 
    /*0000023c*/ LDR         IP, [SP, #68]               @ 0x44 
    /*00000240*/ MOV         R1, R2 
    /*00000244*/ STR         R3, [SP, #32] 
    /*00000248*/ MOV         LR, R3 
    /*0000024c*/ STR         R6, [R0, #-164]!            @ 0xffffff5c 
    /*00000250*/ ADD         R3, LR, #8 
    /*00000254*/ ADD         R2, R2, IP 
    /*00000258*/ STR         R4, [SP, #128]              @ 0x80 
    /*0000025c*/ STR         R3, [SP, #96]               @ 0x60 
    /*00000260*/ BL          _ZNSt7__cxx1112basic_stringIcSt11char_traitsIcESaIcEE12_M_constructIPKcEEvT_S8_St20forward_iterator_tag.isra.74
    /*00000264*/ LDR         R1, [SP, #132]              @ 0x84 
    /*00000268*/ ADD         R6, SP, #96                 @ 0x60 
    /*0000026c*/ MOV         R3, #0 
    /*00000270*/ MOV         IP, #8 
    /*00000274*/ STR         IP, [SP, #128]              @ 0x80 
    /*00000278*/ MOV         R0, R6 
    /*0000027c*/ MOV         R2, R3 
    /*00000280*/ BL          _ZNSt7__cxx1115basic_stringbufIcSt11char_traitsIcESaIcEE7_M_syncEPcjj
    /*00000284*/ LDR         R0, [SP] 
    /*00000288*/ MOV         R1, R6 
    /*0000028c*/ BL          _ZNSt9basic_iosIcSt11char_traitsIcEE4initEPSt15basic_streambufIcS1_E
    /*00000290*/ LDR         R0, [SP, #64]               @ 0x40 
    /*00000294*/ LDR         R3, [SP, #16] 
    /*00000298*/ CMP         R0, R3 
    /*0000029c*/ BEQ         _ZNSt8__detail9_CompilerINSt7__cxx1112regex_traitsIcEEE16_M_cur_int_valueEi_x2a4
    /*000002a0*/ BL          _ZdlPv
    _ZNSt8__detail9_CompilerINSt7__cxx1112regex_traitsIcEEE16_M_cur_int_valueEi_x2a4:
    /*000002a4*/ LDR         R3, [SP, #4] 
    /*000002a8*/ CMP         R3, #8 
    /*000002ac*/ BNE         _ZNSt8__detail9_CompilerINSt7__cxx1112regex_traitsIcEEE16_M_cur_int_valueEi_xa4
    /*000002b0*/ LDR         R3, [SP, #88]               @ 0x58 
    /*000002b4*/ LDR         R2, [R3, #-12] 
    /*000002b8*/ LDR         R3, [SP, #8] 
    /*000002bc*/ ADD         R2, R3, R2 
    /*000002c0*/ LDR         R3, [R2, #12] 
    /*000002c4*/ BIC         R3, R3, #74                 @ 0x4a 
    /*000002c8*/ ORR         R3, R3, #64                 @ 0x40 
    /*000002cc*/ STR         R3, [R2, #12] 
    /*000002d0*/ B           _ZNSt8__detail9_CompilerINSt7__cxx1112regex_traitsIcEEE16_M_cur_int_valueEi_xac
    _ZNSt8__detail9_CompilerINSt7__cxx1112regex_traitsIcEEE16_M_cur_int_valueEi_x2d4:
    /*000002d4*/ LDR         R3, [SP, #88]               @ 0x58 
    /*000002d8*/ LDR         R2, [R3, #-12] 
    /*000002dc*/ LDR         R3, [SP, #8] 
    /*000002e0*/ ADD         R2, R3, R2 
    /*000002e4*/ LDR         R3, [R2, #12] 
    /*000002e8*/ BIC         R3, R3, #74                 @ 0x4a 
    /*000002ec*/ ORR         R3, R3, #8 
    /*000002f0*/ STR         R3, [R2, #12] 
    /*000002f4*/ B           _ZNSt8__detail9_CompilerINSt7__cxx1112regex_traitsIcEEE16_M_cur_int_valueEi_xac
    _ZNSt8__detail9_CompilerINSt7__cxx1112regex_traitsIcEEE16_M_cur_int_valueEi_x2f8:
    /*000002f8*/ LDR         R3, [SP, #48]               @ 0x30 
    /*000002fc*/ MOV         R0, R6 
    /*00000300*/ LDR         R2, [SP, #292]              @ 0x124 
    /*00000304*/ LDR         R3, [R3] 
    /*00000308*/ CMP         R2, R3 
    /*0000030c*/ BNE         _ZNSt8__detail9_CompilerINSt7__cxx1112regex_traitsIcEEE16_M_cur_int_valueEi_x344
    /*00000310*/ ADD         SP, SP, #300                @ 0x12c 
    /*00000314*/ POP         {R4, R5, R6, R7, R8, R9, SL, FP, PC} 
    _ZNSt8__detail9_CompilerINSt7__cxx1112regex_traitsIcEEE16_M_cur_int_valueEi_x318:
    /*00000318*/ LDR         R3, [SP, #52]               @ 0x34 
    /*0000031c*/ LDR         R0, [SP] 
    /*00000320*/ ADD         R3, R3, #8 
    /*00000324*/ STR         R3, [SP, #156]              @ 0x9c 
    /*00000328*/ BL          _ZNSt8ios_baseD2Ev
    /*0000032c*/ LDR         R0, [SP, #64]               @ 0x40 
    /*00000330*/ LDR         R3, [SP, #16] 
    /*00000334*/ CMP         R0, R3 
    /*00000338*/ BEQ         _ZNSt8__detail9_CompilerINSt7__cxx1112regex_traitsIcEEE16_M_cur_int_valueEi_x340
    /*0000033c*/ BL          _ZdlPv
    _ZNSt8__detail9_CompilerINSt7__cxx1112regex_traitsIcEEE16_M_cur_int_valueEi_x340:
    /*00000340*/ BL          __cxa_end_cleanup
    _ZNSt8__detail9_CompilerINSt7__cxx1112regex_traitsIcEEE16_M_cur_int_valueEi_x344:
    /*00000344*/ BL          __stack_chk_fail
    /*00000348*/ LDR         R0, [SP, #8] 
    /*0000034c*/ BL          _ZNSt7__cxx1119basic_istringstreamIcSt11char_traitsIcESaIcEED1Ev
    /*00000350*/ B           _ZNSt8__detail9_CompilerINSt7__cxx1112regex_traitsIcEEE16_M_cur_int_valueEi_x340
    /*00000354*/ LDR         R3, [SP, #32] 
    /*00000358*/ MOV         R6, R8 
    /*0000035c*/ LDR         R0, [SP, #132]              @ 0x84 
    /*00000360*/ ADD         R3, R3, #8 
    /*00000364*/ STR         R3, [SP, #96]               @ 0x60 
    /*00000368*/ LDR         R3, [SP, #28] 
    /*0000036c*/ CMP         R0, R3 
    /*00000370*/ BEQ         _ZNSt8__detail9_CompilerINSt7__cxx1112regex_traitsIcEEE16_M_cur_int_valueEi_x378
    _ZNSt8__detail9_CompilerINSt7__cxx1112regex_traitsIcEEE16_M_cur_int_valueEi_x374:
    /*00000374*/ BL          _ZdlPv
    _ZNSt8__detail9_CompilerINSt7__cxx1112regex_traitsIcEEE16_M_cur_int_valueEi_x378:
    /*00000378*/ LDR         R3, [SP, #24] 
    /*0000037c*/ MOV         R0, R6 
    /*00000380*/ ADD         R3, R3, #8 
    /*00000384*/ STR         R3, [SP, #96]               @ 0x60 
    /*00000388*/ BL          _ZNSt6localeD1Ev
    /*0000038c*/ LDR         R3, [R7, #-12] 
    /*00000390*/ ADD         R1, SP, #296                @ 0x128 
    /*00000394*/ STR         R7, [SP, #88]               @ 0x58 
    /*00000398*/ MOV         R2, #0 
    /*0000039c*/ ADD         R3, R1, R3 
    /*000003a0*/ LDR         R1, [SP, #12] 
    /*000003a4*/ STR         R1, [R3, #-208]             @ 0xffffff30 
    /*000003a8*/ STR         R2, [SP, #92]               @ 0x5c 
    /*000003ac*/ B           _ZNSt8__detail9_CompilerINSt7__cxx1112regex_traitsIcEEE16_M_cur_int_valueEi_x318
    /*000003b0*/ LDR         R0, [SP, #132]              @ 0x84 
    /*000003b4*/ MOV         R6, R8 
    /*000003b8*/ LDR         R3, [SP, #28] 
    /*000003bc*/ CMP         R0, R3 
    /*000003c0*/ BNE         _ZNSt8__detail9_CompilerINSt7__cxx1112regex_traitsIcEEE16_M_cur_int_valueEi_x374
    /*000003c4*/ B           _ZNSt8__detail9_CompilerINSt7__cxx1112regex_traitsIcEEE16_M_cur_int_valueEi_x378
    /*000003c8*/ MOV         R6, R8 
    /*000003cc*/ B           _ZNSt8__detail9_CompilerINSt7__cxx1112regex_traitsIcEEE16_M_cur_int_valueEi_x378
    /*000003d0*/ WORD_03d0: .word 0x000003ac
    /*000003d4*/ WORD_03d4: .word 0x00000000
    /*000003d8*/ WORD_03d8: .word 0x00000000
    /*000003dc*/ WORD_03dc: .word 0x00000000
    /*000003e0*/ WORD_03e0: .word 0x00000000
    /*000003e4*/ WORD_03e4: .word 0x00000000
    /*000003e8*/ WORD_03e8: .word 0x00000000
FUNC_END _ZNSt8__detail9_CompilerINSt7__cxx1112regex_traitsIcEEE16_M_cur_int_valueEi


@ - - - - - - - - - - - - - - - - - - - - - - - - - - - - - 
@ .ARM.extab.text._ZNSt8__detail9_CompilerINSt7__cxx1112regex_traitsIcEEE16_M_cur_int_valueEi
@ Size: 0x34
@ - - - - - - - - - - - - - - - - - - - - - - - - - - - - - 

@ - - - - - - - - - - - - - - - - - - - - - - - - - - - - - 
@ .text._ZNSt8__detail9_CompilerINSt7__cxx1112regex_traitsIcEEE11_M_try_charEv
@ Size: 0xd4
@ - - - - - - - - - - - - - - - - - - - - - - - - - - - - - 

FUNC_BEGIN _ZNSt8__detail9_CompilerINSt7__cxx1112regex_traitsIcEEE11_M_try_charEv
    /*00000000*/ MOV         IP, #16384                  @ 0x4000 
    /*00000004*/ PUSH        {R4, R5, R6, LR} 
    /*00000008*/ SUB         IP, SP, IP 
    /*0000000c*/ STR         R0, [IP, #4072]             @ 0xfe8 
    /*00000010*/ LDR         R4, [R0, #136]              @ 0x88 
    /*00000014*/ SUB         SP, SP, #8 
    /*00000018*/ MOV         R5, R0 
    /*0000001c*/ CMP         R4, #2 
    /*00000020*/ BEQ         _ZNSt8__detail9_CompilerINSt7__cxx1112regex_traitsIcEEE11_M_try_charEv_x40
    /*00000024*/ CMP         R4, #3 
    /*00000028*/ BEQ         _ZNSt8__detail9_CompilerINSt7__cxx1112regex_traitsIcEEE11_M_try_charEv_x90
    /*0000002c*/ CMP         R4, #1 
    /*00000030*/ BEQ         _ZNSt8__detail9_CompilerINSt7__cxx1112regex_traitsIcEEE11_M_try_charEv_xb4
    /*00000034*/ MOV         R0, #0 
    _ZNSt8__detail9_CompilerINSt7__cxx1112regex_traitsIcEEE11_M_try_charEv_x38:
    /*00000038*/ ADD         SP, SP, #8 
    /*0000003c*/ POP         {R4, R5, R6, PC} 
    _ZNSt8__detail9_CompilerINSt7__cxx1112regex_traitsIcEEE11_M_try_charEv_x40:
    /*00000040*/ ADD         R4, R0, #204                @ 0xcc 
    /*00000044*/ ADD         R1, R5, #164                @ 0xa4 
    /*00000048*/ ADD         R6, R0, #4 
    /*0000004c*/ MOV         R0, R4 
    /*00000050*/ BL          _ZNSt7__cxx1112basic_stringIcSt11char_traitsIcESaIcEE9_M_assignERKS4_
    /*00000054*/ MOV         R0, R6 
    /*00000058*/ BL          _ZNSt8__detail8_ScannerIcE10_M_advanceEv
    /*0000005c*/ MOV         R1, #8 
    _ZNSt8__detail9_CompilerINSt7__cxx1112regex_traitsIcEEE11_M_try_charEv_x60:
    /*00000060*/ MOV         R0, R5 
    /*00000064*/ BL          _ZNSt8__detail9_CompilerINSt7__cxx1112regex_traitsIcEEE16_M_cur_int_valueEi
    /*00000068*/ LDR         R2, [R5, #208]              @ 0xd0 
    /*0000006c*/ UXTB        R0, R0 
    /*00000070*/ STR         R0, [SP] 
    /*00000074*/ MOV         R3, #1 
    /*00000078*/ MOV         R0, R4 
    /*0000007c*/ MOV         R1, #0 
    /*00000080*/ BL          _ZNSt7__cxx1112basic_stringIcSt11char_traitsIcESaIcEE14_M_replace_auxEjjjc
    /*00000084*/ MOV         R0, #1 
    /*00000088*/ ADD         SP, SP, #8 
    /*0000008c*/ POP         {R4, R5, R6, PC} 
    _ZNSt8__detail9_CompilerINSt7__cxx1112regex_traitsIcEEE11_M_try_charEv_x90:
    /*00000090*/ ADD         R4, R5, #204                @ 0xcc 
    /*00000094*/ ADD         R1, R5, #164                @ 0xa4 
    /*00000098*/ MOV         R0, R4 
    /*0000009c*/ ADD         R6, R5, #4 
    /*000000a0*/ BL          _ZNSt7__cxx1112basic_stringIcSt11char_traitsIcESaIcEE9_M_assignERKS4_
    /*000000a4*/ MOV         R0, R6 
    /*000000a8*/ BL          _ZNSt8__detail8_ScannerIcE10_M_advanceEv
    /*000000ac*/ MOV         R1, #16 
    /*000000b0*/ B           _ZNSt8__detail9_CompilerINSt7__cxx1112regex_traitsIcEEE11_M_try_charEv_x60
    _ZNSt8__detail9_CompilerINSt7__cxx1112regex_traitsIcEEE11_M_try_charEv_xb4:
    /*000000b4*/ ADD         R1, R5, #164                @ 0xa4 
    /*000000b8*/ ADD         R0, R5, #204                @ 0xcc 
    /*000000bc*/ ADD         R6, R5, #4 
    /*000000c0*/ BL          _ZNSt7__cxx1112basic_stringIcSt11char_traitsIcESaIcEE9_M_assignERKS4_
    /*000000c4*/ MOV         R0, R6 
    /*000000c8*/ BL          _ZNSt8__detail8_ScannerIcE10_M_advanceEv
    /*000000cc*/ MOV         R0, R4 
    /*000000d0*/ B           _ZNSt8__detail9_CompilerINSt7__cxx1112regex_traitsIcEEE11_M_try_charEv_x38
FUNC_END _ZNSt8__detail9_CompilerINSt7__cxx1112regex_traitsIcEEE11_M_try_charEv


@ - - - - - - - - - - - - - - - - - - - - - - - - - - - - - 
@ .text._ZNSt8__detail4_NFAINSt7__cxx1112regex_traitsIcEEE17_M_insert_backrefEj
@ Size: 0x194
@ - - - - - - - - - - - - - - - - - - - - - - - - - - - - - 

FUNC_BEGIN _ZNSt8__detail4_NFAINSt7__cxx1112regex_traitsIcEEE17_M_insert_backrefEj
    /*00000000*/ MOV         IP, #16384                  @ 0x4000 
    /*00000004*/ PUSH        {R4, R5, R6, R7, LR} 
    /*00000008*/ SUB         IP, SP, IP 
    /*0000000c*/ STR         R0, [IP, #4016]             @ 0xfb0 
    /*00000010*/ LDR         R3, WORD_0180               @ LDR         R3, [PC, #360]              @ 0x0000000000000180 
    /*00000014*/ MOV         R5, R0 
    /*00000018*/ LDR         R2, WORD_0184               @ LDR         R2, [PC, #356]              @ 0x0000000000000184 
    /*0000001c*/ SUB         SP, SP, #60                 @ 0x3c 
    /*00000020*/ ADD         R3, PC, R3 
    /*00000024*/ LDR         R0, [R0, #12] 
    /*00000028*/ LDR         R4, [R3, R2] 
    /*0000002c*/ TST         R0, #1024                   @ 0x400 
    /*00000030*/ LDR         R3, [R4] 
    /*00000034*/ STR         R3, [SP, #52]               @ 0x34 
    /*00000038*/ BNE         _ZNSt8__detail4_NFAINSt7__cxx1112regex_traitsIcEEE17_M_insert_backrefEj_x138
    /*0000003c*/ LDR         R3, [R5, #20] 
    /*00000040*/ CMP         R3, R1 
    /*00000044*/ BLS         _ZNSt8__detail4_NFAINSt7__cxx1112regex_traitsIcEEE17_M_insert_backrefEj_x128
    /*00000048*/ LDR         R3, [R5] 
    /*0000004c*/ LDR         R0, [R5, #4] 
    /*00000050*/ CMP         R3, R0 
    /*00000054*/ BEQ         _ZNSt8__detail4_NFAINSt7__cxx1112regex_traitsIcEEE17_M_insert_backrefEj_x88
    /*00000058*/ LDR         R2, [R3] 
    /*0000005c*/ CMP         R1, R2 
    /*00000060*/ ADDNE       R3, R3, #4 
    /*00000064*/ BNE         _ZNSt8__detail4_NFAINSt7__cxx1112regex_traitsIcEEE17_M_insert_backrefEj_x7c
    /*00000068*/ B           _ZNSt8__detail4_NFAINSt7__cxx1112regex_traitsIcEEE17_M_insert_backrefEj_x118
    _ZNSt8__detail4_NFAINSt7__cxx1112regex_traitsIcEEE17_M_insert_backrefEj_x6c:
    /*0000006c*/ LDR         R2, [R2] 
    /*00000070*/ ADD         R3, R3, #4 
    /*00000074*/ CMP         R1, R2 
    /*00000078*/ BEQ         _ZNSt8__detail4_NFAINSt7__cxx1112regex_traitsIcEEE17_M_insert_backrefEj_x118
    _ZNSt8__detail4_NFAINSt7__cxx1112regex_traitsIcEEE17_M_insert_backrefEj_x7c:
    /*0000007c*/ CMP         R3, R0 
    /*00000080*/ MOV         R2, R3 
    /*00000084*/ BNE         _ZNSt8__detail4_NFAINSt7__cxx1112regex_traitsIcEEE17_M_insert_backrefEj_x6c
    _ZNSt8__detail4_NFAINSt7__cxx1112regex_traitsIcEEE17_M_insert_backrefEj_x88:
    /*00000088*/ VLDR        D16, [PC, #232]             @ 0x0000000000000178 
    /*0000008c*/ STR         R1, [SP, #8] 
    /*00000090*/ MOV         LR, SP 
    /*00000094*/ MOV         R3, #1 
    /*00000098*/ ADD         IP, SP, #28 
    /*0000009c*/ VSTR        D16, [SP] 
    /*000000a0*/ STRB        R3, [R5, #24] 
    /*000000a4*/ MOV         R7, IP 
    /*000000a8*/ MOV         R6, SP 
    /*000000ac*/ LDM         LR!, {R0, R1, R2, R3} 
    /*000000b0*/ STMIA       IP!, {R0, R1, R2, R3} 
    /*000000b4*/ LDM         LR, {R0, R1} 
    /*000000b8*/ STM         IP, {R0, R1} 
    /*000000bc*/ MOV         R0, R5 
    /*000000c0*/ MOV         R1, R7 
    /*000000c4*/ BL          _ZNSt8__detail4_NFAINSt7__cxx1112regex_traitsIcEEE15_M_insert_stateENS_6_StateIcEE
    /*000000c8*/ LDR         R3, [SP, #28] 
    /*000000cc*/ MOV         R5, R0 
    /*000000d0*/ CMP         R3, #11 
    /*000000d4*/ BEQ         _ZNSt8__detail4_NFAINSt7__cxx1112regex_traitsIcEEE17_M_insert_backrefEj_x10c
    _ZNSt8__detail4_NFAINSt7__cxx1112regex_traitsIcEEE17_M_insert_backrefEj_xd8:
    /*000000d8*/ LDR         R3, [SP] 
    /*000000dc*/ CMP         R3, #11 
    /*000000e0*/ BEQ         _ZNSt8__detail4_NFAINSt7__cxx1112regex_traitsIcEEE17_M_insert_backrefEj_x100
    _ZNSt8__detail4_NFAINSt7__cxx1112regex_traitsIcEEE17_M_insert_backrefEj_xe4:
    /*000000e4*/ LDR         R2, [SP, #52]               @ 0x34 
    /*000000e8*/ MOV         R0, R5 
    /*000000ec*/ LDR         R3, [R4] 
    /*000000f0*/ CMP         R2, R3 
    /*000000f4*/ BNE         _ZNSt8__detail4_NFAINSt7__cxx1112regex_traitsIcEEE17_M_insert_backrefEj_x174
    /*000000f8*/ ADD         SP, SP, #60                 @ 0x3c 
    /*000000fc*/ POP         {R4, R5, R6, R7, PC} 
    _ZNSt8__detail4_NFAINSt7__cxx1112regex_traitsIcEEE17_M_insert_backrefEj_x100:
    /*00000100*/ MOV         R0, R6 
    /*00000104*/ BL          _ZNSt8__detail6_StateIcED2Ev.part.117
    /*00000108*/ B           _ZNSt8__detail4_NFAINSt7__cxx1112regex_traitsIcEEE17_M_insert_backrefEj_xe4
    _ZNSt8__detail4_NFAINSt7__cxx1112regex_traitsIcEEE17_M_insert_backrefEj_x10c:
    /*0000010c*/ MOV         R0, R7 
    /*00000110*/ BL          _ZNSt8__detail6_StateIcED2Ev.part.117
    /*00000114*/ B           _ZNSt8__detail4_NFAINSt7__cxx1112regex_traitsIcEEE17_M_insert_backrefEj_xd8
    _ZNSt8__detail4_NFAINSt7__cxx1112regex_traitsIcEEE17_M_insert_backrefEj_x118:
    /*00000118*/ LDR         R1, WORD_0188               @ LDR         R1, [PC, #104]              @ 0x0000000000000188 
    /*0000011c*/ MOV         R0, #3 
    /*00000120*/ ADD         R1, PC, R1 
    /*00000124*/ BL          _ZSt19__throw_regex_errorNSt15regex_constants10error_typeEPKc
    _ZNSt8__detail4_NFAINSt7__cxx1112regex_traitsIcEEE17_M_insert_backrefEj_x128:
    /*00000128*/ LDR         R1, WORD_018c               @ LDR         R1, [PC, #92]               @ 0x000000000000018c 
    /*0000012c*/ MOV         R0, #3 
    /*00000130*/ ADD         R1, PC, R1 
    /*00000134*/ BL          _ZSt19__throw_regex_errorNSt15regex_constants10error_typeEPKc
    _ZNSt8__detail4_NFAINSt7__cxx1112regex_traitsIcEEE17_M_insert_backrefEj_x138:
    /*00000138*/ LDR         R1, WORD_0190               @ LDR         R1, [PC, #80]               @ 0x0000000000000190 
    /*0000013c*/ MOV         R0, #11 
    /*00000140*/ ADD         R1, PC, R1 
    /*00000144*/ BL          _ZSt19__throw_regex_errorNSt15regex_constants10error_typeEPKc
    /*00000148*/ LDR         R3, [SP, #28] 
    /*0000014c*/ CMP         R3, #11 
    /*00000150*/ BNE         _ZNSt8__detail4_NFAINSt7__cxx1112regex_traitsIcEEE17_M_insert_backrefEj_x15c
    /*00000154*/ MOV         R0, R7 
    /*00000158*/ BL          _ZNSt8__detail6_StateIcED2Ev.part.117
    _ZNSt8__detail4_NFAINSt7__cxx1112regex_traitsIcEEE17_M_insert_backrefEj_x15c:
    /*0000015c*/ LDR         R3, [SP] 
    /*00000160*/ CMP         R3, #11 
    /*00000164*/ BNE         _ZNSt8__detail4_NFAINSt7__cxx1112regex_traitsIcEEE17_M_insert_backrefEj_x170
    /*00000168*/ MOV         R0, R6 
    /*0000016c*/ BL          _ZNSt8__detail6_StateIcED2Ev.part.117
    _ZNSt8__detail4_NFAINSt7__cxx1112regex_traitsIcEEE17_M_insert_backrefEj_x170:
    /*00000170*/ BL          __cxa_end_cleanup
    _ZNSt8__detail4_NFAINSt7__cxx1112regex_traitsIcEEE17_M_insert_backrefEj_x174:
    /*00000174*/ BL          __stack_chk_fail
    /*00000178*/ ANDEQ       R0, R0, R3 
    /*0000017c*/ @           <UNDEFINED> instruction: 0xffffffff 
    /*00000180*/ WORD_0180: .word 0x00000158
    /*00000184*/ WORD_0184: .word 0x00000000
    /*00000188*/ WORD_0188: .word 0x00000060
    /*0000018c*/ WORD_018c: .word 0x00000054
    /*00000190*/ WORD_0190: .word 0x00000048
FUNC_END _ZNSt8__detail4_NFAINSt7__cxx1112regex_traitsIcEEE17_M_insert_backrefEj


@ - - - - - - - - - - - - - - - - - - - - - - - - - - - - - 
@ .ARM.extab.text._ZNSt8__detail4_NFAINSt7__cxx1112regex_traitsIcEEE17_M_insert_backrefEj
@ Size: 0x17
@ - - - - - - - - - - - - - - - - - - - - - - - - - - - - - 

@ - - - - - - - - - - - - - - - - - - - - - - - - - - - - - 
@ .text._ZNSt8__detail15_BracketMatcherINSt7__cxx1112regex_traitsIcEELb0ELb0EED2Ev
@ Size: 0x94
@ - - - - - - - - - - - - - - - - - - - - - - - - - - - - - 

FUNC_BEGIN _ZNSt8__detail15_BracketMatcherINSt7__cxx1112regex_traitsIcEELb0ELb0EED2Ev
    /*00000000*/ MOV         IP, #16384                  @ 0x4000 
    /*00000004*/ PUSH        {R4, R5, R6, R7, R8, LR} 
    /*00000008*/ SUB         IP, SP, IP 
    /*0000000c*/ STR         R0, [IP, #4072]             @ 0xfe8 
    /*00000010*/ MOV         R7, R0 
    /*00000014*/ LDR         R0, [R0, #36]               @ 0x24 
    /*00000018*/ CMP         R0, #0 
    /*0000001c*/ BEQ         _ZNSt8__detail15_BracketMatcherINSt7__cxx1112regex_traitsIcEELb0ELb0EED2Ev_x24
    /*00000020*/ BL          _ZdlPv
    _ZNSt8__detail15_BracketMatcherINSt7__cxx1112regex_traitsIcEELb0ELb0EED2Ev_x24:
    /*00000024*/ LDR         R0, [R7, #24] 
    /*00000028*/ CMP         R0, #0 
    /*0000002c*/ BEQ         _ZNSt8__detail15_BracketMatcherINSt7__cxx1112regex_traitsIcEELb0ELb0EED2Ev_x34
    /*00000030*/ BL          _ZdlPv
    _ZNSt8__detail15_BracketMatcherINSt7__cxx1112regex_traitsIcEELb0ELb0EED2Ev_x34:
    /*00000034*/ LDR         R5, [R7, #12] 
    /*00000038*/ LDR         R6, [R7, #16] 
    /*0000003c*/ CMP         R5, R6 
    /*00000040*/ BEQ         _ZNSt8__detail15_BracketMatcherINSt7__cxx1112regex_traitsIcEELb0ELb0EED2Ev_x6c
    /*00000044*/ ADD         R4, R5, #8 
    _ZNSt8__detail15_BracketMatcherINSt7__cxx1112regex_traitsIcEELb0ELb0EED2Ev_x48:
    /*00000048*/ LDR         R0, [R4, #-8] 
    /*0000004c*/ ADD         R5, R5, #24 
    /*00000050*/ CMP         R0, R4 
    /*00000054*/ ADD         R4, R4, #24 
    /*00000058*/ BEQ         _ZNSt8__detail15_BracketMatcherINSt7__cxx1112regex_traitsIcEELb0ELb0EED2Ev_x60
    /*0000005c*/ BL          _ZdlPv
    _ZNSt8__detail15_BracketMatcherINSt7__cxx1112regex_traitsIcEELb0ELb0EED2Ev_x60:
    /*00000060*/ CMP         R6, R5 
    /*00000064*/ BNE         _ZNSt8__detail15_BracketMatcherINSt7__cxx1112regex_traitsIcEELb0ELb0EED2Ev_x48
    /*00000068*/ LDR         R6, [R7, #12] 
    _ZNSt8__detail15_BracketMatcherINSt7__cxx1112regex_traitsIcEELb0ELb0EED2Ev_x6c:
    /*0000006c*/ CMP         R6, #0 
    /*00000070*/ BEQ         _ZNSt8__detail15_BracketMatcherINSt7__cxx1112regex_traitsIcEELb0ELb0EED2Ev_x7c
    /*00000074*/ MOV         R0, R6 
    /*00000078*/ BL          _ZdlPv
    _ZNSt8__detail15_BracketMatcherINSt7__cxx1112regex_traitsIcEELb0ELb0EED2Ev_x7c:
    /*0000007c*/ LDR         R0, [R7] 
    /*00000080*/ CMP         R0, #0 
    /*00000084*/ BEQ         _ZNSt8__detail15_BracketMatcherINSt7__cxx1112regex_traitsIcEELb0ELb0EED2Ev_x8c
    /*00000088*/ BL          _ZdlPv
    _ZNSt8__detail15_BracketMatcherINSt7__cxx1112regex_traitsIcEELb0ELb0EED2Ev_x8c:
    /*0000008c*/ MOV         R0, R7 
    /*00000090*/ POP         {R4, R5, R6, R7, R8, PC} 
FUNC_END _ZNSt8__detail15_BracketMatcherINSt7__cxx1112regex_traitsIcEELb0ELb0EED2Ev


FUNC_BEGIN _ZNSt8__detail15_BracketMatcherINSt7__cxx1112regex_traitsIcEELb0ELb0EED1Ev
    /*00000000*/ MOV         IP, #16384                  @ 0x4000 
    /*00000004*/ PUSH        {R4, R5, R6, R7, R8, LR} 
    /*00000008*/ SUB         IP, SP, IP 
    /*0000000c*/ STR         R0, [IP, #4072]             @ 0xfe8 
    /*00000010*/ MOV         R7, R0 
    /*00000014*/ LDR         R0, [R0, #36]               @ 0x24 
    /*00000018*/ CMP         R0, #0 
    /*0000001c*/ BEQ         _ZNSt8__detail15_BracketMatcherINSt7__cxx1112regex_traitsIcEELb0ELb0EED1Ev_x24
    /*00000020*/ BL          _ZdlPv
    _ZNSt8__detail15_BracketMatcherINSt7__cxx1112regex_traitsIcEELb0ELb0EED1Ev_x24:
    /*00000024*/ LDR         R0, [R7, #24] 
    /*00000028*/ CMP         R0, #0 
    /*0000002c*/ BEQ         _ZNSt8__detail15_BracketMatcherINSt7__cxx1112regex_traitsIcEELb0ELb0EED1Ev_x34
    /*00000030*/ BL          _ZdlPv
    _ZNSt8__detail15_BracketMatcherINSt7__cxx1112regex_traitsIcEELb0ELb0EED1Ev_x34:
    /*00000034*/ LDR         R5, [R7, #12] 
    /*00000038*/ LDR         R6, [R7, #16] 
    /*0000003c*/ CMP         R5, R6 
    /*00000040*/ BEQ         _ZNSt8__detail15_BracketMatcherINSt7__cxx1112regex_traitsIcEELb0ELb0EED1Ev_x6c
    /*00000044*/ ADD         R4, R5, #8 
    _ZNSt8__detail15_BracketMatcherINSt7__cxx1112regex_traitsIcEELb0ELb0EED1Ev_x48:
    /*00000048*/ LDR         R0, [R4, #-8] 
    /*0000004c*/ ADD         R5, R5, #24 
    /*00000050*/ CMP         R0, R4 
    /*00000054*/ ADD         R4, R4, #24 
    /*00000058*/ BEQ         _ZNSt8__detail15_BracketMatcherINSt7__cxx1112regex_traitsIcEELb0ELb0EED1Ev_x60
    /*0000005c*/ BL          _ZdlPv
    _ZNSt8__detail15_BracketMatcherINSt7__cxx1112regex_traitsIcEELb0ELb0EED1Ev_x60:
    /*00000060*/ CMP         R6, R5 
    /*00000064*/ BNE         _ZNSt8__detail15_BracketMatcherINSt7__cxx1112regex_traitsIcEELb0ELb0EED1Ev_x48
    /*00000068*/ LDR         R6, [R7, #12] 
    _ZNSt8__detail15_BracketMatcherINSt7__cxx1112regex_traitsIcEELb0ELb0EED1Ev_x6c:
    /*0000006c*/ CMP         R6, #0 
    /*00000070*/ BEQ         _ZNSt8__detail15_BracketMatcherINSt7__cxx1112regex_traitsIcEELb0ELb0EED1Ev_x7c
    /*00000074*/ MOV         R0, R6 
    /*00000078*/ BL          _ZdlPv
    _ZNSt8__detail15_BracketMatcherINSt7__cxx1112regex_traitsIcEELb0ELb0EED1Ev_x7c:
    /*0000007c*/ LDR         R0, [R7] 
    /*00000080*/ CMP         R0, #0 
    /*00000084*/ BEQ         _ZNSt8__detail15_BracketMatcherINSt7__cxx1112regex_traitsIcEELb0ELb0EED1Ev_x8c
    /*00000088*/ BL          _ZdlPv
    _ZNSt8__detail15_BracketMatcherINSt7__cxx1112regex_traitsIcEELb0ELb0EED1Ev_x8c:
    /*0000008c*/ MOV         R0, R7 
    /*00000090*/ POP         {R4, R5, R6, R7, R8, PC} 
FUNC_END _ZNSt8__detail15_BracketMatcherINSt7__cxx1112regex_traitsIcEELb0ELb0EED1Ev


@ - - - - - - - - - - - - - - - - - - - - - - - - - - - - - 
@ .text._ZNSt8__detail15_BracketMatcherINSt7__cxx1112regex_traitsIcEELb0ELb1EED2Ev
@ Size: 0xe0
@ - - - - - - - - - - - - - - - - - - - - - - - - - - - - - 

FUNC_BEGIN _ZNSt8__detail15_BracketMatcherINSt7__cxx1112regex_traitsIcEELb0ELb1EED2Ev
    /*00000000*/ MOV         IP, #16384                  @ 0x4000 
    /*00000004*/ PUSH        {R4, R5, R6, R7, R8, LR} 
    /*00000008*/ SUB         IP, SP, IP 
    /*0000000c*/ STR         R0, [IP, #4072]             @ 0xfe8 
    /*00000010*/ MOV         R6, R0 
    /*00000014*/ LDR         R0, [R0, #36]               @ 0x24 
    /*00000018*/ CMP         R0, #0 
    /*0000001c*/ BEQ         _ZNSt8__detail15_BracketMatcherINSt7__cxx1112regex_traitsIcEELb0ELb1EED2Ev_x24
    /*00000020*/ BL          _ZdlPv
    _ZNSt8__detail15_BracketMatcherINSt7__cxx1112regex_traitsIcEELb0ELb1EED2Ev_x24:
    /*00000024*/ LDR         R4, [R6, #24] 
    /*00000028*/ LDR         R7, [R6, #28] 
    /*0000002c*/ CMP         R4, R7 
    /*00000030*/ BEQ         _ZNSt8__detail15_BracketMatcherINSt7__cxx1112regex_traitsIcEELb0ELb1EED2Ev_x70
    /*00000034*/ ADD         R5, R4, #32 
    _ZNSt8__detail15_BracketMatcherINSt7__cxx1112regex_traitsIcEELb0ELb1EED2Ev_x38:
    /*00000038*/ LDR         R0, [R4, #24] 
    /*0000003c*/ CMP         R0, R5 
    /*00000040*/ BEQ         _ZNSt8__detail15_BracketMatcherINSt7__cxx1112regex_traitsIcEELb0ELb1EED2Ev_x48
    /*00000044*/ BL          _ZdlPv
    _ZNSt8__detail15_BracketMatcherINSt7__cxx1112regex_traitsIcEELb0ELb1EED2Ev_x48:
    /*00000048*/ LDR         R0, [R5, #-32]              @ 0xffffffe0 
    /*0000004c*/ ADD         R3, R4, #8 
    /*00000050*/ ADD         R5, R5, #48                 @ 0x30 
    /*00000054*/ ADD         R4, R4, #48                 @ 0x30 
    /*00000058*/ CMP         R0, R3 
    /*0000005c*/ BEQ         _ZNSt8__detail15_BracketMatcherINSt7__cxx1112regex_traitsIcEELb0ELb1EED2Ev_x64
    /*00000060*/ BL          _ZdlPv
    _ZNSt8__detail15_BracketMatcherINSt7__cxx1112regex_traitsIcEELb0ELb1EED2Ev_x64:
    /*00000064*/ CMP         R7, R4 
    /*00000068*/ BNE         _ZNSt8__detail15_BracketMatcherINSt7__cxx1112regex_traitsIcEELb0ELb1EED2Ev_x38
    /*0000006c*/ LDR         R7, [R6, #24] 
    _ZNSt8__detail15_BracketMatcherINSt7__cxx1112regex_traitsIcEELb0ELb1EED2Ev_x70:
    /*00000070*/ CMP         R7, #0 
    /*00000074*/ BEQ         _ZNSt8__detail15_BracketMatcherINSt7__cxx1112regex_traitsIcEELb0ELb1EED2Ev_x80
    /*00000078*/ MOV         R0, R7 
    /*0000007c*/ BL          _ZdlPv
    _ZNSt8__detail15_BracketMatcherINSt7__cxx1112regex_traitsIcEELb0ELb1EED2Ev_x80:
    /*00000080*/ LDR         R5, [R6, #12] 
    /*00000084*/ LDR         R7, [R6, #16] 
    /*00000088*/ CMP         R5, R7 
    /*0000008c*/ BEQ         _ZNSt8__detail15_BracketMatcherINSt7__cxx1112regex_traitsIcEELb0ELb1EED2Ev_xb8
    /*00000090*/ ADD         R4, R5, #8 
    _ZNSt8__detail15_BracketMatcherINSt7__cxx1112regex_traitsIcEELb0ELb1EED2Ev_x94:
    /*00000094*/ LDR         R0, [R4, #-8] 
    /*00000098*/ ADD         R5, R5, #24 
    /*0000009c*/ CMP         R0, R4 
    /*000000a0*/ ADD         R4, R4, #24 
    /*000000a4*/ BEQ         _ZNSt8__detail15_BracketMatcherINSt7__cxx1112regex_traitsIcEELb0ELb1EED2Ev_xac
    /*000000a8*/ BL          _ZdlPv
    _ZNSt8__detail15_BracketMatcherINSt7__cxx1112regex_traitsIcEELb0ELb1EED2Ev_xac:
    /*000000ac*/ CMP         R7, R5 
    /*000000b0*/ BNE         _ZNSt8__detail15_BracketMatcherINSt7__cxx1112regex_traitsIcEELb0ELb1EED2Ev_x94
    /*000000b4*/ LDR         R7, [R6, #12] 
    _ZNSt8__detail15_BracketMatcherINSt7__cxx1112regex_traitsIcEELb0ELb1EED2Ev_xb8:
    /*000000b8*/ CMP         R7, #0 
    /*000000bc*/ BEQ         _ZNSt8__detail15_BracketMatcherINSt7__cxx1112regex_traitsIcEELb0ELb1EED2Ev_xc8
    /*000000c0*/ MOV         R0, R7 
    /*000000c4*/ BL          _ZdlPv
    _ZNSt8__detail15_BracketMatcherINSt7__cxx1112regex_traitsIcEELb0ELb1EED2Ev_xc8:
    /*000000c8*/ LDR         R0, [R6] 
    /*000000cc*/ CMP         R0, #0 
    /*000000d0*/ BEQ         _ZNSt8__detail15_BracketMatcherINSt7__cxx1112regex_traitsIcEELb0ELb1EED2Ev_xd8
    /*000000d4*/ BL          _ZdlPv
    _ZNSt8__detail15_BracketMatcherINSt7__cxx1112regex_traitsIcEELb0ELb1EED2Ev_xd8:
    /*000000d8*/ MOV         R0, R6 
    /*000000dc*/ POP         {R4, R5, R6, R7, R8, PC} 
FUNC_END _ZNSt8__detail15_BracketMatcherINSt7__cxx1112regex_traitsIcEELb0ELb1EED2Ev


FUNC_BEGIN _ZNSt8__detail15_BracketMatcherINSt7__cxx1112regex_traitsIcEELb0ELb1EED1Ev
    /*00000000*/ MOV         IP, #16384                  @ 0x4000 
    /*00000004*/ PUSH        {R4, R5, R6, R7, R8, LR} 
    /*00000008*/ SUB         IP, SP, IP 
    /*0000000c*/ STR         R0, [IP, #4072]             @ 0xfe8 
    /*00000010*/ MOV         R6, R0 
    /*00000014*/ LDR         R0, [R0, #36]               @ 0x24 
    /*00000018*/ CMP         R0, #0 
    /*0000001c*/ BEQ         _ZNSt8__detail15_BracketMatcherINSt7__cxx1112regex_traitsIcEELb0ELb1EED1Ev_x24
    /*00000020*/ BL          _ZdlPv
    _ZNSt8__detail15_BracketMatcherINSt7__cxx1112regex_traitsIcEELb0ELb1EED1Ev_x24:
    /*00000024*/ LDR         R4, [R6, #24] 
    /*00000028*/ LDR         R7, [R6, #28] 
    /*0000002c*/ CMP         R4, R7 
    /*00000030*/ BEQ         _ZNSt8__detail15_BracketMatcherINSt7__cxx1112regex_traitsIcEELb0ELb1EED1Ev_x70
    /*00000034*/ ADD         R5, R4, #32 
    _ZNSt8__detail15_BracketMatcherINSt7__cxx1112regex_traitsIcEELb0ELb1EED1Ev_x38:
    /*00000038*/ LDR         R0, [R4, #24] 
    /*0000003c*/ CMP         R0, R5 
    /*00000040*/ BEQ         _ZNSt8__detail15_BracketMatcherINSt7__cxx1112regex_traitsIcEELb0ELb1EED1Ev_x48
    /*00000044*/ BL          _ZdlPv
    _ZNSt8__detail15_BracketMatcherINSt7__cxx1112regex_traitsIcEELb0ELb1EED1Ev_x48:
    /*00000048*/ LDR         R0, [R5, #-32]              @ 0xffffffe0 
    /*0000004c*/ ADD         R3, R4, #8 
    /*00000050*/ ADD         R5, R5, #48                 @ 0x30 
    /*00000054*/ ADD         R4, R4, #48                 @ 0x30 
    /*00000058*/ CMP         R0, R3 
    /*0000005c*/ BEQ         _ZNSt8__detail15_BracketMatcherINSt7__cxx1112regex_traitsIcEELb0ELb1EED1Ev_x64
    /*00000060*/ BL          _ZdlPv
    _ZNSt8__detail15_BracketMatcherINSt7__cxx1112regex_traitsIcEELb0ELb1EED1Ev_x64:
    /*00000064*/ CMP         R7, R4 
    /*00000068*/ BNE         _ZNSt8__detail15_BracketMatcherINSt7__cxx1112regex_traitsIcEELb0ELb1EED1Ev_x38
    /*0000006c*/ LDR         R7, [R6, #24] 
    _ZNSt8__detail15_BracketMatcherINSt7__cxx1112regex_traitsIcEELb0ELb1EED1Ev_x70:
    /*00000070*/ CMP         R7, #0 
    /*00000074*/ BEQ         _ZNSt8__detail15_BracketMatcherINSt7__cxx1112regex_traitsIcEELb0ELb1EED1Ev_x80
    /*00000078*/ MOV         R0, R7 
    /*0000007c*/ BL          _ZdlPv
    _ZNSt8__detail15_BracketMatcherINSt7__cxx1112regex_traitsIcEELb0ELb1EED1Ev_x80:
    /*00000080*/ LDR         R5, [R6, #12] 
    /*00000084*/ LDR         R7, [R6, #16] 
    /*00000088*/ CMP         R5, R7 
    /*0000008c*/ BEQ         _ZNSt8__detail15_BracketMatcherINSt7__cxx1112regex_traitsIcEELb0ELb1EED1Ev_xb8
    /*00000090*/ ADD         R4, R5, #8 
    _ZNSt8__detail15_BracketMatcherINSt7__cxx1112regex_traitsIcEELb0ELb1EED1Ev_x94:
    /*00000094*/ LDR         R0, [R4, #-8] 
    /*00000098*/ ADD         R5, R5, #24 
    /*0000009c*/ CMP         R0, R4 
    /*000000a0*/ ADD         R4, R4, #24 
    /*000000a4*/ BEQ         _ZNSt8__detail15_BracketMatcherINSt7__cxx1112regex_traitsIcEELb0ELb1EED1Ev_xac
    /*000000a8*/ BL          _ZdlPv
    _ZNSt8__detail15_BracketMatcherINSt7__cxx1112regex_traitsIcEELb0ELb1EED1Ev_xac:
    /*000000ac*/ CMP         R7, R5 
    /*000000b0*/ BNE         _ZNSt8__detail15_BracketMatcherINSt7__cxx1112regex_traitsIcEELb0ELb1EED1Ev_x94
    /*000000b4*/ LDR         R7, [R6, #12] 
    _ZNSt8__detail15_BracketMatcherINSt7__cxx1112regex_traitsIcEELb0ELb1EED1Ev_xb8:
    /*000000b8*/ CMP         R7, #0 
    /*000000bc*/ BEQ         _ZNSt8__detail15_BracketMatcherINSt7__cxx1112regex_traitsIcEELb0ELb1EED1Ev_xc8
    /*000000c0*/ MOV         R0, R7 
    /*000000c4*/ BL          _ZdlPv
    _ZNSt8__detail15_BracketMatcherINSt7__cxx1112regex_traitsIcEELb0ELb1EED1Ev_xc8:
    /*000000c8*/ LDR         R0, [R6] 
    /*000000cc*/ CMP         R0, #0 
    /*000000d0*/ BEQ         _ZNSt8__detail15_BracketMatcherINSt7__cxx1112regex_traitsIcEELb0ELb1EED1Ev_xd8
    /*000000d4*/ BL          _ZdlPv
    _ZNSt8__detail15_BracketMatcherINSt7__cxx1112regex_traitsIcEELb0ELb1EED1Ev_xd8:
    /*000000d8*/ MOV         R0, R6 
    /*000000dc*/ POP         {R4, R5, R6, R7, R8, PC} 
FUNC_END _ZNSt8__detail15_BracketMatcherINSt7__cxx1112regex_traitsIcEELb0ELb1EED1Ev


@ - - - - - - - - - - - - - - - - - - - - - - - - - - - - - 
@ .text._ZNSt8__detail15_BracketMatcherINSt7__cxx1112regex_traitsIcEELb1ELb0EED2Ev
@ Size: 0x94
@ - - - - - - - - - - - - - - - - - - - - - - - - - - - - - 

FUNC_BEGIN _ZNSt8__detail15_BracketMatcherINSt7__cxx1112regex_traitsIcEELb1ELb0EED2Ev
    /*00000000*/ MOV         IP, #16384                  @ 0x4000 
    /*00000004*/ PUSH        {R4, R5, R6, R7, R8, LR} 
    /*00000008*/ SUB         IP, SP, IP 
    /*0000000c*/ STR         R0, [IP, #4072]             @ 0xfe8 
    /*00000010*/ MOV         R7, R0 
    /*00000014*/ LDR         R0, [R0, #36]               @ 0x24 
    /*00000018*/ CMP         R0, #0 
    /*0000001c*/ BEQ         _ZNSt8__detail15_BracketMatcherINSt7__cxx1112regex_traitsIcEELb1ELb0EED2Ev_x24
    /*00000020*/ BL          _ZdlPv
    _ZNSt8__detail15_BracketMatcherINSt7__cxx1112regex_traitsIcEELb1ELb0EED2Ev_x24:
    /*00000024*/ LDR         R0, [R7, #24] 
    /*00000028*/ CMP         R0, #0 
    /*0000002c*/ BEQ         _ZNSt8__detail15_BracketMatcherINSt7__cxx1112regex_traitsIcEELb1ELb0EED2Ev_x34
    /*00000030*/ BL          _ZdlPv
    _ZNSt8__detail15_BracketMatcherINSt7__cxx1112regex_traitsIcEELb1ELb0EED2Ev_x34:
    /*00000034*/ LDR         R5, [R7, #12] 
    /*00000038*/ LDR         R6, [R7, #16] 
    /*0000003c*/ CMP         R5, R6 
    /*00000040*/ BEQ         _ZNSt8__detail15_BracketMatcherINSt7__cxx1112regex_traitsIcEELb1ELb0EED2Ev_x6c
    /*00000044*/ ADD         R4, R5, #8 
    _ZNSt8__detail15_BracketMatcherINSt7__cxx1112regex_traitsIcEELb1ELb0EED2Ev_x48:
    /*00000048*/ LDR         R0, [R4, #-8] 
    /*0000004c*/ ADD         R5, R5, #24 
    /*00000050*/ CMP         R0, R4 
    /*00000054*/ ADD         R4, R4, #24 
    /*00000058*/ BEQ         _ZNSt8__detail15_BracketMatcherINSt7__cxx1112regex_traitsIcEELb1ELb0EED2Ev_x60
    /*0000005c*/ BL          _ZdlPv
    _ZNSt8__detail15_BracketMatcherINSt7__cxx1112regex_traitsIcEELb1ELb0EED2Ev_x60:
    /*00000060*/ CMP         R6, R5 
    /*00000064*/ BNE         _ZNSt8__detail15_BracketMatcherINSt7__cxx1112regex_traitsIcEELb1ELb0EED2Ev_x48
    /*00000068*/ LDR         R6, [R7, #12] 
    _ZNSt8__detail15_BracketMatcherINSt7__cxx1112regex_traitsIcEELb1ELb0EED2Ev_x6c:
    /*0000006c*/ CMP         R6, #0 
    /*00000070*/ BEQ         _ZNSt8__detail15_BracketMatcherINSt7__cxx1112regex_traitsIcEELb1ELb0EED2Ev_x7c
    /*00000074*/ MOV         R0, R6 
    /*00000078*/ BL          _ZdlPv
    _ZNSt8__detail15_BracketMatcherINSt7__cxx1112regex_traitsIcEELb1ELb0EED2Ev_x7c:
    /*0000007c*/ LDR         R0, [R7] 
    /*00000080*/ CMP         R0, #0 
    /*00000084*/ BEQ         _ZNSt8__detail15_BracketMatcherINSt7__cxx1112regex_traitsIcEELb1ELb0EED2Ev_x8c
    /*00000088*/ BL          _ZdlPv
    _ZNSt8__detail15_BracketMatcherINSt7__cxx1112regex_traitsIcEELb1ELb0EED2Ev_x8c:
    /*0000008c*/ MOV         R0, R7 
    /*00000090*/ POP         {R4, R5, R6, R7, R8, PC} 
FUNC_END _ZNSt8__detail15_BracketMatcherINSt7__cxx1112regex_traitsIcEELb1ELb0EED2Ev


FUNC_BEGIN _ZNSt8__detail15_BracketMatcherINSt7__cxx1112regex_traitsIcEELb1ELb0EED1Ev
    /*00000000*/ MOV         IP, #16384                  @ 0x4000 
    /*00000004*/ PUSH        {R4, R5, R6, R7, R8, LR} 
    /*00000008*/ SUB         IP, SP, IP 
    /*0000000c*/ STR         R0, [IP, #4072]             @ 0xfe8 
    /*00000010*/ MOV         R7, R0 
    /*00000014*/ LDR         R0, [R0, #36]               @ 0x24 
    /*00000018*/ CMP         R0, #0 
    /*0000001c*/ BEQ         _ZNSt8__detail15_BracketMatcherINSt7__cxx1112regex_traitsIcEELb1ELb0EED1Ev_x24
    /*00000020*/ BL          _ZdlPv
    _ZNSt8__detail15_BracketMatcherINSt7__cxx1112regex_traitsIcEELb1ELb0EED1Ev_x24:
    /*00000024*/ LDR         R0, [R7, #24] 
    /*00000028*/ CMP         R0, #0 
    /*0000002c*/ BEQ         _ZNSt8__detail15_BracketMatcherINSt7__cxx1112regex_traitsIcEELb1ELb0EED1Ev_x34
    /*00000030*/ BL          _ZdlPv
    _ZNSt8__detail15_BracketMatcherINSt7__cxx1112regex_traitsIcEELb1ELb0EED1Ev_x34:
    /*00000034*/ LDR         R5, [R7, #12] 
    /*00000038*/ LDR         R6, [R7, #16] 
    /*0000003c*/ CMP         R5, R6 
    /*00000040*/ BEQ         _ZNSt8__detail15_BracketMatcherINSt7__cxx1112regex_traitsIcEELb1ELb0EED1Ev_x6c
    /*00000044*/ ADD         R4, R5, #8 
    _ZNSt8__detail15_BracketMatcherINSt7__cxx1112regex_traitsIcEELb1ELb0EED1Ev_x48:
    /*00000048*/ LDR         R0, [R4, #-8] 
    /*0000004c*/ ADD         R5, R5, #24 
    /*00000050*/ CMP         R0, R4 
    /*00000054*/ ADD         R4, R4, #24 
    /*00000058*/ BEQ         _ZNSt8__detail15_BracketMatcherINSt7__cxx1112regex_traitsIcEELb1ELb0EED1Ev_x60
    /*0000005c*/ BL          _ZdlPv
    _ZNSt8__detail15_BracketMatcherINSt7__cxx1112regex_traitsIcEELb1ELb0EED1Ev_x60:
    /*00000060*/ CMP         R6, R5 
    /*00000064*/ BNE         _ZNSt8__detail15_BracketMatcherINSt7__cxx1112regex_traitsIcEELb1ELb0EED1Ev_x48
    /*00000068*/ LDR         R6, [R7, #12] 
    _ZNSt8__detail15_BracketMatcherINSt7__cxx1112regex_traitsIcEELb1ELb0EED1Ev_x6c:
    /*0000006c*/ CMP         R6, #0 
    /*00000070*/ BEQ         _ZNSt8__detail15_BracketMatcherINSt7__cxx1112regex_traitsIcEELb1ELb0EED1Ev_x7c
    /*00000074*/ MOV         R0, R6 
    /*00000078*/ BL          _ZdlPv
    _ZNSt8__detail15_BracketMatcherINSt7__cxx1112regex_traitsIcEELb1ELb0EED1Ev_x7c:
    /*0000007c*/ LDR         R0, [R7] 
    /*00000080*/ CMP         R0, #0 
    /*00000084*/ BEQ         _ZNSt8__detail15_BracketMatcherINSt7__cxx1112regex_traitsIcEELb1ELb0EED1Ev_x8c
    /*00000088*/ BL          _ZdlPv
    _ZNSt8__detail15_BracketMatcherINSt7__cxx1112regex_traitsIcEELb1ELb0EED1Ev_x8c:
    /*0000008c*/ MOV         R0, R7 
    /*00000090*/ POP         {R4, R5, R6, R7, R8, PC} 
FUNC_END _ZNSt8__detail15_BracketMatcherINSt7__cxx1112regex_traitsIcEELb1ELb0EED1Ev


@ - - - - - - - - - - - - - - - - - - - - - - - - - - - - - 
@ .text._ZNSt8__detail15_BracketMatcherINSt7__cxx1112regex_traitsIcEELb1ELb1EED2Ev
@ Size: 0xe0
@ - - - - - - - - - - - - - - - - - - - - - - - - - - - - - 

FUNC_BEGIN _ZNSt8__detail15_BracketMatcherINSt7__cxx1112regex_traitsIcEELb1ELb1EED2Ev
    /*00000000*/ MOV         IP, #16384                  @ 0x4000 
    /*00000004*/ PUSH        {R4, R5, R6, R7, R8, LR} 
    /*00000008*/ SUB         IP, SP, IP 
    /*0000000c*/ STR         R0, [IP, #4072]             @ 0xfe8 
    /*00000010*/ MOV         R6, R0 
    /*00000014*/ LDR         R0, [R0, #36]               @ 0x24 
    /*00000018*/ CMP         R0, #0 
    /*0000001c*/ BEQ         _ZNSt8__detail15_BracketMatcherINSt7__cxx1112regex_traitsIcEELb1ELb1EED2Ev_x24
    /*00000020*/ BL          _ZdlPv
    _ZNSt8__detail15_BracketMatcherINSt7__cxx1112regex_traitsIcEELb1ELb1EED2Ev_x24:
    /*00000024*/ LDR         R4, [R6, #24] 
    /*00000028*/ LDR         R7, [R6, #28] 
    /*0000002c*/ CMP         R4, R7 
    /*00000030*/ BEQ         _ZNSt8__detail15_BracketMatcherINSt7__cxx1112regex_traitsIcEELb1ELb1EED2Ev_x70
    /*00000034*/ ADD         R5, R4, #32 
    _ZNSt8__detail15_BracketMatcherINSt7__cxx1112regex_traitsIcEELb1ELb1EED2Ev_x38:
    /*00000038*/ LDR         R0, [R4, #24] 
    /*0000003c*/ CMP         R0, R5 
    /*00000040*/ BEQ         _ZNSt8__detail15_BracketMatcherINSt7__cxx1112regex_traitsIcEELb1ELb1EED2Ev_x48
    /*00000044*/ BL          _ZdlPv
    _ZNSt8__detail15_BracketMatcherINSt7__cxx1112regex_traitsIcEELb1ELb1EED2Ev_x48:
    /*00000048*/ LDR         R0, [R5, #-32]              @ 0xffffffe0 
    /*0000004c*/ ADD         R3, R4, #8 
    /*00000050*/ ADD         R5, R5, #48                 @ 0x30 
    /*00000054*/ ADD         R4, R4, #48                 @ 0x30 
    /*00000058*/ CMP         R0, R3 
    /*0000005c*/ BEQ         _ZNSt8__detail15_BracketMatcherINSt7__cxx1112regex_traitsIcEELb1ELb1EED2Ev_x64
    /*00000060*/ BL          _ZdlPv
    _ZNSt8__detail15_BracketMatcherINSt7__cxx1112regex_traitsIcEELb1ELb1EED2Ev_x64:
    /*00000064*/ CMP         R7, R4 
    /*00000068*/ BNE         _ZNSt8__detail15_BracketMatcherINSt7__cxx1112regex_traitsIcEELb1ELb1EED2Ev_x38
    /*0000006c*/ LDR         R7, [R6, #24] 
    _ZNSt8__detail15_BracketMatcherINSt7__cxx1112regex_traitsIcEELb1ELb1EED2Ev_x70:
    /*00000070*/ CMP         R7, #0 
    /*00000074*/ BEQ         _ZNSt8__detail15_BracketMatcherINSt7__cxx1112regex_traitsIcEELb1ELb1EED2Ev_x80
    /*00000078*/ MOV         R0, R7 
    /*0000007c*/ BL          _ZdlPv
    _ZNSt8__detail15_BracketMatcherINSt7__cxx1112regex_traitsIcEELb1ELb1EED2Ev_x80:
    /*00000080*/ LDR         R5, [R6, #12] 
    /*00000084*/ LDR         R7, [R6, #16] 
    /*00000088*/ CMP         R5, R7 
    /*0000008c*/ BEQ         _ZNSt8__detail15_BracketMatcherINSt7__cxx1112regex_traitsIcEELb1ELb1EED2Ev_xb8
    /*00000090*/ ADD         R4, R5, #8 
    _ZNSt8__detail15_BracketMatcherINSt7__cxx1112regex_traitsIcEELb1ELb1EED2Ev_x94:
    /*00000094*/ LDR         R0, [R4, #-8] 
    /*00000098*/ ADD         R5, R5, #24 
    /*0000009c*/ CMP         R0, R4 
    /*000000a0*/ ADD         R4, R4, #24 
    /*000000a4*/ BEQ         _ZNSt8__detail15_BracketMatcherINSt7__cxx1112regex_traitsIcEELb1ELb1EED2Ev_xac
    /*000000a8*/ BL          _ZdlPv
    _ZNSt8__detail15_BracketMatcherINSt7__cxx1112regex_traitsIcEELb1ELb1EED2Ev_xac:
    /*000000ac*/ CMP         R7, R5 
    /*000000b0*/ BNE         _ZNSt8__detail15_BracketMatcherINSt7__cxx1112regex_traitsIcEELb1ELb1EED2Ev_x94
    /*000000b4*/ LDR         R7, [R6, #12] 
    _ZNSt8__detail15_BracketMatcherINSt7__cxx1112regex_traitsIcEELb1ELb1EED2Ev_xb8:
    /*000000b8*/ CMP         R7, #0 
    /*000000bc*/ BEQ         _ZNSt8__detail15_BracketMatcherINSt7__cxx1112regex_traitsIcEELb1ELb1EED2Ev_xc8
    /*000000c0*/ MOV         R0, R7 
    /*000000c4*/ BL          _ZdlPv
    _ZNSt8__detail15_BracketMatcherINSt7__cxx1112regex_traitsIcEELb1ELb1EED2Ev_xc8:
    /*000000c8*/ LDR         R0, [R6] 
    /*000000cc*/ CMP         R0, #0 
    /*000000d0*/ BEQ         _ZNSt8__detail15_BracketMatcherINSt7__cxx1112regex_traitsIcEELb1ELb1EED2Ev_xd8
    /*000000d4*/ BL          _ZdlPv
    _ZNSt8__detail15_BracketMatcherINSt7__cxx1112regex_traitsIcEELb1ELb1EED2Ev_xd8:
    /*000000d8*/ MOV         R0, R6 
    /*000000dc*/ POP         {R4, R5, R6, R7, R8, PC} 
FUNC_END _ZNSt8__detail15_BracketMatcherINSt7__cxx1112regex_traitsIcEELb1ELb1EED2Ev


FUNC_BEGIN _ZNSt8__detail15_BracketMatcherINSt7__cxx1112regex_traitsIcEELb1ELb1EED1Ev
    /*00000000*/ MOV         IP, #16384                  @ 0x4000 
    /*00000004*/ PUSH        {R4, R5, R6, R7, R8, LR} 
    /*00000008*/ SUB         IP, SP, IP 
    /*0000000c*/ STR         R0, [IP, #4072]             @ 0xfe8 
    /*00000010*/ MOV         R6, R0 
    /*00000014*/ LDR         R0, [R0, #36]               @ 0x24 
    /*00000018*/ CMP         R0, #0 
    /*0000001c*/ BEQ         _ZNSt8__detail15_BracketMatcherINSt7__cxx1112regex_traitsIcEELb1ELb1EED1Ev_x24
    /*00000020*/ BL          _ZdlPv
    _ZNSt8__detail15_BracketMatcherINSt7__cxx1112regex_traitsIcEELb1ELb1EED1Ev_x24:
    /*00000024*/ LDR         R4, [R6, #24] 
    /*00000028*/ LDR         R7, [R6, #28] 
    /*0000002c*/ CMP         R4, R7 
    /*00000030*/ BEQ         _ZNSt8__detail15_BracketMatcherINSt7__cxx1112regex_traitsIcEELb1ELb1EED1Ev_x70
    /*00000034*/ ADD         R5, R4, #32 
    _ZNSt8__detail15_BracketMatcherINSt7__cxx1112regex_traitsIcEELb1ELb1EED1Ev_x38:
    /*00000038*/ LDR         R0, [R4, #24] 
    /*0000003c*/ CMP         R0, R5 
    /*00000040*/ BEQ         _ZNSt8__detail15_BracketMatcherINSt7__cxx1112regex_traitsIcEELb1ELb1EED1Ev_x48
    /*00000044*/ BL          _ZdlPv
    _ZNSt8__detail15_BracketMatcherINSt7__cxx1112regex_traitsIcEELb1ELb1EED1Ev_x48:
    /*00000048*/ LDR         R0, [R5, #-32]              @ 0xffffffe0 
    /*0000004c*/ ADD         R3, R4, #8 
    /*00000050*/ ADD         R5, R5, #48                 @ 0x30 
    /*00000054*/ ADD         R4, R4, #48                 @ 0x30 
    /*00000058*/ CMP         R0, R3 
    /*0000005c*/ BEQ         _ZNSt8__detail15_BracketMatcherINSt7__cxx1112regex_traitsIcEELb1ELb1EED1Ev_x64
    /*00000060*/ BL          _ZdlPv
    _ZNSt8__detail15_BracketMatcherINSt7__cxx1112regex_traitsIcEELb1ELb1EED1Ev_x64:
    /*00000064*/ CMP         R7, R4 
    /*00000068*/ BNE         _ZNSt8__detail15_BracketMatcherINSt7__cxx1112regex_traitsIcEELb1ELb1EED1Ev_x38
    /*0000006c*/ LDR         R7, [R6, #24] 
    _ZNSt8__detail15_BracketMatcherINSt7__cxx1112regex_traitsIcEELb1ELb1EED1Ev_x70:
    /*00000070*/ CMP         R7, #0 
    /*00000074*/ BEQ         _ZNSt8__detail15_BracketMatcherINSt7__cxx1112regex_traitsIcEELb1ELb1EED1Ev_x80
    /*00000078*/ MOV         R0, R7 
    /*0000007c*/ BL          _ZdlPv
    _ZNSt8__detail15_BracketMatcherINSt7__cxx1112regex_traitsIcEELb1ELb1EED1Ev_x80:
    /*00000080*/ LDR         R5, [R6, #12] 
    /*00000084*/ LDR         R7, [R6, #16] 
    /*00000088*/ CMP         R5, R7 
    /*0000008c*/ BEQ         _ZNSt8__detail15_BracketMatcherINSt7__cxx1112regex_traitsIcEELb1ELb1EED1Ev_xb8
    /*00000090*/ ADD         R4, R5, #8 
    _ZNSt8__detail15_BracketMatcherINSt7__cxx1112regex_traitsIcEELb1ELb1EED1Ev_x94:
    /*00000094*/ LDR         R0, [R4, #-8] 
    /*00000098*/ ADD         R5, R5, #24 
    /*0000009c*/ CMP         R0, R4 
    /*000000a0*/ ADD         R4, R4, #24 
    /*000000a4*/ BEQ         _ZNSt8__detail15_BracketMatcherINSt7__cxx1112regex_traitsIcEELb1ELb1EED1Ev_xac
    /*000000a8*/ BL          _ZdlPv
    _ZNSt8__detail15_BracketMatcherINSt7__cxx1112regex_traitsIcEELb1ELb1EED1Ev_xac:
    /*000000ac*/ CMP         R7, R5 
    /*000000b0*/ BNE         _ZNSt8__detail15_BracketMatcherINSt7__cxx1112regex_traitsIcEELb1ELb1EED1Ev_x94
    /*000000b4*/ LDR         R7, [R6, #12] 
    _ZNSt8__detail15_BracketMatcherINSt7__cxx1112regex_traitsIcEELb1ELb1EED1Ev_xb8:
    /*000000b8*/ CMP         R7, #0 
    /*000000bc*/ BEQ         _ZNSt8__detail15_BracketMatcherINSt7__cxx1112regex_traitsIcEELb1ELb1EED1Ev_xc8
    /*000000c0*/ MOV         R0, R7 
    /*000000c4*/ BL          _ZdlPv
    _ZNSt8__detail15_BracketMatcherINSt7__cxx1112regex_traitsIcEELb1ELb1EED1Ev_xc8:
    /*000000c8*/ LDR         R0, [R6] 
    /*000000cc*/ CMP         R0, #0 
    /*000000d0*/ BEQ         _ZNSt8__detail15_BracketMatcherINSt7__cxx1112regex_traitsIcEELb1ELb1EED1Ev_xd8
    /*000000d4*/ BL          _ZdlPv
    _ZNSt8__detail15_BracketMatcherINSt7__cxx1112regex_traitsIcEELb1ELb1EED1Ev_xd8:
    /*000000d8*/ MOV         R0, R6 
    /*000000dc*/ POP         {R4, R5, R6, R7, R8, PC} 
FUNC_END _ZNSt8__detail15_BracketMatcherINSt7__cxx1112regex_traitsIcEELb1ELb1EED1Ev


@ - - - - - - - - - - - - - - - - - - - - - - - - - - - - - 
@ .text._ZNSt8__detail4_NFAINSt7__cxx1112regex_traitsIcEEE16_M_insert_repeatEllb
@ Size: 0xf8
@ - - - - - - - - - - - - - - - - - - - - - - - - - - - - - 

FUNC_BEGIN _ZNSt8__detail4_NFAINSt7__cxx1112regex_traitsIcEEE16_M_insert_repeatEllb
    /*00000000*/ MOV         IP, #16384                  @ 0x4000 
    /*00000004*/ PUSH        {R4, R5, R6, R7, R8, LR} 
    /*00000008*/ SUB         IP, SP, IP 
    /*0000000c*/ STR         R0, [IP, #4016]             @ 0xfb0 
    /*00000010*/ LDR         R4, WORD_00f0               @ LDR         R4, [PC, #216]              @ 0x00000000000000f0 
    /*00000014*/ SUB         SP, SP, #56                 @ 0x38 
    /*00000018*/ LDR         IP, WORD_00f4               @ LDR         IP, [PC, #212]              @ 0x00000000000000f4 
    /*0000001c*/ ADD         R6, SP, #4 
    /*00000020*/ ADD         R4, PC, R4 
    /*00000024*/ MOV         LR, R6 
    /*00000028*/ MOV         R8, #2 
    /*0000002c*/ MOV         R7, R0 
    /*00000030*/ LDR         R5, [R4, IP] 
    /*00000034*/ ADD         IP, SP, #28 
    /*00000038*/ STR         R1, [SP, #8] 
    /*0000003c*/ MOV         R4, IP 
    /*00000040*/ STR         R2, [SP, #12] 
    /*00000044*/ STRB        R3, [SP, #16] 
    /*00000048*/ STR         R8, [SP, #4] 
    /*0000004c*/ LDM         LR!, {R0, R1, R2, R3} 
    /*00000050*/ STMIA       IP!, {R0, R1, R2, R3} 
    /*00000054*/ LDM         LR, {R0, R1} 
    /*00000058*/ LDR         R3, [R5] 
    /*0000005c*/ STM         IP, {R0, R1} 
    /*00000060*/ STR         R3, [SP, #52]               @ 0x34 
    /*00000064*/ MOV         R0, R7 
    /*00000068*/ MOV         R1, R4 
    /*0000006c*/ BL          _ZNSt8__detail4_NFAINSt7__cxx1112regex_traitsIcEEE15_M_insert_stateENS_6_StateIcEE
    /*00000070*/ LDR         R3, [SP, #28] 
    /*00000074*/ MOV         R7, R0 
    /*00000078*/ CMP         R3, #11 
    /*0000007c*/ BEQ         _ZNSt8__detail4_NFAINSt7__cxx1112regex_traitsIcEEE16_M_insert_repeatEllb_xb4
    _ZNSt8__detail4_NFAINSt7__cxx1112regex_traitsIcEEE16_M_insert_repeatEllb_x80:
    /*00000080*/ LDR         R3, [SP, #4] 
    /*00000084*/ CMP         R3, #11 
    /*00000088*/ BEQ         _ZNSt8__detail4_NFAINSt7__cxx1112regex_traitsIcEEE16_M_insert_repeatEllb_xa8
    _ZNSt8__detail4_NFAINSt7__cxx1112regex_traitsIcEEE16_M_insert_repeatEllb_x8c:
    /*0000008c*/ LDR         R2, [SP, #52]               @ 0x34 
    /*00000090*/ MOV         R0, R7 
    /*00000094*/ LDR         R3, [R5] 
    /*00000098*/ CMP         R2, R3 
    /*0000009c*/ BNE         _ZNSt8__detail4_NFAINSt7__cxx1112regex_traitsIcEEE16_M_insert_repeatEllb_xc0
    /*000000a0*/ ADD         SP, SP, #56                 @ 0x38 
    /*000000a4*/ POP         {R4, R5, R6, R7, R8, PC} 
    _ZNSt8__detail4_NFAINSt7__cxx1112regex_traitsIcEEE16_M_insert_repeatEllb_xa8:
    /*000000a8*/ MOV         R0, R6 
    /*000000ac*/ BL          _ZNSt8__detail6_StateIcED2Ev.part.117
    /*000000b0*/ B           _ZNSt8__detail4_NFAINSt7__cxx1112regex_traitsIcEEE16_M_insert_repeatEllb_x8c
    _ZNSt8__detail4_NFAINSt7__cxx1112regex_traitsIcEEE16_M_insert_repeatEllb_xb4:
    /*000000b4*/ MOV         R0, R4 
    /*000000b8*/ BL          _ZNSt8__detail6_StateIcED2Ev.part.117
    /*000000bc*/ B           _ZNSt8__detail4_NFAINSt7__cxx1112regex_traitsIcEEE16_M_insert_repeatEllb_x80
    _ZNSt8__detail4_NFAINSt7__cxx1112regex_traitsIcEEE16_M_insert_repeatEllb_xc0:
    /*000000c0*/ BL          __stack_chk_fail
    /*000000c4*/ LDR         R3, [SP, #28] 
    /*000000c8*/ CMP         R3, #11 
    /*000000cc*/ BNE         _ZNSt8__detail4_NFAINSt7__cxx1112regex_traitsIcEEE16_M_insert_repeatEllb_xd8
    /*000000d0*/ MOV         R0, R4 
    /*000000d4*/ BL          _ZNSt8__detail6_StateIcED2Ev.part.117
    _ZNSt8__detail4_NFAINSt7__cxx1112regex_traitsIcEEE16_M_insert_repeatEllb_xd8:
    /*000000d8*/ LDR         R3, [SP, #4] 
    /*000000dc*/ CMP         R3, #11 
    /*000000e0*/ BNE         _ZNSt8__detail4_NFAINSt7__cxx1112regex_traitsIcEEE16_M_insert_repeatEllb_xec
    /*000000e4*/ MOV         R0, R6 
    /*000000e8*/ BL          _ZNSt8__detail6_StateIcED2Ev.part.117
    _ZNSt8__detail4_NFAINSt7__cxx1112regex_traitsIcEEE16_M_insert_repeatEllb_xec:
    /*000000ec*/ BL          __cxa_end_cleanup
    /*000000f0*/ WORD_00f0: .word 0x000000c8
    /*000000f4*/ WORD_00f4: .word 0x00000000
FUNC_END _ZNSt8__detail4_NFAINSt7__cxx1112regex_traitsIcEEE16_M_insert_repeatEllb


@ - - - - - - - - - - - - - - - - - - - - - - - - - - - - - 
@ .ARM.extab.text._ZNSt8__detail4_NFAINSt7__cxx1112regex_traitsIcEEE16_M_insert_repeatEllb
@ Size: 0x16
@ - - - - - - - - - - - - - - - - - - - - - - - - - - - - - 

@ - - - - - - - - - - - - - - - - - - - - - - - - - - - - - 
@ .text._ZNSt5dequeINSt8__detail9_StateSeqINSt7__cxx1112regex_traitsIcEEEESaIS5_EE16_M_push_back_auxIJS5_EEEvDpOT_
@ Size: 0x18c
@ - - - - - - - - - - - - - - - - - - - - - - - - - - - - - 

FUNC_BEGIN _ZNSt5dequeINSt8__detail9_StateSeqINSt7__cxx1112regex_traitsIcEEEESaIS5_EE16_M_push_back_auxIJS5_EEEvDpOT_
    /*00000000*/ MOV         IP, #16384                  @ 0x4000 
    /*00000004*/ PUSH        {R4, R5, R6, R7, R8, R9, SL, LR} 
    /*00000008*/ SUB         IP, SP, IP 
    /*0000000c*/ STR         R0, [IP, #4048]             @ 0xfd0 
    /*00000010*/ LDR         R5, [R0, #36]               @ 0x24 
    /*00000014*/ SUB         SP, SP, #16 
    /*00000018*/ LDR         R9, [R0] 
    /*0000001c*/ MOV         R4, R0 
    /*00000020*/ LDR         R2, [R0, #4] 
    /*00000024*/ MOV         R7, R1 
    /*00000028*/ SUB         R3, R5, R9 
    /*0000002c*/ SUB         R3, R2, R3, ASR #2 
    /*00000030*/ CMP         R3, #1 
    /*00000034*/ BLS         _ZNSt5dequeINSt8__detail9_StateSeqINSt7__cxx1112regex_traitsIcEEEESaIS5_EE16_M_push_back_auxIJS5_EEEvDpOT__x84
    _ZNSt5dequeINSt8__detail9_StateSeqINSt7__cxx1112regex_traitsIcEEEESaIS5_EE16_M_push_back_auxIJS5_EEEvDpOT__x38:
    /*00000038*/ MOV         R0, #504                    @ 0x1f8 
    /*0000003c*/ ADD         R4, R4, #24 
    /*00000040*/ BL          _Znwj
    /*00000044*/ STR         R0, [R5, #4] 
    /*00000048*/ LDR         R3, [R4] 
    /*0000004c*/ CMP         R3, #0 
    /*00000050*/ LDMNE       R7, {R0, R1, R2} 
    /*00000054*/ STMNE       R3, {R0, R1, R2} 
    /*00000058*/ LDR         R3, [R4, #12] 
    /*0000005c*/ LDR         R2, [R3, #4]! 
    /*00000060*/ STR         R2, [SP] 
    /*00000064*/ ADD         R1, R2, #504                @ 0x1f8 
    /*00000068*/ STR         R2, [SP, #4] 
    /*0000006c*/ STR         R1, [SP, #8] 
    /*00000070*/ STR         R3, [SP, #12] 
    /*00000074*/ VLD1.64     {D16-D17}, [SP :64] 
    /*00000078*/ VST1.32     {D16-D17}, [R4] 
    /*0000007c*/ ADD         SP, SP, #16 
    /*00000080*/ POP         {R4, R5, R6, R7, R8, R9, SL, PC} 
    _ZNSt5dequeINSt8__detail9_StateSeqINSt7__cxx1112regex_traitsIcEEEESaIS5_EE16_M_push_back_auxIJS5_EEEvDpOT__x84:
    /*00000084*/ LDR         R1, [R0, #20] 
    /*00000088*/ SUB         R8, R5, R1 
    /*0000008c*/ ASR         R8, R8, #2 
    /*00000090*/ ADD         R8, R8, #1 
    /*00000094*/ ADD         SL, R8, #1 
    /*00000098*/ CMP         R2, SL, LSL #1 
    /*0000009c*/ BHI         _ZNSt5dequeINSt8__detail9_StateSeqINSt7__cxx1112regex_traitsIcEEEESaIS5_EE16_M_push_back_auxIJS5_EEEvDpOT__x128
    /*000000a0*/ CMP         R2, #0 
    /*000000a4*/ BEQ         _ZNSt5dequeINSt8__detail9_StateSeqINSt7__cxx1112regex_traitsIcEEEESaIS5_EE16_M_push_back_auxIJS5_EEEvDpOT__x158
    /*000000a8*/ LSL         R6, R2, #1 
    /*000000ac*/ ADD         R6, R6, #2 
    /*000000b0*/ CMN         R6, #-1073741823            @ 0xc0000001 
    /*000000b4*/ BHI         _ZNSt5dequeINSt8__detail9_StateSeqINSt7__cxx1112regex_traitsIcEEEESaIS5_EE16_M_push_back_auxIJS5_EEEvDpOT__x188
    _ZNSt5dequeINSt8__detail9_StateSeqINSt7__cxx1112regex_traitsIcEEEESaIS5_EE16_M_push_back_auxIJS5_EEEvDpOT__xb8:
    /*000000b8*/ LSL         R0, R6, #2 
    /*000000bc*/ SUB         R9, R6, SL 
    /*000000c0*/ BL          _Znwj
    /*000000c4*/ LDR         R2, [R4, #36]               @ 0x24 
    /*000000c8*/ MOV         R5, R0 
    /*000000cc*/ LDR         R1, [R4, #20] 
    /*000000d0*/ LSR         R9, R9, #1 
    /*000000d4*/ ADD         R2, R2, #4 
    /*000000d8*/ SUB         R2, R2, R1 
    /*000000dc*/ LSRS        R3, R2, #2 
    /*000000e0*/ ADD         R9, R0, R9, LSL #2 
    /*000000e4*/ BNE         _ZNSt5dequeINSt8__detail9_StateSeqINSt7__cxx1112regex_traitsIcEEEESaIS5_EE16_M_push_back_auxIJS5_EEEvDpOT__x160
    _ZNSt5dequeINSt8__detail9_StateSeqINSt7__cxx1112regex_traitsIcEEEESaIS5_EE16_M_push_back_auxIJS5_EEEvDpOT__xe8:
    /*000000e8*/ LDR         R0, [R4] 
    /*000000ec*/ BL          _ZdlPv
    /*000000f0*/ STM         R4, {R5, R6} 
    _ZNSt5dequeINSt8__detail9_StateSeqINSt7__cxx1112regex_traitsIcEEEESaIS5_EE16_M_push_back_auxIJS5_EEEvDpOT__xf4:
    /*000000f4*/ LDR         R3, [R9] 
    /*000000f8*/ SUB         R5, R8, #-1073741823        @ 0xc0000001 
    /*000000fc*/ STR         R9, [R4, #20] 
    /*00000100*/ STR         R3, [R4, #12] 
    /*00000104*/ ADD         R3, R3, #504                @ 0x1f8 
    /*00000108*/ STR         R3, [R4, #16] 
    /*0000010c*/ LDR         R3, [R9, R5, LSL #2] 
    /*00000110*/ ADD         R5, R9, R5, LSL #2 
    /*00000114*/ STR         R3, [R4, #28] 
    /*00000118*/ ADD         R3, R3, #504                @ 0x1f8 
    /*0000011c*/ STR         R3, [R4, #32] 
    /*00000120*/ STR         R5, [R4, #36]               @ 0x24 
    /*00000124*/ B           _ZNSt5dequeINSt8__detail9_StateSeqINSt7__cxx1112regex_traitsIcEEEESaIS5_EE16_M_push_back_auxIJS5_EEEvDpOT__x38
    _ZNSt5dequeINSt8__detail9_StateSeqINSt7__cxx1112regex_traitsIcEEEESaIS5_EE16_M_push_back_auxIJS5_EEEvDpOT__x128:
    /*00000128*/ SUB         R2, R2, SL 
    /*0000012c*/ LSR         R2, R2, #1 
    /*00000130*/ ADD         R9, R9, R2, LSL #2 
    /*00000134*/ ADD         R2, R5, #4 
    /*00000138*/ CMP         R1, R9 
    /*0000013c*/ SUB         R2, R2, R1 
    /*00000140*/ BLS         _ZNSt5dequeINSt8__detail9_StateSeqINSt7__cxx1112regex_traitsIcEEEESaIS5_EE16_M_push_back_auxIJS5_EEEvDpOT__x16c
    /*00000144*/ LSRS        R3, R2, #2 
    /*00000148*/ BEQ         _ZNSt5dequeINSt8__detail9_StateSeqINSt7__cxx1112regex_traitsIcEEEESaIS5_EE16_M_push_back_auxIJS5_EEEvDpOT__xf4
    /*0000014c*/ MOV         R0, R9 
    /*00000150*/ BL          memmove
    /*00000154*/ B           _ZNSt5dequeINSt8__detail9_StateSeqINSt7__cxx1112regex_traitsIcEEEESaIS5_EE16_M_push_back_auxIJS5_EEEvDpOT__xf4
    _ZNSt5dequeINSt8__detail9_StateSeqINSt7__cxx1112regex_traitsIcEEEESaIS5_EE16_M_push_back_auxIJS5_EEEvDpOT__x158:
    /*00000158*/ MOV         R6, #3 
    /*0000015c*/ B           _ZNSt5dequeINSt8__detail9_StateSeqINSt7__cxx1112regex_traitsIcEEEESaIS5_EE16_M_push_back_auxIJS5_EEEvDpOT__xb8
    _ZNSt5dequeINSt8__detail9_StateSeqINSt7__cxx1112regex_traitsIcEEEESaIS5_EE16_M_push_back_auxIJS5_EEEvDpOT__x160:
    /*00000160*/ MOV         R0, R9 
    /*00000164*/ BL          memmove
    /*00000168*/ B           _ZNSt5dequeINSt8__detail9_StateSeqINSt7__cxx1112regex_traitsIcEEEESaIS5_EE16_M_push_back_auxIJS5_EEEvDpOT__xe8
    _ZNSt5dequeINSt8__detail9_StateSeqINSt7__cxx1112regex_traitsIcEEEESaIS5_EE16_M_push_back_auxIJS5_EEEvDpOT__x16c:
    /*0000016c*/ LSRS        R3, R2, #2 
    /*00000170*/ LSL         R3, R8, #2 
    /*00000174*/ BEQ         _ZNSt5dequeINSt8__detail9_StateSeqINSt7__cxx1112regex_traitsIcEEEESaIS5_EE16_M_push_back_auxIJS5_EEEvDpOT__xf4
    /*00000178*/ SUB         R3, R3, R2 
    /*0000017c*/ ADD         R0, R9, R3 
    /*00000180*/ BL          memmove
    /*00000184*/ B           _ZNSt5dequeINSt8__detail9_StateSeqINSt7__cxx1112regex_traitsIcEEEESaIS5_EE16_M_push_back_auxIJS5_EEEvDpOT__xf4
    _ZNSt5dequeINSt8__detail9_StateSeqINSt7__cxx1112regex_traitsIcEEEESaIS5_EE16_M_push_back_auxIJS5_EEEvDpOT__x188:
    /*00000188*/ BL          _ZSt17__throw_bad_allocv
FUNC_END _ZNSt5dequeINSt8__detail9_StateSeqINSt7__cxx1112regex_traitsIcEEEESaIS5_EE16_M_push_back_auxIJS5_EEEvDpOT_


@ - - - - - - - - - - - - - - - - - - - - - - - - - - - - - 
@ .text._ZNSt5dequeINSt8__detail9_StateSeqINSt7__cxx1112regex_traitsIcEEEESaIS5_EE12emplace_backIJS5_EEEvDpOT_
@ Size: 0x4c
@ - - - - - - - - - - - - - - - - - - - - - - - - - - - - - 

FUNC_BEGIN _ZNSt5dequeINSt8__detail9_StateSeqINSt7__cxx1112regex_traitsIcEEEESaIS5_EE12emplace_backIJS5_EEEvDpOT_
    /*00000000*/ LDR         R2, [R0, #32] 
    /*00000004*/ LDR         R3, [R0, #24] 
    /*00000008*/ SUB         R2, R2, #12 
    /*0000000c*/ CMP         R3, R2 
    /*00000010*/ BEQ         _ZNSt5dequeINSt8__detail9_StateSeqINSt7__cxx1112regex_traitsIcEEEESaIS5_EE12emplace_backIJS5_EEEvDpOT__x48
    /*00000014*/ CMP         R3, #0 
    /*00000018*/ MOV         IP, R0 
    /*0000001c*/ BEQ         _ZNSt5dequeINSt8__detail9_StateSeqINSt7__cxx1112regex_traitsIcEEEESaIS5_EE12emplace_backIJS5_EEEvDpOT__x3c
    /*00000020*/ PUSH        {LR}                        @ (str lr, [sp, #-4]!) 
    /*00000024*/ MOV         LR, R1 
    /*00000028*/ LDM         R1, {R0, R1, R2} 
    /*0000002c*/ STM         R3, {R0, R1, R2} 
    /*00000030*/ ADD         R3, R3, #12 
    /*00000034*/ STR         R3, [IP, #24] 
    /*00000038*/ POP         {PC}                        @ (ldr pc, [sp], #4) 
    _ZNSt5dequeINSt8__detail9_StateSeqINSt7__cxx1112regex_traitsIcEEEESaIS5_EE12emplace_backIJS5_EEEvDpOT__x3c:
    /*0000003c*/ ADD         R3, R3, #12 
    /*00000040*/ STR         R3, [R0, #24] 
    /*00000044*/ BX          LR 
    _ZNSt5dequeINSt8__detail9_StateSeqINSt7__cxx1112regex_traitsIcEEEESaIS5_EE12emplace_backIJS5_EEEvDpOT__x48:
    /*00000048*/ B           _ZNSt5dequeINSt8__detail9_StateSeqINSt7__cxx1112regex_traitsIcEEEESaIS5_EE12emplace_backIJS5_EEEvDpOT__x48@ _ZNSt5dequeINSt8__detail9_StateSeqINSt7__cxx1112regex_traitsIcEEEESaIS5_EE16_M_push_back_auxIJS5_EEEvDpOT_ [R_ARM_JUMP24: .text._ZNSt5dequeINSt8__detail9_StateSeqINSt7__cxx1112regex_traitsIcEEEESaIS5_EE16_M_push_back_auxIJS5_EEEvDpOT_+0x0] 
FUNC_END _ZNSt5dequeINSt8__detail9_StateSeqINSt7__cxx1112regex_traitsIcEEEESaIS5_EE12emplace_backIJS5_EEEvDpOT_


@ - - - - - - - - - - - - - - - - - - - - - - - - - - - - - 
@ .text._ZNSt5dequeINSt8__detail9_StateSeqINSt7__cxx1112regex_traitsIcEEEESaIS5_EE9push_backERKS5_
@ Size: 0x4c
@ - - - - - - - - - - - - - - - - - - - - - - - - - - - - - 

FUNC_BEGIN _ZNSt5dequeINSt8__detail9_StateSeqINSt7__cxx1112regex_traitsIcEEEESaIS5_EE9push_backERKS5_
    /*00000000*/ LDR         R2, [R0, #32] 
    /*00000004*/ LDR         R3, [R0, #24] 
    /*00000008*/ SUB         R2, R2, #12 
    /*0000000c*/ CMP         R3, R2 
    /*00000010*/ BEQ         _ZNSt5dequeINSt8__detail9_StateSeqINSt7__cxx1112regex_traitsIcEEEESaIS5_EE9push_backERKS5__x48
    /*00000014*/ CMP         R3, #0 
    /*00000018*/ MOV         IP, R0 
    /*0000001c*/ BEQ         _ZNSt5dequeINSt8__detail9_StateSeqINSt7__cxx1112regex_traitsIcEEEESaIS5_EE9push_backERKS5__x3c
    /*00000020*/ PUSH        {LR}                        @ (str lr, [sp, #-4]!) 
    /*00000024*/ MOV         LR, R1 
    /*00000028*/ LDM         R1, {R0, R1, R2} 
    /*0000002c*/ STM         R3, {R0, R1, R2} 
    /*00000030*/ ADD         R3, R3, #12 
    /*00000034*/ STR         R3, [IP, #24] 
    /*00000038*/ POP         {PC}                        @ (ldr pc, [sp], #4) 
    _ZNSt5dequeINSt8__detail9_StateSeqINSt7__cxx1112regex_traitsIcEEEESaIS5_EE9push_backERKS5__x3c:
    /*0000003c*/ ADD         R3, R3, #12 
    /*00000040*/ STR         R3, [R0, #24] 
    /*00000044*/ BX          LR 
    _ZNSt5dequeINSt8__detail9_StateSeqINSt7__cxx1112regex_traitsIcEEEESaIS5_EE9push_backERKS5__x48:
    /*00000048*/ B           _ZNSt5dequeINSt8__detail9_StateSeqINSt7__cxx1112regex_traitsIcEEEESaIS5_EE9push_backERKS5__x48@ _ZNSt5dequeINSt8__detail9_StateSeqINSt7__cxx1112regex_traitsIcEEEESaIS5_EE16_M_push_back_auxIJS5_EEEvDpOT_ [R_ARM_JUMP24: .text._ZNSt5dequeINSt8__detail9_StateSeqINSt7__cxx1112regex_traitsIcEEEESaIS5_EE16_M_push_back_auxIJS5_EEEvDpOT_+0x0] 
FUNC_END _ZNSt5dequeINSt8__detail9_StateSeqINSt7__cxx1112regex_traitsIcEEEESaIS5_EE9push_backERKS5_


@ - - - - - - - - - - - - - - - - - - - - - - - - - - - - - 
@ .text._ZNKSt7__cxx1112regex_traitsIcE16lookup_classnameIPKcEENS1_10_RegexMaskET_S6_b
@ Size: 0x208
@ - - - - - - - - - - - - - - - - - - - - - - - - - - - - - 

FUNC_BEGIN _ZNKSt7__cxx1112regex_traitsIcE16lookup_classnameIPKcEENS1_10_RegexMaskET_S6_b
    /*00000000*/ MOV         IP, #16384                  @ 0x4000 
    /*00000004*/ PUSH        {R4, R5, R6, R7, R8, R9, SL, FP, LR} 
    /*00000008*/ SUB         IP, SP, IP 
    /*0000000c*/ STR         R0, [IP, #4000]             @ 0xfa0 
    /*00000010*/ LDR         FP, WORD_01f8               @ LDR         FP, [PC, #480]              @ 0x00000000000001f8 
    /*00000014*/ SUB         SP, SP, #60                 @ 0x3c 
    /*00000018*/ LDR         IP, WORD_01fc               @ LDR         IP, [PC, #476]              @ 0x00000000000001fc 
    /*0000001c*/ MOV         SL, R2 
    /*00000020*/ ADD         FP, PC, FP 
    /*00000024*/ MOV         R8, R1 
    /*00000028*/ ADD         R9, SP, #36                 @ 0x24 
    /*0000002c*/ LDR         R2, [FP, IP] 
    /*00000030*/ STR         R3, [SP, #20] 
    /*00000034*/ LDR         R3, [R2] 
    /*00000038*/ STR         R2, [SP, #16] 
    /*0000003c*/ STR         R3, [SP, #52]               @ 0x34 
    /*00000040*/ BL          _ZSt9use_facetISt5ctypeIcEERKT_RKSt6locale
    /*00000044*/ CMP         R8, SL 
    /*00000048*/ MOV         R3, #0 
    /*0000004c*/ STR         R3, [SP, #32] 
    /*00000050*/ MOVNE       R5, R0 
    /*00000054*/ STRB        R3, [SP, #36]               @ 0x24 
    /*00000058*/ STRNE       R3, [SP, #8] 
    /*0000005c*/ ADDNE       R3, SP, #28 
    /*00000060*/ STR         R9, [SP, #28] 
    /*00000064*/ STRNE       R3, [SP, #12] 
    /*00000068*/ BNE         _ZNKSt7__cxx1112regex_traitsIcE16lookup_classnameIPKcEENS1_10_RegexMaskET_S6_b_x8c
    /*0000006c*/ B           _ZNKSt7__cxx1112regex_traitsIcE16lookup_classnameIPKcEENS1_10_RegexMaskET_S6_b_x134
    _ZNKSt7__cxx1112regex_traitsIcE16lookup_classnameIPKcEENS1_10_RegexMaskET_S6_b_x70:
    /*00000070*/ STRB        R6, [R3, R7] 
    /*00000074*/ LDR         R3, [SP, #28] 
    /*00000078*/ LDRB        R2, [SP, #8] 
    /*0000007c*/ CMP         SL, R8 
    /*00000080*/ STR         R4, [SP, #32] 
    /*00000084*/ STRB        R2, [R3, R4] 
    /*00000088*/ BEQ         _ZNKSt7__cxx1112regex_traitsIcE16lookup_classnameIPKcEENS1_10_RegexMaskET_S6_b_x134
    _ZNKSt7__cxx1112regex_traitsIcE16lookup_classnameIPKcEENS1_10_RegexMaskET_S6_b_x8c:
    /*0000008c*/ LDR         R3, [R5] 
    /*00000090*/ MOV         R0, R5 
    /*00000094*/ LDRB        R1, [R8], #1 
    /*00000098*/ LDR         R3, [R3, #16] 
    /*0000009c*/ BLX         R3 
    /*000000a0*/ ADD         R4, R5, R0 
    /*000000a4*/ MOV         R2, R0 
    /*000000a8*/ LDRB        R6, [R4, #285]              @ 0x11d 
    /*000000ac*/ CMP         R6, #0 
    /*000000b0*/ BNE         _ZNKSt7__cxx1112regex_traitsIcE16lookup_classnameIPKcEENS1_10_RegexMaskET_S6_b_xd8
    /*000000b4*/ LDR         R3, [R5] 
    /*000000b8*/ LDR         R1, WORD_0200               @ LDR         R1, [PC, #320]              @ 0x0000000000000200 
    /*000000bc*/ LDR         R3, [R3, #32] 
    /*000000c0*/ LDR         R1, [FP, R1] 
    /*000000c4*/ CMP         R3, R1 
    /*000000c8*/ BNE         _ZNKSt7__cxx1112regex_traitsIcE16lookup_classnameIPKcEENS1_10_RegexMaskET_S6_b_x11c
    _ZNKSt7__cxx1112regex_traitsIcE16lookup_classnameIPKcEENS1_10_RegexMaskET_S6_b_xcc:
    /*000000cc*/ MOV         R6, R2 
    /*000000d0*/ CMP         R2, #0 
    /*000000d4*/ STRBNE      R2, [R4, #285]              @ 0x11d 
    _ZNKSt7__cxx1112regex_traitsIcE16lookup_classnameIPKcEENS1_10_RegexMaskET_S6_b_xd8:
    /*000000d8*/ LDR         R3, [SP, #28] 
    /*000000dc*/ LDR         R7, [SP, #32] 
    /*000000e0*/ CMP         R3, R9 
    /*000000e4*/ ADD         R4, R7, #1 
    /*000000e8*/ MOVEQ       R2, #15 
    /*000000ec*/ LDRNE       R2, [SP, #36]               @ 0x24 
    /*000000f0*/ CMP         R4, R2 
    /*000000f4*/ BLS         _ZNKSt7__cxx1112regex_traitsIcE16lookup_classnameIPKcEENS1_10_RegexMaskET_S6_b_x70
    /*000000f8*/ LDR         R0, [SP, #12] 
    /*000000fc*/ MOV         R2, #1 
    /*00000100*/ STR         R2, [SP] 
    /*00000104*/ MOV         R3, #0 
    /*00000108*/ MOV         R2, R3 
    /*0000010c*/ MOV         R1, R7 
    /*00000110*/ BL          _ZNSt7__cxx1112basic_stringIcSt11char_traitsIcESaIcEE9_M_mutateEjjPKcj
    /*00000114*/ LDR         R3, [SP, #28] 
    /*00000118*/ B           _ZNKSt7__cxx1112regex_traitsIcE16lookup_classnameIPKcEENS1_10_RegexMaskET_S6_b_x70
    _ZNKSt7__cxx1112regex_traitsIcE16lookup_classnameIPKcEENS1_10_RegexMaskET_S6_b_x11c:
    /*0000011c*/ MOV         R1, R0 
    /*00000120*/ MOV         R2, R6 
    /*00000124*/ MOV         R0, R5 
    /*00000128*/ BLX         R3 
    /*0000012c*/ MOV         R2, R0 
    /*00000130*/ B           _ZNKSt7__cxx1112regex_traitsIcE16lookup_classnameIPKcEENS1_10_RegexMaskET_S6_b_xcc
    _ZNKSt7__cxx1112regex_traitsIcE16lookup_classnameIPKcEENS1_10_RegexMaskET_S6_b_x134:
    /*00000134*/ LDR         R3, WORD_0204               @ LDR         R3, [PC, #200]              @ 0x0000000000000204 
    /*00000138*/ ADD         R5, SP, #28 
    /*0000013c*/ LDR         R4, [FP, R3] 
    /*00000140*/ ADD         R6, R4, #120                @ 0x78 
    _ZNKSt7__cxx1112regex_traitsIcE16lookup_classnameIPKcEENS1_10_RegexMaskET_S6_b_x144:
    /*00000144*/ LDR         R1, [R4] 
    /*00000148*/ MOV         R0, R5 
    /*0000014c*/ BL          _ZNKSt7__cxx1112basic_stringIcSt11char_traitsIcESaIcEE7compareEPKc
    /*00000150*/ CMP         R0, #0 
    /*00000154*/ BEQ         _ZNKSt7__cxx1112regex_traitsIcE16lookup_classnameIPKcEENS1_10_RegexMaskET_S6_b_x1b0
    /*00000158*/ ADD         R4, R4, #8 
    /*0000015c*/ CMP         R4, R6 
    /*00000160*/ BNE         _ZNKSt7__cxx1112regex_traitsIcE16lookup_classnameIPKcEENS1_10_RegexMaskET_S6_b_x144
    /*00000164*/ MOV         R3, #0 
    /*00000168*/ STRH        R3, [SP, #24] 
    /*0000016c*/ STRB        R3, [SP, #26] 
    _ZNKSt7__cxx1112regex_traitsIcE16lookup_classnameIPKcEENS1_10_RegexMaskET_S6_b_x170:
    /*00000170*/ LDR         R0, [SP, #28] 
    /*00000174*/ CMP         R0, R9 
    /*00000178*/ BEQ         _ZNKSt7__cxx1112regex_traitsIcE16lookup_classnameIPKcEENS1_10_RegexMaskET_S6_b_x180
    /*0000017c*/ BL          _ZdlPv
    _ZNKSt7__cxx1112regex_traitsIcE16lookup_classnameIPKcEENS1_10_RegexMaskET_S6_b_x180:
    /*00000180*/ LDR         R3, [SP, #16] 
    /*00000184*/ MOV         R0, #0 
    /*00000188*/ LDR         R1, [SP, #52]               @ 0x34 
    /*0000018c*/ LDR         R2, [R3] 
    /*00000190*/ LDRH        IP, [SP, #24] 
    /*00000194*/ LDRH        R3, [SP, #26] 
    /*00000198*/ CMP         R1, R2 
    /*0000019c*/ BFI         R0, IP, #0, #16 
    /*000001a0*/ BFI         R0, R3, #16, #16 
    /*000001a4*/ BNE         _ZNKSt7__cxx1112regex_traitsIcE16lookup_classnameIPKcEENS1_10_RegexMaskET_S6_b_x1e0
    /*000001a8*/ ADD         SP, SP, #60                 @ 0x3c 
    /*000001ac*/ POP         {R4, R5, R6, R7, R8, R9, SL, FP, PC} 
    _ZNKSt7__cxx1112regex_traitsIcE16lookup_classnameIPKcEENS1_10_RegexMaskET_S6_b_x1b0:
    /*000001b0*/ LDR         R3, [SP, #20] 
    /*000001b4*/ CMP         R3, #0 
    /*000001b8*/ BEQ         _ZNKSt7__cxx1112regex_traitsIcE16lookup_classnameIPKcEENS1_10_RegexMaskET_S6_b_x1d4
    /*000001bc*/ LDRH        R3, [R4, #4] 
    /*000001c0*/ TST         R3, #768                    @ 0x300 
    /*000001c4*/ STRBNE      R0, [SP, #26] 
    /*000001c8*/ MOVNE       R3, #1024                   @ 0x400 
    /*000001cc*/ STRHNE      R3, [SP, #24] 
    /*000001d0*/ BNE         _ZNKSt7__cxx1112regex_traitsIcE16lookup_classnameIPKcEENS1_10_RegexMaskET_S6_b_x170
    _ZNKSt7__cxx1112regex_traitsIcE16lookup_classnameIPKcEENS1_10_RegexMaskET_S6_b_x1d4:
    /*000001d4*/ LDR         R3, [R4, #4] 
    /*000001d8*/ STR         R3, [SP, #24] 
    /*000001dc*/ B           _ZNKSt7__cxx1112regex_traitsIcE16lookup_classnameIPKcEENS1_10_RegexMaskET_S6_b_x170
    _ZNKSt7__cxx1112regex_traitsIcE16lookup_classnameIPKcEENS1_10_RegexMaskET_S6_b_x1e0:
    /*000001e0*/ BL          __stack_chk_fail
    /*000001e4*/ LDR         R0, [SP, #28] 
    /*000001e8*/ CMP         R0, R9 
    /*000001ec*/ BEQ         _ZNKSt7__cxx1112regex_traitsIcE16lookup_classnameIPKcEENS1_10_RegexMaskET_S6_b_x1f4
    /*000001f0*/ BL          _ZdlPv
    _ZNKSt7__cxx1112regex_traitsIcE16lookup_classnameIPKcEENS1_10_RegexMaskET_S6_b_x1f4:
    /*000001f4*/ BL          __cxa_end_cleanup
    /*000001f8*/ WORD_01f8: .word 0x000001d0
    /*000001fc*/ WORD_01fc: .word 0x00000000
    /*00000200*/ WORD_0200: .word 0x00000000
    /*00000204*/ WORD_0204: .word 0x00000000
FUNC_END _ZNKSt7__cxx1112regex_traitsIcE16lookup_classnameIPKcEENS1_10_RegexMaskET_S6_b


@ - - - - - - - - - - - - - - - - - - - - - - - - - - - - - 
@ .ARM.extab.text._ZNKSt7__cxx1112regex_traitsIcE16lookup_classnameIPKcEENS1_10_RegexMaskET_S6_b
@ Size: 0x1c
@ - - - - - - - - - - - - - - - - - - - - - - - - - - - - - 

@ - - - - - - - - - - - - - - - - - - - - - - - - - - - - - 
@ .text._ZNKSt8__detail9_ExecutorIN9__gnu_cxx17__normal_iteratorIPKcNSt7__cxx1112basic_stringIcSt11char_traitsIcESaIcEEEEESaINS5_9sub_matchISB_EEENS5_12regex_traitsIcEELb1EE16_M_word_boundaryEv
@ Size: 0x148
@ - - - - - - - - - - - - - - - - - - - - - - - - - - - - - 

FUNC_BEGIN _ZNKSt8__detail9_ExecutorIN9__gnu_cxx17__normal_iteratorIPKcNSt7__cxx1112basic_stringIcSt11char_traitsIcESaIcEEEEESaINS5_9sub_matchISB_EEENS5_12regex_traitsIcEELb1EE16_M_word_boundaryEv
    /*00000000*/ MOV         IP, #16384                  @ 0x4000 
    /*00000004*/ PUSH        {R4, R5, R6, R7, LR} 
    /*00000008*/ SUB         IP, SP, IP 
    /*0000000c*/ STR         R0, [IP, #4064]             @ 0xfe0 
    /*00000010*/ LDR         R1, WORD_0140               @ LDR         R1, [PC, #296]              @ 0x0000000000000140 
    /*00000014*/ MOV         R4, R0 
    /*00000018*/ LDR         R0, [R0, #12] 
    /*0000001c*/ SUB         SP, SP, #12 
    /*00000020*/ LDR         R2, [R4, #16] 
    /*00000024*/ ADD         R1, PC, R1 
    /*00000028*/ CMP         R2, R0 
    /*0000002c*/ BEQ         _ZNKSt8__detail9_ExecutorIN9__gnu_cxx17__normal_iteratorIPKcNSt7__cxx1112basic_stringIcSt11char_traitsIcESaIcEEEEESaINS5_9sub_matchISB_EEENS5_12regex_traitsIcEELb1EE16_M_word_boundaryEv_x11c
    _ZNKSt8__detail9_ExecutorIN9__gnu_cxx17__normal_iteratorIPKcNSt7__cxx1112basic_stringIcSt11char_traitsIcESaIcEEEEESaINS5_9sub_matchISB_EEENS5_12regex_traitsIcEELb1EE16_M_word_boundaryEv_x30:
    /*00000030*/ LDR         IP, [R4, #24] 
    /*00000034*/ MOV         R3, #0 
    /*00000038*/ LDR         R2, WORD_0144               @ LDR         R2, [PC, #260]              @ 0x0000000000000144 
    /*0000003c*/ LDR         R5, [IP, #8] 
    /*00000040*/ LDR         R6, [R1, R2] 
    /*00000044*/ LDRB        R7, [R0, #-1] 
    /*00000048*/ ADD         R5, R5, #40                 @ 0x28 
    /*0000004c*/ MOV         R0, R5 
    /*00000050*/ ADD         R2, R6, #1 
    /*00000054*/ MOV         R1, R6 
    /*00000058*/ BL          _ZNKSt7__cxx1112regex_traitsIcE16lookup_classnameIPKcEENS1_10_RegexMaskET_S6_b
    /*0000005c*/ MOV         R2, R0 
    /*00000060*/ MOV         R1, R7 
    /*00000064*/ UBFX        R3, R2, #16, #8 
    /*00000068*/ MOV         R0, R5 
    /*0000006c*/ STR         R2, [SP] 
    /*00000070*/ UXTH        R2, R2 
    /*00000074*/ BL          _ZNKSt7__cxx1112regex_traitsIcE7isctypeEcNS1_10_RegexMaskE.isra.183
    /*00000078*/ LDR         R2, [R4, #12] 
    /*0000007c*/ MOV         R5, R0 
    /*00000080*/ LDR         R3, [R4, #20] 
    /*00000084*/ CMP         R2, R3 
    /*00000088*/ MOVEQ       R0, #0 
    /*0000008c*/ BEQ         _ZNKSt8__detail9_ExecutorIN9__gnu_cxx17__normal_iteratorIPKcNSt7__cxx1112basic_stringIcSt11char_traitsIcESaIcEEEEESaINS5_9sub_matchISB_EEENS5_12regex_traitsIcEELb1EE16_M_word_boundaryEv_xcc
    _ZNKSt8__detail9_ExecutorIN9__gnu_cxx17__normal_iteratorIPKcNSt7__cxx1112basic_stringIcSt11char_traitsIcESaIcEEEEESaINS5_9sub_matchISB_EEENS5_12regex_traitsIcEELb1EE16_M_word_boundaryEv_x90:
    /*00000090*/ LDR         R1, [R4, #24] 
    /*00000094*/ MOV         R3, #0 
    /*00000098*/ LDRB        R7, [R2] 
    /*0000009c*/ ADD         R2, R6, #1 
    /*000000a0*/ LDR         R0, [R1, #8] 
    /*000000a4*/ MOV         R1, R6 
    /*000000a8*/ ADD         R6, R0, #40                 @ 0x28 
    /*000000ac*/ MOV         R0, R6 
    /*000000b0*/ BL          _ZNKSt7__cxx1112regex_traitsIcE16lookup_classnameIPKcEENS1_10_RegexMaskET_S6_b
    /*000000b4*/ MOV         R2, R0 
    /*000000b8*/ MOV         R1, R7 
    /*000000bc*/ UBFX        R3, R2, #16, #8 
    /*000000c0*/ MOV         R0, R6 
    /*000000c4*/ UXTH        R2, R2 
    /*000000c8*/ BL          _ZNKSt7__cxx1112regex_traitsIcE7isctypeEcNS1_10_RegexMaskE.isra.183
    _ZNKSt8__detail9_ExecutorIN9__gnu_cxx17__normal_iteratorIPKcNSt7__cxx1112basic_stringIcSt11char_traitsIcESaIcEEEEESaINS5_9sub_matchISB_EEENS5_12regex_traitsIcEELb1EE16_M_word_boundaryEv_xcc:
    /*000000cc*/ CMP         R0, R5 
    /*000000d0*/ BEQ         _ZNKSt8__detail9_ExecutorIN9__gnu_cxx17__normal_iteratorIPKcNSt7__cxx1112basic_stringIcSt11char_traitsIcESaIcEEEEESaINS5_9sub_matchISB_EEENS5_12regex_traitsIcEELb1EE16_M_word_boundaryEv_xf0
    /*000000d4*/ CMP         R5, #0 
    /*000000d8*/ BEQ         _ZNKSt8__detail9_ExecutorIN9__gnu_cxx17__normal_iteratorIPKcNSt7__cxx1112basic_stringIcSt11char_traitsIcESaIcEEEEESaINS5_9sub_matchISB_EEENS5_12regex_traitsIcEELb1EE16_M_word_boundaryEv_xe8
    /*000000dc*/ LDR         R3, [R4, #56]               @ 0x38 
    /*000000e0*/ TST         R3, #8 
    /*000000e4*/ BEQ         _ZNKSt8__detail9_ExecutorIN9__gnu_cxx17__normal_iteratorIPKcNSt7__cxx1112basic_stringIcSt11char_traitsIcESaIcEEEEESaINS5_9sub_matchISB_EEENS5_12regex_traitsIcEELb1EE16_M_word_boundaryEv_xf4
    _ZNKSt8__detail9_ExecutorIN9__gnu_cxx17__normal_iteratorIPKcNSt7__cxx1112basic_stringIcSt11char_traitsIcESaIcEEEEESaINS5_9sub_matchISB_EEENS5_12regex_traitsIcEELb1EE16_M_word_boundaryEv_xe8:
    /*000000e8*/ CMP         R0, #0 
    /*000000ec*/ BNE         _ZNKSt8__detail9_ExecutorIN9__gnu_cxx17__normal_iteratorIPKcNSt7__cxx1112basic_stringIcSt11char_traitsIcESaIcEEEEESaINS5_9sub_matchISB_EEENS5_12regex_traitsIcEELb1EE16_M_word_boundaryEv_x100
    _ZNKSt8__detail9_ExecutorIN9__gnu_cxx17__normal_iteratorIPKcNSt7__cxx1112basic_stringIcSt11char_traitsIcESaIcEEEEESaINS5_9sub_matchISB_EEENS5_12regex_traitsIcEELb1EE16_M_word_boundaryEv_xf0:
    /*000000f0*/ MOV         R5, #0 
    _ZNKSt8__detail9_ExecutorIN9__gnu_cxx17__normal_iteratorIPKcNSt7__cxx1112basic_stringIcSt11char_traitsIcESaIcEEEEESaINS5_9sub_matchISB_EEENS5_12regex_traitsIcEELb1EE16_M_word_boundaryEv_xf4:
    /*000000f4*/ MOV         R0, R5 
    /*000000f8*/ ADD         SP, SP, #12 
    /*000000fc*/ POP         {R4, R5, R6, R7, PC} 
    _ZNKSt8__detail9_ExecutorIN9__gnu_cxx17__normal_iteratorIPKcNSt7__cxx1112basic_stringIcSt11char_traitsIcESaIcEEEEESaINS5_9sub_matchISB_EEENS5_12regex_traitsIcEELb1EE16_M_word_boundaryEv_x100:
    /*00000100*/ LDR         R3, [R4, #56]               @ 0x38 
    /*00000104*/ TST         R3, #4 
    /*00000108*/ MOVEQ       R5, R0 
    /*0000010c*/ BNE         _ZNKSt8__detail9_ExecutorIN9__gnu_cxx17__normal_iteratorIPKcNSt7__cxx1112basic_stringIcSt11char_traitsIcESaIcEEEEESaINS5_9sub_matchISB_EEENS5_12regex_traitsIcEELb1EE16_M_word_boundaryEv_xf0
    /*00000110*/ MOV         R0, R5 
    /*00000114*/ ADD         SP, SP, #12 
    /*00000118*/ POP         {R4, R5, R6, R7, PC} 
    _ZNKSt8__detail9_ExecutorIN9__gnu_cxx17__normal_iteratorIPKcNSt7__cxx1112basic_stringIcSt11char_traitsIcESaIcEEEEESaINS5_9sub_matchISB_EEENS5_12regex_traitsIcEELb1EE16_M_word_boundaryEv_x11c:
    /*0000011c*/ LDR         R5, [R4, #56]               @ 0x38 
    /*00000120*/ ANDS        R5, R5, #128                @ 0x80 
    /*00000124*/ BNE         _ZNKSt8__detail9_ExecutorIN9__gnu_cxx17__normal_iteratorIPKcNSt7__cxx1112basic_stringIcSt11char_traitsIcESaIcEEEEESaINS5_9sub_matchISB_EEENS5_12regex_traitsIcEELb1EE16_M_word_boundaryEv_x30
    /*00000128*/ LDR         R3, [R4, #20] 
    /*0000012c*/ CMP         R2, R3 
    /*00000130*/ BEQ         _ZNKSt8__detail9_ExecutorIN9__gnu_cxx17__normal_iteratorIPKcNSt7__cxx1112basic_stringIcSt11char_traitsIcESaIcEEEEESaINS5_9sub_matchISB_EEENS5_12regex_traitsIcEELb1EE16_M_word_boundaryEv_xf0
    /*00000134*/ LDR         R3, WORD_0144               @ LDR         R3, [PC, #8]                @ 0x0000000000000144 
    /*00000138*/ LDR         R6, [R1, R3] 
    /*0000013c*/ B           _ZNKSt8__detail9_ExecutorIN9__gnu_cxx17__normal_iteratorIPKcNSt7__cxx1112basic_stringIcSt11char_traitsIcESaIcEEEEESaINS5_9sub_matchISB_EEENS5_12regex_traitsIcEELb1EE16_M_word_boundaryEv_x90
    /*00000140*/ WORD_0140: .word 0x00000114
    /*00000144*/ WORD_0144: .word 0x00000000
FUNC_END _ZNKSt8__detail9_ExecutorIN9__gnu_cxx17__normal_iteratorIPKcNSt7__cxx1112basic_stringIcSt11char_traitsIcESaIcEEEEESaINS5_9sub_matchISB_EEENS5_12regex_traitsIcEELb1EE16_M_word_boundaryEv


@ - - - - - - - - - - - - - - - - - - - - - - - - - - - - - 
@ .text._ZNSt8__detail9_ExecutorIN9__gnu_cxx17__normal_iteratorIPKcNSt7__cxx1112basic_stringIcSt11char_traitsIcESaIcEEEEESaINS5_9sub_matchISB_EEENS5_12regex_traitsIcEELb1EE6_M_dfsENSH_11_Match_modeEl
@ Size: 0x4d0
@ - - - - - - - - - - - - - - - - - - - - - - - - - - - - - 

FUNC_BEGIN _ZNSt8__detail9_ExecutorIN9__gnu_cxx17__normal_iteratorIPKcNSt7__cxx1112basic_stringIcSt11char_traitsIcESaIcEEEEESaINS5_9sub_matchISB_EEENS5_12regex_traitsIcEELb1EE6_M_dfsENSH_11_Match_modeEl
    /*00000000*/ MOV         IP, #16384                  @ 0x4000 
    /*00000004*/ PUSH        {R4, R5, R6, R7, R8, R9, SL, LR} 
    /*00000008*/ SUB         IP, SP, IP 
    /*0000000c*/ STR         R0, [IP, #4000]             @ 0xfa0 
    /*00000010*/ LDR         R3, WORD_04c8               @ LDR         R3, [PC, #1200]             @ 0x00000000000004c8 
    /*00000014*/ MOV         R4, R0 
    /*00000018*/ LDR         R0, WORD_04cc               @ LDR         R0, [PC, #1196]             @ 0x00000000000004cc 
    /*0000001c*/ MOV         R5, R2 
    /*00000020*/ LDR         IP, [R4, #28] 
    /*00000024*/ MOV         R2, #24 
    /*00000028*/ ADD         R3, PC, R3 
    /*0000002c*/ SUB         SP, SP, #64                 @ 0x40 
    /*00000030*/ MUL         R2, R2, R5 
    /*00000034*/ LDR         LR, [IP, #28] 
    /*00000038*/ MOV         R6, R1 
    /*0000003c*/ LDR         R7, [R3, R0] 
    /*00000040*/ LDR         R3, [LR, R2] 
    /*00000044*/ LDR         R1, [R7] 
    /*00000048*/ ADD         R8, LR, R2 
    /*0000004c*/ SUB         R3, R3, #1 
    /*00000050*/ STR         R1, [SP, #60]               @ 0x3c 
    /*00000054*/ CMP         R3, #11 
    /*00000058*/ ADDLS       PC, PC, R3, LSL #2 
    /*0000005c*/ B           _ZNSt8__detail9_ExecutorIN9__gnu_cxx17__normal_iteratorIPKcNSt7__cxx1112basic_stringIcSt11char_traitsIcESaIcEEEEESaINS5_9sub_matchISB_EEENS5_12regex_traitsIcEELb1EE6_M_dfsENSH_11_Match_modeEl_xec
    /*00000060*/ B           _ZNSt8__detail9_ExecutorIN9__gnu_cxx17__normal_iteratorIPKcNSt7__cxx1112basic_stringIcSt11char_traitsIcESaIcEEEEESaINS5_9sub_matchISB_EEENS5_12regex_traitsIcEELb1EE6_M_dfsENSH_11_Match_modeEl_x104
    /*00000064*/ B           _ZNSt8__detail9_ExecutorIN9__gnu_cxx17__normal_iteratorIPKcNSt7__cxx1112basic_stringIcSt11char_traitsIcESaIcEEEEESaINS5_9sub_matchISB_EEENS5_12regex_traitsIcEELb1EE6_M_dfsENSH_11_Match_modeEl_x140
    /*00000068*/ B           _ZNSt8__detail9_ExecutorIN9__gnu_cxx17__normal_iteratorIPKcNSt7__cxx1112basic_stringIcSt11char_traitsIcESaIcEEEEESaINS5_9sub_matchISB_EEENS5_12regex_traitsIcEELb1EE6_M_dfsENSH_11_Match_modeEl_x17c
    /*0000006c*/ B           _ZNSt8__detail9_ExecutorIN9__gnu_cxx17__normal_iteratorIPKcNSt7__cxx1112basic_stringIcSt11char_traitsIcESaIcEEEEESaINS5_9sub_matchISB_EEENS5_12regex_traitsIcEELb1EE6_M_dfsENSH_11_Match_modeEl_x28c
    /*00000070*/ B           _ZNSt8__detail9_ExecutorIN9__gnu_cxx17__normal_iteratorIPKcNSt7__cxx1112basic_stringIcSt11char_traitsIcESaIcEEEEESaINS5_9sub_matchISB_EEENS5_12regex_traitsIcEELb1EE6_M_dfsENSH_11_Match_modeEl_x3bc
    /*00000074*/ B           _ZNSt8__detail9_ExecutorIN9__gnu_cxx17__normal_iteratorIPKcNSt7__cxx1112basic_stringIcSt11char_traitsIcESaIcEEEEESaINS5_9sub_matchISB_EEENS5_12regex_traitsIcEELb1EE6_M_dfsENSH_11_Match_modeEl_x3dc
    /*00000078*/ B           _ZNSt8__detail9_ExecutorIN9__gnu_cxx17__normal_iteratorIPKcNSt7__cxx1112basic_stringIcSt11char_traitsIcESaIcEEEEESaINS5_9sub_matchISB_EEENS5_12regex_traitsIcEELb1EE6_M_dfsENSH_11_Match_modeEl_x2ac
    /*0000007c*/ B           _ZNSt8__detail9_ExecutorIN9__gnu_cxx17__normal_iteratorIPKcNSt7__cxx1112basic_stringIcSt11char_traitsIcESaIcEEEEESaINS5_9sub_matchISB_EEENS5_12regex_traitsIcEELb1EE6_M_dfsENSH_11_Match_modeEl_x2cc
    /*00000080*/ B           _ZNSt8__detail9_ExecutorIN9__gnu_cxx17__normal_iteratorIPKcNSt7__cxx1112basic_stringIcSt11char_traitsIcESaIcEEEEESaINS5_9sub_matchISB_EEENS5_12regex_traitsIcEELb1EE6_M_dfsENSH_11_Match_modeEl_x300
    /*00000084*/ B           _ZNSt8__detail9_ExecutorIN9__gnu_cxx17__normal_iteratorIPKcNSt7__cxx1112basic_stringIcSt11char_traitsIcESaIcEEEEESaINS5_9sub_matchISB_EEENS5_12regex_traitsIcEELb1EE6_M_dfsENSH_11_Match_modeEl_xec
    /*00000088*/ B           _ZNSt8__detail9_ExecutorIN9__gnu_cxx17__normal_iteratorIPKcNSt7__cxx1112basic_stringIcSt11char_traitsIcESaIcEEEEESaINS5_9sub_matchISB_EEENS5_12regex_traitsIcEELb1EE6_M_dfsENSH_11_Match_modeEl_x354
    /*0000008c*/ B           _ZNSt8__detail9_ExecutorIN9__gnu_cxx17__normal_iteratorIPKcNSt7__cxx1112basic_stringIcSt11char_traitsIcESaIcEEEEESaINS5_9sub_matchISB_EEENS5_12regex_traitsIcEELb1EE6_M_dfsENSH_11_Match_modeEl_x90
    _ZNSt8__detail9_ExecutorIN9__gnu_cxx17__normal_iteratorIPKcNSt7__cxx1112basic_stringIcSt11char_traitsIcESaIcEEEEESaINS5_9sub_matchISB_EEENS5_12regex_traitsIcEELb1EE6_M_dfsENSH_11_Match_modeEl_x90:
    /*00000090*/ LDR         R3, [R4, #12] 
    /*00000094*/ CMP         R6, #0 
    /*00000098*/ BEQ         _ZNSt8__detail9_ExecutorIN9__gnu_cxx17__normal_iteratorIPKcNSt7__cxx1112basic_stringIcSt11char_traitsIcESaIcEEEEESaINS5_9sub_matchISB_EEENS5_12regex_traitsIcEELb1EE6_M_dfsENSH_11_Match_modeEl_x444
    /*0000009c*/ LDR         R2, [R4, #16] 
    /*000000a0*/ MOV         R1, #1 
    /*000000a4*/ STRB        R1, [R4, #60]               @ 0x3c 
    /*000000a8*/ CMP         R3, R2 
    /*000000ac*/ BEQ         _ZNSt8__detail9_ExecutorIN9__gnu_cxx17__normal_iteratorIPKcNSt7__cxx1112basic_stringIcSt11char_traitsIcESaIcEEEEESaINS5_9sub_matchISB_EEENS5_12regex_traitsIcEELb1EE6_M_dfsENSH_11_Match_modeEl_x480
    _ZNSt8__detail9_ExecutorIN9__gnu_cxx17__normal_iteratorIPKcNSt7__cxx1112basic_stringIcSt11char_traitsIcESaIcEEEEESaINS5_9sub_matchISB_EEENS5_12regex_traitsIcEELb1EE6_M_dfsENSH_11_Match_modeEl_xb0:
    /*000000b0*/ LDR         R1, [IP, #12] 
    /*000000b4*/ TST         R1, #16 
    /*000000b8*/ BNE         _ZNSt8__detail9_ExecutorIN9__gnu_cxx17__normal_iteratorIPKcNSt7__cxx1112basic_stringIcSt11char_traitsIcESaIcEEEEESaINS5_9sub_matchISB_EEENS5_12regex_traitsIcEELb1EE6_M_dfsENSH_11_Match_modeEl_x470
    /*000000bc*/ LDR         R1, [R4, #52]               @ 0x34 
    /*000000c0*/ CMP         R1, #0 
    /*000000c4*/ BEQ         _ZNSt8__detail9_ExecutorIN9__gnu_cxx17__normal_iteratorIPKcNSt7__cxx1112basic_stringIcSt11char_traitsIcESaIcEEEEESaINS5_9sub_matchISB_EEENS5_12regex_traitsIcEELb1EE6_M_dfsENSH_11_Match_modeEl_xd8
    /*000000c8*/ SUB         R3, R3, R2 
    /*000000cc*/ SUB         R2, R1, R2 
    /*000000d0*/ CMP         R3, R2 
    /*000000d4*/ BLE         _ZNSt8__detail9_ExecutorIN9__gnu_cxx17__normal_iteratorIPKcNSt7__cxx1112basic_stringIcSt11char_traitsIcESaIcEEEEESaINS5_9sub_matchISB_EEENS5_12regex_traitsIcEELb1EE6_M_dfsENSH_11_Match_modeEl_xec
    _ZNSt8__detail9_ExecutorIN9__gnu_cxx17__normal_iteratorIPKcNSt7__cxx1112basic_stringIcSt11char_traitsIcESaIcEEEEESaINS5_9sub_matchISB_EEENS5_12regex_traitsIcEELb1EE6_M_dfsENSH_11_Match_modeEl_xd8:
    /*000000d8*/ LDR         R3, [R4, #12] 
    /*000000dc*/ MOV         R1, R4 
    /*000000e0*/ LDR         R0, [R4, #32] 
    /*000000e4*/ STR         R3, [R4, #52]               @ 0x34 
    /*000000e8*/ BL          _ZNSt6vectorINSt7__cxx119sub_matchIN9__gnu_cxx17__normal_iteratorIPKcNS0_12basic_stringIcSt11char_traitsIcESaIcEEEEEEESaISC_EEaSERKSE_
    _ZNSt8__detail9_ExecutorIN9__gnu_cxx17__normal_iteratorIPKcNSt7__cxx1112basic_stringIcSt11char_traitsIcESaIcEEEEESaINS5_9sub_matchISB_EEENS5_12regex_traitsIcEELb1EE6_M_dfsENSH_11_Match_modeEl_xec:
    /*000000ec*/ LDR         R2, [SP, #60]               @ 0x3c 
    /*000000f0*/ LDR         R3, [R7] 
    /*000000f4*/ CMP         R2, R3 
