@
@ -- FILES --
@

@ ModelLoader.cpp


unsigned char data[0] = {
};

unsigned char bss[0];

_RODATA__ZTSN4HIRT12GRAPHOFFLINEE_0000: .ascii "N4hirt12GraphOfflineE\0"


unsigned char data.rel.ro._ZTIN4hirt12GraphOfflineE[12] = {
    /*0000*/ 0x08, 0x00, 0x00, 0x00, 0x00, 0x00, 0x00, 0x00, 0x00, 0x00, 0x00, 0x00, 
};

unsigned char rel.data.rel.ro._ZTIN4hirt12GraphOfflineE[24] = {
    /*0000*/ 0x00, 0x00, 0x00, 0x00, 0x02, 0xbd, 0x01, 0x00, 0x04, 0x00, 0x00, 0x00, 0x02, 0xbc, 0x01, 0x00, 
    /*0010*/ 0x08, 0x00, 0x00, 0x00, 0x02, 0xa4, 0x01, 0x00, 
};

_RODATA__ZTSN4HIRT13WKMODELLOADERE_0000: .ascii "N4hirt13WKModelLoaderE\0"


unsigned char data.rel.ro._ZTIN4hirt13WKModelLoaderE[12] = {
    /*0000*/ 0x08, 0x00, 0x00, 0x00, 0x00, 0x00, 0x00, 0x00, 0x00, 0x00, 0x00, 0x00, 
};

unsigned char rel.data.rel.ro._ZTIN4hirt13WKModelLoaderE[24] = {
    /*0000*/ 0x00, 0x00, 0x00, 0x00, 0x02, 0xbd, 0x01, 0x00, 0x04, 0x00, 0x00, 0x00, 0x02, 0xc0, 0x01, 0x00, 
    /*0010*/ 0x08, 0x00, 0x00, 0x00, 0x02, 0xbf, 0x01, 0x00, 
};

unsigned char data.rel.ro.local._ZTVN4hirt12GraphOfflineE[16] = {
    /*0000*/ 0x00, 0x00, 0x00, 0x00, 0x00, 0x00, 0x00, 0x00, 0x00, 0x00, 0x00, 0x00, 0x00, 0x00, 0x00, 0x00, 
};

unsigned char rel.data.rel.ro.local._ZTVN4hirt12GraphOfflineE[24] = {
    /*0000*/ 0x04, 0x00, 0x00, 0x00, 0x02, 0xa5, 0x01, 0x00, 0x08, 0x00, 0x00, 0x00, 0x02, 0x71, 0x01, 0x00, 
    /*0010*/ 0x0c, 0x00, 0x00, 0x00, 0x02, 0x72, 0x01, 0x00, 
};

unsigned char data.rel.ro.local._ZTVN4hirt13WKModelLoaderE[16] = {
    /*0000*/ 0x00, 0x00, 0x00, 0x00, 0x00, 0x00, 0x00, 0x00, 0x00, 0x00, 0x00, 0x00, 0x00, 0x00, 0x00, 0x00, 
};

unsigned char rel.data.rel.ro.local._ZTVN4hirt13WKModelLoaderE[24] = {
    /*0000*/ 0x04, 0x00, 0x00, 0x00, 0x02, 0xc1, 0x01, 0x00, 0x08, 0x00, 0x00, 0x00, 0x02, 0x67, 0x01, 0x00, 
    /*0010*/ 0x0c, 0x00, 0x00, 0x00, 0x02, 0x6c, 0x01, 0x00, 
};

unsigned char bss._ZStL8__ioinit[1];

unsigned char data.rel.ro._ZTIN4hirt11ModelLoaderE[8] = {
    /*0000*/ 0x08, 0x00, 0x00, 0x00, 0x00, 0x00, 0x00, 0x00, 
};

unsigned char rel.data.rel.ro._ZTIN4hirt11ModelLoaderE[16] = {
    /*0000*/ 0x00, 0x00, 0x00, 0x00, 0x02, 0xc3, 0x01, 0x00, 0x04, 0x00, 0x00, 0x00, 0x02, 0xbe, 0x01, 0x00, 
};

unsigned char data.rel.ro.local._ZTVN4hirt11ModelLoaderE[16] = {
    /*0000*/ 0x00, 0x00, 0x00, 0x00, 0x00, 0x00, 0x00, 0x00, 0x00, 0x00, 0x00, 0x00, 0x00, 0x00, 0x00, 0x00, 
};

unsigned char rel.data.rel.ro.local._ZTVN4hirt11ModelLoaderE[24] = {
    /*0000*/ 0x04, 0x00, 0x00, 0x00, 0x02, 0xbf, 0x01, 0x00, 0x08, 0x00, 0x00, 0x00, 0x02, 0x69, 0x01, 0x00, 
    /*0010*/ 0x0c, 0x00, 0x00, 0x00, 0x02, 0x6a, 0x01, 0x00, 
};

_RODATA__ZL13U32CRC32TABLE_0000: .ascii "\0\0\0\0",
_RODATA__ZL13U32CRC32TABLE_0004: .ascii "\x960\x07w,a\x0e\xee\xbaQ\t\x99\x19\xc4m\x07\x8f\xf4jp5\xa5c\xe9\xa3\x95d\x9e2\x88\xdb\x0e\xa4\xb8\xdcy\x1e\xe9\xd5\xe0\x88\xd9\xd2\x97+L\xb6\t\xbd|\xb1~\x07-\xb8\xe7\x91\x1d\xbf\x90d\x10\xb7\x1d\xf2 \xb0jHq\xb9\xf3\xdeA\xbe\x84}\xd4\xda\x1a\xeb\xe4\xddmQ\xb5\xd4\xf4\xc7\x85\xd3\x83V\x98l\x13\xc0\xa8kdz\xf9b\xfd\xec\xc9e\x8aO\\x01\x14\xd9l\x06cc=\x0f\xfa\xf5\r\x08\x8d\xc8 n;^\x10iL\xe4A`\xd5rqg\xa2\xd1\xe4\x03<G\xd4\x04K\xfd\x85\r\xd2k\xb5\n\xa5\xfa\xa8\xb55l\x98\xb2B\xd6\xc9\xbb\xdb@\xf9\xbc\xac\xe3l\xd82u\\xdfE\xcf\r\xd6\xdcY=\xd1\xab\xac0\xd9&:\0\xdeQ\x80Q\xd7\xc8\x16a\xd0\xbf\xb5\xf4\xb4!#\xc4\xb3V\x99\x95\xba\xcf\x0f\xa5\xbd\xb8\x9e\xb8\x02(\x08\x88\x05_\xb2\xd9\x0c\xc6$\xe9\x0b\xb1\x87|o/\x11LhX\xab\x1da\xc1=-f\xb6\x90A\xdcv\x06q\xdb\x01\xbc \xd2\x98*\x10\xd5\xef\x89\x85\xb1q\x1f\xb5\xb6\x06\xa5\xe4\xbf\x9f3\xd4\xb8\xe8\xa2\xc9\x07x4\xf9\0\x0f\x8e\xa8\t\x96\x18\x98\x0e\xe1\xbb\rj\x7f-=m\x08\x97ld\x91\x01\c\xe6\xf4Qkkbal\x1c\xd80e\x85N\0b\xf2\xed\x95\x06l{\xa5\x01\x1b\xc1\xf4\x08\x82W\xc4\x0f\xf5\xc6\xd9\xb0eP\xe9\xb7\x12\xea\xb8\xbe\x8b|\x88\xb9\xfc\xdf\x1d\xddbI-\xda\x15\xf3|\xd3\x8ceL\xd4\xfbXa\xb2M\xceQ\xb5:t\0\xbc\xa3\xe20\xbb\xd4A\xa5\xdfJ\xd7\x95\xd8=m\xc4\xd1\xa4\xfb\xf4\xd6\xd3j\xe9iC\xfc\xd9n4F\x88g\xad\xd0\xb8`\xdas-\x04D\xe5\x1d\x033_L\n\xaa\xc9|\r\xdd<q\x05P\xaaA\x02'\x10\x10\x0b\xbe\x86 \x0c\xc9%\xb5hW\xb3\x85o \t\xd4f\xb9\x9f\xe4a\xce\x0e\xf9\xde^\x98\xc9\xd9)\"\x98\xd0\xb0\xb4\xa8\xd7\xc7\x17=\xb3Y\x81\r\xb4.;\\xbd\xb7\xadl\xba\xc0 \x83\xb8\xed\xb6\xb3\xbf\x9a\x0c\xe2\xb6\x03\x9a\xd2\xb1t9G\xd5\xea\xafw\xd2\x9d\x15&\xdb\x04\x83\x16\xdcs\x12\x0bc\xe3\x84;d\x94>jm\r\xa8Zjz\x0b\xcf\x0e\xe4\x9d\xff\t\x93'\xae\0\n\xb1\x9e\x07}D\x93\x0f\xf0\xd2\xa3\x08\x87h\xf2\x01\x1e\xfe\xc2\x06i]Wb\xf7\xcbge\x80q6l\x19\xe7\x06knv\x1b\xd4\xfe\xe0+\xd3\x89Zz\xda\x10\xccJ\xddgo\xdf\xb9\xf9\xf9\xef\xbe\x8eC\xbe\xb7\x17\xd5\x8e\xb0`\xe8\xa3\xd6\xd6~\x93\xd1\xa1\xc4\xc2\xd88R\xf2\xdfO\xf1g\xbb\xd1gW\xbc\xa6\xdd\x06\xb5?K6\xb2H\xda+\r\xd8L\x1b\n\xaf\xf6J\x036`z\x04A\xc3\xef`\xdfU\xdfg\xa8\xef\x8en1y\xbeiF\x8c\xb3a\xcb\x1a\x83f\xbc\xa0\xd2o%6\xe2hR\x95w\x0c\xcc\x03G\x0b\xbb\xb9\x16\x02\"/&\x05U\xbe;\xba\xc5(\x0b\xbd\xb2\x92Z\xb4+\x04j\xb3\\xa7\xff\xd7\xc21\xcf\xd0\xb5\x8b\x9e\xd9,\x1d\xae\xde[\xb0\xc2d\x9b&\xf2c\xec\x9c\xa3ju\n\x93m\x02\xa9\x06\t\x9c?6\x0e\xeb\x85g\x07r\x13W\0\x05\x82J\xbf\x95\x14z\xb8\xe2\xae+\xb1{8\x1b\xb6\x0c\x9b\x8e\xd2\x92\r\xbe\xd5\xe5\xb7\xef\xdc|!\xdf\xdb\x0b\xd4\xd2\xd3\x86B\xe2\xd4\xf1\xf8\xb3\xddhn\x83\xda\x1f\xcd\x16\xbe\x81[&\xb9\xf6\xe1w\xb0owG\xb7\x18\xe6Z\x08\x88pj\x0f\xff\xca;\x06f\\x0b\x01\x11\xff\x9ee\x8fi\xaeb\xf8\xd3\xffkaE\xcfl\x16x\xe2\n\xa0\xee\xd2\r\xd7T\x83\x04N\xc2\xb3\x039a&g\xa7\xf7\x16`\xd0MGiI\xdbwn>Jj\xd1\xae\xdcZ\xd6\xd9f\x0b\xdf@\xf0;\xd87S\xae\xbc\xa9\xc5\x9e\xbb\xde\x7f\xcf\xb2G\xe9\xff\xb50\x1c\xf2\xbd\xbd\x8a\xc2\xba\xca0\x93\xb3S\xa6\xa3\xb4$\x056\xd0\xba\x93\x06\xd7\xcd)W\xdeT\xbfg\xd9#.zf\xb3\xb8Ja\xc4\x02\x1bh]\x94+o*7\xbe\x0b\xb4\xa1\x8e\x0c\xc3\x1b\xdf\x05Z\x8d\xef\x02-"


_RODATA__ZL16HIRT_SET_COP_FUNPN4HIRT16OPERATIONOFFLINEE_STR1_4_0000: .ascii "HI_NodePlugin_Compute\0\0\0",
_RODATA__ZL16HIRT_SET_COP_FUNPN4HIRT16OPERATIONOFFLINEE_STR1_4_0018: .ascii "HI_NodePlugin_getNodeType\0\0\0",
_RODATA__ZL16HIRT_SET_COP_FUNPN4HIRT16OPERATIONOFFLINEE_STR1_4_0034: .ascii "dlopen error, plugin path:[%s]\0\0",
_RODATA__ZL16HIRT_SET_COP_FUNPN4HIRT16OPERATIONOFFLINEE_STR1_4_0054: .ascii "hirt\0\0\0\0",
_RODATA__ZL16HIRT_SET_COP_FUNPN4HIRT16OPERATIONOFFLINEE_STR1_4_005c: .ascii "no such pFunNodePluginCompute[%s]\0\0\0",
_RODATA__ZL16HIRT_SET_COP_FUNPN4HIRT16OPERATIONOFFLINEE_STR1_4_0080: .ascii "no such pFunNodePluginGetType[%s]\0\0\0",
_RODATA__ZL16HIRT_SET_COP_FUNPN4HIRT16OPERATIONOFFLINEE_STR1_4_00a4: .ascii "basic_string::_M_construct null not valid\0"


_RODATA__ZN4HIRT13WKMODELLOADER11PARSENNIEWKERK15HIRUNTIME_MEM_SP18HISVP_NNIE_MODEL_SPJ_STR1_4_0000: .ascii "%s:[%d] copy nnie header error\n\0",
_RODATA__ZN4HIRT13WKMODELLOADER11PARSENNIEWKERK15HIRUNTIME_MEM_SP18HISVP_NNIE_MODEL_SPJ_STR1_4_0020: .ascii "%s:[%d] HIRT_MODELLOADER_GetModelSize error\0",
_RODATA__ZN4HIRT13WKMODELLOADER11PARSENNIEWKERK15HIRUNTIME_MEM_SP18HISVP_NNIE_MODEL_SPJ_STR1_4_004c: .ascii "invalid wk file, total size(%d) should greater than nnie wk size(%d)\0\0\0\0",
_RODATA__ZN4HIRT13WKMODELLOADER11PARSENNIEWKERK15HIRUNTIME_MEM_SP18HISVP_NNIE_MODEL_SPJ_STR1_4_0094: .ascii "load svp model error\0"


_RODATA__ZN4HIRT13WKMODELLOADER12PARSEWKMODELERK15HIRUNTIME_MEM_SRNS_16HIMODEL_LOADER_SEPNS_19GROUPINDEXCONTAINERE_STR1_4_0000: .ascii "SVP_NNIE_MODEL_S malloc error\0\0\0",
_RODATA__ZN4HIRT13WKMODELLOADER12PARSEWKMODELERK15HIRUNTIME_MEM_SRNS_16HIMODEL_LOADER_SEPNS_19GROUPINDEXCONTAINERE_STR1_4_0020: .ascii "%s:[%d] clear nnie graph error\n\0",
_RODATA__ZN4HIRT13WKMODELLOADER12PARSEWKMODELERK15HIRUNTIME_MEM_SRNS_16HIMODEL_LOADER_SEPNS_19GROUPINDEXCONTAINERE_STR1_4_0040: .ascii "parseNnieWK error\0\0\0",
_RODATA__ZN4HIRT13WKMODELLOADER12PARSEWKMODELERK15HIRUNTIME_MEM_SRNS_16HIMODEL_LOADER_SEPNS_19GROUPINDEXCONTAINERE_STR1_4_0054: .ascii "parseExtendWK error\0",
_RODATA__ZN4HIRT13WKMODELLOADER12PARSEWKMODELERK15HIRUNTIME_MEM_SRNS_16HIMODEL_LOADER_SEPNS_19GROUPINDEXCONTAINERE_STR1_4_0068: .ascii "getNnieTskSize error\0\0\0\0",
_RODATA__ZN4HIRT13WKMODELLOADER12PARSEWKMODELERK15HIRUNTIME_MEM_SRNS_16HIMODEL_LOADER_SEPNS_19GROUPINDEXCONTAINERE_STR1_4_0080: .ascii "parseWKModel succ, need auxiliary memory size = %d [%d][%d][%d]\n\0\0\0\0",
_RODATA__ZN4HIRT13WKMODELLOADER12PARSEWKMODELERK15HIRUNTIME_MEM_SRNS_16HIMODEL_LOADER_SEPNS_19GROUPINDEXCONTAINERE_STR1_4_00c4: .ascii "new(std::nothrow) GraphOffline error\0"


_RODATA__ZN4HIRT13WKMODELLOADER13PARSEEXTENDWKEPKHJPNS_5GRAPHEPNS_19GROUPINDEXCONTAINERE_STR1_4_0000: .ascii "extend wk size must greater than extend wk head size\0\0\0\0",
_RODATA__ZN4HIRT13WKMODELLOADER13PARSEEXTENDWKEPKHJPNS_5GRAPHEPNS_19GROUPINDEXCONTAINERE_STR1_4_0038: .ascii "Crc32Check %u is exceed %u\0\0",
_RODATA__ZN4HIRT13WKMODELLOADER13PARSEEXTENDWKEPKHJPNS_5GRAPHEPNS_19GROUPINDEXCONTAINERE_STR1_4_0054: .ascii "%s:[%d] copy wk header error\0\0\0\0",
_RODATA__ZN4HIRT13WKMODELLOADER13PARSEEXTENDWKEPKHJPNS_5GRAPHEPNS_19GROUPINDEXCONTAINERE_STR1_4_0074: .ascii "======================== DEBUG: extend wk header param ==========================\0\0\0",
_RODATA__ZN4HIRT13WKMODELLOADER13PARSEEXTENDWKEPKHJPNS_5GRAPHEPNS_19GROUPINDEXCONTAINERE_STR1_4_00c8: .ascii "u32Crc32Check[%u]\0\0\0",
_RODATA__ZN4HIRT13WKMODELLOADER13PARSEEXTENDWKEPKHJPNS_5GRAPHEPNS_19GROUPINDEXCONTAINERE_STR1_4_00dc: .ascii "u32ModelBufSize[%u]\0",
_RODATA__ZN4HIRT13WKMODELLOADER13PARSEEXTENDWKEPKHJPNS_5GRAPHEPNS_19GROUPINDEXCONTAINERE_STR1_4_00f0: .ascii "u32NetHeadSize[%u]\0\0",
_RODATA__ZN4HIRT13WKMODELLOADER13PARSEEXTENDWKEPKHJPNS_5GRAPHEPNS_19GROUPINDEXCONTAINERE_STR1_4_0104: .ascii "u32MaxTmpBufSize[%u]\0\0\0\0",
_RODATA__ZN4HIRT13WKMODELLOADER13PARSEEXTENDWKEPKHJPNS_5GRAPHEPNS_19GROUPINDEXCONTAINERE_STR1_4_011c: .ascii "acVersionInfo[%s]\0\0\0",
_RODATA__ZN4HIRT13WKMODELLOADER13PARSEEXTENDWKEPKHJPNS_5GRAPHEPNS_19GROUPINDEXCONTAINERE_STR1_4_0130: .ascii "u8RunMode[%u]\0\0\0",
_RODATA__ZN4HIRT13WKMODELLOADER13PARSEEXTENDWKEPKHJPNS_5GRAPHEPNS_19GROUPINDEXCONTAINERE_STR1_4_0140: .ascii "u8NetSegNum[%u]\0",
_RODATA__ZN4HIRT13WKMODELLOADER13PARSEEXTENDWKEPKHJPNS_5GRAPHEPNS_19GROUPINDEXCONTAINERE_STR1_4_0150: .ascii "u8Align[%u]\0",
_RODATA__ZN4HIRT13WKMODELLOADER13PARSEEXTENDWKEPKHJPNS_5GRAPHEPNS_19GROUPINDEXCONTAINERE_STR1_4_015c: .ascii "u8NetType[%u]\0\0\0",
_RODATA__ZN4HIRT13WKMODELLOADER13PARSEEXTENDWKEPKHJPNS_5GRAPHEPNS_19GROUPINDEXCONTAINERE_STR1_4_016c: .ascii "u32ParamOffset[%u]\0\0",
_RODATA__ZN4HIRT13WKMODELLOADER13PARSEEXTENDWKEPKHJPNS_5GRAPHEPNS_19GROUPINDEXCONTAINERE_STR1_4_0180: .ascii "u32ParamLen[%u]\0",
_RODATA__ZN4HIRT13WKMODELLOADER13PARSEEXTENDWKEPKHJPNS_5GRAPHEPNS_19GROUPINDEXCONTAINERE_STR1_4_0190: .ascii "u32WkSize[%u]\0\0\0",
_RODATA__ZN4HIRT13WKMODELLOADER13PARSEEXTENDWKEPKHJPNS_5GRAPHEPNS_19GROUPINDEXCONTAINERE_STR1_4_01a0: .ascii "u32BatchNum[%u]\0",
_RODATA__ZN4HIRT13WKMODELLOADER13PARSEEXTENDWKEPKHJPNS_5GRAPHEPNS_19GROUPINDEXCONTAINERE_STR1_4_01b0: .ascii "u8DetectionType[%u]\0",
_RODATA__ZN4HIRT13WKMODELLOADER13PARSEEXTENDWKEPKHJPNS_5GRAPHEPNS_19GROUPINDEXCONTAINERE_STR1_4_01c4: .ascii "u16MaxT[%u]\0",
_RODATA__ZN4HIRT13WKMODELLOADER13PARSEEXTENDWKEPKHJPNS_5GRAPHEPNS_19GROUPINDEXCONTAINERE_STR1_4_01d0: .ascii "u32MaxBboxNum[%u]\0\0\0",
_RODATA__ZN4HIRT13WKMODELLOADER13PARSEEXTENDWKEPKHJPNS_5GRAPHEPNS_19GROUPINDEXCONTAINERE_STR1_4_01e4: .ascii "u32NodeNum[%u]\0\0",
_RODATA__ZN4HIRT13WKMODELLOADER13PARSEEXTENDWKEPKHJPNS_5GRAPHEPNS_19GROUPINDEXCONTAINERE_STR1_4_01f4: .ascii "u32UsrInNum[%u]\0",
_RODATA__ZN4HIRT13WKMODELLOADER13PARSEEXTENDWKEPKHJPNS_5GRAPHEPNS_19GROUPINDEXCONTAINERE_STR1_4_0204: .ascii "u32UsrOutNum[%u]\0\0\0\0",
_RODATA__ZN4HIRT13WKMODELLOADER13PARSEEXTENDWKEPKHJPNS_5GRAPHEPNS_19GROUPINDEXCONTAINERE_STR1_4_0218: .ascii "====================== DEBUG: extend wk header param end ========================\0\0\0",
_RODATA__ZN4HIRT13WKMODELLOADER13PARSEEXTENDWKEPKHJPNS_5GRAPHEPNS_19GROUPINDEXCONTAINERE_STR1_4_026c: .ascii "UsrInNum %u is exceed %u\0\0\0\0",
_RODATA__ZN4HIRT13WKMODELLOADER13PARSEEXTENDWKEPKHJPNS_5GRAPHEPNS_19GROUPINDEXCONTAINERE_STR1_4_0288: .ascii "NodeNum %u is exceed %u\0",
_RODATA__ZN4HIRT13WKMODELLOADER13PARSEEXTENDWKEPKHJPNS_5GRAPHEPNS_19GROUPINDEXCONTAINERE_STR1_4_02a0: .ascii "MaxBboxNum %u is exceed %u\0\0",
_RODATA__ZN4HIRT13WKMODELLOADER13PARSEEXTENDWKEPKHJPNS_5GRAPHEPNS_19GROUPINDEXCONTAINERE_STR1_4_02bc: .ascii "BatchNum %u is exceed %u\0\0\0\0",
_RODATA__ZN4HIRT13WKMODELLOADER13PARSEEXTENDWKEPKHJPNS_5GRAPHEPNS_19GROUPINDEXCONTAINERE_STR1_4_02d8: .ascii "MaxWKSize %u is exceed %u\0\0\0",
_RODATA__ZN4HIRT13WKMODELLOADER13PARSEEXTENDWKEPKHJPNS_5GRAPHEPNS_19GROUPINDEXCONTAINERE_STR1_4_02f4: .ascii "checkExtendWKNetHeadParam error\0",
_RODATA__ZN4HIRT13WKMODELLOADER13PARSEEXTENDWKEPKHJPNS_5GRAPHEPNS_19GROUPINDEXCONTAINERE_STR1_4_0314: .ascii "dynamic_cast GraphOffline error\0",
_RODATA__ZN4HIRT13WKMODELLOADER13PARSEEXTENDWKEPKHJPNS_5GRAPHEPNS_19GROUPINDEXCONTAINERE_STR1_4_0334: .ascii "genGraphExceptOpts error\0\0\0\0",
_RODATA__ZN4HIRT13WKMODELLOADER13PARSEEXTENDWKEPKHJPNS_5GRAPHEPNS_19GROUPINDEXCONTAINERE_STR1_4_0350: .ascii "%s:[%d] clear node comm info error\n\0",
_RODATA__ZN4HIRT13WKMODELLOADER13PARSEEXTENDWKEPKHJPNS_5GRAPHEPNS_19GROUPINDEXCONTAINERE_STR1_4_0374: .ascii "%s:[%d] copy node comm info error\n\0\0",
_RODATA__ZN4HIRT13WKMODELLOADER13PARSEEXTENDWKEPKHJPNS_5GRAPHEPNS_19GROUPINDEXCONTAINERE_STR1_4_0398: .ascii "genOneOptExceptOpds error\n\0\0",
_RODATA__ZN4HIRT13WKMODELLOADER13PARSEEXTENDWKEPKHJPNS_5GRAPHEPNS_19GROUPINDEXCONTAINERE_STR1_4_03b4: .ascii "parseInputsForOneOperation error\n\0\0\0",
_RODATA__ZN4HIRT13WKMODELLOADER13PARSEEXTENDWKEPKHJPNS_5GRAPHEPNS_19GROUPINDEXCONTAINERE_STR1_4_03d8: .ascii "parseOutputsForOneOperation error\n\0\0",
_RODATA__ZN4HIRT13WKMODELLOADER13PARSEEXTENDWKEPKHJPNS_5GRAPHEPNS_19GROUPINDEXCONTAINERE_STR1_4_03fc: .ascii "parseRoiInputsForOneOperation error\n\0\0\0\0",
_RODATA__ZN4HIRT13WKMODELLOADER13PARSEEXTENDWKEPKHJPNS_5GRAPHEPNS_19GROUPINDEXCONTAINERE_STR1_4_0424: .ascii "node end ptr[%d] != param offset[%u]\n\0\0\0",
_RODATA__ZN4HIRT13WKMODELLOADER13PARSEEXTENDWKEPKHJPNS_5GRAPHEPNS_19GROUPINDEXCONTAINERE_STR1_4_044c: .ascii "map::at\0",
_RODATA__ZN4HIRT13WKMODELLOADER13PARSEEXTENDWKEPKHJPNS_5GRAPHEPNS_19GROUPINDEXCONTAINERE_STR1_4_0454: .ascii ""


_RODATA__ZN4HIRT13WKMODELLOADER13RELEASENNIEWKEPK18HISVP_NNIE_MODEL_S_STR1_4_0000: .ascii "HI_MPI_SVP_NNIE_UnloadModel error\0"


_RODATA__ZN4HIRT13WKMODELLOADER14GETNNIETSKSIZEEPKNS_12GRAPHOFFLINEEPK18HISVP_NNIE_MODEL_SPJ_STR1_4_0000: .ascii "NNIESegNum must greater than 0\0\0",
_RODATA__ZN4HIRT13WKMODELLOADER14GETNNIETSKSIZEEPKNS_12GRAPHOFFLINEEPK18HISVP_NNIE_MODEL_SPJ_STR1_4_0020: .ascii "TasksSize malloc error\0\0",
_RODATA__ZN4HIRT13WKMODELLOADER14GETNNIETSKSIZEEPKNS_12GRAPHOFFLINEEPK18HISVP_NNIE_MODEL_SPJ_STR1_4_0038: .ascii "%s:[%d] clear task size error\n\0\0",
_RODATA__ZN4HIRT13WKMODELLOADER14GETNNIETSKSIZEEPKNS_12GRAPHOFFLINEEPK18HISVP_NNIE_MODEL_SPJ_STR1_4_0058: .ascii "GetTskBufSize error\0",
_RODATA__ZN4HIRT13WKMODELLOADER14GETNNIETSKSIZEEPKNS_12GRAPHOFFLINEEPK18HISVP_NNIE_MODEL_SPJ_STR1_4_006c: .ascii ""


_RODATA__ZN4HIRT13WKMODELLOADER14RELEASEWKMODELERKNS_16HIMODEL_LOADER_SE_STR1_4_0000: .ascii "invalid graph\0\0\0",
_RODATA__ZN4HIRT13WKMODELLOADER14RELEASEWKMODELERKNS_16HIMODEL_LOADER_SE_STR1_4_0010: .ascii "releaseExtendWK error\0\0\0",
_RODATA__ZN4HIRT13WKMODELLOADER14RELEASEWKMODELERKNS_16HIMODEL_LOADER_SE_STR1_4_0028: .ascii "invalid nnie model\0"


_RODATA__ZN4HIRT13WKMODELLOADER15RELEASEEXTENDWKEPKNS_12GRAPHOFFLINEE_STR1_4_0000: .ascii "dynamic_cast OperationOffline error\0",
_RODATA__ZN4HIRT13WKMODELLOADER15RELEASEEXTENDWKEPKNS_12GRAPHOFFLINEE_STR1_4_0024: .ascii "dynamic_cast OperandOffline for input error\0",
_RODATA__ZN4HIRT13WKMODELLOADER15RELEASEEXTENDWKEPKNS_12GRAPHOFFLINEE_STR1_4_0050: .ascii "dynamic_cast OperandOffline for output error\0"


_RODATA__ZN4HIRT13WKMODELLOADER19GENONEOPTEXCEPTOPDSERK26HIRUNTIME_NODE_COMM_INFO_SPPHS4_RPNS_16OPERATIONOFFLINEE_STR1_4_0000: .ascii "%s: new OperationOffline for VOP failed\0",
_RODATA__ZN4HIRT13WKMODELLOADER19GENONEOPTEXCEPTOPDSERK26HIRUNTIME_NODE_COMM_INFO_SPPHS4_RPNS_16OPERATIONOFFLINEE_STR1_4_0028: .ascii "%s:[%d] copy plugin name error\n\0",
_RODATA__ZN4HIRT13WKMODELLOADER19GENONEOPTEXCEPTOPDSERK26HIRUNTIME_NODE_COMM_INFO_SPPHS4_RPNS_16OPERATIONOFFLINEE_STR1_4_0048: .ascii "%s: new OperationOffline for CUSTOM failed\0\0",
_RODATA__ZN4HIRT13WKMODELLOADER19GENONEOPTEXCEPTOPDSERK26HIRUNTIME_NODE_COMM_INFO_SPPHS4_RPNS_16OPERATIONOFFLINEE_STR1_4_0074: .ascii "HIRT_SET_COP_FUN error\0\0",
_RODATA__ZN4HIRT13WKMODELLOADER19GENONEOPTEXCEPTOPDSERK26HIRUNTIME_NODE_COMM_INFO_SPPHS4_RPNS_16OPERATIONOFFLINEE_STR1_4_008c: .ascii "%s: new OperationOfflineRuntime for PROPOSAL failed\0",
_RODATA__ZN4HIRT13WKMODELLOADER19GENONEOPTEXCEPTOPDSERK26HIRUNTIME_NODE_COMM_INFO_SPPHS4_RPNS_16OPERATIONOFFLINEE_STR1_4_00c0: .ascii "invalid layer type for Runtime Node[%d]!\n\0\0\0",
_RODATA__ZN4HIRT13WKMODELLOADER19GENONEOPTEXCEPTOPDSERK26HIRUNTIME_NODE_COMM_INFO_SPPHS4_RPNS_16OPERATIONOFFLINEE_STR1_4_00ec: .ascii "Node Classify error: [%d]\n\0"


_RODATA__ZN4HIRT13WKMODELLOADER25CHECKEXTENDWKNETHEADPARAMEPKHJ_STR1_4_0000: .ascii "u8RunMode must between[%d, %d)\0\0",
_RODATA__ZN4HIRT13WKMODELLOADER25CHECKEXTENDWKNETHEADPARAMEPKHJ_STR1_4_0020: .ascii "wk extend u32Size(%d) if less than crcLen(%d)\0\0\0",
_RODATA__ZN4HIRT13WKMODELLOADER25CHECKEXTENDWKNETHEADPARAMEPKHJ_STR1_4_0050: .ascii "param psBuff is null\0\0\0\0",
_RODATA__ZN4HIRT13WKMODELLOADER25CHECKEXTENDWKNETHEADPARAMEPKHJ_STR1_4_0068: .ascii "Model Crc error\0",
_RODATA__ZN4HIRT13WKMODELLOADER25CHECKEXTENDWKNETHEADPARAMEPKHJ_STR1_4_0078: .ascii ""


_RODATA__ZN4HIRT13WKMODELLOADER26PARSEINPUTSFORONEOPERATIONEPNS_12GRAPHOFFLINEEPPHPNS_16OPERATIONOFFLINEE_STR1_4_0000: .ascii "%s:[%d] copy input name error\n\0"


_RODATA__ZN4HIRT13WKMODELLOADER27PARSEOUTPUTSFORONEOPERATIONEPNS_12GRAPHOFFLINEEPPHPNS_16OPERATIONOFFLINEERST3MAPINST7__CXX1112BASIC_STRINGICST11CHAR_TRAITSICESAICEEEPNS_7OPERANDEST4LESSISD_ESAIST4PAIRIKSD_SF_EEE_STR1_4_0000: .ascii "%s:[%d] copy output name error\n\0",
_RODATA__ZN4HIRT13WKMODELLOADER27PARSEOUTPUTSFORONEOPERATIONEPNS_12GRAPHOFFLINEEPPHPNS_16OPERATIONOFFLINEERST3MAPINST7__CXX1112BASIC_STRINGICST11CHAR_TRAITSICESAICEEEPNS_7OPERANDEST4LESSISD_ESAIST4PAIRIKSD_SF_EEE_STR1_4_0020: .ascii "new(std::nothrow) output operand error\0"


_RODATA__ZN4HIRT13WKMODELLOADER29PARSEROIINPUTSFORONEOPERATIONEPPHPNS_16OPERATIONOFFLINEE_STR1_4_0000: .ascii "%s:[%d] clear roi input info error\n\0",
_RODATA__ZN4HIRT13WKMODELLOADER29PARSEROIINPUTSFORONEOPERATIONEPPHPNS_16OPERATIONOFFLINEE_STR1_4_0024: .ascii "%s:[%d] copy roi input name error\n\0\0",
_RODATA__ZN4HIRT13WKMODELLOADER29PARSEROIINPUTSFORONEOPERATIONEPPHPNS_16OPERATIONOFFLINEE_STR1_4_0048: .ascii "Roi hwc is [%d][%d][%d]\n\0\0\0\0",
_RODATA__ZN4HIRT13WKMODELLOADER29PARSEROIINPUTSFORONEOPERATIONEPPHPNS_16OPERATIONOFFLINEE_STR1_4_0064: .ascii "new(std::nothrow) input operand error\0"


_RODATA__ZTSN4HIRT11MODELLOADERE_0000: .ascii "N4hirt11ModelLoaderE\0"


_RODATA__ZZL29HIRT_MODELLOADER_GETMODELSIZEPHPJE12__FUNCTION___0000: .ascii "HIRT_MODELLOADER_GetModelSize\0"


_RODATA__ZZN4HIRT13WKMODELLOADER11PARSENNIEWKERK15HIRUNTIME_MEM_SP18HISVP_NNIE_MODEL_SPJE12__FUNCTION___0000: .ascii "parseNnieWK\0",
_RODATA__ZZN4HIRT13WKMODELLOADER11PARSENNIEWKERK15HIRUNTIME_MEM_SP18HISVP_NNIE_MODEL_SPJE12__FUNCTION___000c: .ascii ""


_RODATA__ZZN4HIRT13WKMODELLOADER12PARSEWKMODELERK15HIRUNTIME_MEM_SRNS_16HIMODEL_LOADER_SEPNS_19GROUPINDEXCONTAINEREE12__FUNCTION___0000: .ascii "parseWKModel\0"


_RODATA__ZZN4HIRT13WKMODELLOADER13PARSEEXTENDWKEPKHJPNS_5GRAPHEPNS_19GROUPINDEXCONTAINEREE12__FUNCTION___0000: .ascii "parseExtendWK\0"


_RODATA__ZZN4HIRT13WKMODELLOADER14GETNNIETSKSIZEEPKNS_12GRAPHOFFLINEEPK18HISVP_NNIE_MODEL_SPJE12__FUNCTION___0000: .ascii "getNnieTskSize\0"


_RODATA__ZZN4HIRT13WKMODELLOADER19GENONEOPTEXCEPTOPDSERK26HIRUNTIME_NODE_COMM_INFO_SPPHS4_RPNS_16OPERATIONOFFLINEEE12__FUNCTION___0000: .ascii "genOneOptExceptOpds\0",
_RODATA__ZZN4HIRT13WKMODELLOADER19GENONEOPTEXCEPTOPDSERK26HIRUNTIME_NODE_COMM_INFO_SPPHS4_RPNS_16OPERATIONOFFLINEEE12__FUNCTION___0014: .ascii ""


_RODATA__ZZN4HIRT13WKMODELLOADER26PARSEINPUTSFORONEOPERATIONEPNS_12GRAPHOFFLINEEPPHPNS_16OPERATIONOFFLINEEE12__FUNCTION___0000: .ascii "parseInputsForOneOperation\0"


_RODATA__ZZN4HIRT13WKMODELLOADER27PARSEOUTPUTSFORONEOPERATIONEPNS_12GRAPHOFFLINEEPPHPNS_16OPERATIONOFFLINEERST3MAPINST7__CXX1112BASIC_STRINGICST11CHAR_TRAITSICESAICEEEPNS_7OPERANDEST4LESSISD_ESAIST4PAIRIKSD_SF_EEEE12__FUNCTION___0000: .ascii "parseOutputsForOneOperation\0",
_RODATA__ZZN4HIRT13WKMODELLOADER27PARSEOUTPUTSFORONEOPERATIONEPNS_12GRAPHOFFLINEEPPHPNS_16OPERATIONOFFLINEERST3MAPINST7__CXX1112BASIC_STRINGICST11CHAR_TRAITSICESAICEEEPNS_7OPERANDEST4LESSISD_ESAIST4PAIRIKSD_SF_EEEE12__FUNCTION___001c: .ascii ""


_RODATA__ZZN4HIRT13WKMODELLOADER29PARSEROIINPUTSFORONEOPERATIONEPPHPNS_16OPERATIONOFFLINEEE12__FUNCTION___0000: .ascii "parseRoiInputsForOneOperation\0"


@ - - - - - - - - - - - - - - - - - - - - - - - - - - - - - 
@ .text._ZN4hirt13WKModelLoaderD2Ev
@ Size: 0x4
@ - - - - - - - - - - - - - - - - - - - - - - - - - - - - - 

FUNC_BEGIN _ZN4hirt13WKModelLoaderD2Ev
    /*00000000*/ BX          LR 
FUNC_END _ZN4hirt13WKModelLoaderD2Ev


FUNC_BEGIN _ZN4hirt13WKModelLoaderD1Ev
    /*00000000*/ BX          LR 
FUNC_END _ZN4hirt13WKModelLoaderD1Ev


@ - - - - - - - - - - - - - - - - - - - - - - - - - - - - - 
@ .text._ZN4hirt11ModelLoaderD2Ev
@ Size: 0x4
@ - - - - - - - - - - - - - - - - - - - - - - - - - - - - - 

FUNC_BEGIN _ZN4hirt11ModelLoaderD2Ev
    /*00000000*/ BX          LR 
FUNC_END _ZN4hirt11ModelLoaderD2Ev


FUNC_BEGIN _ZN4hirt11ModelLoaderD1Ev
    /*00000000*/ BX          LR 
FUNC_END _ZN4hirt11ModelLoaderD1Ev


@ - - - - - - - - - - - - - - - - - - - - - - - - - - - - - 
@ .text._ZN4hirt11ModelLoaderD0Ev
@ Size: 0x24
@ - - - - - - - - - - - - - - - - - - - - - - - - - - - - - 

FUNC_BEGIN _ZN4hirt11ModelLoaderD0Ev
    /*00000000*/ MOV         IP, #16384                  @ 0x4000 
    /*00000004*/ PUSH        {R4, LR} 
    /*00000008*/ SUB         IP, SP, IP 
    /*0000000c*/ STR         R0, [IP, #4088]             @ 0xff8 
    /*00000010*/ MOV         R1, #4 
    /*00000014*/ MOV         R4, R0 
    /*00000018*/ BL          _ZdlPvj
    /*0000001c*/ MOV         R0, R4 
    /*00000020*/ POP         {R4, PC} 
FUNC_END _ZN4hirt11ModelLoaderD0Ev


@ - - - - - - - - - - - - - - - - - - - - - - - - - - - - - 
@ .text._ZN4hirt13WKModelLoaderD0Ev
@ Size: 0x24
@ - - - - - - - - - - - - - - - - - - - - - - - - - - - - - 

FUNC_BEGIN _ZN4hirt13WKModelLoaderD0Ev
    /*00000000*/ MOV         IP, #16384                  @ 0x4000 
    /*00000004*/ PUSH        {R4, LR} 
    /*00000008*/ SUB         IP, SP, IP 
    /*0000000c*/ STR         R0, [IP, #4088]             @ 0xff8 
    /*00000010*/ MOV         R1, #4 
    /*00000014*/ MOV         R4, R0 
    /*00000018*/ BL          _ZdlPvj
    /*0000001c*/ MOV         R0, R4 
    /*00000020*/ POP         {R4, PC} 
FUNC_END _ZN4hirt13WKModelLoaderD0Ev


@ - - - - - - - - - - - - - - - - - - - - - - - - - - - - - 
@ .text._ZN4hirt12GraphOfflineD2Ev
@ Size: 0x8c
@ - - - - - - - - - - - - - - - - - - - - - - - - - - - - - 

FUNC_BEGIN _ZN4hirt12GraphOfflineD2Ev
    /*00000000*/ MOV         IP, #16384                  @ 0x4000 
    /*00000004*/ PUSH        {R4, LR} 
    /*00000008*/ SUB         IP, SP, IP 
    /*0000000c*/ STR         R0, [IP, #4088]             @ 0xff8 
    /*00000010*/ LDR         R3, WORD_0088               @ LDR         R3, [PC, #112]              @ 0x0000000000000088 
    /*00000014*/ MOV         R4, R0 
    /*00000018*/ LDR         R0, [R0, #116]              @ 0x74 
    /*0000001c*/ ADD         R2, R4, #124                @ 0x7c 
    /*00000020*/ ADD         R3, PC, R3 
    /*00000024*/ CMP         R0, R2 
    /*00000028*/ ADD         R3, R3, #8 
    /*0000002c*/ STR         R3, [R4] 
    /*00000030*/ BEQ         _ZN4hirt12GraphOfflineD2Ev_x38
    /*00000034*/ BL          _ZdlPv
    _ZN4hirt12GraphOfflineD2Ev_x38:
    /*00000038*/ LDR         R0, [R4, #76]               @ 0x4c 
    /*0000003c*/ CMP         R0, #0 
    /*00000040*/ BEQ         _ZN4hirt12GraphOfflineD2Ev_x48
    /*00000044*/ BL          _ZdlPv
    _ZN4hirt12GraphOfflineD2Ev_x48:
    /*00000048*/ LDR         R0, [R4, #64]               @ 0x40 
    /*0000004c*/ CMP         R0, #0 
    /*00000050*/ BEQ         _ZN4hirt12GraphOfflineD2Ev_x58
    /*00000054*/ BL          _ZdlPv
    _ZN4hirt12GraphOfflineD2Ev_x58:
    /*00000058*/ LDR         R0, [R4, #52]               @ 0x34 
    /*0000005c*/ CMP         R0, #0 
    /*00000060*/ BEQ         _ZN4hirt12GraphOfflineD2Ev_x68
    /*00000064*/ BL          _ZdlPv
    _ZN4hirt12GraphOfflineD2Ev_x68:
    /*00000068*/ LDR         R0, [R4, #40]               @ 0x28 
    /*0000006c*/ CMP         R0, #0 
    /*00000070*/ BEQ         _ZN4hirt12GraphOfflineD2Ev_x78
    /*00000074*/ BL          _ZdlPv
    _ZN4hirt12GraphOfflineD2Ev_x78:
    /*00000078*/ MOV         R0, R4 
    /*0000007c*/ BL          _ZN4hirt5GraphD2Ev
    /*00000080*/ MOV         R0, R4 
    /*00000084*/ POP         {R4, PC} 
    /*00000088*/ WORD_0088: .word 0x00000060
FUNC_END _ZN4hirt12GraphOfflineD2Ev


FUNC_BEGIN _ZN4hirt12GraphOfflineD1Ev
    /*00000000*/ MOV         IP, #16384                  @ 0x4000 
    /*00000004*/ PUSH        {R4, LR} 
    /*00000008*/ SUB         IP, SP, IP 
    /*0000000c*/ STR         R0, [IP, #4088]             @ 0xff8 
    /*00000010*/ LDR         R3, WORD_0088               @ LDR         R3, [PC, #112]              @ 0x0000000000000088 
    /*00000014*/ MOV         R4, R0 
    /*00000018*/ LDR         R0, [R0, #116]              @ 0x74 
    /*0000001c*/ ADD         R2, R4, #124                @ 0x7c 
    /*00000020*/ ADD         R3, PC, R3 
    /*00000024*/ CMP         R0, R2 
    /*00000028*/ ADD         R3, R3, #8 
    /*0000002c*/ STR         R3, [R4] 
    /*00000030*/ BEQ         _ZN4hirt12GraphOfflineD1Ev_x38
    /*00000034*/ BL          _ZdlPv
    _ZN4hirt12GraphOfflineD1Ev_x38:
    /*00000038*/ LDR         R0, [R4, #76]               @ 0x4c 
    /*0000003c*/ CMP         R0, #0 
    /*00000040*/ BEQ         _ZN4hirt12GraphOfflineD1Ev_x48
    /*00000044*/ BL          _ZdlPv
    _ZN4hirt12GraphOfflineD1Ev_x48:
    /*00000048*/ LDR         R0, [R4, #64]               @ 0x40 
    /*0000004c*/ CMP         R0, #0 
    /*00000050*/ BEQ         _ZN4hirt12GraphOfflineD1Ev_x58
    /*00000054*/ BL          _ZdlPv
    _ZN4hirt12GraphOfflineD1Ev_x58:
    /*00000058*/ LDR         R0, [R4, #52]               @ 0x34 
    /*0000005c*/ CMP         R0, #0 
    /*00000060*/ BEQ         _ZN4hirt12GraphOfflineD1Ev_x68
    /*00000064*/ BL          _ZdlPv
    _ZN4hirt12GraphOfflineD1Ev_x68:
    /*00000068*/ LDR         R0, [R4, #40]               @ 0x28 
    /*0000006c*/ CMP         R0, #0 
    /*00000070*/ BEQ         _ZN4hirt12GraphOfflineD1Ev_x78
    /*00000074*/ BL          _ZdlPv
    _ZN4hirt12GraphOfflineD1Ev_x78:
    /*00000078*/ MOV         R0, R4 
    /*0000007c*/ BL          _ZN4hirt5GraphD2Ev
    /*00000080*/ MOV         R0, R4 
    /*00000084*/ POP         {R4, PC} 
    /*00000088*/ WORD_0088: .word 0x00000060
FUNC_END _ZN4hirt12GraphOfflineD1Ev


@ - - - - - - - - - - - - - - - - - - - - - - - - - - - - - 
@ .text._ZN4hirt12GraphOfflineD0Ev
@ Size: 0x98
@ - - - - - - - - - - - - - - - - - - - - - - - - - - - - - 

FUNC_BEGIN _ZN4hirt12GraphOfflineD0Ev
    /*00000000*/ MOV         IP, #16384                  @ 0x4000 
    /*00000004*/ PUSH        {R4, LR} 
    /*00000008*/ SUB         IP, SP, IP 
    /*0000000c*/ STR         R0, [IP, #4088]             @ 0xff8 
    /*00000010*/ LDR         R3, WORD_0094               @ LDR         R3, [PC, #124]              @ 0x0000000000000094 
    /*00000014*/ MOV         R4, R0 
    /*00000018*/ LDR         R0, [R0, #116]              @ 0x74 
    /*0000001c*/ ADD         R2, R4, #124                @ 0x7c 
    /*00000020*/ ADD         R3, PC, R3 
    /*00000024*/ CMP         R0, R2 
    /*00000028*/ ADD         R3, R3, #8 
    /*0000002c*/ STR         R3, [R4] 
    /*00000030*/ BEQ         _ZN4hirt12GraphOfflineD0Ev_x38
    /*00000034*/ BL          _ZdlPv
    _ZN4hirt12GraphOfflineD0Ev_x38:
    /*00000038*/ LDR         R0, [R4, #76]               @ 0x4c 
    /*0000003c*/ CMP         R0, #0 
    /*00000040*/ BEQ         _ZN4hirt12GraphOfflineD0Ev_x48
    /*00000044*/ BL          _ZdlPv
    _ZN4hirt12GraphOfflineD0Ev_x48:
    /*00000048*/ LDR         R0, [R4, #64]               @ 0x40 
    /*0000004c*/ CMP         R0, #0 
    /*00000050*/ BEQ         _ZN4hirt12GraphOfflineD0Ev_x58
    /*00000054*/ BL          _ZdlPv
    _ZN4hirt12GraphOfflineD0Ev_x58:
    /*00000058*/ LDR         R0, [R4, #52]               @ 0x34 
    /*0000005c*/ CMP         R0, #0 
    /*00000060*/ BEQ         _ZN4hirt12GraphOfflineD0Ev_x68
    /*00000064*/ BL          _ZdlPv
    _ZN4hirt12GraphOfflineD0Ev_x68:
    /*00000068*/ LDR         R0, [R4, #40]               @ 0x28 
    /*0000006c*/ CMP         R0, #0 
    /*00000070*/ BEQ         _ZN4hirt12GraphOfflineD0Ev_x78
    /*00000074*/ BL          _ZdlPv
    _ZN4hirt12GraphOfflineD0Ev_x78:
    /*00000078*/ MOV         R0, R4 
    /*0000007c*/ BL          _ZN4hirt5GraphD2Ev
    /*00000080*/ MOV         R0, R4 
    /*00000084*/ MOV         R1, #156                    @ 0x9c 
    /*00000088*/ BL          _ZdlPvj
    /*0000008c*/ MOV         R0, R4 
    /*00000090*/ POP         {R4, PC} 
    /*00000094*/ WORD_0094: .word 0x0000006c
FUNC_END _ZN4hirt12GraphOfflineD0Ev


@ - - - - - - - - - - - - - - - - - - - - - - - - - - - - - 
@ .text._ZL16HIRT_SET_COP_FUNPN4hirt16OperationOfflineE
@ Size: 0x418
@ - - - - - - - - - - - - - - - - - - - - - - - - - - - - - 

FUNC_BEGIN _ZL16HIRT_SET_COP_FUNPN4hirt16OperationOfflineE
    /*00000000*/ MOV         IP, #16384                  @ 0x4000 
    /*00000004*/ PUSH        {R4, R5, R6, R7, R8, R9, SL, FP, LR} 
    /*00000008*/ SUB         IP, SP, IP 
    /*0000000c*/ STR         R0, [IP, #3936]             @ 0xf60 
    /*00000010*/ LDR         R3, WORD_03e8               @ LDR         R3, [PC, #976]              @ 0x00000000000003e8 
    /*00000014*/ SUB         SP, SP, #124                @ 0x7c 
    /*00000018*/ LDR         R2, WORD_03ec               @ LDR         R2, [PC, #972]              @ 0x00000000000003ec 
    /*0000001c*/ ADD         R5, SP, #120                @ 0x78 
    /*00000020*/ ADD         R3, PC, R3 
    /*00000024*/ MOV         R4, R0 
    /*00000028*/ MOV         R1, #21 
    /*0000002c*/ ADD         R6, SP, #28 
    /*00000030*/ LDR         R8, [R3, R2] 
    /*00000034*/ MOV         R2, #0 
    /*00000038*/ STR         R1, [R5, #-104]!            @ 0xffffff98 
    /*0000003c*/ MOV         R1, R5 
    /*00000040*/ LDR         R0, [R8] 
    /*00000044*/ ADD         R9, SP, #120                @ 0x78 
    /*00000048*/ STR         R6, [SP, #20] 
    /*0000004c*/ MOV         SL, #0 
    /*00000050*/ STR         R0, [SP, #116]              @ 0x74 
    /*00000054*/ ADD         R0, SP, #20 
    /*00000058*/ MOV         FP, #25 
    /*0000005c*/ BL          _ZNSt7__cxx1112basic_stringIcSt11char_traitsIcESaIcEE9_M_createERjj
    /*00000060*/ LDR         IP, WORD_03f0               @ LDR         IP, [PC, #904]              @ 0x00000000000003f0 
    /*00000064*/ MOV         LR, R0 
    /*00000068*/ LDR         R7, [SP, #16] 
    /*0000006c*/ ADD         IP, PC, IP 
    /*00000070*/ STR         R7, [SP, #28] 
    /*00000074*/ ADD         R7, SP, #52                 @ 0x34 
    /*00000078*/ LDM         IP!, {R0, R1, R2, R3} 
    /*0000007c*/ STR         LR, [SP, #20] 
    /*00000080*/ STR         R3, [LR, #12] 
    /*00000084*/ STR         R0, [LR] 
    /*00000088*/ LDRB        R3, [IP, #4] 
    /*0000008c*/ LDR         R0, [IP] 
    /*00000090*/ STR         R1, [LR, #4] 
    /*00000094*/ STR         R2, [LR, #8] 
    /*00000098*/ MOV         R2, SL 
    /*0000009c*/ STR         R0, [LR, #16] 
    /*000000a0*/ ADD         R0, SP, #44                 @ 0x2c 
    /*000000a4*/ STRB        R3, [LR, #20] 
    /*000000a8*/ LDR         R3, [SP, #16] 
    /*000000ac*/ LDR         R1, [SP, #20] 
    /*000000b0*/ STR         R3, [SP, #24] 
    /*000000b4*/ STRB        SL, [R1, R3] 
    /*000000b8*/ STR         FP, [R9, #-112]!            @ 0xffffff90 
    /*000000bc*/ MOV         R1, R9 
    /*000000c0*/ STR         R7, [SP, #44]               @ 0x2c 
    /*000000c4*/ BL          _ZNSt7__cxx1112basic_stringIcSt11char_traitsIcESaIcEE9_M_createERjj
    /*000000c8*/ LDR         IP, WORD_03f4               @ LDR         IP, [PC, #804]              @ 0x00000000000003f4 
    /*000000cc*/ MOV         LR, R0 
    /*000000d0*/ STR         R0, [SP, #44]               @ 0x2c 
    /*000000d4*/ ADD         IP, PC, IP 
    /*000000d8*/ LDR         R9, [SP, #8] 
    /*000000dc*/ LDM         IP!, {R0, R1, R2, R3} 
    /*000000e0*/ STR         R9, [SP, #52]               @ 0x34 
    /*000000e4*/ ADD         R9, SP, #76                 @ 0x4c 
    /*000000e8*/ STR         R0, [LR] 
    /*000000ec*/ STR         R1, [LR, #4] 
    /*000000f0*/ LDM         IP!, {R0, R1} 
    /*000000f4*/ STR         R2, [LR, #8] 
    /*000000f8*/ STR         R0, [LR, #16] 
    /*000000fc*/ LDR         R2, [SP, #8] 
    /*00000100*/ LDRB        IP, [IP] 
    /*00000104*/ LDR         R0, [SP, #44]               @ 0x2c 
    /*00000108*/ STR         R3, [LR, #12] 
    /*0000010c*/ ADD         R3, SP, #68                 @ 0x44 
    /*00000110*/ STR         R1, [LR, #20] 
    /*00000114*/ STRB        IP, [LR, #24] 
    /*00000118*/ STR         R2, [SP, #48]               @ 0x30 
    /*0000011c*/ STRB        SL, [R0, R2] 
    /*00000120*/ LDR         FP, [R4, #152]              @ 0x98 
    /*00000124*/ LDR         SL, [R4, #156]              @ 0x9c 
    /*00000128*/ CLZ         R2, FP 
    /*0000012c*/ RSB         R1, SL, #0 
    /*00000130*/ CMP         FP, R1 
    /*00000134*/ LSR         R2, R2, #5 
    /*00000138*/ MOVEQ       R2, #0 
    /*0000013c*/ STR         R9, [SP, #68]               @ 0x44 
    /*00000140*/ CMP         R2, #0 
    /*00000144*/ BEQ         _ZL16HIRT_SET_COP_FUNPN4hirt16OperationOfflineE_x154
    /*00000148*/ LDR         R0, WORD_03f8               @ LDR         R0, [PC, #680]              @ 0x00000000000003f8 
    /*0000014c*/ ADD         R0, PC, R0 
    /*00000150*/ BL          _ZSt19__throw_logic_errorPKc
    _ZL16HIRT_SET_COP_FUNPN4hirt16OperationOfflineE_x154:
    /*00000154*/ STR         SL, [SP, #12] 
    /*00000158*/ CMP         SL, #15 
    /*0000015c*/ BHI         _ZL16HIRT_SET_COP_FUNPN4hirt16OperationOfflineE_x228
    /*00000160*/ CMP         SL, #1 
    /*00000164*/ BEQ         _ZL16HIRT_SET_COP_FUNPN4hirt16OperationOfflineE_x258
    /*00000168*/ CMP         SL, #0 
    /*0000016c*/ MOVEQ       R3, R9 
    /*00000170*/ BNE         _ZL16HIRT_SET_COP_FUNPN4hirt16OperationOfflineE_x2d8
    _ZL16HIRT_SET_COP_FUNPN4hirt16OperationOfflineE_x174:
    /*00000174*/ STR         SL, [SP, #72]               @ 0x48 
    /*00000178*/ MOV         R2, #0 
    /*0000017c*/ STRB        R2, [R3, SL] 
    /*00000180*/ ADD         R1, R4, #132                @ 0x84 
    /*00000184*/ LDR         R0, [SP, #68]               @ 0x44 
    /*00000188*/ BL          _Z17HIRT_Utils_DlopenPKcPPv
    /*0000018c*/ MOV         SL, R0 
    /*00000190*/ LDR         R0, [SP, #68]               @ 0x44 
    /*00000194*/ CMP         R0, R9 
    /*00000198*/ BEQ         _ZL16HIRT_SET_COP_FUNPN4hirt16OperationOfflineE_x1a0
    /*0000019c*/ BL          _ZdlPv
    _ZL16HIRT_SET_COP_FUNPN4hirt16OperationOfflineE_x1a0:
    /*000001a0*/ CMP         SL, #0 
    /*000001a4*/ BNE         _ZL16HIRT_SET_COP_FUNPN4hirt16OperationOfflineE_x2e0
    /*000001a8*/ LDR         R1, [SP, #20] 
    /*000001ac*/ MOV         R2, SP 
    /*000001b0*/ LDR         R0, [R4, #132]              @ 0x84 
    /*000001b4*/ BL          _Z16HIRT_Utils_DlsymPvPKcPS_
    /*000001b8*/ LDR         R3, [SP] 
    /*000001bc*/ CMP         R3, #0 
    /*000001c0*/ BEQ         _ZL16HIRT_SET_COP_FUNPN4hirt16OperationOfflineE_x268
    /*000001c4*/ LDR         R1, [SP, #44]               @ 0x2c 
    /*000001c8*/ ADD         R2, SP, #4 
    /*000001cc*/ LDR         R0, [R4, #132]              @ 0x84 
    /*000001d0*/ BL          _Z16HIRT_Utils_DlsymPvPKcPS_
    /*000001d4*/ LDR         R3, [SP, #4] 
    /*000001d8*/ CMP         R3, #0 
    /*000001dc*/ STRNE       R3, [R4, #140]              @ 0x8c 
    /*000001e0*/ LDRNE       R2, [SP] 
    /*000001e4*/ STRNE       R2, [R4, #136]              @ 0x88 
    /*000001e8*/ BEQ         _ZL16HIRT_SET_COP_FUNPN4hirt16OperationOfflineE_x294
    _ZL16HIRT_SET_COP_FUNPN4hirt16OperationOfflineE_x1ec:
    /*000001ec*/ LDR         R0, [SP, #44]               @ 0x2c 
    /*000001f0*/ CMP         R0, R7 
    /*000001f4*/ BEQ         _ZL16HIRT_SET_COP_FUNPN4hirt16OperationOfflineE_x1fc
    /*000001f8*/ BL          _ZdlPv
    _ZL16HIRT_SET_COP_FUNPN4hirt16OperationOfflineE_x1fc:
    /*000001fc*/ LDR         R0, [SP, #20] 
    /*00000200*/ CMP         R0, R6 
    /*00000204*/ BEQ         _ZL16HIRT_SET_COP_FUNPN4hirt16OperationOfflineE_x20c
    /*00000208*/ BL          _ZdlPv
    _ZL16HIRT_SET_COP_FUNPN4hirt16OperationOfflineE_x20c:
    /*0000020c*/ LDR         R2, [SP, #116]              @ 0x74 
    /*00000210*/ MOV         R0, SL 
    /*00000214*/ LDR         R3, [R8] 
    /*00000218*/ CMP         R2, R3 
    /*0000021c*/ BNE         _ZL16HIRT_SET_COP_FUNPN4hirt16OperationOfflineE_x3bc
    /*00000220*/ ADD         SP, SP, #124                @ 0x7c 
    /*00000224*/ POP         {R4, R5, R6, R7, R8, R9, SL, FP, PC} 
    _ZL16HIRT_SET_COP_FUNPN4hirt16OperationOfflineE_x228:
    /*00000228*/ MOV         R0, R3 
    /*0000022c*/ ADD         R1, SP, #12 
    /*00000230*/ BL          _ZNSt7__cxx1112basic_stringIcSt11char_traitsIcESaIcEE9_M_createERjj
    /*00000234*/ LDR         R3, [SP, #12] 
    /*00000238*/ STR         R0, [SP, #68]               @ 0x44 
    /*0000023c*/ STR         R3, [SP, #76]               @ 0x4c 
    _ZL16HIRT_SET_COP_FUNPN4hirt16OperationOfflineE_x240:
    /*00000240*/ MOV         R2, SL 
    /*00000244*/ MOV         R1, FP 
    /*00000248*/ BL          memcpy
    /*0000024c*/ LDR         SL, [SP, #12] 
    /*00000250*/ LDR         R3, [SP, #68]               @ 0x44 
    /*00000254*/ B           _ZL16HIRT_SET_COP_FUNPN4hirt16OperationOfflineE_x174
    _ZL16HIRT_SET_COP_FUNPN4hirt16OperationOfflineE_x258:
    /*00000258*/ LDRB        R2, [FP] 
    /*0000025c*/ MOV         R3, R9 
    /*00000260*/ STRB        R2, [SP, #76]               @ 0x4c 
    /*00000264*/ B           _ZL16HIRT_SET_COP_FUNPN4hirt16OperationOfflineE_x174
    _ZL16HIRT_SET_COP_FUNPN4hirt16OperationOfflineE_x268:
    /*00000268*/ LDR         R2, WORD_03fc               @ LDR         R2, [PC, #396]              @ 0x00000000000003fc 
    /*0000026c*/ MOV         R1, #4 
    /*00000270*/ LDR         R0, WORD_0400               @ LDR         R0, [PC, #392]              @ 0x0000000000000400 
    /*00000274*/ LDR         R3, [SP, #20] 
    /*00000278*/ ADD         R2, PC, R2 
    /*0000027c*/ ADD         R0, PC, R0 
    /*00000280*/ BL          _Z15HIRT_LOG_PrintfPKc19tagHIRT_LOG_LEVEL_ES0_z
    _ZL16HIRT_SET_COP_FUNPN4hirt16OperationOfflineE_x284:
    /*00000284*/ LDR         R0, [R4, #132]              @ 0x84 
    /*00000288*/ BL          _Z18HIRT_Utils_DlclosePv
    _ZL16HIRT_SET_COP_FUNPN4hirt16OperationOfflineE_x28c:
    /*0000028c*/ MVN         SL, #0 
    /*00000290*/ B           _ZL16HIRT_SET_COP_FUNPN4hirt16OperationOfflineE_x1ec
    _ZL16HIRT_SET_COP_FUNPN4hirt16OperationOfflineE_x294:
    /*00000294*/ LDR         R2, WORD_0404               @ LDR         R2, [PC, #360]              @ 0x0000000000000404 
    /*00000298*/ MOV         R1, #4 
    /*0000029c*/ LDR         R0, WORD_0408               @ LDR         R0, [PC, #356]              @ 0x0000000000000408 
    /*000002a0*/ LDR         R3, [SP, #44]               @ 0x2c 
    /*000002a4*/ ADD         R2, PC, R2 
    /*000002a8*/ ADD         R0, PC, R0 
    /*000002ac*/ BL          _Z15HIRT_LOG_PrintfPKc19tagHIRT_LOG_LEVEL_ES0_z
    /*000002b0*/ B           _ZL16HIRT_SET_COP_FUNPN4hirt16OperationOfflineE_x284
    _ZL16HIRT_SET_COP_FUNPN4hirt16OperationOfflineE_x2b4:
    /*000002b4*/ LDR         R0, [SP, #44]               @ 0x2c 
    /*000002b8*/ CMP         R0, R7 
    /*000002bc*/ BEQ         _ZL16HIRT_SET_COP_FUNPN4hirt16OperationOfflineE_x2c4
    /*000002c0*/ BL          _ZdlPv
    _ZL16HIRT_SET_COP_FUNPN4hirt16OperationOfflineE_x2c4:
    /*000002c4*/ LDR         R0, [SP, #20] 
    /*000002c8*/ CMP         R0, R6 
    /*000002cc*/ BEQ         _ZL16HIRT_SET_COP_FUNPN4hirt16OperationOfflineE_x2d4
    /*000002d0*/ BL          _ZdlPv
    _ZL16HIRT_SET_COP_FUNPN4hirt16OperationOfflineE_x2d4:
    /*000002d4*/ BL          __cxa_end_cleanup
    _ZL16HIRT_SET_COP_FUNPN4hirt16OperationOfflineE_x2d8:
    /*000002d8*/ MOV         R0, R9 
    /*000002dc*/ B           _ZL16HIRT_SET_COP_FUNPN4hirt16OperationOfflineE_x240
    _ZL16HIRT_SET_COP_FUNPN4hirt16OperationOfflineE_x2e0:
    /*000002e0*/ LDR         R9, [R4, #156]              @ 0x9c 
    /*000002e4*/ ADD         SL, SP, #100                @ 0x64 
    /*000002e8*/ LDR         R4, [R4, #152]              @ 0x98 
    /*000002ec*/ ADD         R0, SP, #92                 @ 0x5c 
    /*000002f0*/ RSB         R3, R9, #0 
    /*000002f4*/ CLZ         R2, R4 
    /*000002f8*/ CMP         R4, R3 
    /*000002fc*/ LSR         R2, R2, #5 
    /*00000300*/ MOVEQ       R2, #0 
    /*00000304*/ STR         SL, [SP, #92]               @ 0x5c 
    /*00000308*/ CMP         R2, #0 
    /*0000030c*/ BEQ         _ZL16HIRT_SET_COP_FUNPN4hirt16OperationOfflineE_x31c
    /*00000310*/ LDR         R0, WORD_040c               @ LDR         R0, [PC, #244]              @ 0x000000000000040c 
    /*00000314*/ ADD         R0, PC, R0 
    /*00000318*/ BL          _ZSt19__throw_logic_errorPKc
    _ZL16HIRT_SET_COP_FUNPN4hirt16OperationOfflineE_x31c:
    /*0000031c*/ STR         R9, [SP, #16] 
    /*00000320*/ CMP         R9, #15 
    /*00000324*/ BHI         _ZL16HIRT_SET_COP_FUNPN4hirt16OperationOfflineE_x378
    /*00000328*/ CMP         R9, #1 
    /*0000032c*/ BEQ         _ZL16HIRT_SET_COP_FUNPN4hirt16OperationOfflineE_x3a4
    /*00000330*/ CMP         R9, #0 
    /*00000334*/ MOVEQ       R2, SL 
    /*00000338*/ BNE         _ZL16HIRT_SET_COP_FUNPN4hirt16OperationOfflineE_x3b4
    _ZL16HIRT_SET_COP_FUNPN4hirt16OperationOfflineE_x33c:
    /*0000033c*/ STR         R9, [SP, #96]               @ 0x60 
    /*00000340*/ MOV         R3, #0 
    /*00000344*/ STRB        R3, [R2, R9] 
    /*00000348*/ MOV         R1, #4 
    /*0000034c*/ LDR         R2, WORD_0410               @ LDR         R2, [PC, #188]              @ 0x0000000000000410 
    /*00000350*/ LDR         R0, WORD_0414               @ LDR         R0, [PC, #188]              @ 0x0000000000000414 
    /*00000354*/ LDR         R3, [SP, #92]               @ 0x5c 
    /*00000358*/ ADD         R2, PC, R2 
    /*0000035c*/ ADD         R0, PC, R0 
    /*00000360*/ BL          _Z15HIRT_LOG_PrintfPKc19tagHIRT_LOG_LEVEL_ES0_z
    /*00000364*/ LDR         R0, [SP, #92]               @ 0x5c 
    /*00000368*/ CMP         R0, SL 
    /*0000036c*/ BEQ         _ZL16HIRT_SET_COP_FUNPN4hirt16OperationOfflineE_x28c
    /*00000370*/ BL          _ZdlPv
    /*00000374*/ B           _ZL16HIRT_SET_COP_FUNPN4hirt16OperationOfflineE_x28c
    _ZL16HIRT_SET_COP_FUNPN4hirt16OperationOfflineE_x378:
    /*00000378*/ MOV         R1, R5 
    /*0000037c*/ BL          _ZNSt7__cxx1112basic_stringIcSt11char_traitsIcESaIcEE9_M_createERjj
    /*00000380*/ LDR         R3, [SP, #16] 
    /*00000384*/ STR         R0, [SP, #92]               @ 0x5c 
    /*00000388*/ STR         R3, [SP, #100]              @ 0x64 
    _ZL16HIRT_SET_COP_FUNPN4hirt16OperationOfflineE_x38c:
    /*0000038c*/ MOV         R2, R9 
    /*00000390*/ MOV         R1, R4 
    /*00000394*/ BL          memcpy
    /*00000398*/ LDR         R9, [SP, #16] 
    /*0000039c*/ LDR         R2, [SP, #92]               @ 0x5c 
    /*000003a0*/ B           _ZL16HIRT_SET_COP_FUNPN4hirt16OperationOfflineE_x33c
    _ZL16HIRT_SET_COP_FUNPN4hirt16OperationOfflineE_x3a4:
    /*000003a4*/ LDRB        R3, [R4] 
    /*000003a8*/ MOV         R2, SL 
    /*000003ac*/ STRB        R3, [SP, #100]              @ 0x64 
    /*000003b0*/ B           _ZL16HIRT_SET_COP_FUNPN4hirt16OperationOfflineE_x33c
    _ZL16HIRT_SET_COP_FUNPN4hirt16OperationOfflineE_x3b4:
    /*000003b4*/ MOV         R0, SL 
    /*000003b8*/ B           _ZL16HIRT_SET_COP_FUNPN4hirt16OperationOfflineE_x38c
    _ZL16HIRT_SET_COP_FUNPN4hirt16OperationOfflineE_x3bc:
    /*000003bc*/ BL          __stack_chk_fail
    /*000003c0*/ LDR         R0, [SP, #68]               @ 0x44 
    /*000003c4*/ CMP         R0, R9 
    /*000003c8*/ BEQ         _ZL16HIRT_SET_COP_FUNPN4hirt16OperationOfflineE_x2b4
    _ZL16HIRT_SET_COP_FUNPN4hirt16OperationOfflineE_x3cc:
    /*000003cc*/ BL          _ZdlPv
    /*000003d0*/ B           _ZL16HIRT_SET_COP_FUNPN4hirt16OperationOfflineE_x2b4
    /*000003d4*/ B           _ZL16HIRT_SET_COP_FUNPN4hirt16OperationOfflineE_x2c4
    /*000003d8*/ LDR         R0, [SP, #92]               @ 0x5c 
    /*000003dc*/ CMP         R0, SL 
    /*000003e0*/ BNE         _ZL16HIRT_SET_COP_FUNPN4hirt16OperationOfflineE_x3cc
    /*000003e4*/ B           _ZL16HIRT_SET_COP_FUNPN4hirt16OperationOfflineE_x2b4
    /*000003e8*/ WORD_03e8: .word 0x000003c0
    /*000003ec*/ WORD_03ec: .word 0x00000000
    /*000003f0*/ WORD_03f0: .word 0x0000037c
    /*000003f4*/ WORD_03f4: .word 0x00000318
    /*000003f8*/ WORD_03f8: .word 0x000002a4
    /*000003fc*/ WORD_03fc: .word 0x0000017c
    /*00000400*/ WORD_0400: .word 0x0000017c
    /*00000404*/ WORD_0404: .word 0x00000158
    /*00000408*/ WORD_0408: .word 0x00000158
    /*0000040c*/ WORD_040c: .word 0x000000f0
    /*00000410*/ WORD_0410: .word 0x000000b0
    /*00000414*/ WORD_0414: .word 0x000000b0
FUNC_END _ZL16HIRT_SET_COP_FUNPN4hirt16OperationOfflineE


@ - - - - - - - - - - - - - - - - - - - - - - - - - - - - - 
@ .ARM.extab.text._ZL16HIRT_SET_COP_FUNPN4hirt16OperationOfflineE
@ Size: 0x40
@ - - - - - - - - - - - - - - - - - - - - - - - - - - - - - 

@ - - - - - - - - - - - - - - - - - - - - - - - - - - - - - 
@ .text._ZN4hirt11ModelLoaderC2Ev
@ Size: 0x18
@ - - - - - - - - - - - - - - - - - - - - - - - - - - - - - 

FUNC_BEGIN _ZN4hirt11ModelLoaderC2Ev
    /*00000000*/ LDR         R3, WORD_0014               @ LDR         R3, [PC, #12]               @ 0x0000000000000014 
    /*00000004*/ ADD         R3, PC, R3 
    /*00000008*/ ADD         R3, R3, #8 
    /*0000000c*/ STR         R3, [R0] 
    /*00000010*/ BX          LR 
    /*00000014*/ WORD_0014: .word 0x00000008
FUNC_END _ZN4hirt11ModelLoaderC2Ev


FUNC_BEGIN _ZN4hirt11ModelLoaderC1Ev
    /*00000000*/ LDR         R3, WORD_0014               @ LDR         R3, [PC, #12]               @ 0x0000000000000014 
    /*00000004*/ ADD         R3, PC, R3 
    /*00000008*/ ADD         R3, R3, #8 
    /*0000000c*/ STR         R3, [R0] 
    /*00000010*/ BX          LR 
    /*00000014*/ WORD_0014: .word 0x00000008
FUNC_END _ZN4hirt11ModelLoaderC1Ev


@ - - - - - - - - - - - - - - - - - - - - - - - - - - - - - 
@ .text._ZN4hirt13WKModelLoaderC2Ev
@ Size: 0x18
@ - - - - - - - - - - - - - - - - - - - - - - - - - - - - - 

FUNC_BEGIN _ZN4hirt13WKModelLoaderC2Ev
    /*00000000*/ LDR         R3, WORD_0014               @ LDR         R3, [PC, #12]               @ 0x0000000000000014 
    /*00000004*/ ADD         R3, PC, R3 
    /*00000008*/ ADD         R3, R3, #8 
    /*0000000c*/ STR         R3, [R0] 
    /*00000010*/ BX          LR 
    /*00000014*/ WORD_0014: .word 0x00000008
FUNC_END _ZN4hirt13WKModelLoaderC2Ev


FUNC_BEGIN _ZN4hirt13WKModelLoaderC1Ev
    /*00000000*/ LDR         R3, WORD_0014               @ LDR         R3, [PC, #12]               @ 0x0000000000000014 
    /*00000004*/ ADD         R3, PC, R3 
    /*00000008*/ ADD         R3, R3, #8 
    /*0000000c*/ STR         R3, [R0] 
    /*00000010*/ BX          LR 
    /*00000014*/ WORD_0014: .word 0x00000008
FUNC_END _ZN4hirt13WKModelLoaderC1Ev


@ - - - - - - - - - - - - - - - - - - - - - - - - - - - - - 
@ .text._ZN4hirt13WKModelLoader11parseNnieWKERK15hiRUNTIME_MEM_SP18hiSVP_NNIE_MODEL_SPj
@ Size: 0x198
@ - - - - - - - - - - - - - - - - - - - - - - - - - - - - - 

FUNC_BEGIN _ZN4hirt13WKModelLoader11parseNnieWKERK15hiRUNTIME_MEM_SP18hiSVP_NNIE_MODEL_SPj
    /*00000000*/ MOV         IP, #16384                  @ 0x4000 
    /*00000004*/ PUSH        {R4, R5, R6, R7, R8, R9, LR} 
    /*00000008*/ SUB         IP, SP, IP 
    /*0000000c*/ STR         R0, [IP, #3960]             @ 0xf78 
    /*00000010*/ LDR         R0, WORD_016c               @ LDR         R0, [PC, #340]              @ 0x000000000000016c 
    /*00000014*/ MOV         R4, R1 
    /*00000018*/ LDR         R1, WORD_0170               @ LDR         R1, [PC, #336]              @ 0x0000000000000170 
    /*0000001c*/ SUB         SP, SP, #108                @ 0x6c 
    /*00000020*/ ADD         R0, PC, R0 
    /*00000024*/ MOV         R5, R3 
    /*00000028*/ VLD1.64     {D18-D19}, [R4 :64] 
    /*0000002c*/ LDR         R6, [R0, R1] 
    /*00000030*/ MOV         R3, R0 
    /*00000034*/ VMOV.I32    Q8, #0                      @ 0x00000000 
    /*00000038*/ LDR         R1, [R6] 
    /*0000003c*/ MOV         R3, #64                     @ 0x40 
    /*00000040*/ LDR         R9, [R4, #8] 
    /*00000044*/ ADD         R7, SP, #8 
    /*00000048*/ LDR         IP, [R4, #16] 
    /*0000004c*/ MOV         R8, R2 
    /*00000050*/ STR         R1, [SP, #100]              @ 0x64 
    /*00000054*/ MOV         R2, R9 
    /*00000058*/ MOV         R1, R3 
    /*0000005c*/ ADD         R0, SP, #36                 @ 0x24 
    /*00000060*/ VSTR        D16, [R7, #16] 
    /*00000064*/ VSTR        D18, [SP, #8] 
    /*00000068*/ VSTR        D19, [SP, #16] 
    /*0000006c*/ STR         IP, [SP, #24] 
    /*00000070*/ BL          memcpy_s
    /*00000074*/ CMP         R0, #0 
    /*00000078*/ BNE         _ZN4hirt13WKModelLoader11parseNnieWKERK15hiRUNTIME_MEM_SP18hiSVP_NNIE_MODEL_SPj_xf0
    /*0000007c*/ LDR         R2, [SP, #88]               @ 0x58 
    /*00000080*/ LDR         R1, [SP, #92]               @ 0x5c 
    /*00000084*/ LDR         R3, [R9, #180]              @ 0xb4 
    /*00000088*/ ADD         R2, R2, R1 
    /*0000008c*/ ADD         R2, R2, R3 
    /*00000090*/ STR         R2, [R5] 
    /*00000094*/ LDR         R3, [R4, #16] 
    /*00000098*/ CMP         R3, R2 
    /*0000009c*/ BLS         _ZN4hirt13WKModelLoader11parseNnieWKERK15hiRUNTIME_MEM_SP18hiSVP_NNIE_MODEL_SPj_xcc
    /*000000a0*/ MOV         R1, R8 
    /*000000a4*/ MOV         R0, R7 
    /*000000a8*/ BL          HI_MPI_SVP_NNIE_LoadModel
    /*000000ac*/ CMP         R0, #0 
    /*000000b0*/ BNE         _ZN4hirt13WKModelLoader11parseNnieWKERK15hiRUNTIME_MEM_SP18hiSVP_NNIE_MODEL_SPj_x144
    _ZN4hirt13WKModelLoader11parseNnieWKERK15hiRUNTIME_MEM_SP18hiSVP_NNIE_MODEL_SPj_xb4:
    /*000000b4*/ LDR         R2, [SP, #100]              @ 0x64 
    /*000000b8*/ LDR         R3, [R6] 
    /*000000bc*/ CMP         R2, R3 
    /*000000c0*/ BNE         _ZN4hirt13WKModelLoader11parseNnieWKERK15hiRUNTIME_MEM_SP18hiSVP_NNIE_MODEL_SPj_x168
    /*000000c4*/ ADD         SP, SP, #108                @ 0x6c 
    /*000000c8*/ POP         {R4, R5, R6, R7, R8, R9, PC} 
    _ZN4hirt13WKModelLoader11parseNnieWKERK15hiRUNTIME_MEM_SP18hiSVP_NNIE_MODEL_SPj_xcc:
    /*000000cc*/ STR         R2, [SP] 
    /*000000d0*/ MOV         R1, #4 
    /*000000d4*/ LDR         R2, WORD_0174               @ LDR         R2, [PC, #152]              @ 0x0000000000000174 
    /*000000d8*/ LDR         R0, WORD_0178               @ LDR         R0, [PC, #152]              @ 0x0000000000000178 
    /*000000dc*/ ADD         R2, PC, R2 
    /*000000e0*/ ADD         R0, PC, R0 
    /*000000e4*/ BL          _Z15HIRT_LOG_PrintfPKc19tagHIRT_LOG_LEVEL_ES0_z
    /*000000e8*/ MVN         R0, #0 
    /*000000ec*/ B           _ZN4hirt13WKModelLoader11parseNnieWKERK15hiRUNTIME_MEM_SP18hiSVP_NNIE_MODEL_SPj_xb4
    _ZN4hirt13WKModelLoader11parseNnieWKERK15hiRUNTIME_MEM_SP18hiSVP_NNIE_MODEL_SPj_xf0:
    /*000000f0*/ LDR         R5, WORD_017c               @ LDR         R5, [PC, #132]              @ 0x000000000000017c 
    /*000000f4*/ MOV         R1, #4 
    /*000000f8*/ LDR         R3, WORD_0180               @ LDR         R3, [PC, #128]              @ 0x0000000000000180 
    /*000000fc*/ MVN         R4, #0 
    /*00000100*/ LDR         R2, WORD_0184               @ LDR         R2, [PC, #124]              @ 0x0000000000000184 
    /*00000104*/ ADD         R5, PC, R5 
    /*00000108*/ STR         R0, [SP] 
    /*0000010c*/ MOV         R0, R5 
    /*00000110*/ ADD         R3, PC, R3 
    /*00000114*/ ADD         R2, PC, R2 
    /*00000118*/ BL          _Z15HIRT_LOG_PrintfPKc19tagHIRT_LOG_LEVEL_ES0_z
    /*0000011c*/ LDR         R3, WORD_0188               @ LDR         R3, [PC, #100]              @ 0x0000000000000188 
    /*00000120*/ MOV         R0, R5 
    /*00000124*/ LDR         R2, WORD_018c               @ LDR         R2, [PC, #96]               @ 0x000000000000018c 
    /*00000128*/ MOV         R1, #4 
    /*0000012c*/ STR         R4, [SP] 
    /*00000130*/ ADD         R3, PC, R3 
    /*00000134*/ ADD         R2, PC, R2 
    /*00000138*/ BL          _Z15HIRT_LOG_PrintfPKc19tagHIRT_LOG_LEVEL_ES0_z
    /*0000013c*/ MOV         R0, R4 
    /*00000140*/ B           _ZN4hirt13WKModelLoader11parseNnieWKERK15hiRUNTIME_MEM_SP18hiSVP_NNIE_MODEL_SPj_xb4
    _ZN4hirt13WKModelLoader11parseNnieWKERK15hiRUNTIME_MEM_SP18hiSVP_NNIE_MODEL_SPj_x144:
    /*00000144*/ LDR         R2, WORD_0190               @ LDR         R2, [PC, #68]               @ 0x0000000000000190 
    /*00000148*/ MOV         R1, #4 
    /*0000014c*/ LDR         R0, WORD_0194               @ LDR         R0, [PC, #64]               @ 0x0000000000000194 
    /*00000150*/ ADD         R2, PC, R2 
    /*00000154*/ ADD         R0, PC, R0 
    /*00000158*/ BL          _Z15HIRT_LOG_PrintfPKc19tagHIRT_LOG_LEVEL_ES0_z
    /*0000015c*/ MOVW        R0, #3845                   @ 0xf05 
    /*00000160*/ MOVT        R0, #65280                  @ 0xff00 
    /*00000164*/ B           _ZN4hirt13WKModelLoader11parseNnieWKERK15hiRUNTIME_MEM_SP18hiSVP_NNIE_MODEL_SPj_xb4
    _ZN4hirt13WKModelLoader11parseNnieWKERK15hiRUNTIME_MEM_SP18hiSVP_NNIE_MODEL_SPj_x168:
    /*00000168*/ BL          __stack_chk_fail
    /*0000016c*/ WORD_016c: .word 0x00000144
    /*00000170*/ WORD_0170: .word 0x00000000
    /*00000174*/ WORD_0174: .word 0x00000090
    /*00000178*/ WORD_0178: .word 0x00000090
    /*0000017c*/ WORD_017c: .word 0x00000070
    /*00000180*/ WORD_0180: .word 0x00000068
    /*00000184*/ WORD_0184: .word 0x00000068
    /*00000188*/ WORD_0188: .word 0x00000050
    /*0000018c*/ WORD_018c: .word 0x00000050
    /*00000190*/ WORD_0190: .word 0x00000038
    /*00000194*/ WORD_0194: .word 0x00000038
FUNC_END _ZN4hirt13WKModelLoader11parseNnieWKERK15hiRUNTIME_MEM_SP18hiSVP_NNIE_MODEL_SPj


@ - - - - - - - - - - - - - - - - - - - - - - - - - - - - - 
@ .text._ZN4hirt13WKModelLoader25checkExtendWKNetHeadParamEPKhj
@ Size: 0x158
@ - - - - - - - - - - - - - - - - - - - - - - - - - - - - - 

FUNC_BEGIN _ZN4hirt13WKModelLoader25checkExtendWKNetHeadParamEPKhj
    /*00000000*/ MOV         IP, #16384                  @ 0x4000 
    /*00000004*/ PUSH        {R4, R5, LR} 
    /*00000008*/ SUB         IP, SP, IP 
    /*0000000c*/ STR         R0, [IP, #4072]             @ 0xfe8 
    /*00000010*/ LDRB        R3, [R1, #32] 
    /*00000014*/ SUB         SP, SP, #12 
    /*00000018*/ CMP         R3, #1 
    /*0000001c*/ BGT         _ZN4hirt13WKModelLoader25checkExtendWKNetHeadParamEPKhj_xa0
    /*00000020*/ LDR         R3, [R1, #36]               @ 0x24 
    /*00000024*/ MOV         R5, R1 
    /*00000028*/ LDR         R1, [R1, #40]               @ 0x28 
    /*0000002c*/ ADD         R3, R3, R1 
    /*00000030*/ SUB         R3, R3, #4 
    /*00000034*/ CMP         R3, R2 
    /*00000038*/ BHI         _ZN4hirt13WKModelLoader25checkExtendWKNetHeadParamEPKhj_x10c
    /*0000003c*/ ADDS        R4, R5, #4 
    /*00000040*/ BEQ         _ZN4hirt13WKModelLoader25checkExtendWKNetHeadParamEPKhj_xcc
    /*00000044*/ CMP         R2, #4 
    /*00000048*/ BEQ         _ZN4hirt13WKModelLoader25checkExtendWKNetHeadParamEPKhj_x98
    /*0000004c*/ LDR         R3, WORD_0134               @ LDR         R3, [PC, #224]              @ 0x0000000000000134 
    /*00000050*/ MOV         IP, R4 
    /*00000054*/ ADD         R2, R5, R2 
    /*00000058*/ MVN         R0, #0 
    /*0000005c*/ ADD         R3, PC, R3 
    _ZN4hirt13WKModelLoader25checkExtendWKNetHeadParamEPKhj_x60:
    /*00000060*/ LDRB        R1, [IP], #1 
    /*00000064*/ UXTB        LR, R0 
    /*00000068*/ EOR         R1, R1, LR 
    /*0000006c*/ CMP         R2, IP 
    /*00000070*/ LDR         R1, [R3, R1, LSL #2] 
    /*00000074*/ EOR         R0, R1, R0, LSR #8 
    /*00000078*/ BNE         _ZN4hirt13WKModelLoader25checkExtendWKNetHeadParamEPKhj_x60
    /*0000007c*/ MVN         R0, R0 
    _ZN4hirt13WKModelLoader25checkExtendWKNetHeadParamEPKhj_x80:
    /*00000080*/ LDR         R3, [R5] 
    /*00000084*/ CMP         R3, R0 
    /*00000088*/ MOVEQ       R0, #0 
    /*0000008c*/ BNE         _ZN4hirt13WKModelLoader25checkExtendWKNetHeadParamEPKhj_xec
    _ZN4hirt13WKModelLoader25checkExtendWKNetHeadParamEPKhj_x90:
    /*00000090*/ ADD         SP, SP, #12 
    /*00000094*/ POP         {R4, R5, PC} 
    _ZN4hirt13WKModelLoader25checkExtendWKNetHeadParamEPKhj_x98:
    /*00000098*/ MOV         R0, #0 
    /*0000009c*/ B           _ZN4hirt13WKModelLoader25checkExtendWKNetHeadParamEPKhj_x80
    _ZN4hirt13WKModelLoader25checkExtendWKNetHeadParamEPKhj_xa0:
    /*000000a0*/ LDR         R2, WORD_0138               @ LDR         R2, [PC, #144]              @ 0x0000000000000138 
    /*000000a4*/ MOV         R3, #2 
    /*000000a8*/ LDR         R0, WORD_013c               @ LDR         R0, [PC, #140]              @ 0x000000000000013c 
    /*000000ac*/ MOV         R1, #4 
    /*000000b0*/ STR         R3, [SP] 
    /*000000b4*/ MOV         R3, #0 
    /*000000b8*/ ADD         R2, PC, R2 
    /*000000bc*/ ADD         R0, PC, R0 
    /*000000c0*/ BL          _Z15HIRT_LOG_PrintfPKc19tagHIRT_LOG_LEVEL_ES0_z
    /*000000c4*/ MVN         R0, #0 
    /*000000c8*/ B           _ZN4hirt13WKModelLoader25checkExtendWKNetHeadParamEPKhj_x90
    _ZN4hirt13WKModelLoader25checkExtendWKNetHeadParamEPKhj_xcc:
    /*000000cc*/ LDR         R2, WORD_0140               @ LDR         R2, [PC, #108]              @ 0x0000000000000140 
    /*000000d0*/ MOV         R1, #4 
    /*000000d4*/ LDR         R0, WORD_0144               @ LDR         R0, [PC, #104]              @ 0x0000000000000144 
    /*000000d8*/ ADD         R2, PC, R2 
    /*000000dc*/ ADD         R0, PC, R0 
    /*000000e0*/ BL          _Z15HIRT_LOG_PrintfPKc19tagHIRT_LOG_LEVEL_ES0_z
    /*000000e4*/ MOV         R0, R4 
    /*000000e8*/ B           _ZN4hirt13WKModelLoader25checkExtendWKNetHeadParamEPKhj_x80
    _ZN4hirt13WKModelLoader25checkExtendWKNetHeadParamEPKhj_xec:
    /*000000ec*/ LDR         R2, WORD_0148               @ LDR         R2, [PC, #84]               @ 0x0000000000000148 
    /*000000f0*/ MOV         R1, #4 
    /*000000f4*/ LDR         R0, WORD_014c               @ LDR         R0, [PC, #80]               @ 0x000000000000014c 
    /*000000f8*/ ADD         R2, PC, R2 
    /*000000fc*/ ADD         R0, PC, R0 
    /*00000100*/ BL          _Z15HIRT_LOG_PrintfPKc19tagHIRT_LOG_LEVEL_ES0_z
    /*00000104*/ MVN         R0, #0 
    /*00000108*/ B           _ZN4hirt13WKModelLoader25checkExtendWKNetHeadParamEPKhj_x90
    _ZN4hirt13WKModelLoader25checkExtendWKNetHeadParamEPKhj_x10c:
    /*0000010c*/ STR         R3, [SP] 
    /*00000110*/ MOV         R3, R2 
    /*00000114*/ LDR         R0, WORD_0150               @ LDR         R0, [PC, #52]               @ 0x0000000000000150 
    /*00000118*/ MOV         R1, #4 
    /*0000011c*/ LDR         R2, WORD_0154               @ LDR         R2, [PC, #48]               @ 0x0000000000000154 
    /*00000120*/ ADD         R0, PC, R0 
    /*00000124*/ ADD         R2, PC, R2 
    /*00000128*/ BL          _Z15HIRT_LOG_PrintfPKc19tagHIRT_LOG_LEVEL_ES0_z
    /*0000012c*/ MVN         R0, #0 
    /*00000130*/ B           _ZN4hirt13WKModelLoader25checkExtendWKNetHeadParamEPKhj_x90
    /*00000134*/ WORD_0134: .word 0x000000d0
    /*00000138*/ WORD_0138: .word 0x00000078
    /*0000013c*/ WORD_013c: .word 0x00000078
    /*00000140*/ WORD_0140: .word 0x00000060
    /*00000144*/ WORD_0144: .word 0x00000060
    /*00000148*/ WORD_0148: .word 0x00000048
    /*0000014c*/ WORD_014c: .word 0x00000048
    /*00000150*/ WORD_0150: .word 0x00000028
    /*00000154*/ WORD_0154: .word 0x00000028
FUNC_END _ZN4hirt13WKModelLoader25checkExtendWKNetHeadParamEPKhj


@ - - - - - - - - - - - - - - - - - - - - - - - - - - - - - 
@ .text._ZN4hirt13WKModelLoader18genGraphExceptOptsERK26hiRUNTIME_OFF_MODEL_HEAD_SRPNS_12GraphOfflineE
@ Size: 0x160
@ - - - - - - - - - - - - - - - - - - - - - - - - - - - - - 

FUNC_BEGIN _ZN4hirt13WKModelLoader18genGraphExceptOptsERK26hiRUNTIME_OFF_MODEL_HEAD_SRPNS_12GraphOfflineE
    /*00000000*/ MOV         IP, #16384                  @ 0x4000 
    /*00000004*/ PUSH        {R4, R5, R6, R7, R8, R9, LR} 
    /*00000008*/ SUB         IP, SP, IP 
    /*0000000c*/ STR         R0, [IP, #4008]             @ 0xfa8 
    /*00000010*/ LDR         R3, WORD_0158               @ LDR         R3, [PC, #320]              @ 0x0000000000000158 
    /*00000014*/ MOV         R4, R1 
    /*00000018*/ LDR         R1, WORD_015c               @ LDR         R1, [PC, #316]              @ 0x000000000000015c 
    /*0000001c*/ SUB         SP, SP, #60                 @ 0x3c 
    /*00000020*/ ADD         R3, PC, R3 
    /*00000024*/ MOV         IP, #0 
    /*00000028*/ VMOV.I32    Q8, #0                      @ 0x00000000 
    /*0000002c*/ LDR         R7, [R3, R1] 
    /*00000030*/ ADD         R6, SP, #36                 @ 0x24 
    /*00000034*/ LDRB        R8, [R4, #35]               @ 0x23 
    /*00000038*/ MOV         R5, R2 
    /*0000003c*/ LDR         R3, [R7] 
    /*00000040*/ LDR         R0, [R4, #48]               @ 0x30 
    /*00000044*/ CMP         R8, #1 
    /*00000048*/ LDR         R1, [R4, #12] 
    /*0000004c*/ LDRB        LR, [R4, #34]               @ 0x22 
    /*00000050*/ VST1.8      {D16-D17}, [SP :64] 
    /*00000054*/ VSTR        D16, [SP, #32] 
    /*00000058*/ VSTR        D16, [SP, #40]              @ 0x28 
    /*0000005c*/ STR         R3, [SP, #52]               @ 0x34 
    /*00000060*/ STR         R0, [SP] 
    /*00000064*/ STR         R1, [SP, #4] 
    /*00000068*/ VSTR        D16, [SP, #44]              @ 0x2c 
    /*0000006c*/ STR         LR, [SP, #20] 
    /*00000070*/ STR         R6, [SP, #28] 
    /*00000074*/ STR         IP, [SP, #32] 
    /*00000078*/ STRB        IP, [SP, #36]               @ 0x24 
    /*0000007c*/ BEQ         _ZN4hirt13WKModelLoader18genGraphExceptOptsERK26hiRUNTIME_OFF_MODEL_HEAD_SRPNS_12GraphOfflineE_x130
    /*00000080*/ CMP         R8, #2 
    /*00000084*/ MOVNE       R8, IP 
    /*00000088*/ MOVEQ       R9, IP 
    /*0000008c*/ LDRHEQ      R8, [R4, #54]               @ 0x36 
    /*00000090*/ MOVNE       R9, R8 
    /*00000094*/ STREQ       R8, [SP, #12] 
    _ZN4hirt13WKModelLoader18genGraphExceptOptsERK26hiRUNTIME_OFF_MODEL_HEAD_SRPNS_12GraphOfflineE_x98:
    /*00000098*/ LDRB        R2, [R4, #32] 
    /*0000009c*/ MOV         IP, #1 
    /*000000a0*/ LDR         R3, [R5] 
    /*000000a4*/ CLZ         R2, R2 
    /*000000a8*/ STR         R0, [R3, #88]               @ 0x58 
    /*000000ac*/ ADD         R0, R3, #116                @ 0x74 
    /*000000b0*/ LSR         R2, R2, #5 
    /*000000b4*/ STR         R1, [R3, #92]               @ 0x5c 
    /*000000b8*/ ADD         R1, SP, #28 
    /*000000bc*/ STR         R2, [R3, #104]              @ 0x68 
    /*000000c0*/ STR         R9, [R3, #96]               @ 0x60 
    /*000000c4*/ STR         R8, [R3, #100]              @ 0x64 
    /*000000c8*/ STR         LR, [R3, #108]              @ 0x6c 
    /*000000cc*/ STR         IP, [R3, #112]              @ 0x70 
    /*000000d0*/ STR         R2, [SP, #16] 
    /*000000d4*/ STR         IP, [SP, #24] 
    /*000000d8*/ BL          _ZNSt7__cxx1112basic_stringIcSt11char_traitsIcESaIcEE9_M_assignERKS4_
    /*000000dc*/ LDR         R3, [R5] 
    /*000000e0*/ LDR         R2, [R4, #64]               @ 0x40 
    /*000000e4*/ LDR         R0, [SP, #28] 
    /*000000e8*/ STR         R2, [R3, #144]              @ 0x90 
    /*000000ec*/ LDR         R2, [R4, #68]               @ 0x44 
    /*000000f0*/ CMP         R0, R6 
    /*000000f4*/ STR         R2, [R3, #148]              @ 0x94 
    /*000000f8*/ LDRB        R2, [R4, #33]               @ 0x21 
    /*000000fc*/ STRB        R2, [R3, #140]              @ 0x8c 
    /*00000100*/ LDR         R3, [R5] 
    /*00000104*/ LDRB        R2, [R4, #35]               @ 0x23 
    /*00000108*/ STR         R2, [R3, #152]              @ 0x98 
    /*0000010c*/ BEQ         _ZN4hirt13WKModelLoader18genGraphExceptOptsERK26hiRUNTIME_OFF_MODEL_HEAD_SRPNS_12GraphOfflineE_x114
    /*00000110*/ BL          _ZdlPv
    _ZN4hirt13WKModelLoader18genGraphExceptOptsERK26hiRUNTIME_OFF_MODEL_HEAD_SRPNS_12GraphOfflineE_x114:
    /*00000114*/ LDR         R2, [SP, #52]               @ 0x34 
    /*00000118*/ MOV         R0, #0 
    /*0000011c*/ LDR         R3, [R7] 
    /*00000120*/ CMP         R2, R3 
    /*00000124*/ BNE         _ZN4hirt13WKModelLoader18genGraphExceptOptsERK26hiRUNTIME_OFF_MODEL_HEAD_SRPNS_12GraphOfflineE_x140
    /*00000128*/ ADD         SP, SP, #60                 @ 0x3c 
    /*0000012c*/ POP         {R4, R5, R6, R7, R8, R9, PC} 
    _ZN4hirt13WKModelLoader18genGraphExceptOptsERK26hiRUNTIME_OFF_MODEL_HEAD_SRPNS_12GraphOfflineE_x130:
    /*00000130*/ LDR         R9, [R4, #56]               @ 0x38 
    /*00000134*/ MOV         R8, IP 
    /*00000138*/ STR         R9, [SP, #8] 
    /*0000013c*/ B           _ZN4hirt13WKModelLoader18genGraphExceptOptsERK26hiRUNTIME_OFF_MODEL_HEAD_SRPNS_12GraphOfflineE_x98
    _ZN4hirt13WKModelLoader18genGraphExceptOptsERK26hiRUNTIME_OFF_MODEL_HEAD_SRPNS_12GraphOfflineE_x140:
    /*00000140*/ BL          __stack_chk_fail
    /*00000144*/ LDR         R0, [SP, #28] 
    /*00000148*/ CMP         R0, R6 
    /*0000014c*/ BEQ         _ZN4hirt13WKModelLoader18genGraphExceptOptsERK26hiRUNTIME_OFF_MODEL_HEAD_SRPNS_12GraphOfflineE_x154
    /*00000150*/ BL          _ZdlPv
    _ZN4hirt13WKModelLoader18genGraphExceptOptsERK26hiRUNTIME_OFF_MODEL_HEAD_SRPNS_12GraphOfflineE_x154:
    /*00000154*/ BL          __cxa_end_cleanup
    /*00000158*/ WORD_0158: .word 0x00000130
    /*0000015c*/ WORD_015c: .word 0x00000000
FUNC_END _ZN4hirt13WKModelLoader18genGraphExceptOptsERK26hiRUNTIME_OFF_MODEL_HEAD_SRPNS_12GraphOfflineE


@ - - - - - - - - - - - - - - - - - - - - - - - - - - - - - 
@ .ARM.extab.text._ZN4hirt13WKModelLoader18genGraphExceptOptsERK26hiRUNTIME_OFF_MODEL_HEAD_SRPNS_12GraphOfflineE
@ Size: 0x17
@ - - - - - - - - - - - - - - - - - - - - - - - - - - - - - 

@ - - - - - - - - - - - - - - - - - - - - - - - - - - - - - 
@ .text._ZN4hirt13WKModelLoader19genOneOptExceptOpdsERK26hiRUNTIME_NODE_COMM_INFO_SPPhS4_RPNS_16OperationOfflineE
@ Size: 0x780
@ - - - - - - - - - - - - - - - - - - - - - - - - - - - - - 

FUNC_BEGIN _ZN4hirt13WKModelLoader19genOneOptExceptOpdsERK26hiRUNTIME_NODE_COMM_INFO_SPPhS4_RPNS_16OperationOfflineE
    /*00000000*/ MOV         IP, #16384                  @ 0x4000 
    /*00000004*/ PUSH        {R4, R5, R6, R7, R8, R9, SL, FP, LR} 
    /*00000008*/ SUB         IP, SP, IP 
    /*0000000c*/ STR         R0, [IP, #3704]             @ 0xe78 
    /*00000010*/ LDR         R6, WORD_0720               @ LDR         R6, [PC, #1800]             @ 0x0000000000000720 
    /*00000014*/ SUB         SP, SP, #356                @ 0x164 
    /*00000018*/ LDR         R0, WORD_0724               @ LDR         R0, [PC, #1796]             @ 0x0000000000000724 
    /*0000001c*/ MOV         R5, R1 
    /*00000020*/ ADD         R6, PC, R6 
    /*00000024*/ ADD         R9, SP, #188                @ 0xbc 
    /*00000028*/ LDR         R7, [SP, #392]              @ 0x188 
    /*0000002c*/ MOV         R4, R2 
    /*00000030*/ LDR         R8, [R6, R0] 
    /*00000034*/ MOV         R2, #160                    @ 0xa0 
    /*00000038*/ MOV         R0, R9 
    /*0000003c*/ ADD         FP, SP, #44                 @ 0x2c 
    /*00000040*/ LDR         R1, [R8] 
    /*00000044*/ MOV         SL, R3 
    /*00000048*/ STR         R1, [SP, #348]              @ 0x15c 
    /*0000004c*/ MOV         R1, #0 
    /*00000050*/ BL          memset
    /*00000054*/ MOV         R0, FP 
    /*00000058*/ MOV         R2, #144                    @ 0x90 
    /*0000005c*/ MOV         R1, #0 
    /*00000060*/ BL          memset
    /*00000064*/ LDRB        R3, [R5] 
    /*00000068*/ CMP         R3, #2 
    /*0000006c*/ BEQ         _ZN4hirt13WKModelLoader19genOneOptExceptOpdsERK26hiRUNTIME_NODE_COMM_INFO_SPPhS4_RPNS_16OperationOfflineE_x298
    /*00000070*/ CMP         R3, #3 
    /*00000074*/ BEQ         _ZN4hirt13WKModelLoader19genOneOptExceptOpdsERK26hiRUNTIME_NODE_COMM_INFO_SPPhS4_RPNS_16OperationOfflineE_x168
    /*00000078*/ CMP         R3, #1 
    /*0000007c*/ BEQ         _ZN4hirt13WKModelLoader19genOneOptExceptOpdsERK26hiRUNTIME_NODE_COMM_INFO_SPPhS4_RPNS_16OperationOfflineE_xb4
    /*00000080*/ LDR         R2, WORD_0728               @ LDR         R2, [PC, #1696]             @ 0x0000000000000728 
    /*00000084*/ MOV         R1, #4 
    /*00000088*/ LDR         R0, WORD_072c               @ LDR         R0, [PC, #1692]             @ 0x000000000000072c 
    /*0000008c*/ ADD         R2, PC, R2 
    /*00000090*/ ADD         R0, PC, R0 
    /*00000094*/ BL          _Z15HIRT_LOG_PrintfPKc19tagHIRT_LOG_LEVEL_ES0_z
    _ZN4hirt13WKModelLoader19genOneOptExceptOpdsERK26hiRUNTIME_NODE_COMM_INFO_SPPhS4_RPNS_16OperationOfflineE_x98:
    /*00000098*/ MVN         R0, #0 
    _ZN4hirt13WKModelLoader19genOneOptExceptOpdsERK26hiRUNTIME_NODE_COMM_INFO_SPPhS4_RPNS_16OperationOfflineE_x9c:
    /*0000009c*/ LDR         R2, [SP, #348]              @ 0x15c 
    /*000000a0*/ LDR         R3, [R8] 
    /*000000a4*/ CMP         R2, R3 
    /*000000a8*/ BNE         _ZN4hirt13WKModelLoader19genOneOptExceptOpdsERK26hiRUNTIME_NODE_COMM_INFO_SPPhS4_RPNS_16OperationOfflineE_x6c8
    /*000000ac*/ ADD         SP, SP, #356                @ 0x164 
    /*000000b0*/ POP         {R4, R5, R6, R7, R8, R9, SL, FP, PC} 
    _ZN4hirt13WKModelLoader19genOneOptExceptOpdsERK26hiRUNTIME_NODE_COMM_INFO_SPPhS4_RPNS_16OperationOfflineE_xb4:
    /*000000b4*/ ADD         SL, SL, #80                 @ 0x50 
    /*000000b8*/ ADD         R9, R5, #16 
    /*000000bc*/ STR         SL, [R4] 
    /*000000c0*/ MOV         R0, R9 
    /*000000c4*/ ADD         R4, SP, #28 
    /*000000c8*/ ADD         FP, SP, #20 
    /*000000cc*/ STR         R4, [SP, #20] 
    /*000000d0*/ BL          strlen
    /*000000d4*/ STR         R0, [SP, #16] 
    /*000000d8*/ CMP         R0, #15 
    /*000000dc*/ MOV         SL, R0 
    /*000000e0*/ BHI         _ZN4hirt13WKModelLoader19genOneOptExceptOpdsERK26hiRUNTIME_NODE_COMM_INFO_SPPhS4_RPNS_16OperationOfflineE_x428
    /*000000e4*/ CMP         R0, #1 
    /*000000e8*/ BEQ         _ZN4hirt13WKModelLoader19genOneOptExceptOpdsERK26hiRUNTIME_NODE_COMM_INFO_SPPhS4_RPNS_16OperationOfflineE_x5e8
    /*000000ec*/ CMP         R0, #0 
    /*000000f0*/ MOVEQ       R2, R4 
    /*000000f4*/ BNE         _ZN4hirt13WKModelLoader19genOneOptExceptOpdsERK26hiRUNTIME_NODE_COMM_INFO_SPPhS4_RPNS_16OperationOfflineE_x684
    _ZN4hirt13WKModelLoader19genOneOptExceptOpdsERK26hiRUNTIME_NODE_COMM_INFO_SPPhS4_RPNS_16OperationOfflineE_xf8:
    /*000000f8*/ LDR         R3, WORD_0730               @ LDR         R3, [PC, #1584]             @ 0x0000000000000730 
    /*000000fc*/ MOV         R1, #0 
    /*00000100*/ STR         SL, [SP, #24] 
    /*00000104*/ MOV         R0, #188                    @ 0xbc 
    /*00000108*/ STRB        R1, [R2, SL] 
    /*0000010c*/ LDR         R6, [R6, R3] 
    /*00000110*/ MOV         R1, R6 
    /*00000114*/ BL          _ZnwjRKSt9nothrow_t
    /*00000118*/ SUBS        R9, R0, #0 
    /*0000011c*/ BEQ         _ZN4hirt13WKModelLoader19genOneOptExceptOpdsERK26hiRUNTIME_NODE_COMM_INFO_SPPhS4_RPNS_16OperationOfflineE_x4d0
    /*00000120*/ LDRB        R2, [R5] 
    /*00000124*/ MOV         R1, FP 
    /*00000128*/ BL          _ZN4hirt16OperationOfflineC1ERKNSt7__cxx1112basic_stringIcSt11char_traitsIcESaIcEEENS_18OPERATION_CLASSIFYE
    /*0000012c*/ LDR         R0, [SP, #20] 
    /*00000130*/ STR         R9, [R7] 
    /*00000134*/ CMP         R0, R4 
    /*00000138*/ BEQ         _ZN4hirt13WKModelLoader19genOneOptExceptOpdsERK26hiRUNTIME_NODE_COMM_INFO_SPPhS4_RPNS_16OperationOfflineE_x508
    _ZN4hirt13WKModelLoader19genOneOptExceptOpdsERK26hiRUNTIME_NODE_COMM_INFO_SPPhS4_RPNS_16OperationOfflineE_x13c:
    /*0000013c*/ BL          _ZdlPv
    /*00000140*/ LDR         R3, [R7] 
    /*00000144*/ CMP         R3, #0 
    /*00000148*/ BEQ         _ZN4hirt13WKModelLoader19genOneOptExceptOpdsERK26hiRUNTIME_NODE_COMM_INFO_SPPhS4_RPNS_16OperationOfflineE_x4e0
    _ZN4hirt13WKModelLoader19genOneOptExceptOpdsERK26hiRUNTIME_NODE_COMM_INFO_SPPhS4_RPNS_16OperationOfflineE_x14c:
    /*0000014c*/ LDRB        R2, [R5, #2] 
    /*00000150*/ STRB        R2, [R3, #176]              @ 0xb0 
    _ZN4hirt13WKModelLoader19genOneOptExceptOpdsERK26hiRUNTIME_NODE_COMM_INFO_SPPhS4_RPNS_16OperationOfflineE_x154:
    /*00000154*/ LDR         R3, [R7] 
    /*00000158*/ MOV         R0, #0 
    /*0000015c*/ LDRB        R2, [R5, #1] 
    /*00000160*/ STRB        R2, [R3, #177]              @ 0xb1 
    /*00000164*/ B           _ZN4hirt13WKModelLoader19genOneOptExceptOpdsERK26hiRUNTIME_NODE_COMM_INFO_SPPhS4_RPNS_16OperationOfflineE_x9c
    _ZN4hirt13WKModelLoader19genOneOptExceptOpdsERK26hiRUNTIME_NODE_COMM_INFO_SPPhS4_RPNS_16OperationOfflineE_x168:
    /*00000168*/ MOV         R2, #80                     @ 0x50 
    /*0000016c*/ MOV         R1, R5 
    /*00000170*/ MOV         R0, FP 
    /*00000174*/ ADD         R9, SP, #124                @ 0x7c 
    /*00000178*/ BL          memcpy
    /*0000017c*/ LDR         R2, [R4] 
    /*00000180*/ MOV         R3, #64                     @ 0x40 
    /*00000184*/ MOV         R1, R3 
    /*00000188*/ MOV         R0, R9 
    /*0000018c*/ BL          memcpy_s
    /*00000190*/ SUBS        R3, R0, #0 
    /*00000194*/ STR         R3, [SP, #8] 
    /*00000198*/ BNE         _ZN4hirt13WKModelLoader19genOneOptExceptOpdsERK26hiRUNTIME_NODE_COMM_INFO_SPPhS4_RPNS_16OperationOfflineE_x69c
    /*0000019c*/ LDR         R2, [R4] 
    /*000001a0*/ LDRH        R3, [R2, #64]               @ 0x40 
    /*000001a4*/ ADD         R2, R2, #64                 @ 0x40 
    /*000001a8*/ STR         R2, [R4] 
    /*000001ac*/ CMP         R3, #1 
    /*000001b0*/ BNE         _ZN4hirt13WKModelLoader19genOneOptExceptOpdsERK26hiRUNTIME_NODE_COMM_INFO_SPPhS4_RPNS_16OperationOfflineE_x664
    /*000001b4*/ ADD         R3, SL, #160                @ 0xa0 
    /*000001b8*/ ADD         SL, SP, #60                 @ 0x3c 
    /*000001bc*/ STR         R3, [R4] 
    /*000001c0*/ MOV         R0, SL 
    /*000001c4*/ ADD         R4, SP, #28 
    /*000001c8*/ ADD         FP, SP, #20 
    /*000001cc*/ STR         R4, [SP, #20] 
    /*000001d0*/ BL          strlen
    /*000001d4*/ STR         R0, [SP, #16] 
    /*000001d8*/ CMP         R0, #15 
    /*000001dc*/ MOV         R3, R0 
    /*000001e0*/ BHI         _ZN4hirt13WKModelLoader19genOneOptExceptOpdsERK26hiRUNTIME_NODE_COMM_INFO_SPPhS4_RPNS_16OperationOfflineE_x494
    /*000001e4*/ CMP         R0, #1 
    /*000001e8*/ BEQ         _ZN4hirt13WKModelLoader19genOneOptExceptOpdsERK26hiRUNTIME_NODE_COMM_INFO_SPPhS4_RPNS_16OperationOfflineE_x618
    /*000001ec*/ CMP         R3, #0 
    /*000001f0*/ MOV         R0, R4 
    /*000001f4*/ BNE         _ZN4hirt13WKModelLoader19genOneOptExceptOpdsERK26hiRUNTIME_NODE_COMM_INFO_SPPhS4_RPNS_16OperationOfflineE_x4b8
    _ZN4hirt13WKModelLoader19genOneOptExceptOpdsERK26hiRUNTIME_NODE_COMM_INFO_SPPhS4_RPNS_16OperationOfflineE_x1f8:
    /*000001f8*/ LDR         R2, WORD_0730               @ LDR         R2, [PC, #1328]             @ 0x0000000000000730 
    /*000001fc*/ MOV         R1, #0 
    /*00000200*/ STR         R3, [SP, #24] 
    /*00000204*/ STRB        R1, [R0, R3] 
    /*00000208*/ MOV         R0, #192                    @ 0xc0 
    /*0000020c*/ LDR         R6, [R6, R2] 
    /*00000210*/ MOV         R1, R6 
    /*00000214*/ BL          _ZnwjRKSt9nothrow_t
    /*00000218*/ SUBS        SL, R0, #0 
    /*0000021c*/ BEQ         _ZN4hirt13WKModelLoader19genOneOptExceptOpdsERK26hiRUNTIME_NODE_COMM_INFO_SPPhS4_RPNS_16OperationOfflineE_x548
    /*00000220*/ MOV         R2, #1 
    /*00000224*/ MOV         R1, FP 
    /*00000228*/ BL          _ZN4hirt23OperationOfflineRuntimeC1ERKNSt7__cxx1112basic_stringIcSt11char_traitsIcESaIcEEENS_14OPERATION_TYPEE
    /*0000022c*/ LDR         R0, [SP, #20] 
    /*00000230*/ STR         SL, [R7] 
    /*00000234*/ CMP         R0, R4 
    /*00000238*/ BEQ         _ZN4hirt13WKModelLoader19genOneOptExceptOpdsERK26hiRUNTIME_NODE_COMM_INFO_SPPhS4_RPNS_16OperationOfflineE_x24c
    _ZN4hirt13WKModelLoader19genOneOptExceptOpdsERK26hiRUNTIME_NODE_COMM_INFO_SPPhS4_RPNS_16OperationOfflineE_x23c:
    /*0000023c*/ BL          _ZdlPv
    /*00000240*/ LDR         SL, [R7] 
    /*00000244*/ CMP         SL, #0 
    /*00000248*/ BEQ         _ZN4hirt13WKModelLoader19genOneOptExceptOpdsERK26hiRUNTIME_NODE_COMM_INFO_SPPhS4_RPNS_16OperationOfflineE_x558
    _ZN4hirt13WKModelLoader19genOneOptExceptOpdsERK26hiRUNTIME_NODE_COMM_INFO_SPPhS4_RPNS_16OperationOfflineE_x24c:
    /*0000024c*/ STR         R4, [SP, #20] 
    /*00000250*/ MOV         R0, R9 
    /*00000254*/ BL          strlen
    /*00000258*/ STR         R0, [SP, #16] 
    /*0000025c*/ CMP         R0, #15 
    /*00000260*/ MOV         R6, R0 
    /*00000264*/ BHI         _ZN4hirt13WKModelLoader19genOneOptExceptOpdsERK26hiRUNTIME_NODE_COMM_INFO_SPPhS4_RPNS_16OperationOfflineE_x5b4
    /*00000268*/ CMP         R0, #1 
    /*0000026c*/ BEQ         _ZN4hirt13WKModelLoader19genOneOptExceptOpdsERK26hiRUNTIME_NODE_COMM_INFO_SPPhS4_RPNS_16OperationOfflineE_x628
    /*00000270*/ CMP         R0, #0 
    /*00000274*/ MOVEQ       R2, R4 
    /*00000278*/ BNE         _ZN4hirt13WKModelLoader19genOneOptExceptOpdsERK26hiRUNTIME_NODE_COMM_INFO_SPPhS4_RPNS_16OperationOfflineE_x694
    _ZN4hirt13WKModelLoader19genOneOptExceptOpdsERK26hiRUNTIME_NODE_COMM_INFO_SPPhS4_RPNS_16OperationOfflineE_x27c:
    /*0000027c*/ STR         R6, [SP, #24] 
    /*00000280*/ MOV         R3, #0 
    /*00000284*/ STRB        R3, [R2, R6] 
    /*00000288*/ MOV         R1, FP 
    /*0000028c*/ ADD         R0, SL, #152                @ 0x98 
    /*00000290*/ BL          _ZNSt7__cxx1112basic_stringIcSt11char_traitsIcESaIcEE9_M_assignERKS4_
    /*00000294*/ B           _ZN4hirt13WKModelLoader19genOneOptExceptOpdsERK26hiRUNTIME_NODE_COMM_INFO_SPPhS4_RPNS_16OperationOfflineE_x3c8
    _ZN4hirt13WKModelLoader19genOneOptExceptOpdsERK26hiRUNTIME_NODE_COMM_INFO_SPPhS4_RPNS_16OperationOfflineE_x298:
    /*00000298*/ MOV         R0, R9 
    /*0000029c*/ MOV         R2, #80                     @ 0x50 
    /*000002a0*/ MOV         R1, R5 
    /*000002a4*/ ADD         R9, SP, #268                @ 0x10c 
    /*000002a8*/ BL          memcpy
    /*000002ac*/ LDR         R2, [R4] 
    /*000002b0*/ MOV         R3, #64                     @ 0x40 
    /*000002b4*/ MOV         R0, R9 
    /*000002b8*/ MOV         R1, R3 
    /*000002bc*/ BL          memcpy_s
    /*000002c0*/ SUBS        R2, R0, #0 
    /*000002c4*/ BNE         _ZN4hirt13WKModelLoader19genOneOptExceptOpdsERK26hiRUNTIME_NODE_COMM_INFO_SPPhS4_RPNS_16OperationOfflineE_x638
    /*000002c8*/ LDR         R3, [R4] 
    /*000002cc*/ ADD         R1, SL, #160                @ 0xa0 
    /*000002d0*/ STRB        R2, [SP, #331]              @ 0x14b 
    /*000002d4*/ ADD         SL, SP, #204                @ 0xcc 
    /*000002d8*/ LDR         IP, [R3, #64]               @ 0x40 
    /*000002dc*/ MOV         R0, SL 
    /*000002e0*/ STR         R2, [SP, #8] 
    /*000002e4*/ ADD         FP, SP, #20 
    /*000002e8*/ STR         IP, [SP, #332]              @ 0x14c 
    /*000002ec*/ LDR         R3, [R3, #68]               @ 0x44 
    /*000002f0*/ STR         R1, [R4] 
    /*000002f4*/ ADD         R4, SP, #28 
    /*000002f8*/ STR         R3, [SP, #336]              @ 0x150 
    /*000002fc*/ STR         R4, [SP, #20] 
    /*00000300*/ BL          strlen
    /*00000304*/ STR         R0, [SP, #16] 
    /*00000308*/ CMP         R0, #15 
    /*0000030c*/ LDR         R2, [SP, #8] 
    /*00000310*/ MOV         R3, R0 
    /*00000314*/ BHI         _ZN4hirt13WKModelLoader19genOneOptExceptOpdsERK26hiRUNTIME_NODE_COMM_INFO_SPPhS4_RPNS_16OperationOfflineE_x45c
    /*00000318*/ CMP         R0, #1 
    /*0000031c*/ BEQ         _ZN4hirt13WKModelLoader19genOneOptExceptOpdsERK26hiRUNTIME_NODE_COMM_INFO_SPPhS4_RPNS_16OperationOfflineE_x5f8
    /*00000320*/ CMP         R3, #0 
    /*00000324*/ MOV         R0, R4 
    /*00000328*/ BNE         _ZN4hirt13WKModelLoader19genOneOptExceptOpdsERK26hiRUNTIME_NODE_COMM_INFO_SPPhS4_RPNS_16OperationOfflineE_x47c
    _ZN4hirt13WKModelLoader19genOneOptExceptOpdsERK26hiRUNTIME_NODE_COMM_INFO_SPPhS4_RPNS_16OperationOfflineE_x32c:
    /*0000032c*/ LDR         R2, WORD_0730               @ LDR         R2, [PC, #1020]             @ 0x0000000000000730 
    /*00000330*/ MOV         R1, #0 
    /*00000334*/ STR         R3, [SP, #24] 
    /*00000338*/ STRB        R1, [R0, R3] 
    /*0000033c*/ MOV         R0, #188                    @ 0xbc 
    /*00000340*/ LDR         R6, [R6, R2] 
    /*00000344*/ MOV         R1, R6 
    /*00000348*/ BL          _ZnwjRKSt9nothrow_t
    /*0000034c*/ SUBS        SL, R0, #0 
    /*00000350*/ BEQ         _ZN4hirt13WKModelLoader19genOneOptExceptOpdsERK26hiRUNTIME_NODE_COMM_INFO_SPPhS4_RPNS_16OperationOfflineE_x510
    /*00000354*/ LDRB        R2, [SP, #188]              @ 0xbc 
    /*00000358*/ MOV         R1, FP 
    /*0000035c*/ BL          _ZN4hirt16OperationOfflineC1ERKNSt7__cxx1112basic_stringIcSt11char_traitsIcESaIcEEENS_18OPERATION_CLASSIFYE
    /*00000360*/ LDR         R0, [SP, #20] 
    /*00000364*/ STR         SL, [R7] 
    /*00000368*/ CMP         R0, R4 
    /*0000036c*/ BEQ         _ZN4hirt13WKModelLoader19genOneOptExceptOpdsERK26hiRUNTIME_NODE_COMM_INFO_SPPhS4_RPNS_16OperationOfflineE_x380
    _ZN4hirt13WKModelLoader19genOneOptExceptOpdsERK26hiRUNTIME_NODE_COMM_INFO_SPPhS4_RPNS_16OperationOfflineE_x370:
    /*00000370*/ BL          _ZdlPv
    /*00000374*/ LDR         SL, [R7] 
    /*00000378*/ CMP         SL, #0 
    /*0000037c*/ BEQ         _ZN4hirt13WKModelLoader19genOneOptExceptOpdsERK26hiRUNTIME_NODE_COMM_INFO_SPPhS4_RPNS_16OperationOfflineE_x520
    _ZN4hirt13WKModelLoader19genOneOptExceptOpdsERK26hiRUNTIME_NODE_COMM_INFO_SPPhS4_RPNS_16OperationOfflineE_x380:
    /*00000380*/ STR         R4, [SP, #20] 
    /*00000384*/ MOV         R0, R9 
    /*00000388*/ BL          strlen
    /*0000038c*/ STR         R0, [SP, #16] 
    /*00000390*/ CMP         R0, #15 
    /*00000394*/ MOV         R6, R0 
    /*00000398*/ BHI         _ZN4hirt13WKModelLoader19genOneOptExceptOpdsERK26hiRUNTIME_NODE_COMM_INFO_SPPhS4_RPNS_16OperationOfflineE_x580
    /*0000039c*/ CMP         R0, #1 
    /*000003a0*/ BEQ         _ZN4hirt13WKModelLoader19genOneOptExceptOpdsERK26hiRUNTIME_NODE_COMM_INFO_SPPhS4_RPNS_16OperationOfflineE_x608
    /*000003a4*/ CMP         R0, #0 
    /*000003a8*/ MOVEQ       R2, R4 
    /*000003ac*/ BNE         _ZN4hirt13WKModelLoader19genOneOptExceptOpdsERK26hiRUNTIME_NODE_COMM_INFO_SPPhS4_RPNS_16OperationOfflineE_x68c
    _ZN4hirt13WKModelLoader19genOneOptExceptOpdsERK26hiRUNTIME_NODE_COMM_INFO_SPPhS4_RPNS_16OperationOfflineE_x3b0:
    /*000003b0*/ STR         R6, [SP, #24] 
    /*000003b4*/ MOV         R3, #0 
    /*000003b8*/ STRB        R3, [R2, R6] 
    /*000003bc*/ MOV         R1, FP 
    /*000003c0*/ ADD         R0, SL, #152                @ 0x98 
    /*000003c4*/ BL          _ZNSt7__cxx1112basic_stringIcSt11char_traitsIcESaIcEE9_M_assignERKS4_
    _ZN4hirt13WKModelLoader19genOneOptExceptOpdsERK26hiRUNTIME_NODE_COMM_INFO_SPPhS4_RPNS_16OperationOfflineE_x3c8:
    /*000003c8*/ LDR         R0, [SP, #20] 
    /*000003cc*/ CMP         R0, R4 
    /*000003d0*/ BEQ         _ZN4hirt13WKModelLoader19genOneOptExceptOpdsERK26hiRUNTIME_NODE_COMM_INFO_SPPhS4_RPNS_16OperationOfflineE_x3d8
    /*000003d4*/ BL          _ZdlPv
    _ZN4hirt13WKModelLoader19genOneOptExceptOpdsERK26hiRUNTIME_NODE_COMM_INFO_SPPhS4_RPNS_16OperationOfflineE_x3d8:
    /*000003d8*/ LDR         R0, [R7] 
    /*000003dc*/ BL          _ZL16HIRT_SET_COP_FUNPN4hirt16OperationOfflineE
    /*000003e0*/ CMP         R0, #0 
    /*000003e4*/ BEQ         _ZN4hirt13WKModelLoader19genOneOptExceptOpdsERK26hiRUNTIME_NODE_COMM_INFO_SPPhS4_RPNS_16OperationOfflineE_x154
    /*000003e8*/ LDR         R2, WORD_0734               @ LDR         R2, [PC, #836]              @ 0x0000000000000734 
    /*000003ec*/ MOV         R1, #4 
    /*000003f0*/ LDR         R0, WORD_0738               @ LDR         R0, [PC, #832]              @ 0x0000000000000738 
    /*000003f4*/ ADD         R2, PC, R2 
    /*000003f8*/ ADD         R0, PC, R0 
    /*000003fc*/ BL          _Z15HIRT_LOG_PrintfPKc19tagHIRT_LOG_LEVEL_ES0_z
    /*00000400*/ LDR         R0, [R7] 
    /*00000404*/ CMP         R0, #0 
    /*00000408*/ BEQ         _ZN4hirt13WKModelLoader19genOneOptExceptOpdsERK26hiRUNTIME_NODE_COMM_INFO_SPPhS4_RPNS_16OperationOfflineE_x98
    /*0000040c*/ LDR         R3, [R0] 
    /*00000410*/ LDR         R3, [R3, #4] 
    /*00000414*/ BLX         R3 
    /*00000418*/ MOV         R3, #0 
    /*0000041c*/ MVN         R0, #0 
    /*00000420*/ STR         R3, [R7] 
    /*00000424*/ B           _ZN4hirt13WKModelLoader19genOneOptExceptOpdsERK26hiRUNTIME_NODE_COMM_INFO_SPPhS4_RPNS_16OperationOfflineE_x9c
    _ZN4hirt13WKModelLoader19genOneOptExceptOpdsERK26hiRUNTIME_NODE_COMM_INFO_SPPhS4_RPNS_16OperationOfflineE_x428:
    /*00000428*/ MOV         R2, #0 
    /*0000042c*/ ADD         R1, SP, #16 
    /*00000430*/ MOV         R0, FP 
    /*00000434*/ BL          _ZNSt7__cxx1112basic_stringIcSt11char_traitsIcESaIcEE9_M_createERjj
    /*00000438*/ LDR         R3, [SP, #16] 
    /*0000043c*/ STR         R0, [SP, #20] 
    /*00000440*/ STR         R3, [SP, #28] 
    _ZN4hirt13WKModelLoader19genOneOptExceptOpdsERK26hiRUNTIME_NODE_COMM_INFO_SPPhS4_RPNS_16OperationOfflineE_x444:
    /*00000444*/ MOV         R2, SL 
    /*00000448*/ MOV         R1, R9 
    /*0000044c*/ BL          memcpy
    /*00000450*/ LDR         SL, [SP, #16] 
    /*00000454*/ LDR         R2, [SP, #20] 
    /*00000458*/ B           _ZN4hirt13WKModelLoader19genOneOptExceptOpdsERK26hiRUNTIME_NODE_COMM_INFO_SPPhS4_RPNS_16OperationOfflineE_xf8
    _ZN4hirt13WKModelLoader19genOneOptExceptOpdsERK26hiRUNTIME_NODE_COMM_INFO_SPPhS4_RPNS_16OperationOfflineE_x45c:
    /*0000045c*/ STR         R0, [SP, #8] 
    /*00000460*/ ADD         R1, SP, #16 
    /*00000464*/ MOV         R0, FP 
    /*00000468*/ BL          _ZNSt7__cxx1112basic_stringIcSt11char_traitsIcESaIcEE9_M_createERjj
    /*0000046c*/ LDR         R2, [SP, #16] 
    /*00000470*/ LDR         R3, [SP, #8] 
    /*00000474*/ STR         R0, [SP, #20] 
    /*00000478*/ STR         R2, [SP, #28] 
    _ZN4hirt13WKModelLoader19genOneOptExceptOpdsERK26hiRUNTIME_NODE_COMM_INFO_SPPhS4_RPNS_16OperationOfflineE_x47c:
    /*0000047c*/ MOV         R2, R3 
    /*00000480*/ MOV         R1, SL 
    /*00000484*/ BL          memcpy
    /*00000488*/ LDR         R3, [SP, #16] 
    /*0000048c*/ LDR         R0, [SP, #20] 
    /*00000490*/ B           _ZN4hirt13WKModelLoader19genOneOptExceptOpdsERK26hiRUNTIME_NODE_COMM_INFO_SPPhS4_RPNS_16OperationOfflineE_x32c
    _ZN4hirt13WKModelLoader19genOneOptExceptOpdsERK26hiRUNTIME_NODE_COMM_INFO_SPPhS4_RPNS_16OperationOfflineE_x494:
    /*00000494*/ STR         R0, [SP, #12] 
    /*00000498*/ ADD         R1, SP, #16 
    /*0000049c*/ LDR         R2, [SP, #8] 
    /*000004a0*/ MOV         R0, FP 
    /*000004a4*/ BL          _ZNSt7__cxx1112basic_stringIcSt11char_traitsIcESaIcEE9_M_createERjj
    /*000004a8*/ LDR         R2, [SP, #16] 
    /*000004ac*/ LDR         R3, [SP, #12] 
    /*000004b0*/ STR         R0, [SP, #20] 
    /*000004b4*/ STR         R2, [SP, #28] 
    _ZN4hirt13WKModelLoader19genOneOptExceptOpdsERK26hiRUNTIME_NODE_COMM_INFO_SPPhS4_RPNS_16OperationOfflineE_x4b8:
    /*000004b8*/ MOV         R2, R3 
    /*000004bc*/ MOV         R1, SL 
    /*000004c0*/ BL          memcpy
    /*000004c4*/ LDR         R3, [SP, #16] 
    /*000004c8*/ LDR         R0, [SP, #20] 
    /*000004cc*/ B           _ZN4hirt13WKModelLoader19genOneOptExceptOpdsERK26hiRUNTIME_NODE_COMM_INFO_SPPhS4_RPNS_16OperationOfflineE_x1f8
    _ZN4hirt13WKModelLoader19genOneOptExceptOpdsERK26hiRUNTIME_NODE_COMM_INFO_SPPhS4_RPNS_16OperationOfflineE_x4d0:
    /*000004d0*/ LDR         R0, [SP, #20] 
    /*000004d4*/ STR         R9, [R7] 
    /*000004d8*/ CMP         R0, R4 
    /*000004dc*/ BNE         _ZN4hirt13WKModelLoader19genOneOptExceptOpdsERK26hiRUNTIME_NODE_COMM_INFO_SPPhS4_RPNS_16OperationOfflineE_x13c
    _ZN4hirt13WKModelLoader19genOneOptExceptOpdsERK26hiRUNTIME_NODE_COMM_INFO_SPPhS4_RPNS_16OperationOfflineE_x4e0:
    /*000004e0*/ LDR         R3, WORD_073c               @ LDR         R3, [PC, #596]              @ 0x000000000000073c 
    /*000004e4*/ MOV         R1, #4 
    /*000004e8*/ LDR         R2, WORD_0740               @ LDR         R2, [PC, #592]              @ 0x0000000000000740 
    /*000004ec*/ LDR         R0, WORD_0744               @ LDR         R0, [PC, #592]              @ 0x0000000000000744 
    /*000004f0*/ ADD         R3, PC, R3 
    /*000004f4*/ ADD         R2, PC, R2 
    /*000004f8*/ ADD         R0, PC, R0 
    /*000004fc*/ BL          _Z15HIRT_LOG_PrintfPKc19tagHIRT_LOG_LEVEL_ES0_z
    /*00000500*/ MVN         R0, #0 
    /*00000504*/ B           _ZN4hirt13WKModelLoader19genOneOptExceptOpdsERK26hiRUNTIME_NODE_COMM_INFO_SPPhS4_RPNS_16OperationOfflineE_x9c
    _ZN4hirt13WKModelLoader19genOneOptExceptOpdsERK26hiRUNTIME_NODE_COMM_INFO_SPPhS4_RPNS_16OperationOfflineE_x508:
    /*00000508*/ MOV         R3, R9 
    /*0000050c*/ B           _ZN4hirt13WKModelLoader19genOneOptExceptOpdsERK26hiRUNTIME_NODE_COMM_INFO_SPPhS4_RPNS_16OperationOfflineE_x14c
    _ZN4hirt13WKModelLoader19genOneOptExceptOpdsERK26hiRUNTIME_NODE_COMM_INFO_SPPhS4_RPNS_16OperationOfflineE_x510:
    /*00000510*/ LDR         R0, [SP, #20] 
    /*00000514*/ STR         SL, [R7] 
    /*00000518*/ CMP         R0, R4 
    /*0000051c*/ BNE         _ZN4hirt13WKModelLoader19genOneOptExceptOpdsERK26hiRUNTIME_NODE_COMM_INFO_SPPhS4_RPNS_16OperationOfflineE_x370
    _ZN4hirt13WKModelLoader19genOneOptExceptOpdsERK26hiRUNTIME_NODE_COMM_INFO_SPPhS4_RPNS_16OperationOfflineE_x520:
    /*00000520*/ LDR         R3, WORD_0748               @ LDR         R3, [PC, #544]              @ 0x0000000000000748 
    /*00000524*/ MOV         R1, #4 
    /*00000528*/ LDR         R2, WORD_074c               @ LDR         R2, [PC, #540]              @ 0x000000000000074c 
    /*0000052c*/ LDR         R0, WORD_0750               @ LDR         R0, [PC, #540]              @ 0x0000000000000750 
    /*00000530*/ ADD         R3, PC, R3 
    /*00000534*/ ADD         R2, PC, R2 
    /*00000538*/ ADD         R0, PC, R0 
    /*0000053c*/ BL          _Z15HIRT_LOG_PrintfPKc19tagHIRT_LOG_LEVEL_ES0_z
    /*00000540*/ MVN         R0, #0 
    /*00000544*/ B           _ZN4hirt13WKModelLoader19genOneOptExceptOpdsERK26hiRUNTIME_NODE_COMM_INFO_SPPhS4_RPNS_16OperationOfflineE_x9c
    _ZN4hirt13WKModelLoader19genOneOptExceptOpdsERK26hiRUNTIME_NODE_COMM_INFO_SPPhS4_RPNS_16OperationOfflineE_x548:
    /*00000548*/ LDR         R0, [SP, #20] 
    /*0000054c*/ STR         SL, [R7] 
    /*00000550*/ CMP         R0, R4 
    /*00000554*/ BNE         _ZN4hirt13WKModelLoader19genOneOptExceptOpdsERK26hiRUNTIME_NODE_COMM_INFO_SPPhS4_RPNS_16OperationOfflineE_x23c
    _ZN4hirt13WKModelLoader19genOneOptExceptOpdsERK26hiRUNTIME_NODE_COMM_INFO_SPPhS4_RPNS_16OperationOfflineE_x558:
    /*00000558*/ LDR         R3, WORD_0754               @ LDR         R3, [PC, #500]              @ 0x0000000000000754 
    /*0000055c*/ MOV         R1, #4 
    /*00000560*/ LDR         R2, WORD_0758               @ LDR         R2, [PC, #496]              @ 0x0000000000000758 
    /*00000564*/ LDR         R0, WORD_075c               @ LDR         R0, [PC, #496]              @ 0x000000000000075c 
    /*00000568*/ ADD         R3, PC, R3 
    /*0000056c*/ ADD         R2, PC, R2 
    /*00000570*/ ADD         R0, PC, R0 
    /*00000574*/ BL          _Z15HIRT_LOG_PrintfPKc19tagHIRT_LOG_LEVEL_ES0_z
    /*00000578*/ MVN         R0, #0 
    /*0000057c*/ B           _ZN4hirt13WKModelLoader19genOneOptExceptOpdsERK26hiRUNTIME_NODE_COMM_INFO_SPPhS4_RPNS_16OperationOfflineE_x9c
    _ZN4hirt13WKModelLoader19genOneOptExceptOpdsERK26hiRUNTIME_NODE_COMM_INFO_SPPhS4_RPNS_16OperationOfflineE_x580:
    /*00000580*/ MOV         R2, #0 
    /*00000584*/ ADD         R1, SP, #16 
    /*00000588*/ MOV         R0, FP 
    /*0000058c*/ BL          _ZNSt7__cxx1112basic_stringIcSt11char_traitsIcESaIcEE9_M_createERjj
    /*00000590*/ LDR         R3, [SP, #16] 
    /*00000594*/ STR         R0, [SP, #20] 
    /*00000598*/ STR         R3, [SP, #28] 
    _ZN4hirt13WKModelLoader19genOneOptExceptOpdsERK26hiRUNTIME_NODE_COMM_INFO_SPPhS4_RPNS_16OperationOfflineE_x59c:
    /*0000059c*/ MOV         R2, R6 
    /*000005a0*/ MOV         R1, R9 
    /*000005a4*/ BL          memcpy
    /*000005a8*/ LDR         R6, [SP, #16] 
    /*000005ac*/ LDR         R2, [SP, #20] 
    /*000005b0*/ B           _ZN4hirt13WKModelLoader19genOneOptExceptOpdsERK26hiRUNTIME_NODE_COMM_INFO_SPPhS4_RPNS_16OperationOfflineE_x3b0
    _ZN4hirt13WKModelLoader19genOneOptExceptOpdsERK26hiRUNTIME_NODE_COMM_INFO_SPPhS4_RPNS_16OperationOfflineE_x5b4:
    /*000005b4*/ MOV         R2, #0 
    /*000005b8*/ ADD         R1, SP, #16 
    /*000005bc*/ MOV         R0, FP 
    /*000005c0*/ BL          _ZNSt7__cxx1112basic_stringIcSt11char_traitsIcESaIcEE9_M_createERjj
    /*000005c4*/ LDR         R3, [SP, #16] 
    /*000005c8*/ STR         R0, [SP, #20] 
    /*000005cc*/ STR         R3, [SP, #28] 
    _ZN4hirt13WKModelLoader19genOneOptExceptOpdsERK26hiRUNTIME_NODE_COMM_INFO_SPPhS4_RPNS_16OperationOfflineE_x5d0:
    /*000005d0*/ MOV         R2, R6 
    /*000005d4*/ MOV         R1, R9 
    /*000005d8*/ BL          memcpy
    /*000005dc*/ LDR         R6, [SP, #16] 
    /*000005e0*/ LDR         R2, [SP, #20] 
    /*000005e4*/ B           _ZN4hirt13WKModelLoader19genOneOptExceptOpdsERK26hiRUNTIME_NODE_COMM_INFO_SPPhS4_RPNS_16OperationOfflineE_x27c
    _ZN4hirt13WKModelLoader19genOneOptExceptOpdsERK26hiRUNTIME_NODE_COMM_INFO_SPPhS4_RPNS_16OperationOfflineE_x5e8:
    /*000005e8*/ LDRB        R3, [R5, #16] 
    /*000005ec*/ MOV         R2, R4 
    /*000005f0*/ STRB        R3, [SP, #28] 
    /*000005f4*/ B           _ZN4hirt13WKModelLoader19genOneOptExceptOpdsERK26hiRUNTIME_NODE_COMM_INFO_SPPhS4_RPNS_16OperationOfflineE_xf8
    _ZN4hirt13WKModelLoader19genOneOptExceptOpdsERK26hiRUNTIME_NODE_COMM_INFO_SPPhS4_RPNS_16OperationOfflineE_x5f8:
    /*000005f8*/ LDRB        R2, [SP, #204]              @ 0xcc 
    /*000005fc*/ MOV         R0, R4 
    /*00000600*/ STRB        R2, [SP, #28] 
    /*00000604*/ B           _ZN4hirt13WKModelLoader19genOneOptExceptOpdsERK26hiRUNTIME_NODE_COMM_INFO_SPPhS4_RPNS_16OperationOfflineE_x32c
    _ZN4hirt13WKModelLoader19genOneOptExceptOpdsERK26hiRUNTIME_NODE_COMM_INFO_SPPhS4_RPNS_16OperationOfflineE_x608:
    /*00000608*/ LDRB        R3, [SP, #268]              @ 0x10c 
    /*0000060c*/ MOV         R2, R4 
    /*00000610*/ STRB        R3, [SP, #28] 
    /*00000614*/ B           _ZN4hirt13WKModelLoader19genOneOptExceptOpdsERK26hiRUNTIME_NODE_COMM_INFO_SPPhS4_RPNS_16OperationOfflineE_x3b0
    _ZN4hirt13WKModelLoader19genOneOptExceptOpdsERK26hiRUNTIME_NODE_COMM_INFO_SPPhS4_RPNS_16OperationOfflineE_x618:
    /*00000618*/ LDRB        R2, [SP, #60]               @ 0x3c 
    /*0000061c*/ MOV         R0, R4 
    /*00000620*/ STRB        R2, [SP, #28] 
    /*00000624*/ B           _ZN4hirt13WKModelLoader19genOneOptExceptOpdsERK26hiRUNTIME_NODE_COMM_INFO_SPPhS4_RPNS_16OperationOfflineE_x1f8
    _ZN4hirt13WKModelLoader19genOneOptExceptOpdsERK26hiRUNTIME_NODE_COMM_INFO_SPPhS4_RPNS_16OperationOfflineE_x628:
    /*00000628*/ LDRB        R3, [SP, #124]              @ 0x7c 
    /*0000062c*/ MOV         R2, R4 
    /*00000630*/ STRB        R3, [SP, #28] 
    /*00000634*/ B           _ZN4hirt13WKModelLoader19genOneOptExceptOpdsERK26hiRUNTIME_NODE_COMM_INFO_SPPhS4_RPNS_16OperationOfflineE_x27c
    _ZN4hirt13WKModelLoader19genOneOptExceptOpdsERK26hiRUNTIME_NODE_COMM_INFO_SPPhS4_RPNS_16OperationOfflineE_x638:
    /*00000638*/ STR         R2, [SP] 
    /*0000063c*/ MOV         R1, #4 
    /*00000640*/ LDR         R3, WORD_0760               @ LDR         R3, [PC, #280]              @ 0x0000000000000760 
    /*00000644*/ LDR         R2, WORD_0764               @ LDR         R2, [PC, #280]              @ 0x0000000000000764 
    /*00000648*/ LDR         R0, WORD_0768               @ LDR         R0, [PC, #280]              @ 0x0000000000000768 
    /*0000064c*/ ADD         R3, PC, R3 
    /*00000650*/ ADD         R2, PC, R2 
    /*00000654*/ ADD         R0, PC, R0 
    /*00000658*/ BL          _Z15HIRT_LOG_PrintfPKc19tagHIRT_LOG_LEVEL_ES0_z
    /*0000065c*/ MVN         R0, #0 
    /*00000660*/ B           _ZN4hirt13WKModelLoader19genOneOptExceptOpdsERK26hiRUNTIME_NODE_COMM_INFO_SPPhS4_RPNS_16OperationOfflineE_x9c
    _ZN4hirt13WKModelLoader19genOneOptExceptOpdsERK26hiRUNTIME_NODE_COMM_INFO_SPPhS4_RPNS_16OperationOfflineE_x664:
    /*00000664*/ LDR         R2, WORD_076c               @ LDR         R2, [PC, #256]              @ 0x000000000000076c 
    /*00000668*/ MOV         R1, #4 
    /*0000066c*/ LDR         R0, WORD_0770               @ LDR         R0, [PC, #252]              @ 0x0000000000000770 
    /*00000670*/ ADD         R2, PC, R2 
    /*00000674*/ ADD         R0, PC, R0 
    /*00000678*/ BL          _Z15HIRT_LOG_PrintfPKc19tagHIRT_LOG_LEVEL_ES0_z
    /*0000067c*/ MVN         R0, #0 
    /*00000680*/ B           _ZN4hirt13WKModelLoader19genOneOptExceptOpdsERK26hiRUNTIME_NODE_COMM_INFO_SPPhS4_RPNS_16OperationOfflineE_x9c
    _ZN4hirt13WKModelLoader19genOneOptExceptOpdsERK26hiRUNTIME_NODE_COMM_INFO_SPPhS4_RPNS_16OperationOfflineE_x684:
    /*00000684*/ MOV         R0, R4 
    /*00000688*/ B           _ZN4hirt13WKModelLoader19genOneOptExceptOpdsERK26hiRUNTIME_NODE_COMM_INFO_SPPhS4_RPNS_16OperationOfflineE_x444
    _ZN4hirt13WKModelLoader19genOneOptExceptOpdsERK26hiRUNTIME_NODE_COMM_INFO_SPPhS4_RPNS_16OperationOfflineE_x68c:
    /*0000068c*/ MOV         R0, R4 
    /*00000690*/ B           _ZN4hirt13WKModelLoader19genOneOptExceptOpdsERK26hiRUNTIME_NODE_COMM_INFO_SPPhS4_RPNS_16OperationOfflineE_x59c
    _ZN4hirt13WKModelLoader19genOneOptExceptOpdsERK26hiRUNTIME_NODE_COMM_INFO_SPPhS4_RPNS_16OperationOfflineE_x694:
    /*00000694*/ MOV         R0, R4 
    /*00000698*/ B           _ZN4hirt13WKModelLoader19genOneOptExceptOpdsERK26hiRUNTIME_NODE_COMM_INFO_SPPhS4_RPNS_16OperationOfflineE_x5d0
    _ZN4hirt13WKModelLoader19genOneOptExceptOpdsERK26hiRUNTIME_NODE_COMM_INFO_SPPhS4_RPNS_16OperationOfflineE_x69c:
    /*0000069c*/ STR         R3, [SP] 
    /*000006a0*/ MOV         R1, #4 
    /*000006a4*/ LDR         R3, WORD_0774               @ LDR         R3, [PC, #200]              @ 0x0000000000000774 
    /*000006a8*/ LDR         R2, WORD_0778               @ LDR         R2, [PC, #200]              @ 0x0000000000000778 
    /*000006ac*/ LDR         R0, WORD_077c               @ LDR         R0, [PC, #200]              @ 0x000000000000077c 
    /*000006b0*/ ADD         R3, PC, R3 
    /*000006b4*/ ADD         R2, PC, R2 
    /*000006b8*/ ADD         R0, PC, R0 
    /*000006bc*/ BL          _Z15HIRT_LOG_PrintfPKc19tagHIRT_LOG_LEVEL_ES0_z
    /*000006c0*/ MVN         R0, #0 
    /*000006c4*/ B           _ZN4hirt13WKModelLoader19genOneOptExceptOpdsERK26hiRUNTIME_NODE_COMM_INFO_SPPhS4_RPNS_16OperationOfflineE_x9c
    _ZN4hirt13WKModelLoader19genOneOptExceptOpdsERK26hiRUNTIME_NODE_COMM_INFO_SPPhS4_RPNS_16OperationOfflineE_x6c8:
    /*000006c8*/ BL          __stack_chk_fail
    /*000006cc*/ MOV         R0, R9 
    /*000006d0*/ MOV         R1, R6 
    /*000006d4*/ BL          _ZdlPvRKSt9nothrow_t
    /*000006d8*/ LDR         R0, [SP, #20] 
    /*000006dc*/ CMP         R0, R4 
    /*000006e0*/ BEQ         _ZN4hirt13WKModelLoader19genOneOptExceptOpdsERK26hiRUNTIME_NODE_COMM_INFO_SPPhS4_RPNS_16OperationOfflineE_x6e8
    _ZN4hirt13WKModelLoader19genOneOptExceptOpdsERK26hiRUNTIME_NODE_COMM_INFO_SPPhS4_RPNS_16OperationOfflineE_x6e4:
    /*000006e4*/ BL          _ZdlPv
    _ZN4hirt13WKModelLoader19genOneOptExceptOpdsERK26hiRUNTIME_NODE_COMM_INFO_SPPhS4_RPNS_16OperationOfflineE_x6e8:
    /*000006e8*/ BL          __cxa_end_cleanup
    _ZN4hirt13WKModelLoader19genOneOptExceptOpdsERK26hiRUNTIME_NODE_COMM_INFO_SPPhS4_RPNS_16OperationOfflineE_x6ec:
    /*000006ec*/ MOV         R0, SL 
    /*000006f0*/ MOV         R1, R6 
    /*000006f4*/ BL          _ZdlPvRKSt9nothrow_t
    /*000006f8*/ LDR         R0, [SP, #20] 
    /*000006fc*/ CMP         R0, R4 
    /*00000700*/ BNE         _ZN4hirt13WKModelLoader19genOneOptExceptOpdsERK26hiRUNTIME_NODE_COMM_INFO_SPPhS4_RPNS_16OperationOfflineE_x6e4
    /*00000704*/ B           _ZN4hirt13WKModelLoader19genOneOptExceptOpdsERK26hiRUNTIME_NODE_COMM_INFO_SPPhS4_RPNS_16OperationOfflineE_x6e8
    /*00000708*/ B           _ZN4hirt13WKModelLoader19genOneOptExceptOpdsERK26hiRUNTIME_NODE_COMM_INFO_SPPhS4_RPNS_16OperationOfflineE_x6ec
    _ZN4hirt13WKModelLoader19genOneOptExceptOpdsERK26hiRUNTIME_NODE_COMM_INFO_SPPhS4_RPNS_16OperationOfflineE_x70c:
    /*0000070c*/ LDR         R0, [SP, #20] 
    /*00000710*/ CMP         R0, R4 
    /*00000714*/ BNE         _ZN4hirt13WKModelLoader19genOneOptExceptOpdsERK26hiRUNTIME_NODE_COMM_INFO_SPPhS4_RPNS_16OperationOfflineE_x6e4
    /*00000718*/ B           _ZN4hirt13WKModelLoader19genOneOptExceptOpdsERK26hiRUNTIME_NODE_COMM_INFO_SPPhS4_RPNS_16OperationOfflineE_x6e8
    /*0000071c*/ B           _ZN4hirt13WKModelLoader19genOneOptExceptOpdsERK26hiRUNTIME_NODE_COMM_INFO_SPPhS4_RPNS_16OperationOfflineE_x70c
    /*00000720*/ WORD_0720: .word 0x000006f8
    /*00000724*/ WORD_0724: .word 0x00000000
    /*00000728*/ WORD_0728: .word 0x00000694
    /*0000072c*/ WORD_072c: .word 0x00000694
    /*00000730*/ WORD_0730: .word 0x00000000
    /*00000734*/ WORD_0734: .word 0x00000338
    /*00000738*/ WORD_0738: .word 0x00000338
    /*0000073c*/ WORD_073c: .word 0x00000244
    /*00000740*/ WORD_0740: .word 0x00000244
    /*00000744*/ WORD_0744: .word 0x00000244
    /*00000748*/ WORD_0748: .word 0x00000210
    /*0000074c*/ WORD_074c: .word 0x00000210
    /*00000750*/ WORD_0750: .word 0x00000210
    /*00000754*/ WORD_0754: .word 0x000001e4
    /*00000758*/ WORD_0758: .word 0x000001e4
    /*0000075c*/ WORD_075c: .word 0x000001e4
    /*00000760*/ WORD_0760: .word 0x0000010c
    /*00000764*/ WORD_0764: .word 0x0000010c
    /*00000768*/ WORD_0768: .word 0x0000010c
    /*0000076c*/ WORD_076c: .word 0x000000f4
    /*00000770*/ WORD_0770: .word 0x000000f4
    /*00000774*/ WORD_0774: .word 0x000000bc
    /*00000778*/ WORD_0778: .word 0x000000bc
    /*0000077c*/ WORD_077c: .word 0x000000bc
FUNC_END _ZN4hirt13WKModelLoader19genOneOptExceptOpdsERK26hiRUNTIME_NODE_COMM_INFO_SPPhS4_RPNS_16OperationOfflineE


@ - - - - - - - - - - - - - - - - - - - - - - - - - - - - - 
@ .ARM.extab.text._ZN4hirt13WKModelLoader19genOneOptExceptOpdsERK26hiRUNTIME_NODE_COMM_INFO_SPPhS4_RPNS_16OperationOfflineE
@ Size: 0x3f
@ - - - - - - - - - - - - - - - - - - - - - - - - - - - - - 

@ - - - - - - - - - - - - - - - - - - - - - - - - - - - - - 
@ .text._ZN4hirt13WKModelLoader29parseRoiInputsForOneOperationEPPhPNS_16OperationOfflineE
@ Size: 0x31c
@ - - - - - - - - - - - - - - - - - - - - - - - - - - - - - 

FUNC_BEGIN _ZN4hirt13WKModelLoader29parseRoiInputsForOneOperationEPPhPNS_16OperationOfflineE
    /*00000000*/ MOV         IP, #16384                  @ 0x4000 
    /*00000004*/ PUSH        {R4, R5, R6, R7, R8, R9, SL, FP, LR} 
    /*00000008*/ SUB         IP, SP, IP 
    /*0000000c*/ STR         R0, [IP, #3896]             @ 0xf38 
    /*00000010*/ LDR         R4, WORD_02e8               @ LDR         R4, [PC, #720]              @ 0x00000000000002e8 
    /*00000014*/ SUB         SP, SP, #164                @ 0xa4 
    /*00000018*/ LDR         R3, WORD_02ec               @ LDR         R3, [PC, #716]              @ 0x00000000000002ec 
    /*0000001c*/ ADD         R6, SP, #60                 @ 0x3c 
    /*00000020*/ ADD         R4, PC, R4 
    /*00000024*/ ADD         SL, SP, #20 
    /*00000028*/ VMOV.I32    Q8, #0                      @ 0x00000000 
    /*0000002c*/ LDR         R8, [R4, R3] 
    /*00000030*/ MOV         R5, R1 
    /*00000034*/ MOV         R9, R2 
    /*00000038*/ MOV         R1, #0 
    /*0000003c*/ LDR         R3, [R8] 
    /*00000040*/ MOV         R2, #96                     @ 0x60 
    /*00000044*/ MOV         R0, R6 
    /*00000048*/ STR         R3, [SP, #156]              @ 0x9c 
    /*0000004c*/ VST1.8      {D16-D17}, [SL] 
    /*00000050*/ BL          memset
    /*00000054*/ MOV         R3, #96                     @ 0x60 
    /*00000058*/ MOV         R0, R6 
    /*0000005c*/ MOV         R1, R3 
    /*00000060*/ MOV         R2, #0 
    /*00000064*/ BL          memset_s
    /*00000068*/ CMP         R0, #0 
    /*0000006c*/ BNE         _ZN4hirt13WKModelLoader29parseRoiInputsForOneOperationEPPhPNS_16OperationOfflineE_x26c
    /*00000070*/ LDR         R1, [R5] 
    /*00000074*/ ADD         R7, SP, #92                 @ 0x5c 
    /*00000078*/ LDR         R0, [R1, #4] 
    /*0000007c*/ ADD         R2, R1, #12 
    /*00000080*/ LDR         R3, [R1] 
    /*00000084*/ ADD         IP, R1, #32 
    /*00000088*/ STR         R0, [SP, #64]               @ 0x40 
    /*0000008c*/ LDR         R0, [R1, #8] 
    /*00000090*/ LDR         R6, [R1, #16] 
    /*00000094*/ STR         R2, [R5] 
    /*00000098*/ MOV         R2, IP 
    /*0000009c*/ LDRB        FP, [R1, #12] 
    /*000000a0*/ LDR         LR, [R1, #20] 
    /*000000a4*/ STR         R3, [SP, #60]               @ 0x3c 
    /*000000a8*/ MOV         R3, #64                     @ 0x40 
    /*000000ac*/ STR         R0, [SP, #68]               @ 0x44 
    /*000000b0*/ MOV         R1, R3 
    /*000000b4*/ STR         IP, [R5] 
    /*000000b8*/ MOV         R0, R7 
    /*000000bc*/ STR         R6, [SP, #76]               @ 0x4c 
    /*000000c0*/ STRB        FP, [SP, #72]               @ 0x48 
    /*000000c4*/ STR         LR, [SP, #80]               @ 0x50 
    /*000000c8*/ BL          memcpy_s
    /*000000cc*/ SUBS        R6, R0, #0 
    /*000000d0*/ BNE         _ZN4hirt13WKModelLoader29parseRoiInputsForOneOperationEPPhPNS_16OperationOfflineE_x298
    /*000000d4*/ LDR         R3, [R5] 
    /*000000d8*/ MOV         R0, #1 
    /*000000dc*/ LDR         R2, [SP, #68]               @ 0x44 
    /*000000e0*/ MOV         R1, R0 
    /*000000e4*/ LDR         IP, [SP, #60]               @ 0x3c 
    /*000000e8*/ ADD         R3, R3, #64                 @ 0x40 
    /*000000ec*/ STR         R3, [R5] 
    /*000000f0*/ ADD         R5, SP, #44                 @ 0x2c 
    /*000000f4*/ LDR         LR, [SP, #64]               @ 0x40 
    /*000000f8*/ MOV         R3, IP 
    /*000000fc*/ STR         R2, [SP, #4] 
    /*00000100*/ ADD         FP, SP, #36                 @ 0x24 
    /*00000104*/ STR         R2, [SP, #24] 
    /*00000108*/ STR         R0, [SP, #20] 
    /*0000010c*/ LDR         R2, WORD_02f0               @ LDR         R2, [PC, #476]              @ 0x00000000000002f0 
    /*00000110*/ LDR         R0, WORD_02f4               @ LDR         R0, [PC, #476]              @ 0x00000000000002f4 
    /*00000114*/ STR         LR, [SP] 
    /*00000118*/ ADD         R2, PC, R2 
    /*0000011c*/ ADD         R0, PC, R0 
    /*00000120*/ STR         IP, [SP, #28] 
    /*00000124*/ STR         LR, [SP, #32] 
    /*00000128*/ STRB        R6, [SP, #155]              @ 0x9b 
    /*0000012c*/ BL          _Z15HIRT_LOG_PrintfPKc19tagHIRT_LOG_LEVEL_ES0_z
    /*00000130*/ STR         R5, [SP, #36]               @ 0x24 
    /*00000134*/ MOV         R0, R7 
    /*00000138*/ BL          strlen
    /*0000013c*/ STR         R0, [SP, #16] 
    /*00000140*/ CMP         R0, #15 
    /*00000144*/ MOV         R3, R0 
    /*00000148*/ BHI         _ZN4hirt13WKModelLoader29parseRoiInputsForOneOperationEPPhPNS_16OperationOfflineE_x1f4
    /*0000014c*/ CMP         R0, #1 
    /*00000150*/ BEQ         _ZN4hirt13WKModelLoader29parseRoiInputsForOneOperationEPPhPNS_16OperationOfflineE_x25c
    /*00000154*/ CMP         R3, #0 
    /*00000158*/ MOV         R0, R5 
    /*0000015c*/ BNE         _ZN4hirt13WKModelLoader29parseRoiInputsForOneOperationEPPhPNS_16OperationOfflineE_x218
    _ZN4hirt13WKModelLoader29parseRoiInputsForOneOperationEPPhPNS_16OperationOfflineE_x160:
    /*00000160*/ LDR         R2, WORD_02f8               @ LDR         R2, [PC, #400]              @ 0x00000000000002f8 
    /*00000164*/ MOV         R1, #0 
    /*00000168*/ STR         R3, [SP, #40]               @ 0x28 
    /*0000016c*/ STRB        R1, [R0, R3] 
    /*00000170*/ MOV         R0, #100                    @ 0x64 
    /*00000174*/ LDR         R7, [R4, R2] 
    /*00000178*/ MOV         R1, R7 
    /*0000017c*/ BL          _ZnwjRKSt9nothrow_t
    /*00000180*/ SUBS        R4, R0, #0 
    /*00000184*/ BEQ         _ZN4hirt13WKModelLoader29parseRoiInputsForOneOperationEPPhPNS_16OperationOfflineE_x230
    /*00000188*/ MOV         R2, SL 
    /*0000018c*/ MOV         R1, FP 
    /*00000190*/ BL          _ZN4hirt14OperandOfflineC1ERKNSt7__cxx1112basic_stringIcSt11char_traitsIcESaIcEEERKNS_14__Data_Shape__E
    /*00000194*/ LDR         R0, [SP, #36]               @ 0x24 
    /*00000198*/ CMP         R0, R5 
    /*0000019c*/ BEQ         _ZN4hirt13WKModelLoader29parseRoiInputsForOneOperationEPPhPNS_16OperationOfflineE_x1ac
    _ZN4hirt13WKModelLoader29parseRoiInputsForOneOperationEPPhPNS_16OperationOfflineE_x1a0:
    /*000001a0*/ BL          _ZdlPv
    /*000001a4*/ CMP         R4, #0 
    /*000001a8*/ BEQ         _ZN4hirt13WKModelLoader29parseRoiInputsForOneOperationEPPhPNS_16OperationOfflineE_x23c
    _ZN4hirt13WKModelLoader29parseRoiInputsForOneOperationEPPhPNS_16OperationOfflineE_x1ac:
    /*000001ac*/ LDRB        R3, [SP, #72]               @ 0x48 
    /*000001b0*/ MOV         R0, R9 
    /*000001b4*/ LDR         IP, [SP, #76]               @ 0x4c 
    /*000001b8*/ MOV         R1, R4 
    /*000001bc*/ STRB        R3, [R4, #80]               @ 0x50 
    /*000001c0*/ LDR         R2, [SP, #80]               @ 0x50 
    /*000001c4*/ LDR         R3, [R9] 
    /*000001c8*/ LDR         R3, [R3, #8] 
    /*000001cc*/ STR         IP, [R4, #68]               @ 0x44 
    /*000001d0*/ STR         R2, [R4, #92]               @ 0x5c 
    /*000001d4*/ BLX         R3 
    _ZN4hirt13WKModelLoader29parseRoiInputsForOneOperationEPPhPNS_16OperationOfflineE_x1d8:
    /*000001d8*/ LDR         R2, [SP, #156]              @ 0x9c 
    /*000001dc*/ MOV         R0, R6 
    /*000001e0*/ LDR         R3, [R8] 
    /*000001e4*/ CMP         R2, R3 
    /*000001e8*/ BNE         _ZN4hirt13WKModelLoader29parseRoiInputsForOneOperationEPPhPNS_16OperationOfflineE_x2c4
    /*000001ec*/ ADD         SP, SP, #164                @ 0xa4 
    /*000001f0*/ POP         {R4, R5, R6, R7, R8, R9, SL, FP, PC} 
    _ZN4hirt13WKModelLoader29parseRoiInputsForOneOperationEPPhPNS_16OperationOfflineE_x1f4:
    /*000001f4*/ STR         R0, [SP, #12] 
    /*000001f8*/ MOV         R2, R6 
    /*000001fc*/ ADD         R1, SP, #16 
    /*00000200*/ MOV         R0, FP 
    /*00000204*/ BL          _ZNSt7__cxx1112basic_stringIcSt11char_traitsIcESaIcEE9_M_createERjj
    /*00000208*/ LDR         R2, [SP, #16] 
    /*0000020c*/ LDR         R3, [SP, #12] 
    /*00000210*/ STR         R0, [SP, #36]               @ 0x24 
    /*00000214*/ STR         R2, [SP, #44]               @ 0x2c 
    _ZN4hirt13WKModelLoader29parseRoiInputsForOneOperationEPPhPNS_16OperationOfflineE_x218:
    /*00000218*/ MOV         R2, R3 
    /*0000021c*/ MOV         R1, R7 
    /*00000220*/ BL          memcpy
    /*00000224*/ LDR         R3, [SP, #16] 
    /*00000228*/ LDR         R0, [SP, #36]               @ 0x24 
    /*0000022c*/ B           _ZN4hirt13WKModelLoader29parseRoiInputsForOneOperationEPPhPNS_16OperationOfflineE_x160
    _ZN4hirt13WKModelLoader29parseRoiInputsForOneOperationEPPhPNS_16OperationOfflineE_x230:
    /*00000230*/ LDR         R0, [SP, #36]               @ 0x24 
    /*00000234*/ CMP         R0, R5 
    /*00000238*/ BNE         _ZN4hirt13WKModelLoader29parseRoiInputsForOneOperationEPPhPNS_16OperationOfflineE_x1a0
    _ZN4hirt13WKModelLoader29parseRoiInputsForOneOperationEPPhPNS_16OperationOfflineE_x23c:
    /*0000023c*/ LDR         R2, WORD_02fc               @ LDR         R2, [PC, #184]              @ 0x00000000000002fc 
    /*00000240*/ MOV         R1, #4 
    /*00000244*/ LDR         R0, WORD_0300               @ LDR         R0, [PC, #180]              @ 0x0000000000000300 
    /*00000248*/ MVN         R6, #0 
    /*0000024c*/ ADD         R2, PC, R2 
    /*00000250*/ ADD         R0, PC, R0 
    /*00000254*/ BL          _Z15HIRT_LOG_PrintfPKc19tagHIRT_LOG_LEVEL_ES0_z
    /*00000258*/ B           _ZN4hirt13WKModelLoader29parseRoiInputsForOneOperationEPPhPNS_16OperationOfflineE_x1d8
    _ZN4hirt13WKModelLoader29parseRoiInputsForOneOperationEPPhPNS_16OperationOfflineE_x25c:
    /*0000025c*/ LDRB        R2, [SP, #92]               @ 0x5c 
    /*00000260*/ MOV         R0, R5 
    /*00000264*/ STRB        R2, [SP, #44]               @ 0x2c 
    /*00000268*/ B           _ZN4hirt13WKModelLoader29parseRoiInputsForOneOperationEPPhPNS_16OperationOfflineE_x160
    _ZN4hirt13WKModelLoader29parseRoiInputsForOneOperationEPPhPNS_16OperationOfflineE_x26c:
    /*0000026c*/ STR         R0, [SP] 
    /*00000270*/ MOV         R1, #4 
    /*00000274*/ LDR         R3, WORD_0304               @ LDR         R3, [PC, #136]              @ 0x0000000000000304 
    /*00000278*/ MVN         R6, #0 
    /*0000027c*/ LDR         R2, WORD_0308               @ LDR         R2, [PC, #132]              @ 0x0000000000000308 
    /*00000280*/ LDR         R0, WORD_030c               @ LDR         R0, [PC, #132]              @ 0x000000000000030c 
    /*00000284*/ ADD         R3, PC, R3 
    /*00000288*/ ADD         R2, PC, R2 
    /*0000028c*/ ADD         R0, PC, R0 
    /*00000290*/ BL          _Z15HIRT_LOG_PrintfPKc19tagHIRT_LOG_LEVEL_ES0_z
    /*00000294*/ B           _ZN4hirt13WKModelLoader29parseRoiInputsForOneOperationEPPhPNS_16OperationOfflineE_x1d8
    _ZN4hirt13WKModelLoader29parseRoiInputsForOneOperationEPPhPNS_16OperationOfflineE_x298:
    /*00000298*/ LDR         R3, WORD_0310               @ LDR         R3, [PC, #112]              @ 0x0000000000000310 
    /*0000029c*/ MOV         R1, #4 
    /*000002a0*/ LDR         R2, WORD_0314               @ LDR         R2, [PC, #108]              @ 0x0000000000000314 
    /*000002a4*/ LDR         R0, WORD_0318               @ LDR         R0, [PC, #108]              @ 0x0000000000000318 
    /*000002a8*/ STR         R6, [SP] 
    /*000002ac*/ MVN         R6, #0 
    /*000002b0*/ ADD         R3, PC, R3 
    /*000002b4*/ ADD         R2, PC, R2 
    /*000002b8*/ ADD         R0, PC, R0 
    /*000002bc*/ BL          _Z15HIRT_LOG_PrintfPKc19tagHIRT_LOG_LEVEL_ES0_z
    /*000002c0*/ B           _ZN4hirt13WKModelLoader29parseRoiInputsForOneOperationEPPhPNS_16OperationOfflineE_x1d8
    _ZN4hirt13WKModelLoader29parseRoiInputsForOneOperationEPPhPNS_16OperationOfflineE_x2c4:
    /*000002c4*/ BL          __stack_chk_fail
    /*000002c8*/ MOV         R0, R4 
    /*000002cc*/ MOV         R1, R7 
    /*000002d0*/ BL          _ZdlPvRKSt9nothrow_t
    /*000002d4*/ LDR         R0, [SP, #36]               @ 0x24 
    /*000002d8*/ CMP         R0, R5 
    /*000002dc*/ BEQ         _ZN4hirt13WKModelLoader29parseRoiInputsForOneOperationEPPhPNS_16OperationOfflineE_x2e4
    /*000002e0*/ BL          _ZdlPv
    _ZN4hirt13WKModelLoader29parseRoiInputsForOneOperationEPPhPNS_16OperationOfflineE_x2e4:
    /*000002e4*/ BL          __cxa_end_cleanup
    /*000002e8*/ WORD_02e8: .word 0x000002c0
    /*000002ec*/ WORD_02ec: .word 0x00000000
    /*000002f0*/ WORD_02f0: .word 0x000001d0
    /*000002f4*/ WORD_02f4: .word 0x000001d0
    /*000002f8*/ WORD_02f8: .word 0x00000000
    /*000002fc*/ WORD_02fc: .word 0x000000a8
    /*00000300*/ WORD_0300: .word 0x000000a8
    /*00000304*/ WORD_0304: .word 0x00000078
    /*00000308*/ WORD_0308: .word 0x00000078
    /*0000030c*/ WORD_030c: .word 0x00000078
    /*00000310*/ WORD_0310: .word 0x00000058
    /*00000314*/ WORD_0314: .word 0x00000058
    /*00000318*/ WORD_0318: .word 0x00000058
FUNC_END _ZN4hirt13WKModelLoader29parseRoiInputsForOneOperationEPPhPNS_16OperationOfflineE


@ - - - - - - - - - - - - - - - - - - - - - - - - - - - - - 
@ .ARM.extab.text._ZN4hirt13WKModelLoader29parseRoiInputsForOneOperationEPPhPNS_16OperationOfflineE
@ Size: 0x1d
@ - - - - - - - - - - - - - - - - - - - - - - - - - - - - - 

@ - - - - - - - - - - - - - - - - - - - - - - - - - - - - - 
@ .text._ZN4hirt13WKModelLoader15releaseExtendWKEPKNS_12GraphOfflineE
@ Size: 0x208
@ - - - - - - - - - - - - - - - - - - - - - - - - - - - - - 

FUNC_BEGIN _ZN4hirt13WKModelLoader15releaseExtendWKEPKNS_12GraphOfflineE
    /*00000000*/ MOV         IP, #16384                  @ 0x4000 
    /*00000004*/ PUSH        {R4, R5, R6, R7, R8, R9, SL, FP, LR} 
    /*00000008*/ SUB         IP, SP, IP 
    /*0000000c*/ STR         R0, [IP, #4040]             @ 0xfc8 
    /*00000010*/ LDR         R7, [R1, #4] 
    /*00000014*/ SUB         SP, SP, #20 
    /*00000018*/ LDR         R3, [R1, #8] 
    /*0000001c*/ LDR         R4, WORD_01dc               @ LDR         R4, [PC, #440]              @ 0x00000000000001dc 
    /*00000020*/ CMP         R7, R3 
    /*00000024*/ ADD         R4, PC, R4 
    /*00000028*/ BEQ         _ZN4hirt13WKModelLoader15releaseExtendWKEPKNS_12GraphOfflineE_x1bc
    /*0000002c*/ LDR         R3, WORD_01e0               @ LDR         R3, [PC, #428]              @ 0x00000000000001e0 
    /*00000030*/ MOV         FP, R1 
    /*00000034*/ LDR         SL, WORD_01e4               @ LDR         SL, [PC, #424]              @ 0x00000000000001e4 
    /*00000038*/ ADD         R3, PC, R3 
    /*0000003c*/ STR         R3, [SP, #8] 
    /*00000040*/ LDR         R3, WORD_01e8               @ LDR         R3, [PC, #416]              @ 0x00000000000001e8 
    /*00000044*/ ADD         SL, PC, SL 
    /*00000048*/ ADD         R3, PC, R3 
    /*0000004c*/ STR         R3, [SP, #12] 
    /*00000050*/ LDR         R3, WORD_01ec               @ LDR         R3, [PC, #404]              @ 0x00000000000001ec 
    /*00000054*/ ADD         R3, PC, R3 
    /*00000058*/ STR         R3, [SP, #4] 
    _ZN4hirt13WKModelLoader15releaseExtendWKEPKNS_12GraphOfflineE_x5c:
    /*0000005c*/ LDR         R0, [R7], #4 
    /*00000060*/ CMP         R0, #0 
    /*00000064*/ BEQ         _ZN4hirt13WKModelLoader15releaseExtendWKEPKNS_12GraphOfflineE_x1c8
    /*00000068*/ LDR         R2, WORD_01f0               @ LDR         R2, [PC, #384]              @ 0x00000000000001f0 
    /*0000006c*/ MOV         R3, #0 
    /*00000070*/ LDR         R1, WORD_01f4               @ LDR         R1, [PC, #380]              @ 0x00000000000001f4 
    /*00000074*/ LDR         R2, [R4, R2] 
    /*00000078*/ LDR         R1, [R4, R1] 
    /*0000007c*/ BL          __dynamic_cast
    /*00000080*/ SUBS        R6, R0, #0 
    /*00000084*/ BEQ         _ZN4hirt13WKModelLoader15releaseExtendWKEPKNS_12GraphOfflineE_x1c8
    /*00000088*/ LDR         R5, [R6, #4] 
    /*0000008c*/ LDR         R3, [R6, #8] 
    /*00000090*/ CMP         R5, R3 
    /*00000094*/ BNE         _ZN4hirt13WKModelLoader15releaseExtendWKEPKNS_12GraphOfflineE_xc8
    /*00000098*/ B           _ZN4hirt13WKModelLoader15releaseExtendWKEPKNS_12GraphOfflineE_x100
    _ZN4hirt13WKModelLoader15releaseExtendWKEPKNS_12GraphOfflineE_x9c:
    /*0000009c*/ LDR         R2, [R4, IP] 
    /*000000a0*/ LDR         R1, [R4, R1] 
    /*000000a4*/ BL          __dynamic_cast
    /*000000a8*/ SUBS        R3, R0, #0 
    /*000000ac*/ BEQ         _ZN4hirt13WKModelLoader15releaseExtendWKEPKNS_12GraphOfflineE_xe4
    /*000000b0*/ LDR         R3, [R3] 
    /*000000b4*/ LDR         R3, [R3, #4] 
    /*000000b8*/ BLX         R3 
    /*000000bc*/ LDR         R3, [R6, #8] 
    /*000000c0*/ CMP         R3, R5 
    /*000000c4*/ BEQ         _ZN4hirt13WKModelLoader15releaseExtendWKEPKNS_12GraphOfflineE_x100
    _ZN4hirt13WKModelLoader15releaseExtendWKEPKNS_12GraphOfflineE_xc8:
    /*000000c8*/ LDR         R2, [R5], #4 
    /*000000cc*/ MOV         R3, #0 
    /*000000d0*/ LDR         IP, WORD_01f8               @ LDR         IP, [PC, #288]              @ 0x00000000000001f8 
    /*000000d4*/ CMP         R2, R3 
    /*000000d8*/ MOV         R0, R2 
    /*000000dc*/ LDR         R1, WORD_01fc               @ LDR         R1, [PC, #280]              @ 0x00000000000001fc 
    /*000000e0*/ BNE         _ZN4hirt13WKModelLoader15releaseExtendWKEPKNS_12GraphOfflineE_x9c
    _ZN4hirt13WKModelLoader15releaseExtendWKEPKNS_12GraphOfflineE_xe4:
    /*000000e4*/ LDR         R0, [SP, #4] 
    /*000000e8*/ MOV         R2, SL 
    /*000000ec*/ MOV         R1, #4 
    /*000000f0*/ BL          _Z15HIRT_LOG_PrintfPKc19tagHIRT_LOG_LEVEL_ES0_z
    /*000000f4*/ LDR         R3, [R6, #8] 
    /*000000f8*/ CMP         R3, R5 
    /*000000fc*/ BNE         _ZN4hirt13WKModelLoader15releaseExtendWKEPKNS_12GraphOfflineE_xc8
    _ZN4hirt13WKModelLoader15releaseExtendWKEPKNS_12GraphOfflineE_x100:
    /*00000100*/ LDR         R5, [R6, #16] 
    /*00000104*/ LDR         R3, [R6, #20] 
    /*00000108*/ CMP         R5, R3 
    /*0000010c*/ BEQ         _ZN4hirt13WKModelLoader15releaseExtendWKEPKNS_12GraphOfflineE_x188
    /*00000110*/ LDR         R9, WORD_0200               @ LDR         R9, [PC, #232]              @ 0x0000000000000200 
    /*00000114*/ LDR         R8, WORD_0204               @ LDR         R8, [PC, #232]              @ 0x0000000000000204 
    /*00000118*/ ADD         R9, PC, R9 
    /*0000011c*/ ADD         R8, PC, R8 
    /*00000120*/ B           _ZN4hirt13WKModelLoader15releaseExtendWKEPKNS_12GraphOfflineE_x150
    _ZN4hirt13WKModelLoader15releaseExtendWKEPKNS_12GraphOfflineE_x124:
    /*00000124*/ LDR         R2, [R4, IP] 
    /*00000128*/ LDR         R1, [R4, R1] 
    /*0000012c*/ BL          __dynamic_cast
    /*00000130*/ SUBS        R3, R0, #0 
    /*00000134*/ BEQ         _ZN4hirt13WKModelLoader15releaseExtendWKEPKNS_12GraphOfflineE_x16c
    /*00000138*/ LDR         R3, [R3] 
    /*0000013c*/ LDR         R3, [R3, #4] 
    /*00000140*/ BLX         R3 
    /*00000144*/ LDR         R3, [R6, #20] 
    /*00000148*/ CMP         R3, R5 
    /*0000014c*/ BEQ         _ZN4hirt13WKModelLoader15releaseExtendWKEPKNS_12GraphOfflineE_x188
    _ZN4hirt13WKModelLoader15releaseExtendWKEPKNS_12GraphOfflineE_x150:
    /*00000150*/ LDR         R2, [R5], #4 
    /*00000154*/ MOV         R3, #0 
    /*00000158*/ LDR         IP, WORD_01f8               @ LDR         IP, [PC, #152]              @ 0x00000000000001f8 
    /*0000015c*/ CMP         R2, R3 
    /*00000160*/ MOV         R0, R2 
    /*00000164*/ LDR         R1, WORD_01fc               @ LDR         R1, [PC, #144]              @ 0x00000000000001fc 
    /*00000168*/ BNE         _ZN4hirt13WKModelLoader15releaseExtendWKEPKNS_12GraphOfflineE_x124
    _ZN4hirt13WKModelLoader15releaseExtendWKEPKNS_12GraphOfflineE_x16c:
    /*0000016c*/ MOV         R2, R9 
    /*00000170*/ MOV         R1, #4 
    /*00000174*/ MOV         R0, R8 
    /*00000178*/ BL          _Z15HIRT_LOG_PrintfPKc19tagHIRT_LOG_LEVEL_ES0_z
    /*0000017c*/ LDR         R3, [R6, #20] 
    /*00000180*/ CMP         R3, R5 
    /*00000184*/ BNE         _ZN4hirt13WKModelLoader15releaseExtendWKEPKNS_12GraphOfflineE_x150
    _ZN4hirt13WKModelLoader15releaseExtendWKEPKNS_12GraphOfflineE_x188:
    /*00000188*/ LDR         R3, [R6, #144]              @ 0x90 
    /*0000018c*/ SUB         R3, R3, #2 
    /*00000190*/ CMP         R3, #1 
    /*00000194*/ BHI         _ZN4hirt13WKModelLoader15releaseExtendWKEPKNS_12GraphOfflineE_x1a0
    /*00000198*/ LDR         R0, [R6, #132]              @ 0x84 
    /*0000019c*/ BL          _Z18HIRT_Utils_DlclosePv
    _ZN4hirt13WKModelLoader15releaseExtendWKEPKNS_12GraphOfflineE_x1a0:
    /*000001a0*/ LDR         R3, [R6] 
    /*000001a4*/ MOV         R0, R6 
    /*000001a8*/ LDR         R3, [R3, #4] 
    /*000001ac*/ BLX         R3 
    _ZN4hirt13WKModelLoader15releaseExtendWKEPKNS_12GraphOfflineE_x1b0:
    /*000001b0*/ LDR         R3, [FP, #8] 
    /*000001b4*/ CMP         R3, R7 
    /*000001b8*/ BNE         _ZN4hirt13WKModelLoader15releaseExtendWKEPKNS_12GraphOfflineE_x5c
    _ZN4hirt13WKModelLoader15releaseExtendWKEPKNS_12GraphOfflineE_x1bc:
    /*000001bc*/ MOV         R0, #0 
    /*000001c0*/ ADD         SP, SP, #20 
    /*000001c4*/ POP         {R4, R5, R6, R7, R8, R9, SL, FP, PC} 
    _ZN4hirt13WKModelLoader15releaseExtendWKEPKNS_12GraphOfflineE_x1c8:
    /*000001c8*/ LDR         R2, [SP, #8] 
    /*000001cc*/ MOV         R1, #4 
    /*000001d0*/ LDR         R0, [SP, #12] 
    /*000001d4*/ BL          _Z15HIRT_LOG_PrintfPKc19tagHIRT_LOG_LEVEL_ES0_z
    /*000001d8*/ B           _ZN4hirt13WKModelLoader15releaseExtendWKEPKNS_12GraphOfflineE_x1b0
    /*000001dc*/ WORD_01dc: .word 0x000001b0
    /*000001e0*/ WORD_01e0: .word 0x000001a0
    /*000001e4*/ WORD_01e4: .word 0x00000198
    /*000001e8*/ WORD_01e8: .word 0x00000198
    /*000001ec*/ WORD_01ec: .word 0x00000190
    /*000001f0*/ WORD_01f0: .word 0x00000000
    /*000001f4*/ WORD_01f4: .word 0x00000000
    /*000001f8*/ WORD_01f8: .word 0x00000000
    /*000001fc*/ WORD_01fc: .word 0x00000000
    /*00000200*/ WORD_0200: .word 0x000000e0
    /*00000204*/ WORD_0204: .word 0x000000e0
FUNC_END _ZN4hirt13WKModelLoader15releaseExtendWKEPKNS_12GraphOfflineE


@ - - - - - - - - - - - - - - - - - - - - - - - - - - - - - 
@ .text._ZN4hirt13WKModelLoader13releaseNnieWKEPK18hiSVP_NNIE_MODEL_S
@ Size: 0x48
@ - - - - - - - - - - - - - - - - - - - - - - - - - - - - - 

FUNC_BEGIN _ZN4hirt13WKModelLoader13releaseNnieWKEPK18hiSVP_NNIE_MODEL_S
    /*00000000*/ MOV         IP, #16384                  @ 0x4000 
    /*00000004*/ PUSH        {R4, LR} 
    /*00000008*/ SUB         IP, SP, IP 
    /*0000000c*/ STR         R0, [IP, #4088]             @ 0xff8 
    /*00000010*/ MOV         R0, R1 
    /*00000014*/ BL          HI_MPI_SVP_NNIE_UnloadModel
    /*00000018*/ CMP         R0, #0 
    /*0000001c*/ BEQ         _ZN4hirt13WKModelLoader13releaseNnieWKEPK18hiSVP_NNIE_MODEL_S_x38
    /*00000020*/ LDR         R2, WORD_0040               @ LDR         R2, [PC, #24]               @ 0x0000000000000040 
    /*00000024*/ MOV         R1, #4 
    /*00000028*/ LDR         R0, WORD_0044               @ LDR         R0, [PC, #20]               @ 0x0000000000000044 
    /*0000002c*/ ADD         R2, PC, R2 
    /*00000030*/ ADD         R0, PC, R0 
    /*00000034*/ BL          _Z15HIRT_LOG_PrintfPKc19tagHIRT_LOG_LEVEL_ES0_z
    _ZN4hirt13WKModelLoader13releaseNnieWKEPK18hiSVP_NNIE_MODEL_S_x38:
    /*00000038*/ MOV         R0, #0 
    /*0000003c*/ POP         {R4, PC} 
    /*00000040*/ WORD_0040: .word 0x0000000c
    /*00000044*/ WORD_0044: .word 0x0000000c
FUNC_END _ZN4hirt13WKModelLoader13releaseNnieWKEPK18hiSVP_NNIE_MODEL_S


@ - - - - - - - - - - - - - - - - - - - - - - - - - - - - - 
@ .text._ZN4hirt13WKModelLoader14getNnieTskSizeEPKNS_12GraphOfflineEPK18hiSVP_NNIE_MODEL_SPj
@ Size: 0x178
@ - - - - - - - - - - - - - - - - - - - - - - - - - - - - - 

FUNC_BEGIN _ZN4hirt13WKModelLoader14getNnieTskSizeEPKNS_12GraphOfflineEPK18hiSVP_NNIE_MODEL_SPj
    /*00000000*/ MOV         IP, #16384                  @ 0x4000 
    /*00000004*/ PUSH        {R4, R5, R6, R7, R8, R9, SL, LR} 
    /*00000008*/ SUB         IP, SP, IP 
    /*0000000c*/ STR         R0, [IP, #4056]             @ 0xfd8 
    /*00000010*/ LDRB        R6, [R1, #140]              @ 0x8c 
    /*00000014*/ SUB         SP, SP, #8 
    /*00000018*/ CMP         R6, #0 
    /*0000001c*/ BEQ         _ZN4hirt13WKModelLoader14getNnieTskSizeEPKNS_12GraphOfflineEPK18hiSVP_NNIE_MODEL_SPj_x114
    /*00000020*/ LSL         SL, R6, #2 
    /*00000024*/ MOV         R4, R1 
    /*00000028*/ LDRB        R8, [R1, #108]              @ 0x6c 
    /*0000002c*/ MOV         R0, SL 
    /*00000030*/ MOV         R9, R2 
    /*00000034*/ MOV         R5, R3 
    /*00000038*/ BL          malloc
    /*0000003c*/ SUBS        R7, R0, #0 
    /*00000040*/ BEQ         _ZN4hirt13WKModelLoader14getNnieTskSizeEPKNS_12GraphOfflineEPK18hiSVP_NNIE_MODEL_SPj_x134
    /*00000044*/ MOV         R1, SL 
    /*00000048*/ MOV         R3, SL 
    /*0000004c*/ MOV         R2, #0 
    /*00000050*/ BL          memset_s
    /*00000054*/ SUBS        R1, R0, #0 
    /*00000058*/ BNE         _ZN4hirt13WKModelLoader14getNnieTskSizeEPKNS_12GraphOfflineEPK18hiSVP_NNIE_MODEL_SPj_xc4
    /*0000005c*/ LDR         R3, [R4, #152]              @ 0x98 
    /*00000060*/ MOV         R2, R9 
    /*00000064*/ LDR         R0, [R4, #88]               @ 0x58 
    /*00000068*/ CMP         R3, #1 
    /*0000006c*/ MOV         R3, R7 
    /*00000070*/ LDREQ       R1, [R4, #96]               @ 0x60 
    /*00000074*/ STR         R6, [SP] 
    /*00000078*/ BL          HI_MPI_SVP_NNIE_GetTskBufSize
    /*0000007c*/ SUBS        R9, R0, #0 
    /*00000080*/ BNE         _ZN4hirt13WKModelLoader14getNnieTskSizeEPKNS_12GraphOfflineEPK18hiSVP_NNIE_MODEL_SPj_xf8
    /*00000084*/ MOV         R4, R9 
    _ZN4hirt13WKModelLoader14getNnieTskSizeEPKNS_12GraphOfflineEPK18hiSVP_NNIE_MODEL_SPj_x88:
    /*00000088*/ LDR         R1, [R7, R4, LSL #2] 
    /*0000008c*/ MOV         R0, R8 
    /*00000090*/ ADD         R4, R4, #1 
    /*00000094*/ BL          _Z12getAlignSizehj
    /*00000098*/ LDR         R3, [R5] 
    /*0000009c*/ UXTB        R4, R4 
    /*000000a0*/ CMP         R6, R4 
    /*000000a4*/ ADD         R0, R3, R0 
    /*000000a8*/ STR         R0, [R5] 
    /*000000ac*/ BGT         _ZN4hirt13WKModelLoader14getNnieTskSizeEPKNS_12GraphOfflineEPK18hiSVP_NNIE_MODEL_SPj_x88
    /*000000b0*/ MOV         R0, R7 
    /*000000b4*/ BL          free
    _ZN4hirt13WKModelLoader14getNnieTskSizeEPKNS_12GraphOfflineEPK18hiSVP_NNIE_MODEL_SPj_xb8:
    /*000000b8*/ MOV         R0, R9 
    /*000000bc*/ ADD         SP, SP, #8 
    /*000000c0*/ POP         {R4, R5, R6, R7, R8, R9, SL, PC} 
    _ZN4hirt13WKModelLoader14getNnieTskSizeEPKNS_12GraphOfflineEPK18hiSVP_NNIE_MODEL_SPj_xc4:
    /*000000c4*/ LDR         R3, WORD_0154               @ LDR         R3, [PC, #136]              @ 0x0000000000000154 
    /*000000c8*/ LDR         R2, WORD_0158               @ LDR         R2, [PC, #136]              @ 0x0000000000000158 
    /*000000cc*/ LDR         R0, WORD_015c               @ LDR         R0, [PC, #136]              @ 0x000000000000015c 
    /*000000d0*/ STR         R1, [SP] 
    /*000000d4*/ MOV         R1, #4 
    /*000000d8*/ ADD         R3, PC, R3 
    /*000000dc*/ ADD         R2, PC, R2 
    /*000000e0*/ ADD         R0, PC, R0 
    /*000000e4*/ BL          _Z15HIRT_LOG_PrintfPKc19tagHIRT_LOG_LEVEL_ES0_z
    _ZN4hirt13WKModelLoader14getNnieTskSizeEPKNS_12GraphOfflineEPK18hiSVP_NNIE_MODEL_SPj_xe8:
    /*000000e8*/ MOV         R0, R7 
    /*000000ec*/ MVN         R9, #0 
    /*000000f0*/ BL          free
    /*000000f4*/ B           _ZN4hirt13WKModelLoader14getNnieTskSizeEPKNS_12GraphOfflineEPK18hiSVP_NNIE_MODEL_SPj_xb8
    _ZN4hirt13WKModelLoader14getNnieTskSizeEPKNS_12GraphOfflineEPK18hiSVP_NNIE_MODEL_SPj_xf8:
    /*000000f8*/ LDR         R2, WORD_0160               @ LDR         R2, [PC, #96]               @ 0x0000000000000160 
    /*000000fc*/ MOV         R1, #4 
    /*00000100*/ LDR         R0, WORD_0164               @ LDR         R0, [PC, #92]               @ 0x0000000000000164 
    /*00000104*/ ADD         R2, PC, R2 
    /*00000108*/ ADD         R0, PC, R0 
    /*0000010c*/ BL          _Z15HIRT_LOG_PrintfPKc19tagHIRT_LOG_LEVEL_ES0_z
    /*00000110*/ B           _ZN4hirt13WKModelLoader14getNnieTskSizeEPKNS_12GraphOfflineEPK18hiSVP_NNIE_MODEL_SPj_xe8
    _ZN4hirt13WKModelLoader14getNnieTskSizeEPKNS_12GraphOfflineEPK18hiSVP_NNIE_MODEL_SPj_x114:
    /*00000114*/ LDR         R2, WORD_0168               @ LDR         R2, [PC, #76]               @ 0x0000000000000168 
    /*00000118*/ MOV         R1, #4 
    /*0000011c*/ LDR         R0, WORD_016c               @ LDR         R0, [PC, #72]               @ 0x000000000000016c 
    /*00000120*/ MVN         R9, #0 
    /*00000124*/ ADD         R2, PC, R2 
    /*00000128*/ ADD         R0, PC, R0 
    /*0000012c*/ BL          _Z15HIRT_LOG_PrintfPKc19tagHIRT_LOG_LEVEL_ES0_z
    /*00000130*/ B           _ZN4hirt13WKModelLoader14getNnieTskSizeEPKNS_12GraphOfflineEPK18hiSVP_NNIE_MODEL_SPj_xb8
    _ZN4hirt13WKModelLoader14getNnieTskSizeEPKNS_12GraphOfflineEPK18hiSVP_NNIE_MODEL_SPj_x134:
    /*00000134*/ LDR         R2, WORD_0170               @ LDR         R2, [PC, #52]               @ 0x0000000000000170 
    /*00000138*/ MOV         R1, #4 
    /*0000013c*/ LDR         R0, WORD_0174               @ LDR         R0, [PC, #48]               @ 0x0000000000000174 
    /*00000140*/ MVN         R9, #0 
    /*00000144*/ ADD         R2, PC, R2 
    /*00000148*/ ADD         R0, PC, R0 
    /*0000014c*/ BL          _Z15HIRT_LOG_PrintfPKc19tagHIRT_LOG_LEVEL_ES0_z
    /*00000150*/ B           _ZN4hirt13WKModelLoader14getNnieTskSizeEPKNS_12GraphOfflineEPK18hiSVP_NNIE_MODEL_SPj_xb8
    /*00000154*/ WORD_0154: .word 0x00000074
    /*00000158*/ WORD_0158: .word 0x00000074
    /*0000015c*/ WORD_015c: .word 0x00000074
    /*00000160*/ WORD_0160: .word 0x00000054
    /*00000164*/ WORD_0164: .word 0x00000054
    /*00000168*/ WORD_0168: .word 0x0000003c
    /*0000016c*/ WORD_016c: .word 0x0000003c
    /*00000170*/ WORD_0170: .word 0x00000024
    /*00000174*/ WORD_0174: .word 0x00000024
FUNC_END _ZN4hirt13WKModelLoader14getNnieTskSizeEPKNS_12GraphOfflineEPK18hiSVP_NNIE_MODEL_SPj


@ - - - - - - - - - - - - - - - - - - - - - - - - - - - - - 
@ .text._ZN4hirt13WKModelLoader14releaseWKModelERKNS_16hiMODEL_LOADER_SE
@ Size: 0x1d4
@ - - - - - - - - - - - - - - - - - - - - - - - - - - - - - 

FUNC_BEGIN _ZN4hirt13WKModelLoader14releaseWKModelERKNS_16hiMODEL_LOADER_SE
    /*00000000*/ MOV         IP, #16384                  @ 0x4000 
    /*00000004*/ PUSH        {R4, R5, R6, LR} 
    /*00000008*/ SUB         IP, SP, IP 
    /*0000000c*/ STR         R0, [IP, #4080]             @ 0xff0 
    /*00000010*/ LDR         R3, [R1] 
    /*00000014*/ MOV         R4, R1 
    /*00000018*/ LDR         IP, WORD_01a0               @ LDR         IP, [PC, #384]              @ 0x00000000000001a0 
    /*0000001c*/ CMP         R3, #0 
    /*00000020*/ ADD         IP, PC, IP 
    /*00000024*/ BEQ         _ZN4hirt13WKModelLoader14releaseWKModelERKNS_16hiMODEL_LOADER_SE_x158
    /*00000028*/ LDR         R1, WORD_01a4               @ LDR         R1, [PC, #372]              @ 0x00000000000001a4 
    /*0000002c*/ MOV         R6, R0 
    /*00000030*/ LDR         R2, WORD_01a8               @ LDR         R2, [PC, #368]              @ 0x00000000000001a8 
    /*00000034*/ MOV         R0, R3 
    /*00000038*/ LDR         R1, [IP, R1] 
    /*0000003c*/ MOV         R3, #0 
    /*00000040*/ ADD         R2, PC, R2 
    /*00000044*/ BL          __dynamic_cast
    /*00000048*/ LDR         R5, [R4, #4] 
    /*0000004c*/ SUBS        R4, R0, #0 
    /*00000050*/ BEQ         _ZN4hirt13WKModelLoader14releaseWKModelERKNS_16hiMODEL_LOADER_SE_x15c
    /*00000054*/ MOV         R0, R6 
    /*00000058*/ MOV         R1, R4 
    /*0000005c*/ BL          _ZN4hirt13WKModelLoader15releaseExtendWKEPKNS_12GraphOfflineE
    /*00000060*/ CMP         R0, #0 
    /*00000064*/ BNE         _ZN4hirt13WKModelLoader14releaseWKModelERKNS_16hiMODEL_LOADER_SE_x13c
    _ZN4hirt13WKModelLoader14releaseWKModelERKNS_16hiMODEL_LOADER_SE_x68:
    /*00000068*/ LDR         R2, [R4] 
    /*0000006c*/ LDR         R3, WORD_01ac               @ LDR         R3, [PC, #312]              @ 0x00000000000001ac 
    /*00000070*/ LDR         R2, [R2, #4] 
    /*00000074*/ ADD         R3, PC, R3 
    /*00000078*/ CMP         R2, R3 
    /*0000007c*/ BNE         _ZN4hirt13WKModelLoader14releaseWKModelERKNS_16hiMODEL_LOADER_SE_x178
    /*00000080*/ LDR         R0, [R4, #116]              @ 0x74 
    /*00000084*/ ADD         R2, R4, #124                @ 0x7c 
    /*00000088*/ LDR         R3, WORD_01b0               @ LDR         R3, [PC, #288]              @ 0x00000000000001b0 
    /*0000008c*/ CMP         R0, R2 
    /*00000090*/ ADD         R3, PC, R3 
    /*00000094*/ ADD         R3, R3, #8 
    /*00000098*/ STR         R3, [R4] 
    /*0000009c*/ BEQ         _ZN4hirt13WKModelLoader14releaseWKModelERKNS_16hiMODEL_LOADER_SE_xa4
    /*000000a0*/ BL          _ZdlPv
    _ZN4hirt13WKModelLoader14releaseWKModelERKNS_16hiMODEL_LOADER_SE_xa4:
    /*000000a4*/ LDR         R0, [R4, #76]               @ 0x4c 
    /*000000a8*/ CMP         R0, #0 
    /*000000ac*/ BEQ         _ZN4hirt13WKModelLoader14releaseWKModelERKNS_16hiMODEL_LOADER_SE_xb4
    /*000000b0*/ BL          _ZdlPv
    _ZN4hirt13WKModelLoader14releaseWKModelERKNS_16hiMODEL_LOADER_SE_xb4:
    /*000000b4*/ LDR         R0, [R4, #64]               @ 0x40 
    /*000000b8*/ CMP         R0, #0 
    /*000000bc*/ BEQ         _ZN4hirt13WKModelLoader14releaseWKModelERKNS_16hiMODEL_LOADER_SE_xc4
    /*000000c0*/ BL          _ZdlPv
    _ZN4hirt13WKModelLoader14releaseWKModelERKNS_16hiMODEL_LOADER_SE_xc4:
    /*000000c4*/ LDR         R0, [R4, #52]               @ 0x34 
    /*000000c8*/ CMP         R0, #0 
    /*000000cc*/ BEQ         _ZN4hirt13WKModelLoader14releaseWKModelERKNS_16hiMODEL_LOADER_SE_xd4
    /*000000d0*/ BL          _ZdlPv
    _ZN4hirt13WKModelLoader14releaseWKModelERKNS_16hiMODEL_LOADER_SE_xd4:
    /*000000d4*/ LDR         R0, [R4, #40]               @ 0x28 
    /*000000d8*/ CMP         R0, #0 
    /*000000dc*/ BEQ         _ZN4hirt13WKModelLoader14releaseWKModelERKNS_16hiMODEL_LOADER_SE_xe4
    /*000000e0*/ BL          _ZdlPv
    _ZN4hirt13WKModelLoader14releaseWKModelERKNS_16hiMODEL_LOADER_SE_xe4:
    /*000000e4*/ MOV         R0, R4 
    /*000000e8*/ BL          _ZN4hirt5GraphD2Ev
    /*000000ec*/ MOV         R0, R4 
    /*000000f0*/ MOV         R1, #156                    @ 0x9c 
    /*000000f4*/ BL          _ZdlPvj
    _ZN4hirt13WKModelLoader14releaseWKModelERKNS_16hiMODEL_LOADER_SE_xf8:
    /*000000f8*/ CMP         R5, #0 
    /*000000fc*/ BEQ         _ZN4hirt13WKModelLoader14releaseWKModelERKNS_16hiMODEL_LOADER_SE_x184
    /*00000100*/ MOV         R0, R5 
    /*00000104*/ BL          HI_MPI_SVP_NNIE_UnloadModel
    /*00000108*/ CMP         R0, #0 
    /*0000010c*/ BNE         _ZN4hirt13WKModelLoader14releaseWKModelERKNS_16hiMODEL_LOADER_SE_x120
    _ZN4hirt13WKModelLoader14releaseWKModelERKNS_16hiMODEL_LOADER_SE_x110:
    /*00000110*/ MOV         R0, R5 
    /*00000114*/ BL          free
    _ZN4hirt13WKModelLoader14releaseWKModelERKNS_16hiMODEL_LOADER_SE_x118:
    /*00000118*/ MOV         R0, #0 
    /*0000011c*/ POP         {R4, R5, R6, PC} 
    _ZN4hirt13WKModelLoader14releaseWKModelERKNS_16hiMODEL_LOADER_SE_x120:
    /*00000120*/ LDR         R2, WORD_01b4               @ LDR         R2, [PC, #140]              @ 0x00000000000001b4 
    /*00000124*/ MOV         R1, #4 
    /*00000128*/ LDR         R0, WORD_01b8               @ LDR         R0, [PC, #136]              @ 0x00000000000001b8 
    /*0000012c*/ ADD         R2, PC, R2 
    /*00000130*/ ADD         R0, PC, R0 
    /*00000134*/ BL          _Z15HIRT_LOG_PrintfPKc19tagHIRT_LOG_LEVEL_ES0_z
    /*00000138*/ B           _ZN4hirt13WKModelLoader14releaseWKModelERKNS_16hiMODEL_LOADER_SE_x110
    _ZN4hirt13WKModelLoader14releaseWKModelERKNS_16hiMODEL_LOADER_SE_x13c:
    /*0000013c*/ LDR         R2, WORD_01bc               @ LDR         R2, [PC, #120]              @ 0x00000000000001bc 
    /*00000140*/ MOV         R1, #4 
    /*00000144*/ LDR         R0, WORD_01c0               @ LDR         R0, [PC, #116]              @ 0x00000000000001c0 
    /*00000148*/ ADD         R2, PC, R2 
    /*0000014c*/ ADD         R0, PC, R0 
    /*00000150*/ BL          _Z15HIRT_LOG_PrintfPKc19tagHIRT_LOG_LEVEL_ES0_z
    /*00000154*/ B           _ZN4hirt13WKModelLoader14releaseWKModelERKNS_16hiMODEL_LOADER_SE_x68
    _ZN4hirt13WKModelLoader14releaseWKModelERKNS_16hiMODEL_LOADER_SE_x158:
    /*00000158*/ LDR         R5, [R1, #4] 
    _ZN4hirt13WKModelLoader14releaseWKModelERKNS_16hiMODEL_LOADER_SE_x15c:
    /*0000015c*/ LDR         R2, WORD_01c4               @ LDR         R2, [PC, #96]               @ 0x00000000000001c4 
    /*00000160*/ MOV         R1, #4 
    /*00000164*/ LDR         R0, WORD_01c8               @ LDR         R0, [PC, #92]               @ 0x00000000000001c8 
    /*00000168*/ ADD         R2, PC, R2 
    /*0000016c*/ ADD         R0, PC, R0 
    /*00000170*/ BL          _Z15HIRT_LOG_PrintfPKc19tagHIRT_LOG_LEVEL_ES0_z
    /*00000174*/ B           _ZN4hirt13WKModelLoader14releaseWKModelERKNS_16hiMODEL_LOADER_SE_xf8
    _ZN4hirt13WKModelLoader14releaseWKModelERKNS_16hiMODEL_LOADER_SE_x178:
    /*00000178*/ MOV         R0, R4 
    /*0000017c*/ BLX         R2 
    /*00000180*/ B           _ZN4hirt13WKModelLoader14releaseWKModelERKNS_16hiMODEL_LOADER_SE_xf8
    _ZN4hirt13WKModelLoader14releaseWKModelERKNS_16hiMODEL_LOADER_SE_x184:
    /*00000184*/ LDR         R2, WORD_01cc               @ LDR         R2, [PC, #64]               @ 0x00000000000001cc 
    /*00000188*/ MOV         R1, #4 
    /*0000018c*/ LDR         R0, WORD_01d0               @ LDR         R0, [PC, #60]               @ 0x00000000000001d0 
    /*00000190*/ ADD         R2, PC, R2 
    /*00000194*/ ADD         R0, PC, R0 
    /*00000198*/ BL          _Z15HIRT_LOG_PrintfPKc19tagHIRT_LOG_LEVEL_ES0_z
    /*0000019c*/ B           _ZN4hirt13WKModelLoader14releaseWKModelERKNS_16hiMODEL_LOADER_SE_x118
    /*000001a0*/ WORD_01a0: .word 0x00000178
    /*000001a4*/ WORD_01a4: .word 0x00000000
    /*000001a8*/ WORD_01a8: .word 0x00000160
    /*000001ac*/ WORD_01ac: .word 0x00000130
    /*000001b0*/ WORD_01b0: .word 0x00000118
    /*000001b4*/ WORD_01b4: .word 0x00000080
    /*000001b8*/ WORD_01b8: .word 0x00000080
    /*000001bc*/ WORD_01bc: .word 0x0000006c
    /*000001c0*/ WORD_01c0: .word 0x0000006c
    /*000001c4*/ WORD_01c4: .word 0x00000054
    /*000001c8*/ WORD_01c8: .word 0x00000054
    /*000001cc*/ WORD_01cc: .word 0x00000034
    /*000001d0*/ WORD_01d0: .word 0x00000034
FUNC_END _ZN4hirt13WKModelLoader14releaseWKModelERKNS_16hiMODEL_LOADER_SE


@ - - - - - - - - - - - - - - - - - - - - - - - - - - - - - 
@ .text._ZNSt8_Rb_treeIjjSt9_IdentityIjESt4lessIjESaIjEE16_M_insert_uniqueIRKjEESt4pairISt17_Rb_tree_iteratorIjEbEOT_
@ Size: 0x120
@ - - - - - - - - - - - - - - - - - - - - - - - - - - - - - 

FUNC_BEGIN _ZNSt8_Rb_treeIjjSt9_IdentityIjESt4lessIjESaIjEE16_M_insert_uniqueIRKjEESt4pairISt17_Rb_tree_iteratorIjEbEOT_
    /*00000000*/ MOV         IP, #16384                  @ 0x4000 
    /*00000004*/ PUSH        {R4, R5, R6, R7, R8, R9, SL, LR} 
    /*00000008*/ SUB         IP, SP, IP 
    /*0000000c*/ STR         R0, [IP, #4064]             @ 0xfe0 
    /*00000010*/ MOV         R6, R0 
    /*00000014*/ MOV         R5, R1 
    /*00000018*/ LDR         R0, [R1, #8] 
    /*0000001c*/ MOV         R8, R2 
    /*00000020*/ ADD         R7, R1, #4 
    /*00000024*/ CMP         R0, #0 
    /*00000028*/ BEQ         _ZNSt8_Rb_treeIjjSt9_IdentityIjESt4lessIjESaIjEE16_M_insert_uniqueIRKjEESt4pairISt17_Rb_tree_iteratorIjEbEOT__x80
    /*0000002c*/ LDR         LR, [R2] 
    /*00000030*/ B           _ZNSt8_Rb_treeIjjSt9_IdentityIjESt4lessIjESaIjEE16_M_insert_uniqueIRKjEESt4pairISt17_Rb_tree_iteratorIjEbEOT__x38
    _ZNSt8_Rb_treeIjjSt9_IdentityIjESt4lessIjESaIjEE16_M_insert_uniqueIRKjEESt4pairISt17_Rb_tree_iteratorIjEbEOT__x34:
    /*00000034*/ MOV         R0, R3 
    _ZNSt8_Rb_treeIjjSt9_IdentityIjESt4lessIjESaIjEE16_M_insert_uniqueIRKjEESt4pairISt17_Rb_tree_iteratorIjEbEOT__x38:
    /*00000038*/ LDR         R1, [R0, #16] 
    /*0000003c*/ MOV         IP, #1 
    /*00000040*/ CMP         R1, LR 
    /*00000044*/ MOVLS       IP, #0 
    /*00000048*/ LDRHI       R3, [R0, #8] 
    /*0000004c*/ LDRLS       R3, [R0, #12] 
    /*00000050*/ CMP         R3, #0 
    /*00000054*/ BNE         _ZNSt8_Rb_treeIjjSt9_IdentityIjESt4lessIjESaIjEE16_M_insert_uniqueIRKjEESt4pairISt17_Rb_tree_iteratorIjEbEOT__x34
    /*00000058*/ CMP         IP, #0 
    /*0000005c*/ MOV         R4, R0 
    /*00000060*/ BNE         _ZNSt8_Rb_treeIjjSt9_IdentityIjESt4lessIjESaIjEE16_M_insert_uniqueIRKjEESt4pairISt17_Rb_tree_iteratorIjEbEOT__x84
    /*00000064*/ CMP         R1, LR 
    /*00000068*/ BCC         _ZNSt8_Rb_treeIjjSt9_IdentityIjESt4lessIjESaIjEE16_M_insert_uniqueIRKjEESt4pairISt17_Rb_tree_iteratorIjEbEOT__xa8
    _ZNSt8_Rb_treeIjjSt9_IdentityIjESt4lessIjESaIjEE16_M_insert_uniqueIRKjEESt4pairISt17_Rb_tree_iteratorIjEbEOT__x6c:
    /*0000006c*/ STR         R0, [R6] 
    /*00000070*/ MOV         R3, #0 
    /*00000074*/ STRB        R3, [R6, #4] 
    /*00000078*/ MOV         R0, R6 
    /*0000007c*/ POP         {R4, R5, R6, R7, R8, R9, SL, PC} 
    _ZNSt8_Rb_treeIjjSt9_IdentityIjESt4lessIjESaIjEE16_M_insert_uniqueIRKjEESt4pairISt17_Rb_tree_iteratorIjEbEOT__x80:
    /*00000080*/ MOV         R4, R7 
    _ZNSt8_Rb_treeIjjSt9_IdentityIjESt4lessIjESaIjEE16_M_insert_uniqueIRKjEESt4pairISt17_Rb_tree_iteratorIjEbEOT__x84:
    /*00000084*/ LDR         R3, [R5, #12] 
    /*00000088*/ CMP         R3, R4 
    /*0000008c*/ BEQ         _ZNSt8_Rb_treeIjjSt9_IdentityIjESt4lessIjESaIjEE16_M_insert_uniqueIRKjEESt4pairISt17_Rb_tree_iteratorIjEbEOT__xb0
    /*00000090*/ MOV         R0, R4 
    /*00000094*/ BL          _ZSt18_Rb_tree_decrementPSt18_Rb_tree_node_base
    /*00000098*/ LDR         R1, [R0, #16] 
    /*0000009c*/ LDR         LR, [R8] 
    /*000000a0*/ CMP         R1, LR 
    /*000000a4*/ BCS         _ZNSt8_Rb_treeIjjSt9_IdentityIjESt4lessIjESaIjEE16_M_insert_uniqueIRKjEESt4pairISt17_Rb_tree_iteratorIjEbEOT__x6c
    _ZNSt8_Rb_treeIjjSt9_IdentityIjESt4lessIjESaIjEE16_M_insert_uniqueIRKjEESt4pairISt17_Rb_tree_iteratorIjEbEOT__xa8:
    /*000000a8*/ CMP         R4, #0 
    /*000000ac*/ BEQ         _ZNSt8_Rb_treeIjjSt9_IdentityIjESt4lessIjESaIjEE16_M_insert_uniqueIRKjEESt4pairISt17_Rb_tree_iteratorIjEbEOT__x118
    _ZNSt8_Rb_treeIjjSt9_IdentityIjESt4lessIjESaIjEE16_M_insert_uniqueIRKjEESt4pairISt17_Rb_tree_iteratorIjEbEOT__xb0:
    /*000000b0*/ CMP         R7, R4 
    /*000000b4*/ MOVEQ       SL, #1 
    /*000000b8*/ BEQ         _ZNSt8_Rb_treeIjjSt9_IdentityIjESt4lessIjESaIjEE16_M_insert_uniqueIRKjEESt4pairISt17_Rb_tree_iteratorIjEbEOT__xd0
    /*000000bc*/ LDR         SL, [R8] 
    /*000000c0*/ LDR         R3, [R4, #16] 
    /*000000c4*/ CMP         SL, R3 
    /*000000c8*/ MOVCS       SL, #0 
    /*000000cc*/ MOVCC       SL, #1 
    _ZNSt8_Rb_treeIjjSt9_IdentityIjESt4lessIjESaIjEE16_M_insert_uniqueIRKjEESt4pairISt17_Rb_tree_iteratorIjEbEOT__xd0:
    /*000000d0*/ MOV         R0, #20 
    /*000000d4*/ BL          _Znwj
    /*000000d8*/ LDR         R2, [R8] 
    /*000000dc*/ MOV         R9, R0 
    /*000000e0*/ MOV         R3, R7 
    /*000000e4*/ MOV         R0, SL 
    /*000000e8*/ STR         R2, [R9, #16] 
    /*000000ec*/ MOV         R1, R9 
    /*000000f0*/ MOV         R2, R4 
    /*000000f4*/ BL          _ZSt29_Rb_tree_insert_and_rebalancebPSt18_Rb_tree_node_baseS0_RS_
    /*000000f8*/ LDR         R3, [R5, #20] 
    /*000000fc*/ MOV         R2, #1 
    /*00000100*/ STR         R9, [R6] 
    /*00000104*/ MOV         R0, R6 
    /*00000108*/ ADD         R3, R3, R2 
    /*0000010c*/ STRB        R2, [R6, #4] 
    /*00000110*/ STR         R3, [R5, #20] 
    /*00000114*/ POP         {R4, R5, R6, R7, R8, R9, SL, PC} 
    _ZNSt8_Rb_treeIjjSt9_IdentityIjESt4lessIjESaIjEE16_M_insert_uniqueIRKjEESt4pairISt17_Rb_tree_iteratorIjEbEOT__x118:
    /*00000118*/ MOV         R0, R4 
    /*0000011c*/ B           _ZNSt8_Rb_treeIjjSt9_IdentityIjESt4lessIjESaIjEE16_M_insert_uniqueIRKjEESt4pairISt17_Rb_tree_iteratorIjEbEOT__x6c
FUNC_END _ZNSt8_Rb_treeIjjSt9_IdentityIjESt4lessIjESaIjEE16_M_insert_uniqueIRKjEESt4pairISt17_Rb_tree_iteratorIjEbEOT_


@ - - - - - - - - - - - - - - - - - - - - - - - - - - - - - 
@ .text._ZNSt6vectorIPN4hirt7OperandESaIS2_EE19_M_emplace_back_auxIJRKS2_EEEvDpOT_
@ Size: 0xd4
@ - - - - - - - - - - - - - - - - - - - - - - - - - - - - - 

FUNC_BEGIN _ZNSt6vectorIPN4hirt7OperandESaIS2_EE19_M_emplace_back_auxIJRKS2_EEEvDpOT_
    /*00000000*/ MOV         IP, #16384                  @ 0x4000 
    /*00000004*/ PUSH        {R4, R5, R6, R7, R8, R9, SL, LR} 
    /*00000008*/ SUB         IP, SP, IP 
    /*0000000c*/ STR         R0, [IP, #4064]             @ 0xfe0 
    /*00000010*/ LDM         R0, {R2, R3} 
    /*00000014*/ MOV         R6, R0 
    /*00000018*/ MOV         R9, R1 
    /*0000001c*/ SUB         R3, R3, R2 
    /*00000020*/ ASRS        R3, R3, #2 
    /*00000024*/ BEQ         _ZNSt6vectorIPN4hirt7OperandESaIS2_EE19_M_emplace_back_auxIJRKS2_EEEvDpOT__x3c
    /*00000028*/ LSL         R5, R3, #1 
    /*0000002c*/ CMP         R3, R5 
    /*00000030*/ BLS         _ZNSt6vectorIPN4hirt7OperandESaIS2_EE19_M_emplace_back_auxIJRKS2_EEEvDpOT__xb8
    _ZNSt6vectorIPN4hirt7OperandESaIS2_EE19_M_emplace_back_auxIJRKS2_EEEvDpOT__x34:
    /*00000034*/ MVN         R5, #3 
    /*00000038*/ B           _ZNSt6vectorIPN4hirt7OperandESaIS2_EE19_M_emplace_back_auxIJRKS2_EEEvDpOT__x40
    _ZNSt6vectorIPN4hirt7OperandESaIS2_EE19_M_emplace_back_auxIJRKS2_EEEvDpOT__x3c:
    /*0000003c*/ MOV         R5, #4 
    _ZNSt6vectorIPN4hirt7OperandESaIS2_EE19_M_emplace_back_auxIJRKS2_EEEvDpOT__x40:
    /*00000040*/ MOV         R0, R5 
    /*00000044*/ BL          _Znwj
    /*00000048*/ MOV         R7, R0 
    _ZNSt6vectorIPN4hirt7OperandESaIS2_EE19_M_emplace_back_auxIJRKS2_EEEvDpOT__x4c:
    /*0000004c*/ LDR         R8, [R6] 
    /*00000050*/ LDR         R4, [R6, #4] 
    /*00000054*/ LDR         R2, [R9] 
    /*00000058*/ SUB         R4, R4, R8 
    /*0000005c*/ CMN         R7, R4 
    /*00000060*/ ASR         R3, R4, #2 
    /*00000064*/ STRNE       R2, [R7, R4] 
    /*00000068*/ CMP         R3, #0 
    /*0000006c*/ BNE         _ZNSt6vectorIPN4hirt7OperandESaIS2_EE19_M_emplace_back_auxIJRKS2_EEEvDpOT__x9c
    /*00000070*/ CMP         R8, #0 
    /*00000074*/ ADD         R4, R4, #4 
    /*00000078*/ ADD         R4, R7, R4 
    /*0000007c*/ BEQ         _ZNSt6vectorIPN4hirt7OperandESaIS2_EE19_M_emplace_back_auxIJRKS2_EEEvDpOT__x88
    _ZNSt6vectorIPN4hirt7OperandESaIS2_EE19_M_emplace_back_auxIJRKS2_EEEvDpOT__x80:
    /*00000080*/ MOV         R0, R8 
    /*00000084*/ BL          _ZdlPv
    _ZNSt6vectorIPN4hirt7OperandESaIS2_EE19_M_emplace_back_auxIJRKS2_EEEvDpOT__x88:
    /*00000088*/ ADD         R5, R7, R5 
    /*0000008c*/ STR         R5, [R6, #8] 
    /*00000090*/ STR         R7, [R6] 
    /*00000094*/ STR         R4, [R6, #4] 
    /*00000098*/ POP         {R4, R5, R6, R7, R8, R9, SL, PC} 
    _ZNSt6vectorIPN4hirt7OperandESaIS2_EE19_M_emplace_back_auxIJRKS2_EEEvDpOT__x9c:
    /*0000009c*/ MOV         R2, R4 
    /*000000a0*/ MOV         R1, R8 
    /*000000a4*/ MOV         R0, R7 
    /*000000a8*/ ADD         R4, R4, #4 
    /*000000ac*/ ADD         R4, R7, R4 
    /*000000b0*/ BL          memmove
    /*000000b4*/ B           _ZNSt6vectorIPN4hirt7OperandESaIS2_EE19_M_emplace_back_auxIJRKS2_EEEvDpOT__x80
    _ZNSt6vectorIPN4hirt7OperandESaIS2_EE19_M_emplace_back_auxIJRKS2_EEEvDpOT__xb8:
    /*000000b8*/ CMN         R5, #-1073741823            @ 0xc0000001 
    /*000000bc*/ BHI         _ZNSt6vectorIPN4hirt7OperandESaIS2_EE19_M_emplace_back_auxIJRKS2_EEEvDpOT__x34
    /*000000c0*/ CMP         R5, #0 
    /*000000c4*/ LSLNE       R5, R3, #3 
    /*000000c8*/ BNE         _ZNSt6vectorIPN4hirt7OperandESaIS2_EE19_M_emplace_back_auxIJRKS2_EEEvDpOT__x40
    /*000000cc*/ MOV         R7, R5 
    /*000000d0*/ B           _ZNSt6vectorIPN4hirt7OperandESaIS2_EE19_M_emplace_back_auxIJRKS2_EEEvDpOT__x4c
FUNC_END _ZNSt6vectorIPN4hirt7OperandESaIS2_EE19_M_emplace_back_auxIJRKS2_EEEvDpOT_


@ - - - - - - - - - - - - - - - - - - - - - - - - - - - - - 
@ .text._ZN4hirt13WKModelLoader26parseInputsForOneOperationEPNS_12GraphOfflineEPPhPNS_16OperationOfflineE
@ Size: 0x320
@ - - - - - - - - - - - - - - - - - - - - - - - - - - - - - 

FUNC_BEGIN _ZN4hirt13WKModelLoader26parseInputsForOneOperationEPNS_12GraphOfflineEPPhPNS_16OperationOfflineE
    /*00000000*/ MOV         IP, #16384                  @ 0x4000 
    /*00000004*/ PUSH        {R4, R5, R6, R7, R8, R9, SL, FP, LR} 
    /*00000008*/ SUB         IP, SP, IP 
    /*0000000c*/ STR         R0, [IP, #3896]             @ 0xf38 
    /*00000010*/ LDR         R5, WORD_0300               @ LDR         R5, [PC, #744]              @ 0x0000000000000300 
    /*00000014*/ MOV         R4, R2 
    /*00000018*/ LDR         R2, WORD_0304               @ LDR         R2, [PC, #740]              @ 0x0000000000000304 
    /*0000001c*/ SUB         SP, SP, #164                @ 0xa4 
    /*00000020*/ ADD         R5, PC, R5 
    /*00000024*/ MOV         R9, R1 
    /*00000028*/ VMOV.I32    Q8, #0                      @ 0x00000000 
    /*0000002c*/ LDR         R2, [R5, R2] 
    /*00000030*/ ADD         R8, SP, #20 
    /*00000034*/ ADD         R0, SP, #60                 @ 0x3c 
    /*00000038*/ MOV         R7, R3 
    /*0000003c*/ LDR         R1, [R2] 
    /*00000040*/ ADD         R6, SP, #92                 @ 0x5c 
    /*00000044*/ STR         R2, [SP, #8] 
    /*00000048*/ MOV         R2, #96                     @ 0x60 
    /*0000004c*/ STR         R1, [SP, #156]              @ 0x9c 
    /*00000050*/ MOV         R1, #0 
    /*00000054*/ VST1.8      {D16-D17}, [R8] 
    /*00000058*/ BL          memset
    /*0000005c*/ LDR         IP, [R4] 
    /*00000060*/ LDR         R1, [IP, #8] 
    /*00000064*/ ADD         LR, IP, #12 
    /*00000068*/ LDR         R3, [IP] 
    /*0000006c*/ ADD         R0, IP, #13 
    /*00000070*/ LDRH        SL, [IP, #14] 
    /*00000074*/ LDR         R2, [IP, #4] 
    /*00000078*/ STR         LR, [R4] 
    /*0000007c*/ ADD         LR, IP, #32 
    /*00000080*/ STR         R1, [SP, #68]               @ 0x44 
    /*00000084*/ LDRB        R1, [IP, #12] 
    /*00000088*/ STR         R3, [SP, #60]               @ 0x3c 
    /*0000008c*/ MOV         R3, #64                     @ 0x40 
    /*00000090*/ STR         R0, [R4] 
    /*00000094*/ MOV         R0, R6 
    /*00000098*/ LDRB        FP, [IP, #13] 
    /*0000009c*/ STRH        SL, [SP, #74]               @ 0x4a 
    /*000000a0*/ LDR         SL, [IP, #16] 
    /*000000a4*/ LDR         IP, [IP, #20] 
    /*000000a8*/ STR         R2, [SP, #64]               @ 0x40 
    /*000000ac*/ MOV         R2, LR 
    /*000000b0*/ STRB        R1, [SP, #72]               @ 0x48 
    /*000000b4*/ MOV         R1, R3 
    /*000000b8*/ STR         LR, [R4] 
    /*000000bc*/ MOV         LR, #2 
    /*000000c0*/ STR         SL, [SP, #76]               @ 0x4c 
    /*000000c4*/ STRB        FP, [SP, #73]               @ 0x49 
    /*000000c8*/ STR         IP, [SP, #80]               @ 0x50 
    /*000000cc*/ STRH        LR, [SP, #84]               @ 0x54 
    /*000000d0*/ BL          memcpy_s
    /*000000d4*/ SUBS        SL, R0, #0 
    /*000000d8*/ BNE         _ZN4hirt13WKModelLoader26parseInputsForOneOperationEPNS_12GraphOfflineEPPhPNS_16OperationOfflineE_x2a0
    /*000000dc*/ LDR         R3, [R4] 
    /*000000e0*/ MOV         R2, #1 
    /*000000e4*/ LDR         R1, [SP, #60]               @ 0x3c 
    /*000000e8*/ MOV         R0, R6 
    /*000000ec*/ STRB        SL, [SP, #155]              @ 0x9b 
    /*000000f0*/ ADD         R3, R3, #64                 @ 0x40 
    /*000000f4*/ STR         R3, [R4] 
    /*000000f8*/ ADD         R4, SP, #44                 @ 0x2c 
    /*000000fc*/ LDR         R3, [SP, #64]               @ 0x40 
    /*00000100*/ ADD         FP, SP, #36                 @ 0x24 
    /*00000104*/ STR         R1, [SP, #28] 
    /*00000108*/ STR         R3, [SP, #32] 
    /*0000010c*/ LDR         R3, [SP, #68]               @ 0x44 
    /*00000110*/ STR         R2, [SP, #20] 
    /*00000114*/ STR         R3, [SP, #24] 
    /*00000118*/ STR         R4, [SP, #36]               @ 0x24 
    /*0000011c*/ BL          strlen
    /*00000120*/ STR         R0, [SP, #16] 
    /*00000124*/ CMP         R0, #15 
    /*00000128*/ MOV         R3, R0 
    /*0000012c*/ BHI         _ZN4hirt13WKModelLoader26parseInputsForOneOperationEPNS_12GraphOfflineEPPhPNS_16OperationOfflineE_x228
    /*00000130*/ CMP         R0, #1 
    /*00000134*/ BEQ         _ZN4hirt13WKModelLoader26parseInputsForOneOperationEPNS_12GraphOfflineEPPhPNS_16OperationOfflineE_x290
    /*00000138*/ CMP         R3, #0 
    /*0000013c*/ MOV         R0, R4 
    /*00000140*/ BNE         _ZN4hirt13WKModelLoader26parseInputsForOneOperationEPNS_12GraphOfflineEPPhPNS_16OperationOfflineE_x24c
    _ZN4hirt13WKModelLoader26parseInputsForOneOperationEPNS_12GraphOfflineEPPhPNS_16OperationOfflineE_x144:
    /*00000144*/ LDR         R2, WORD_0308               @ LDR         R2, [PC, #444]              @ 0x0000000000000308 
    /*00000148*/ MOV         R1, #0 
    /*0000014c*/ STR         R3, [SP, #40]               @ 0x28 
    /*00000150*/ STRB        R1, [R0, R3] 
    /*00000154*/ MOV         R0, #100                    @ 0x64 
    /*00000158*/ LDR         R6, [R5, R2] 
    /*0000015c*/ MOV         R1, R6 
    /*00000160*/ BL          _ZnwjRKSt9nothrow_t
    /*00000164*/ SUBS        R5, R0, #0 
    /*00000168*/ BEQ         _ZN4hirt13WKModelLoader26parseInputsForOneOperationEPNS_12GraphOfflineEPPhPNS_16OperationOfflineE_x264
    /*0000016c*/ MOV         R2, R8 
    /*00000170*/ MOV         R1, FP 
    /*00000174*/ BL          _ZN4hirt14OperandOfflineC1ERKNSt7__cxx1112basic_stringIcSt11char_traitsIcESaIcEEERKNS_14__Data_Shape__E
    /*00000178*/ LDR         R0, [SP, #36]               @ 0x24 
    /*0000017c*/ CMP         R0, R4 
    /*00000180*/ BEQ         _ZN4hirt13WKModelLoader26parseInputsForOneOperationEPNS_12GraphOfflineEPPhPNS_16OperationOfflineE_x190
    _ZN4hirt13WKModelLoader26parseInputsForOneOperationEPNS_12GraphOfflineEPPhPNS_16OperationOfflineE_x184:
    /*00000184*/ BL          _ZdlPv
    /*00000188*/ CMP         R5, #0 
    /*0000018c*/ BEQ         _ZN4hirt13WKModelLoader26parseInputsForOneOperationEPNS_12GraphOfflineEPPhPNS_16OperationOfflineE_x270
    _ZN4hirt13WKModelLoader26parseInputsForOneOperationEPNS_12GraphOfflineEPPhPNS_16OperationOfflineE_x190:
    /*00000190*/ LDRB        R2, [SP, #72]               @ 0x48 
    /*00000194*/ MOV         R0, R7 
    /*00000198*/ LDRB        R3, [SP, #73]               @ 0x49 
    /*0000019c*/ MOV         R1, R5 
    /*000001a0*/ STRB        R2, [R5, #80]               @ 0x50 
    /*000001a4*/ ADDS        R3, R3, #0 
    /*000001a8*/ LDR         R2, [R7] 
    /*000001ac*/ MOVNE       R3, #1 
    /*000001b0*/ LDRH        IP, [SP, #74]               @ 0x4a 
    /*000001b4*/ LDR         R2, [R2, #8] 
    /*000001b8*/ STR         R3, [R5, #84]               @ 0x54 
    /*000001bc*/ LDR         R3, [SP, #76]               @ 0x4c 
    /*000001c0*/ STRH        IP, [R5, #88]               @ 0x58 
    /*000001c4*/ STR         R3, [R5, #68]               @ 0x44 
    /*000001c8*/ LDR         R3, [SP, #80]               @ 0x50 
    /*000001cc*/ STR         R3, [R5, #92]               @ 0x5c 
    /*000001d0*/ BLX         R2 
    /*000001d4*/ LDR         R3, [R5, #84]               @ 0x54 
    /*000001d8*/ CMP         R3, #0 
    /*000001dc*/ BNE         _ZN4hirt13WKModelLoader26parseInputsForOneOperationEPNS_12GraphOfflineEPPhPNS_16OperationOfflineE_x200
    _ZN4hirt13WKModelLoader26parseInputsForOneOperationEPNS_12GraphOfflineEPPhPNS_16OperationOfflineE_x1e0:
    /*000001e0*/ LDR         R3, [SP, #8] 
    /*000001e4*/ MOV         R0, SL 
    /*000001e8*/ LDR         R2, [SP, #156]              @ 0x9c 
    /*000001ec*/ LDR         R3, [R3] 
    /*000001f0*/ CMP         R2, R3 
    /*000001f4*/ BNE         _ZN4hirt13WKModelLoader26parseInputsForOneOperationEPNS_12GraphOfflineEPPhPNS_16OperationOfflineE_x2dc
    /*000001f8*/ ADD         SP, SP, #164                @ 0xa4 
    /*000001fc*/ POP         {R4, R5, R6, R7, R8, R9, SL, FP, PC} 
    _ZN4hirt13WKModelLoader26parseInputsForOneOperationEPNS_12GraphOfflineEPPhPNS_16OperationOfflineE_x200:
    /*00000200*/ LDR         R3, [R9, #68]               @ 0x44 
    /*00000204*/ LDR         R2, [R9, #72]               @ 0x48 
    /*00000208*/ STR         R5, [SP, #16] 
    /*0000020c*/ CMP         R3, R2 
    /*00000210*/ BEQ         _ZN4hirt13WKModelLoader26parseInputsForOneOperationEPNS_12GraphOfflineEPPhPNS_16OperationOfflineE_x2cc
    /*00000214*/ CMP         R3, #0 
    /*00000218*/ ADD         R3, R3, #4 
    /*0000021c*/ STRNE       R5, [R3, #-4] 
    /*00000220*/ STR         R3, [R9, #68]               @ 0x44 
    /*00000224*/ B           _ZN4hirt13WKModelLoader26parseInputsForOneOperationEPNS_12GraphOfflineEPPhPNS_16OperationOfflineE_x1e0
    _ZN4hirt13WKModelLoader26parseInputsForOneOperationEPNS_12GraphOfflineEPPhPNS_16OperationOfflineE_x228:
    /*00000228*/ STR         R0, [SP, #12] 
    /*0000022c*/ MOV         R2, SL 
    /*00000230*/ ADD         R1, SP, #16 
    /*00000234*/ MOV         R0, FP 
    /*00000238*/ BL          _ZNSt7__cxx1112basic_stringIcSt11char_traitsIcESaIcEE9_M_createERjj
    /*0000023c*/ LDR         R2, [SP, #16] 
    /*00000240*/ LDR         R3, [SP, #12] 
    /*00000244*/ STR         R0, [SP, #36]               @ 0x24 
    /*00000248*/ STR         R2, [SP, #44]               @ 0x2c 
    _ZN4hirt13WKModelLoader26parseInputsForOneOperationEPNS_12GraphOfflineEPPhPNS_16OperationOfflineE_x24c:
    /*0000024c*/ MOV         R2, R3 
    /*00000250*/ MOV         R1, R6 
    /*00000254*/ BL          memcpy
    /*00000258*/ LDR         R3, [SP, #16] 
    /*0000025c*/ LDR         R0, [SP, #36]               @ 0x24 
    /*00000260*/ B           _ZN4hirt13WKModelLoader26parseInputsForOneOperationEPNS_12GraphOfflineEPPhPNS_16OperationOfflineE_x144
    _ZN4hirt13WKModelLoader26parseInputsForOneOperationEPNS_12GraphOfflineEPPhPNS_16OperationOfflineE_x264:
    /*00000264*/ LDR         R0, [SP, #36]               @ 0x24 
    /*00000268*/ CMP         R0, R4 
    /*0000026c*/ BNE         _ZN4hirt13WKModelLoader26parseInputsForOneOperationEPNS_12GraphOfflineEPPhPNS_16OperationOfflineE_x184
    _ZN4hirt13WKModelLoader26parseInputsForOneOperationEPNS_12GraphOfflineEPPhPNS_16OperationOfflineE_x270:
    /*00000270*/ LDR         R2, WORD_030c               @ LDR         R2, [PC, #148]              @ 0x000000000000030c 
    /*00000274*/ MOV         R1, #4 
    /*00000278*/ LDR         R0, WORD_0310               @ LDR         R0, [PC, #144]              @ 0x0000000000000310 
    /*0000027c*/ MVN         SL, #0 
    /*00000280*/ ADD         R2, PC, R2 
    /*00000284*/ ADD         R0, PC, R0 
    /*00000288*/ BL          _Z15HIRT_LOG_PrintfPKc19tagHIRT_LOG_LEVEL_ES0_z
    /*0000028c*/ B           _ZN4hirt13WKModelLoader26parseInputsForOneOperationEPNS_12GraphOfflineEPPhPNS_16OperationOfflineE_x1e0
    _ZN4hirt13WKModelLoader26parseInputsForOneOperationEPNS_12GraphOfflineEPPhPNS_16OperationOfflineE_x290:
    /*00000290*/ LDRB        R2, [SP, #92]               @ 0x5c 
    /*00000294*/ MOV         R0, R4 
    /*00000298*/ STRB        R2, [SP, #44]               @ 0x2c 
    /*0000029c*/ B           _ZN4hirt13WKModelLoader26parseInputsForOneOperationEPNS_12GraphOfflineEPPhPNS_16OperationOfflineE_x144
    _ZN4hirt13WKModelLoader26parseInputsForOneOperationEPNS_12GraphOfflineEPPhPNS_16OperationOfflineE_x2a0:
    /*000002a0*/ LDR         R3, WORD_0314               @ LDR         R3, [PC, #108]              @ 0x0000000000000314 
    /*000002a4*/ MOV         R1, #4 
    /*000002a8*/ LDR         R2, WORD_0318               @ LDR         R2, [PC, #104]              @ 0x0000000000000318 
    /*000002ac*/ LDR         R0, WORD_031c               @ LDR         R0, [PC, #104]              @ 0x000000000000031c 
    /*000002b0*/ STR         SL, [SP] 
    /*000002b4*/ MVN         SL, #0 
    /*000002b8*/ ADD         R3, PC, R3 
    /*000002bc*/ ADD         R2, PC, R2 
    /*000002c0*/ ADD         R0, PC, R0 
    /*000002c4*/ BL          _Z15HIRT_LOG_PrintfPKc19tagHIRT_LOG_LEVEL_ES0_z
    /*000002c8*/ B           _ZN4hirt13WKModelLoader26parseInputsForOneOperationEPNS_12GraphOfflineEPPhPNS_16OperationOfflineE_x1e0
    _ZN4hirt13WKModelLoader26parseInputsForOneOperationEPNS_12GraphOfflineEPPhPNS_16OperationOfflineE_x2cc:
    /*000002cc*/ ADD         R0, R9, #64                 @ 0x40 
    /*000002d0*/ ADD         R1, SP, #16 
    /*000002d4*/ BL          _ZNSt6vectorIPN4hirt7OperandESaIS2_EE19_M_emplace_back_auxIJRKS2_EEEvDpOT_
    /*000002d8*/ B           _ZN4hirt13WKModelLoader26parseInputsForOneOperationEPNS_12GraphOfflineEPPhPNS_16OperationOfflineE_x1e0
    _ZN4hirt13WKModelLoader26parseInputsForOneOperationEPNS_12GraphOfflineEPPhPNS_16OperationOfflineE_x2dc:
    /*000002dc*/ BL          __stack_chk_fail
    /*000002e0*/ MOV         R0, R5 
    /*000002e4*/ MOV         R1, R6 
    /*000002e8*/ BL          _ZdlPvRKSt9nothrow_t
    /*000002ec*/ LDR         R0, [SP, #36]               @ 0x24 
    /*000002f0*/ CMP         R0, R4 
    /*000002f4*/ BEQ         _ZN4hirt13WKModelLoader26parseInputsForOneOperationEPNS_12GraphOfflineEPPhPNS_16OperationOfflineE_x2fc
    /*000002f8*/ BL          _ZdlPv
    _ZN4hirt13WKModelLoader26parseInputsForOneOperationEPNS_12GraphOfflineEPPhPNS_16OperationOfflineE_x2fc:
    /*000002fc*/ BL          __cxa_end_cleanup
    /*00000300*/ WORD_0300: .word 0x000002d8
    /*00000304*/ WORD_0304: .word 0x00000000
    /*00000308*/ WORD_0308: .word 0x00000000
    /*0000030c*/ WORD_030c: .word 0x00000084
    /*00000310*/ WORD_0310: .word 0x00000084
    /*00000314*/ WORD_0314: .word 0x00000054
    /*00000318*/ WORD_0318: .word 0x00000054
    /*0000031c*/ WORD_031c: .word 0x00000054
FUNC_END _ZN4hirt13WKModelLoader26parseInputsForOneOperationEPNS_12GraphOfflineEPPhPNS_16OperationOfflineE


@ - - - - - - - - - - - - - - - - - - - - - - - - - - - - - 
@ .ARM.extab.text._ZN4hirt13WKModelLoader26parseInputsForOneOperationEPNS_12GraphOfflineEPPhPNS_16OperationOfflineE
@ Size: 0x1d
@ - - - - - - - - - - - - - - - - - - - - - - - - - - - - - 

@ - - - - - - - - - - - - - - - - - - - - - - - - - - - - - 
@ .text._ZNSt6vectorIPN4hirt9OperationESaIS2_EE19_M_emplace_back_auxIJRKS2_EEEvDpOT_
@ Size: 0xd4
@ - - - - - - - - - - - - - - - - - - - - - - - - - - - - - 

FUNC_BEGIN _ZNSt6vectorIPN4hirt9OperationESaIS2_EE19_M_emplace_back_auxIJRKS2_EEEvDpOT_
    /*00000000*/ MOV         IP, #16384                  @ 0x4000 
    /*00000004*/ PUSH        {R4, R5, R6, R7, R8, R9, SL, LR} 
    /*00000008*/ SUB         IP, SP, IP 
    /*0000000c*/ STR         R0, [IP, #4064]             @ 0xfe0 
    /*00000010*/ LDM         R0, {R2, R3} 
    /*00000014*/ MOV         R6, R0 
    /*00000018*/ MOV         R9, R1 
    /*0000001c*/ SUB         R3, R3, R2 
    /*00000020*/ ASRS        R3, R3, #2 
    /*00000024*/ BEQ         _ZNSt6vectorIPN4hirt9OperationESaIS2_EE19_M_emplace_back_auxIJRKS2_EEEvDpOT__x3c
    /*00000028*/ LSL         R5, R3, #1 
    /*0000002c*/ CMP         R3, R5 
    /*00000030*/ BLS         _ZNSt6vectorIPN4hirt9OperationESaIS2_EE19_M_emplace_back_auxIJRKS2_EEEvDpOT__xb8
    _ZNSt6vectorIPN4hirt9OperationESaIS2_EE19_M_emplace_back_auxIJRKS2_EEEvDpOT__x34:
    /*00000034*/ MVN         R5, #3 
    /*00000038*/ B           _ZNSt6vectorIPN4hirt9OperationESaIS2_EE19_M_emplace_back_auxIJRKS2_EEEvDpOT__x40
    _ZNSt6vectorIPN4hirt9OperationESaIS2_EE19_M_emplace_back_auxIJRKS2_EEEvDpOT__x3c:
    /*0000003c*/ MOV         R5, #4 
    _ZNSt6vectorIPN4hirt9OperationESaIS2_EE19_M_emplace_back_auxIJRKS2_EEEvDpOT__x40:
    /*00000040*/ MOV         R0, R5 
    /*00000044*/ BL          _Znwj
    /*00000048*/ MOV         R7, R0 
    _ZNSt6vectorIPN4hirt9OperationESaIS2_EE19_M_emplace_back_auxIJRKS2_EEEvDpOT__x4c:
    /*0000004c*/ LDR         R8, [R6] 
    /*00000050*/ LDR         R4, [R6, #4] 
    /*00000054*/ LDR         R2, [R9] 
    /*00000058*/ SUB         R4, R4, R8 
    /*0000005c*/ CMN         R7, R4 
    /*00000060*/ ASR         R3, R4, #2 
    /*00000064*/ STRNE       R2, [R7, R4] 
    /*00000068*/ CMP         R3, #0 
    /*0000006c*/ BNE         _ZNSt6vectorIPN4hirt9OperationESaIS2_EE19_M_emplace_back_auxIJRKS2_EEEvDpOT__x9c
    /*00000070*/ CMP         R8, #0 
    /*00000074*/ ADD         R4, R4, #4 
    /*00000078*/ ADD         R4, R7, R4 
    /*0000007c*/ BEQ         _ZNSt6vectorIPN4hirt9OperationESaIS2_EE19_M_emplace_back_auxIJRKS2_EEEvDpOT__x88
    _ZNSt6vectorIPN4hirt9OperationESaIS2_EE19_M_emplace_back_auxIJRKS2_EEEvDpOT__x80:
    /*00000080*/ MOV         R0, R8 
    /*00000084*/ BL          _ZdlPv
    _ZNSt6vectorIPN4hirt9OperationESaIS2_EE19_M_emplace_back_auxIJRKS2_EEEvDpOT__x88:
    /*00000088*/ ADD         R5, R7, R5 
    /*0000008c*/ STR         R5, [R6, #8] 
    /*00000090*/ STR         R7, [R6] 
    /*00000094*/ STR         R4, [R6, #4] 
    /*00000098*/ POP         {R4, R5, R6, R7, R8, R9, SL, PC} 
    _ZNSt6vectorIPN4hirt9OperationESaIS2_EE19_M_emplace_back_auxIJRKS2_EEEvDpOT__x9c:
    /*0000009c*/ MOV         R2, R4 
    /*000000a0*/ MOV         R1, R8 
    /*000000a4*/ MOV         R0, R7 
    /*000000a8*/ ADD         R4, R4, #4 
    /*000000ac*/ ADD         R4, R7, R4 
    /*000000b0*/ BL          memmove
    /*000000b4*/ B           _ZNSt6vectorIPN4hirt9OperationESaIS2_EE19_M_emplace_back_auxIJRKS2_EEEvDpOT__x80
    _ZNSt6vectorIPN4hirt9OperationESaIS2_EE19_M_emplace_back_auxIJRKS2_EEEvDpOT__xb8:
    /*000000b8*/ CMN         R5, #-1073741823            @ 0xc0000001 
    /*000000bc*/ BHI         _ZNSt6vectorIPN4hirt9OperationESaIS2_EE19_M_emplace_back_auxIJRKS2_EEEvDpOT__x34
    /*000000c0*/ CMP         R5, #0 
    /*000000c4*/ LSLNE       R5, R3, #3 
    /*000000c8*/ BNE         _ZNSt6vectorIPN4hirt9OperationESaIS2_EE19_M_emplace_back_auxIJRKS2_EEEvDpOT__x40
    /*000000cc*/ MOV         R7, R5 
    /*000000d0*/ B           _ZNSt6vectorIPN4hirt9OperationESaIS2_EE19_M_emplace_back_auxIJRKS2_EEEvDpOT__x4c
FUNC_END _ZNSt6vectorIPN4hirt9OperationESaIS2_EE19_M_emplace_back_auxIJRKS2_EEEvDpOT_


@ - - - - - - - - - - - - - - - - - - - - - - - - - - - - - 
@ .text._ZNSt8_Rb_treeINSt7__cxx1112basic_stringIcSt11char_traitsIcESaIcEEESt4pairIKS5_PN4hirt7OperandEESt10_Select1stISB_ESt4lessIS5_ESaISB_EE8_M_eraseEPSt13_Rb_tree_nodeISB_E
@ Size: 0x234
@ - - - - - - - - - - - - - - - - - - - - - - - - - - - - - 

FUNC_BEGIN _ZNSt8_Rb_treeINSt7__cxx1112basic_stringIcSt11char_traitsIcESaIcEEESt4pairIKS5_PN4hirt7OperandEESt10_Select1stISB_ESt4lessIS5_ESaISB_EE8_M_eraseEPSt13_Rb_tree_nodeISB_E
    /*00000000*/ MOV         IP, #16384                  @ 0x4000 
    /*00000004*/ PUSH        {R4, R5, R6, R7, R8, R9, SL, FP, LR} 
    /*00000008*/ SUB         IP, SP, IP 
    /*0000000c*/ STR         R0, [IP, #4040]             @ 0xfc8 
    /*00000010*/ SUB         SP, SP, #20 
    /*00000014*/ SUBS        R3, R1, #0 
    /*00000018*/ STR         R3, [SP, #12] 
    /*0000001c*/ BEQ         _ZNSt8_Rb_treeINSt7__cxx1112basic_stringIcSt11char_traitsIcESaIcEEESt4pairIKS5_PN4hirt7OperandEESt10_Select1stISB_ESt4lessIS5_ESaISB_EE8_M_eraseEPSt13_Rb_tree_nodeISB_E_x22c
    /*00000020*/ MOV         R5, R0 
    _ZNSt8_Rb_treeINSt7__cxx1112basic_stringIcSt11char_traitsIcESaIcEEESt4pairIKS5_PN4hirt7OperandEESt10_Select1stISB_ESt4lessIS5_ESaISB_EE8_M_eraseEPSt13_Rb_tree_nodeISB_E_x24:
    /*00000024*/ LDR         R3, [R3, #12] 
    /*00000028*/ CMP         R3, #0 
    /*0000002c*/ STRNE       R3, [SP, #8] 
    /*00000030*/ BEQ         _ZNSt8_Rb_treeINSt7__cxx1112basic_stringIcSt11char_traitsIcESaIcEEESt4pairIKS5_PN4hirt7OperandEESt10_Select1stISB_ESt4lessIS5_ESaISB_EE8_M_eraseEPSt13_Rb_tree_nodeISB_E_x1f8
    _ZNSt8_Rb_treeINSt7__cxx1112basic_stringIcSt11char_traitsIcESaIcEEESt4pairIKS5_PN4hirt7OperandEESt10_Select1stISB_ESt4lessIS5_ESaISB_EE8_M_eraseEPSt13_Rb_tree_nodeISB_E_x34:
    /*00000034*/ LDR         R8, [R3, #12] 
    /*00000038*/ CMP         R8, #0 
    /*0000003c*/ STRNE       R8, [SP, #4] 
    /*00000040*/ MOVNE       R3, R8 
    /*00000044*/ BEQ         _ZNSt8_Rb_treeINSt7__cxx1112basic_stringIcSt11char_traitsIcESaIcEEESt4pairIKS5_PN4hirt7OperandEESt10_Select1stISB_ESt4lessIS5_ESaISB_EE8_M_eraseEPSt13_Rb_tree_nodeISB_E_x1c4
    _ZNSt8_Rb_treeINSt7__cxx1112basic_stringIcSt11char_traitsIcESaIcEEESt4pairIKS5_PN4hirt7OperandEESt10_Select1stISB_ESt4lessIS5_ESaISB_EE8_M_eraseEPSt13_Rb_tree_nodeISB_E_x48:
    /*00000048*/ LDR         R9, [R3, #12] 
    /*0000004c*/ CMP         R9, #0 
    /*00000050*/ BEQ         _ZNSt8_Rb_treeINSt7__cxx1112basic_stringIcSt11char_traitsIcESaIcEEESt4pairIKS5_PN4hirt7OperandEESt10_Select1stISB_ESt4lessIS5_ESaISB_EE8_M_eraseEPSt13_Rb_tree_nodeISB_E_x190
    _ZNSt8_Rb_treeINSt7__cxx1112basic_stringIcSt11char_traitsIcESaIcEEESt4pairIKS5_PN4hirt7OperandEESt10_Select1stISB_ESt4lessIS5_ESaISB_EE8_M_eraseEPSt13_Rb_tree_nodeISB_E_x54:
    /*00000054*/ LDR         SL, [R9, #12] 
    /*00000058*/ CMP         SL, #0 
    /*0000005c*/ BEQ         _ZNSt8_Rb_treeINSt7__cxx1112basic_stringIcSt11char_traitsIcESaIcEEESt4pairIKS5_PN4hirt7OperandEESt10_Select1stISB_ESt4lessIS5_ESaISB_EE8_M_eraseEPSt13_Rb_tree_nodeISB_E_x168
    _ZNSt8_Rb_treeINSt7__cxx1112basic_stringIcSt11char_traitsIcESaIcEEESt4pairIKS5_PN4hirt7OperandEESt10_Select1stISB_ESt4lessIS5_ESaISB_EE8_M_eraseEPSt13_Rb_tree_nodeISB_E_x60:
    /*00000060*/ LDR         FP, [SL, #12] 
    /*00000064*/ CMP         FP, #0 
    /*00000068*/ BEQ         _ZNSt8_Rb_treeINSt7__cxx1112basic_stringIcSt11char_traitsIcESaIcEEESt4pairIKS5_PN4hirt7OperandEESt10_Select1stISB_ESt4lessIS5_ESaISB_EE8_M_eraseEPSt13_Rb_tree_nodeISB_E_x140
    _ZNSt8_Rb_treeINSt7__cxx1112basic_stringIcSt11char_traitsIcESaIcEEESt4pairIKS5_PN4hirt7OperandEESt10_Select1stISB_ESt4lessIS5_ESaISB_EE8_M_eraseEPSt13_Rb_tree_nodeISB_E_x6c:
    /*0000006c*/ LDR         R7, [FP, #12] 
    /*00000070*/ CMP         R7, #0 
    /*00000074*/ BEQ         _ZNSt8_Rb_treeINSt7__cxx1112basic_stringIcSt11char_traitsIcESaIcEEESt4pairIKS5_PN4hirt7OperandEESt10_Select1stISB_ESt4lessIS5_ESaISB_EE8_M_eraseEPSt13_Rb_tree_nodeISB_E_x118
    _ZNSt8_Rb_treeINSt7__cxx1112basic_stringIcSt11char_traitsIcESaIcEEESt4pairIKS5_PN4hirt7OperandEESt10_Select1stISB_ESt4lessIS5_ESaISB_EE8_M_eraseEPSt13_Rb_tree_nodeISB_E_x78:
    /*00000078*/ LDR         R6, [R7, #12] 
    /*0000007c*/ CMP         R6, #0 
    /*00000080*/ BEQ         _ZNSt8_Rb_treeINSt7__cxx1112basic_stringIcSt11char_traitsIcESaIcEEESt4pairIKS5_PN4hirt7OperandEESt10_Select1stISB_ESt4lessIS5_ESaISB_EE8_M_eraseEPSt13_Rb_tree_nodeISB_E_xf0
    _ZNSt8_Rb_treeINSt7__cxx1112basic_stringIcSt11char_traitsIcESaIcEEESt4pairIKS5_PN4hirt7OperandEESt10_Select1stISB_ESt4lessIS5_ESaISB_EE8_M_eraseEPSt13_Rb_tree_nodeISB_E_x84:
    /*00000084*/ LDR         R3, [R6, #12] 
    /*00000088*/ CMP         R3, #0 
    /*0000008c*/ MOVNE       R8, R3 
    /*00000090*/ BEQ         _ZNSt8_Rb_treeINSt7__cxx1112basic_stringIcSt11char_traitsIcESaIcEEESt4pairIKS5_PN4hirt7OperandEESt10_Select1stISB_ESt4lessIS5_ESaISB_EE8_M_eraseEPSt13_Rb_tree_nodeISB_E_xc8
    _ZNSt8_Rb_treeINSt7__cxx1112basic_stringIcSt11char_traitsIcESaIcEEESt4pairIKS5_PN4hirt7OperandEESt10_Select1stISB_ESt4lessIS5_ESaISB_EE8_M_eraseEPSt13_Rb_tree_nodeISB_E_x94:
    /*00000094*/ LDR         R1, [R8, #12] 
    /*00000098*/ MOV         R0, R5 
    /*0000009c*/ BL          _ZNSt8_Rb_treeINSt7__cxx1112basic_stringIcSt11char_traitsIcESaIcEEESt4pairIKS5_PN4hirt7OperandEESt10_Select1stISB_ESt4lessIS5_ESaISB_EE8_M_eraseEPSt13_Rb_tree_nodeISB_E
    /*000000a0*/ LDR         R0, [R8, #16] 
    /*000000a4*/ ADD         R2, R8, #24 
    /*000000a8*/ LDR         R4, [R8, #8] 
    /*000000ac*/ CMP         R0, R2 
    /*000000b0*/ BEQ         _ZNSt8_Rb_treeINSt7__cxx1112basic_stringIcSt11char_traitsIcESaIcEEESt4pairIKS5_PN4hirt7OperandEESt10_Select1stISB_ESt4lessIS5_ESaISB_EE8_M_eraseEPSt13_Rb_tree_nodeISB_E_xb8
    /*000000b4*/ BL          _ZdlPv
    _ZNSt8_Rb_treeINSt7__cxx1112basic_stringIcSt11char_traitsIcESaIcEEESt4pairIKS5_PN4hirt7OperandEESt10_Select1stISB_ESt4lessIS5_ESaISB_EE8_M_eraseEPSt13_Rb_tree_nodeISB_E_xb8:
    /*000000b8*/ MOV         R0, R8 
    /*000000bc*/ BL          _ZdlPv
    /*000000c0*/ SUBS        R8, R4, #0 
    /*000000c4*/ BNE         _ZNSt8_Rb_treeINSt7__cxx1112basic_stringIcSt11char_traitsIcESaIcEEESt4pairIKS5_PN4hirt7OperandEESt10_Select1stISB_ESt4lessIS5_ESaISB_EE8_M_eraseEPSt13_Rb_tree_nodeISB_E_x94
    _ZNSt8_Rb_treeINSt7__cxx1112basic_stringIcSt11char_traitsIcESaIcEEESt4pairIKS5_PN4hirt7OperandEESt10_Select1stISB_ESt4lessIS5_ESaISB_EE8_M_eraseEPSt13_Rb_tree_nodeISB_E_xc8:
    /*000000c8*/ LDR         R0, [R6, #16] 
    /*000000cc*/ ADD         R3, R6, #24 
    /*000000d0*/ LDR         R4, [R6, #8] 
    /*000000d4*/ CMP         R0, R3 
    /*000000d8*/ BEQ         _ZNSt8_Rb_treeINSt7__cxx1112basic_stringIcSt11char_traitsIcESaIcEEESt4pairIKS5_PN4hirt7OperandEESt10_Select1stISB_ESt4lessIS5_ESaISB_EE8_M_eraseEPSt13_Rb_tree_nodeISB_E_xe0
    /*000000dc*/ BL          _ZdlPv
    _ZNSt8_Rb_treeINSt7__cxx1112basic_stringIcSt11char_traitsIcESaIcEEESt4pairIKS5_PN4hirt7OperandEESt10_Select1stISB_ESt4lessIS5_ESaISB_EE8_M_eraseEPSt13_Rb_tree_nodeISB_E_xe0:
    /*000000e0*/ MOV         R0, R6 
    /*000000e4*/ BL          _ZdlPv
    /*000000e8*/ SUBS        R6, R4, #0 
    /*000000ec*/ BNE         _ZNSt8_Rb_treeINSt7__cxx1112basic_stringIcSt11char_traitsIcESaIcEEESt4pairIKS5_PN4hirt7OperandEESt10_Select1stISB_ESt4lessIS5_ESaISB_EE8_M_eraseEPSt13_Rb_tree_nodeISB_E_x84
    _ZNSt8_Rb_treeINSt7__cxx1112basic_stringIcSt11char_traitsIcESaIcEEESt4pairIKS5_PN4hirt7OperandEESt10_Select1stISB_ESt4lessIS5_ESaISB_EE8_M_eraseEPSt13_Rb_tree_nodeISB_E_xf0:
    /*000000f0*/ LDR         R0, [R7, #16] 
    /*000000f4*/ ADD         R3, R7, #24 
    /*000000f8*/ LDR         R4, [R7, #8] 
    /*000000fc*/ CMP         R0, R3 
    /*00000100*/ BEQ         _ZNSt8_Rb_treeINSt7__cxx1112basic_stringIcSt11char_traitsIcESaIcEEESt4pairIKS5_PN4hirt7OperandEESt10_Select1stISB_ESt4lessIS5_ESaISB_EE8_M_eraseEPSt13_Rb_tree_nodeISB_E_x108
    /*00000104*/ BL          _ZdlPv
    _ZNSt8_Rb_treeINSt7__cxx1112basic_stringIcSt11char_traitsIcESaIcEEESt4pairIKS5_PN4hirt7OperandEESt10_Select1stISB_ESt4lessIS5_ESaISB_EE8_M_eraseEPSt13_Rb_tree_nodeISB_E_x108:
    /*00000108*/ MOV         R0, R7 
    /*0000010c*/ BL          _ZdlPv
    /*00000110*/ SUBS        R7, R4, #0 
    /*00000114*/ BNE         _ZNSt8_Rb_treeINSt7__cxx1112basic_stringIcSt11char_traitsIcESaIcEEESt4pairIKS5_PN4hirt7OperandEESt10_Select1stISB_ESt4lessIS5_ESaISB_EE8_M_eraseEPSt13_Rb_tree_nodeISB_E_x78
    _ZNSt8_Rb_treeINSt7__cxx1112basic_stringIcSt11char_traitsIcESaIcEEESt4pairIKS5_PN4hirt7OperandEESt10_Select1stISB_ESt4lessIS5_ESaISB_EE8_M_eraseEPSt13_Rb_tree_nodeISB_E_x118:
    /*00000118*/ LDR         R0, [FP, #16] 
    /*0000011c*/ ADD         R3, FP, #24 
    /*00000120*/ LDR         R4, [FP, #8] 
    /*00000124*/ CMP         R0, R3 
    /*00000128*/ BEQ         _ZNSt8_Rb_treeINSt7__cxx1112basic_stringIcSt11char_traitsIcESaIcEEESt4pairIKS5_PN4hirt7OperandEESt10_Select1stISB_ESt4lessIS5_ESaISB_EE8_M_eraseEPSt13_Rb_tree_nodeISB_E_x130
    /*0000012c*/ BL          _ZdlPv
    _ZNSt8_Rb_treeINSt7__cxx1112basic_stringIcSt11char_traitsIcESaIcEEESt4pairIKS5_PN4hirt7OperandEESt10_Select1stISB_ESt4lessIS5_ESaISB_EE8_M_eraseEPSt13_Rb_tree_nodeISB_E_x130:
    /*00000130*/ MOV         R0, FP 
    /*00000134*/ BL          _ZdlPv
    /*00000138*/ SUBS        FP, R4, #0 
    /*0000013c*/ BNE         _ZNSt8_Rb_treeINSt7__cxx1112basic_stringIcSt11char_traitsIcESaIcEEESt4pairIKS5_PN4hirt7OperandEESt10_Select1stISB_ESt4lessIS5_ESaISB_EE8_M_eraseEPSt13_Rb_tree_nodeISB_E_x6c
    _ZNSt8_Rb_treeINSt7__cxx1112basic_stringIcSt11char_traitsIcESaIcEEESt4pairIKS5_PN4hirt7OperandEESt10_Select1stISB_ESt4lessIS5_ESaISB_EE8_M_eraseEPSt13_Rb_tree_nodeISB_E_x140:
    /*00000140*/ LDR         R0, [SL, #16] 
    /*00000144*/ ADD         R3, SL, #24 
    /*00000148*/ LDR         R4, [SL, #8] 
    /*0000014c*/ CMP         R0, R3 
    /*00000150*/ BEQ         _ZNSt8_Rb_treeINSt7__cxx1112basic_stringIcSt11char_traitsIcESaIcEEESt4pairIKS5_PN4hirt7OperandEESt10_Select1stISB_ESt4lessIS5_ESaISB_EE8_M_eraseEPSt13_Rb_tree_nodeISB_E_x158
    /*00000154*/ BL          _ZdlPv
    _ZNSt8_Rb_treeINSt7__cxx1112basic_stringIcSt11char_traitsIcESaIcEEESt4pairIKS5_PN4hirt7OperandEESt10_Select1stISB_ESt4lessIS5_ESaISB_EE8_M_eraseEPSt13_Rb_tree_nodeISB_E_x158:
    /*00000158*/ MOV         R0, SL 
    /*0000015c*/ BL          _ZdlPv
    /*00000160*/ SUBS        SL, R4, #0 
    /*00000164*/ BNE         _ZNSt8_Rb_treeINSt7__cxx1112basic_stringIcSt11char_traitsIcESaIcEEESt4pairIKS5_PN4hirt7OperandEESt10_Select1stISB_ESt4lessIS5_ESaISB_EE8_M_eraseEPSt13_Rb_tree_nodeISB_E_x60
    _ZNSt8_Rb_treeINSt7__cxx1112basic_stringIcSt11char_traitsIcESaIcEEESt4pairIKS5_PN4hirt7OperandEESt10_Select1stISB_ESt4lessIS5_ESaISB_EE8_M_eraseEPSt13_Rb_tree_nodeISB_E_x168:
    /*00000168*/ LDR         R0, [R9, #16] 
    /*0000016c*/ ADD         R3, R9, #24 
    /*00000170*/ LDR         R4, [R9, #8] 
    /*00000174*/ CMP         R0, R3 
    /*00000178*/ BEQ         _ZNSt8_Rb_treeINSt7__cxx1112basic_stringIcSt11char_traitsIcESaIcEEESt4pairIKS5_PN4hirt7OperandEESt10_Select1stISB_ESt4lessIS5_ESaISB_EE8_M_eraseEPSt13_Rb_tree_nodeISB_E_x180
    /*0000017c*/ BL          _ZdlPv
    _ZNSt8_Rb_treeINSt7__cxx1112basic_stringIcSt11char_traitsIcESaIcEEESt4pairIKS5_PN4hirt7OperandEESt10_Select1stISB_ESt4lessIS5_ESaISB_EE8_M_eraseEPSt13_Rb_tree_nodeISB_E_x180:
    /*00000180*/ MOV         R0, R9 
    /*00000184*/ BL          _ZdlPv
    /*00000188*/ SUBS        R9, R4, #0 
    /*0000018c*/ BNE         _ZNSt8_Rb_treeINSt7__cxx1112basic_stringIcSt11char_traitsIcESaIcEEESt4pairIKS5_PN4hirt7OperandEESt10_Select1stISB_ESt4lessIS5_ESaISB_EE8_M_eraseEPSt13_Rb_tree_nodeISB_E_x54
    _ZNSt8_Rb_treeINSt7__cxx1112basic_stringIcSt11char_traitsIcESaIcEEESt4pairIKS5_PN4hirt7OperandEESt10_Select1stISB_ESt4lessIS5_ESaISB_EE8_M_eraseEPSt13_Rb_tree_nodeISB_E_x190:
    /*00000190*/ LDR         R2, [SP, #4] 
    /*00000194*/ LDR         R0, [R2, #16] 
    /*00000198*/ ADD         R3, R2, #24 
    /*0000019c*/ LDR         R4, [R2, #8] 
    /*000001a0*/ CMP         R0, R3 
    /*000001a4*/ MOVEQ       R0, R2 
    /*000001a8*/ BEQ         _ZNSt8_Rb_treeINSt7__cxx1112basic_stringIcSt11char_traitsIcESaIcEEESt4pairIKS5_PN4hirt7OperandEESt10_Select1stISB_ESt4lessIS5_ESaISB_EE8_M_eraseEPSt13_Rb_tree_nodeISB_E_x1b4
    /*000001ac*/ BL          _ZdlPv
    /*000001b0*/ LDR         R0, [SP, #4] 
    _ZNSt8_Rb_treeINSt7__cxx1112basic_stringIcSt11char_traitsIcESaIcEEESt4pairIKS5_PN4hirt7OperandEESt10_Select1stISB_ESt4lessIS5_ESaISB_EE8_M_eraseEPSt13_Rb_tree_nodeISB_E_x1b4:
    /*000001b4*/ BL          _ZdlPv
    /*000001b8*/ SUBS        R3, R4, #0 
    /*000001bc*/ STR         R3, [SP, #4] 
    /*000001c0*/ BNE         _ZNSt8_Rb_treeINSt7__cxx1112basic_stringIcSt11char_traitsIcESaIcEEESt4pairIKS5_PN4hirt7OperandEESt10_Select1stISB_ESt4lessIS5_ESaISB_EE8_M_eraseEPSt13_Rb_tree_nodeISB_E_x48
    _ZNSt8_Rb_treeINSt7__cxx1112basic_stringIcSt11char_traitsIcESaIcEEESt4pairIKS5_PN4hirt7OperandEESt10_Select1stISB_ESt4lessIS5_ESaISB_EE8_M_eraseEPSt13_Rb_tree_nodeISB_E_x1c4:
    /*000001c4*/ LDR         R2, [SP, #8] 
    /*000001c8*/ LDR         R0, [R2, #16] 
    /*000001cc*/ ADD         R3, R2, #24 
    /*000001d0*/ LDR         R4, [R2, #8] 
    /*000001d4*/ CMP         R0, R3 
    /*000001d8*/ MOVEQ       R0, R2 
    /*000001dc*/ BEQ         _ZNSt8_Rb_treeINSt7__cxx1112basic_stringIcSt11char_traitsIcESaIcEEESt4pairIKS5_PN4hirt7OperandEESt10_Select1stISB_ESt4lessIS5_ESaISB_EE8_M_eraseEPSt13_Rb_tree_nodeISB_E_x1e8
    /*000001e0*/ BL          _ZdlPv
    /*000001e4*/ LDR         R0, [SP, #8] 
    _ZNSt8_Rb_treeINSt7__cxx1112basic_stringIcSt11char_traitsIcESaIcEEESt4pairIKS5_PN4hirt7OperandEESt10_Select1stISB_ESt4lessIS5_ESaISB_EE8_M_eraseEPSt13_Rb_tree_nodeISB_E_x1e8:
    /*000001e8*/ BL          _ZdlPv
    /*000001ec*/ SUBS        R3, R4, #0 
    /*000001f0*/ STR         R3, [SP, #8] 
    /*000001f4*/ BNE         _ZNSt8_Rb_treeINSt7__cxx1112basic_stringIcSt11char_traitsIcESaIcEEESt4pairIKS5_PN4hirt7OperandEESt10_Select1stISB_ESt4lessIS5_ESaISB_EE8_M_eraseEPSt13_Rb_tree_nodeISB_E_x34
    _ZNSt8_Rb_treeINSt7__cxx1112basic_stringIcSt11char_traitsIcESaIcEEESt4pairIKS5_PN4hirt7OperandEESt10_Select1stISB_ESt4lessIS5_ESaISB_EE8_M_eraseEPSt13_Rb_tree_nodeISB_E_x1f8:
    /*000001f8*/ LDR         R2, [SP, #12] 
    /*000001fc*/ LDR         R0, [R2, #16] 
    /*00000200*/ ADD         R3, R2, #24 
    /*00000204*/ LDR         R4, [R2, #8] 
    /*00000208*/ CMP         R0, R3 
    /*0000020c*/ MOVEQ       R0, R2 
    /*00000210*/ BEQ         _ZNSt8_Rb_treeINSt7__cxx1112basic_stringIcSt11char_traitsIcESaIcEEESt4pairIKS5_PN4hirt7OperandEESt10_Select1stISB_ESt4lessIS5_ESaISB_EE8_M_eraseEPSt13_Rb_tree_nodeISB_E_x21c
    /*00000214*/ BL          _ZdlPv
    /*00000218*/ LDR         R0, [SP, #12] 
    _ZNSt8_Rb_treeINSt7__cxx1112basic_stringIcSt11char_traitsIcESaIcEEESt4pairIKS5_PN4hirt7OperandEESt10_Select1stISB_ESt4lessIS5_ESaISB_EE8_M_eraseEPSt13_Rb_tree_nodeISB_E_x21c:
    /*0000021c*/ BL          _ZdlPv
    /*00000220*/ SUBS        R3, R4, #0 
    /*00000224*/ STR         R3, [SP, #12] 
    /*00000228*/ BNE         _ZNSt8_Rb_treeINSt7__cxx1112basic_stringIcSt11char_traitsIcESaIcEEESt4pairIKS5_PN4hirt7OperandEESt10_Select1stISB_ESt4lessIS5_ESaISB_EE8_M_eraseEPSt13_Rb_tree_nodeISB_E_x24
    _ZNSt8_Rb_treeINSt7__cxx1112basic_stringIcSt11char_traitsIcESaIcEEESt4pairIKS5_PN4hirt7OperandEESt10_Select1stISB_ESt4lessIS5_ESaISB_EE8_M_eraseEPSt13_Rb_tree_nodeISB_E_x22c:
    /*0000022c*/ ADD         SP, SP, #20 
    /*00000230*/ POP         {R4, R5, R6, R7, R8, R9, SL, FP, PC} 
FUNC_END _ZNSt8_Rb_treeINSt7__cxx1112basic_stringIcSt11char_traitsIcESaIcEEESt4pairIKS5_PN4hirt7OperandEESt10_Select1stISB_ESt4lessIS5_ESaISB_EE8_M_eraseEPSt13_Rb_tree_nodeISB_E


@ - - - - - - - - - - - - - - - - - - - - - - - - - - - - - 
@ .text._ZNSt8_Rb_treeINSt7__cxx1112basic_stringIcSt11char_traitsIcESaIcEEESt4pairIKS5_PN4hirt7OperandEESt10_Select1stISB_ESt4lessIS5_ESaISB_EE24_M_get_insert_unique_posERS7_
@ Size: 0x144
@ - - - - - - - - - - - - - - - - - - - - - - - - - - - - - 

FUNC_BEGIN _ZNSt8_Rb_treeINSt7__cxx1112basic_stringIcSt11char_traitsIcESaIcEEESt4pairIKS5_PN4hirt7OperandEESt10_Select1stISB_ESt4lessIS5_ESaISB_EE24_M_get_insert_unique_posERS7_
    /*00000000*/ MOV         IP, #16384                  @ 0x4000 
    /*00000004*/ PUSH        {R4, R5, R6, R7, R8, R9, SL, FP, LR} 
    /*00000008*/ SUB         IP, SP, IP 
    /*0000000c*/ STR         R0, [IP, #4048]             @ 0xfd0 
    /*00000010*/ LDR         R4, [R1, #8] 
    /*00000014*/ SUB         SP, SP, #12 
    /*00000018*/ MOV         R9, R0 
    /*0000001c*/ MOV         SL, R2 
    /*00000020*/ STR         R1, [SP, #4] 
    /*00000024*/ CMP         R4, #0 
    /*00000028*/ MOVEQ       R3, R1 
    /*0000002c*/ ADDEQ       R4, R3, #4 
    /*00000030*/ BEQ         _ZNSt8_Rb_treeINSt7__cxx1112basic_stringIcSt11char_traitsIcESaIcEEESt4pairIKS5_PN4hirt7OperandEESt10_Select1stISB_ESt4lessIS5_ESaISB_EE24_M_get_insert_unique_posERS7__xd4
    /*00000034*/ LDR         R7, [R2, #4] 
    /*00000038*/ LDR         FP, [R2] 
    /*0000003c*/ B           _ZNSt8_Rb_treeINSt7__cxx1112basic_stringIcSt11char_traitsIcESaIcEEESt4pairIKS5_PN4hirt7OperandEESt10_Select1stISB_ESt4lessIS5_ESaISB_EE24_M_get_insert_unique_posERS7__x6c
    _ZNSt8_Rb_treeINSt7__cxx1112basic_stringIcSt11char_traitsIcESaIcEEESt4pairIKS5_PN4hirt7OperandEESt10_Select1stISB_ESt4lessIS5_ESaISB_EE24_M_get_insert_unique_posERS7__x40:
    /*00000040*/ BL          memcmp
    /*00000044*/ CMP         R0, #0 
    /*00000048*/ BEQ         _ZNSt8_Rb_treeINSt7__cxx1112basic_stringIcSt11char_traitsIcESaIcEEESt4pairIKS5_PN4hirt7OperandEESt10_Select1stISB_ESt4lessIS5_ESaISB_EE24_M_get_insert_unique_posERS7__x90
    _ZNSt8_Rb_treeINSt7__cxx1112basic_stringIcSt11char_traitsIcESaIcEEESt4pairIKS5_PN4hirt7OperandEESt10_Select1stISB_ESt4lessIS5_ESaISB_EE24_M_get_insert_unique_posERS7__x4c:
    /*0000004c*/ CMP         R0, #0 
    /*00000050*/ MOV         R1, #0 
    /*00000054*/ MOVLT       R1, #1 
    /*00000058*/ LDRLT       R2, [R4, #8] 
    /*0000005c*/ LDRGE       R2, [R4, #12] 
    /*00000060*/ CMP         R2, #0 
    /*00000064*/ BEQ         _ZNSt8_Rb_treeINSt7__cxx1112basic_stringIcSt11char_traitsIcESaIcEEESt4pairIKS5_PN4hirt7OperandEESt10_Select1stISB_ESt4lessIS5_ESaISB_EE24_M_get_insert_unique_posERS7__x98
    /*00000068*/ MOV         R4, R2 
    _ZNSt8_Rb_treeINSt7__cxx1112basic_stringIcSt11char_traitsIcESaIcEEESt4pairIKS5_PN4hirt7OperandEESt10_Select1stISB_ESt4lessIS5_ESaISB_EE24_M_get_insert_unique_posERS7__x6c:
    /*0000006c*/ LDR         R5, [R4, #20] 
    /*00000070*/ MOV         R0, FP 
    /*00000074*/ LDR         R8, [R4, #16] 
    /*00000078*/ CMP         R5, R7 
    /*0000007c*/ MOVCC       R6, R5 
    /*00000080*/ MOVCS       R6, R7 
    /*00000084*/ SUBS        R2, R6, #0 
    /*00000088*/ MOV         R1, R8 
    /*0000008c*/ BNE         _ZNSt8_Rb_treeINSt7__cxx1112basic_stringIcSt11char_traitsIcESaIcEEESt4pairIKS5_PN4hirt7OperandEESt10_Select1stISB_ESt4lessIS5_ESaISB_EE24_M_get_insert_unique_posERS7__x40
    _ZNSt8_Rb_treeINSt7__cxx1112basic_stringIcSt11char_traitsIcESaIcEEESt4pairIKS5_PN4hirt7OperandEESt10_Select1stISB_ESt4lessIS5_ESaISB_EE24_M_get_insert_unique_posERS7__x90:
    /*00000090*/ SUB         R0, R7, R5 
    /*00000094*/ B           _ZNSt8_Rb_treeINSt7__cxx1112basic_stringIcSt11char_traitsIcESaIcEEESt4pairIKS5_PN4hirt7OperandEESt10_Select1stISB_ESt4lessIS5_ESaISB_EE24_M_get_insert_unique_posERS7__x4c
    _ZNSt8_Rb_treeINSt7__cxx1112basic_stringIcSt11char_traitsIcESaIcEEESt4pairIKS5_PN4hirt7OperandEESt10_Select1stISB_ESt4lessIS5_ESaISB_EE24_M_get_insert_unique_posERS7__x98:
    /*00000098*/ CMP         R1, #0 
    /*0000009c*/ MOVEQ       R2, R6 
    /*000000a0*/ MOVEQ       R6, R4 
    /*000000a4*/ BNE         _ZNSt8_Rb_treeINSt7__cxx1112basic_stringIcSt11char_traitsIcESaIcEEESt4pairIKS5_PN4hirt7OperandEESt10_Select1stISB_ESt4lessIS5_ESaISB_EE24_M_get_insert_unique_posERS7__xd4
    /*000000a8*/ CMP         R2, #0 
    /*000000ac*/ BNE         _ZNSt8_Rb_treeINSt7__cxx1112basic_stringIcSt11char_traitsIcESaIcEEESt4pairIKS5_PN4hirt7OperandEESt10_Select1stISB_ESt4lessIS5_ESaISB_EE24_M_get_insert_unique_posERS7__x114
    _ZNSt8_Rb_treeINSt7__cxx1112basic_stringIcSt11char_traitsIcESaIcEEESt4pairIKS5_PN4hirt7OperandEESt10_Select1stISB_ESt4lessIS5_ESaISB_EE24_M_get_insert_unique_posERS7__xb0:
    /*000000b0*/ SUB         R0, R5, R7 
    _ZNSt8_Rb_treeINSt7__cxx1112basic_stringIcSt11char_traitsIcESaIcEEESt4pairIKS5_PN4hirt7OperandEESt10_Select1stISB_ESt4lessIS5_ESaISB_EE24_M_get_insert_unique_posERS7__xb4:
    /*000000b4*/ CMP         R0, #0 
    /*000000b8*/ STRGE       R6, [R9] 
    /*000000bc*/ MOVGE       R3, #0 
    /*000000c0*/ STRGE       R3, [R9, #4] 
    /*000000c4*/ BLT         _ZNSt8_Rb_treeINSt7__cxx1112basic_stringIcSt11char_traitsIcESaIcEEESt4pairIKS5_PN4hirt7OperandEESt10_Select1stISB_ESt4lessIS5_ESaISB_EE24_M_get_insert_unique_posERS7__x12c
    /*000000c8*/ MOV         R0, R9 
    /*000000cc*/ ADD         SP, SP, #12 
    /*000000d0*/ POP         {R4, R5, R6, R7, R8, R9, SL, FP, PC} 
    _ZNSt8_Rb_treeINSt7__cxx1112basic_stringIcSt11char_traitsIcESaIcEEESt4pairIKS5_PN4hirt7OperandEESt10_Select1stISB_ESt4lessIS5_ESaISB_EE24_M_get_insert_unique_posERS7__xd4:
    /*000000d4*/ LDR         R3, [SP, #4] 
    /*000000d8*/ LDR         R3, [R3, #12] 
    /*000000dc*/ CMP         R3, R4 
    /*000000e0*/ BEQ         _ZNSt8_Rb_treeINSt7__cxx1112basic_stringIcSt11char_traitsIcESaIcEEESt4pairIKS5_PN4hirt7OperandEESt10_Select1stISB_ESt4lessIS5_ESaISB_EE24_M_get_insert_unique_posERS7__x12c
    /*000000e4*/ MOV         R0, R4 
    /*000000e8*/ BL          _ZSt18_Rb_tree_decrementPSt18_Rb_tree_node_base
    /*000000ec*/ LDR         R5, [R0, #20] 
    /*000000f0*/ MOV         R6, R0 
    /*000000f4*/ LDR         R7, [SL, #4] 
    /*000000f8*/ LDR         FP, [SL] 
    /*000000fc*/ CMP         R5, R7 
    /*00000100*/ LDR         R8, [R0, #16] 
    /*00000104*/ MOVCC       R2, R5 
    /*00000108*/ MOVCS       R2, R7 
    /*0000010c*/ CMP         R2, #0 
    /*00000110*/ BEQ         _ZNSt8_Rb_treeINSt7__cxx1112basic_stringIcSt11char_traitsIcESaIcEEESt4pairIKS5_PN4hirt7OperandEESt10_Select1stISB_ESt4lessIS5_ESaISB_EE24_M_get_insert_unique_posERS7__xb0
    _ZNSt8_Rb_treeINSt7__cxx1112basic_stringIcSt11char_traitsIcESaIcEEESt4pairIKS5_PN4hirt7OperandEESt10_Select1stISB_ESt4lessIS5_ESaISB_EE24_M_get_insert_unique_posERS7__x114:
    /*00000114*/ MOV         R1, FP 
    /*00000118*/ MOV         R0, R8 
    /*0000011c*/ BL          memcmp
    /*00000120*/ CMP         R0, #0 
    /*00000124*/ BNE         _ZNSt8_Rb_treeINSt7__cxx1112basic_stringIcSt11char_traitsIcESaIcEEESt4pairIKS5_PN4hirt7OperandEESt10_Select1stISB_ESt4lessIS5_ESaISB_EE24_M_get_insert_unique_posERS7__xb4
    /*00000128*/ B           _ZNSt8_Rb_treeINSt7__cxx1112basic_stringIcSt11char_traitsIcESaIcEEESt4pairIKS5_PN4hirt7OperandEESt10_Select1stISB_ESt4lessIS5_ESaISB_EE24_M_get_insert_unique_posERS7__xb0
    _ZNSt8_Rb_treeINSt7__cxx1112basic_stringIcSt11char_traitsIcESaIcEEESt4pairIKS5_PN4hirt7OperandEESt10_Select1stISB_ESt4lessIS5_ESaISB_EE24_M_get_insert_unique_posERS7__x12c:
    /*0000012c*/ STR         R4, [R9, #4] 
    /*00000130*/ MOV         R3, #0 
    /*00000134*/ STR         R3, [R9] 
    /*00000138*/ MOV         R0, R9 
    /*0000013c*/ ADD         SP, SP, #12 
    /*00000140*/ POP         {R4, R5, R6, R7, R8, R9, SL, FP, PC} 
FUNC_END _ZNSt8_Rb_treeINSt7__cxx1112basic_stringIcSt11char_traitsIcESaIcEEESt4pairIKS5_PN4hirt7OperandEESt10_Select1stISB_ESt4lessIS5_ESaISB_EE24_M_get_insert_unique_posERS7_


@ - - - - - - - - - - - - - - - - - - - - - - - - - - - - - 
@ .text._ZN4hirt13WKModelLoader27parseOutputsForOneOperationEPNS_12GraphOfflineEPPhPNS_16OperationOfflineERSt3mapINSt7__cxx1112basic_stringIcSt11char_traitsIcESaIcEEEPNS_7OperandESt4lessISD_ESaISt4pairIKSD_SF_EEE
@ Size: 0x798
@ - - - - - - - - - - - - - - - - - - - - - - - - - - - - - 

FUNC_BEGIN _ZN4hirt13WKModelLoader27parseOutputsForOneOperationEPNS_12GraphOfflineEPPhPNS_16OperationOfflineERSt3mapINSt7__cxx1112basic_stringIcSt11char_traitsIcESaIcEEEPNS_7OperandESt4lessISD_ESaISt4pairIKSD_SF_EEE
    /*00000000*/ MOV         IP, #16384                  @ 0x4000 
    /*00000004*/ PUSH        {R4, R5, R6, R7, R8, R9, SL, FP, LR} 
    /*00000008*/ SUB         IP, SP, IP 
    /*0000000c*/ STR         R0, [IP, #3864]             @ 0xf18 
    /*00000010*/ LDR         R7, WORD_0778               @ LDR         R7, [PC, #1888]             @ 0x0000000000000778 
    /*00000014*/ MOV         R6, R2 
    /*00000018*/ LDR         R2, WORD_077c               @ LDR         R2, [PC, #1884]             @ 0x000000000000077c 
    /*0000001c*/ SUB         SP, SP, #196                @ 0xc4 
    /*00000020*/ ADD         R7, PC, R7 
    /*00000024*/ ADD         R5, SP, #52                 @ 0x34 
    /*00000028*/ VMOV.I32    Q8, #0                      @ 0x00000000 
    /*0000002c*/ LDR         R2, [R7, R2] 
    /*00000030*/ ADD         R4, SP, #124                @ 0x7c 
    /*00000034*/ STR         R1, [SP, #16] 
    /*00000038*/ MOV         R1, #0 
    /*0000003c*/ STR         R2, [SP, #20] 
    /*00000040*/ MOV         R0, R2 
    /*00000044*/ STR         R3, [SP, #24] 
    /*00000048*/ MOV         R2, #96                     @ 0x60 
    /*0000004c*/ LDR         R0, [R0] 
    /*00000050*/ VST1.8      {D16-D17}, [R5] 
    /*00000054*/ STR         R0, [SP, #188]              @ 0xbc 
    /*00000058*/ ADD         R0, SP, #92                 @ 0x5c 
    /*0000005c*/ LDR         SL, [SP, #232]              @ 0xe8 
    /*00000060*/ BL          memset
    /*00000064*/ LDR         IP, [R6] 
    /*00000068*/ MOV         R3, #64                     @ 0x40 
    /*0000006c*/ LDR         R1, [IP, #4] 
    /*00000070*/ ADD         R2, IP, #12 
    /*00000074*/ LDR         R0, [IP] 
    /*00000078*/ ADD         R8, IP, #24 
    /*0000007c*/ LDRH        R9, [IP, #14] 
    /*00000080*/ ADD         LR, IP, #32 
    /*00000084*/ STR         R1, [SP, #96]               @ 0x60 
    /*00000088*/ LDR         R1, [IP, #8] 
    /*0000008c*/ STR         R2, [R6] 
    /*00000090*/ MOV         R2, LR 
    /*00000094*/ STR         R1, [SP, #100]              @ 0x64 
    /*00000098*/ LDRB        R1, [IP, #12] 
    /*0000009c*/ STRH        R9, [SP, #106]              @ 0x6a 
    /*000000a0*/ LDR         R9, [IP, #16] 
    /*000000a4*/ STR         R0, [SP, #92]               @ 0x5c 
    /*000000a8*/ MOV         R0, R4 
    /*000000ac*/ STR         R9, [SP, #108]              @ 0x6c 
    /*000000b0*/ LDR         R9, [IP, #20] 
    /*000000b4*/ STR         R8, [R6] 
    /*000000b8*/ LDRB        IP, [IP, #24] 
    /*000000bc*/ STRB        R1, [SP, #104]              @ 0x68 
    /*000000c0*/ MOV         R1, R3 
    /*000000c4*/ STR         LR, [R6] 
    /*000000c8*/ STR         R9, [SP, #112]              @ 0x70 
    /*000000cc*/ STRB        IP, [SP, #116]              @ 0x74 
    /*000000d0*/ BL          memcpy_s
    /*000000d4*/ SUBS        R3, R0, #0 
    /*000000d8*/ STR         R3, [SP, #8] 
    /*000000dc*/ BNE         _ZN4hirt13WKModelLoader27parseOutputsForOneOperationEPNS_12GraphOfflineEPPhPNS_16OperationOfflineERSt3mapINSt7__cxx1112basic_stringIcSt11char_traitsIcESaIcEEEPNS_7OperandESt4lessISD_ESaISt4pairIKSD_SF_EEE_x6c8
    /*000000e0*/ LDR         R3, [R6] 
    /*000000e4*/ MOV         R2, #1 
    /*000000e8*/ LDRB        R0, [SP, #8] 
    /*000000ec*/ ADD         R9, SP, #76                 @ 0x4c 
    /*000000f0*/ LDR         R1, [SP, #92]               @ 0x5c 
    /*000000f4*/ ADD         R3, R3, #64                 @ 0x40 
    /*000000f8*/ STR         R3, [R6] 
    /*000000fc*/ ADD         R6, SP, #68                 @ 0x44 
    /*00000100*/ LDR         R3, [SP, #96]               @ 0x60 
    /*00000104*/ STRB        R0, [SP, #187]              @ 0xbb 
    /*00000108*/ MOV         R0, R4 
    /*0000010c*/ STR         R3, [SP, #64]               @ 0x40 
    /*00000110*/ LDR         R3, [SP, #100]              @ 0x64 
    /*00000114*/ STR         R1, [SP, #60]               @ 0x3c 
    /*00000118*/ STR         R2, [SP, #52]               @ 0x34 
    /*0000011c*/ STR         R3, [SP, #56]               @ 0x38 
    /*00000120*/ STR         R9, [SP, #68]               @ 0x44 
    /*00000124*/ BL          strlen
    /*00000128*/ STR         R0, [SP, #44]               @ 0x2c 
    /*0000012c*/ CMP         R0, #15 
    /*00000130*/ MOV         R8, R0 
    /*00000134*/ BHI         _ZN4hirt13WKModelLoader27parseOutputsForOneOperationEPNS_12GraphOfflineEPPhPNS_16OperationOfflineERSt3mapINSt7__cxx1112basic_stringIcSt11char_traitsIcESaIcEEEPNS_7OperandESt4lessISD_ESaISt4pairIKSD_SF_EEE_x42c
    /*00000138*/ CMP         R0, #1 
    /*0000013c*/ BEQ         _ZN4hirt13WKModelLoader27parseOutputsForOneOperationEPNS_12GraphOfflineEPPhPNS_16OperationOfflineERSt3mapINSt7__cxx1112basic_stringIcSt11char_traitsIcESaIcEEEPNS_7OperandESt4lessISD_ESaISt4pairIKSD_SF_EEE_x494
    /*00000140*/ CMP         R0, #0 
    /*00000144*/ MOVEQ       R2, R9 
    /*00000148*/ BNE         _ZN4hirt13WKModelLoader27parseOutputsForOneOperationEPNS_12GraphOfflineEPPhPNS_16OperationOfflineERSt3mapINSt7__cxx1112basic_stringIcSt11char_traitsIcESaIcEEEPNS_7OperandESt4lessISD_ESaISt4pairIKSD_SF_EEE_x708
    _ZN4hirt13WKModelLoader27parseOutputsForOneOperationEPNS_12GraphOfflineEPPhPNS_16OperationOfflineERSt3mapINSt7__cxx1112basic_stringIcSt11char_traitsIcESaIcEEEPNS_7OperandESt4lessISD_ESaISt4pairIKSD_SF_EEE_x14c:
    /*0000014c*/ LDR         R3, WORD_0780               @ LDR         R3, [PC, #1580]             @ 0x0000000000000780 
    /*00000150*/ MOV         R1, #0 
    /*00000154*/ STR         R8, [SP, #72]               @ 0x48 
    /*00000158*/ MOV         R0, #100                    @ 0x64 
    /*0000015c*/ STRB        R1, [R2, R8] 
    /*00000160*/ LDR         R8, [R7, R3] 
    /*00000164*/ MOV         R1, R8 
    /*00000168*/ BL          _ZnwjRKSt9nothrow_t
    /*0000016c*/ SUBS        R7, R0, #0 
    /*00000170*/ BEQ         _ZN4hirt13WKModelLoader27parseOutputsForOneOperationEPNS_12GraphOfflineEPPhPNS_16OperationOfflineERSt3mapINSt7__cxx1112basic_stringIcSt11char_traitsIcESaIcEEEPNS_7OperandESt4lessISD_ESaISt4pairIKSD_SF_EEE_x3fc
    /*00000174*/ MOV         R2, R5 
    /*00000178*/ MOV         R1, R6 
    /*0000017c*/ BL          _ZN4hirt14OperandOfflineC1ERKNSt7__cxx1112basic_stringIcSt11char_traitsIcESaIcEEERKNS_14__Data_Shape__E
    /*00000180*/ LDR         R0, [SP, #68]               @ 0x44 
    /*00000184*/ CMP         R0, R9 
    /*00000188*/ BEQ         _ZN4hirt13WKModelLoader27parseOutputsForOneOperationEPNS_12GraphOfflineEPPhPNS_16OperationOfflineERSt3mapINSt7__cxx1112basic_stringIcSt11char_traitsIcESaIcEEEPNS_7OperandESt4lessISD_ESaISt4pairIKSD_SF_EEE_x198
    _ZN4hirt13WKModelLoader27parseOutputsForOneOperationEPNS_12GraphOfflineEPPhPNS_16OperationOfflineERSt3mapINSt7__cxx1112basic_stringIcSt11char_traitsIcESaIcEEEPNS_7OperandESt4lessISD_ESaISt4pairIKSD_SF_EEE_x18c:
    /*0000018c*/ BL          _ZdlPv
    /*00000190*/ CMP         R7, #0 
    /*00000194*/ BEQ         _ZN4hirt13WKModelLoader27parseOutputsForOneOperationEPNS_12GraphOfflineEPPhPNS_16OperationOfflineERSt3mapINSt7__cxx1112basic_stringIcSt11char_traitsIcESaIcEEEPNS_7OperandESt4lessISD_ESaISt4pairIKSD_SF_EEE_x408
    _ZN4hirt13WKModelLoader27parseOutputsForOneOperationEPNS_12GraphOfflineEPPhPNS_16OperationOfflineERSt3mapINSt7__cxx1112basic_stringIcSt11char_traitsIcESaIcEEEPNS_7OperandESt4lessISD_ESaISt4pairIKSD_SF_EEE_x198:
    /*00000198*/ LDRB        R3, [SP, #104]              @ 0x68 
    /*0000019c*/ MOV         R0, R4 
    /*000001a0*/ LDRH        R2, [SP, #106]              @ 0x6a 
    /*000001a4*/ STRB        R3, [R7, #80]               @ 0x50 
    /*000001a8*/ LDR         R3, [SP, #112]              @ 0x70 
    /*000001ac*/ STRH        R2, [R7, #88]               @ 0x58 
    /*000001b0*/ STR         R3, [R7, #92]               @ 0x5c 
    /*000001b4*/ LDR         R2, [SP, #108]              @ 0x6c 
    /*000001b8*/ LDRB        R3, [SP, #116]              @ 0x74 
    /*000001bc*/ STR         R2, [R7, #68]               @ 0x44 
    /*000001c0*/ STR         R3, [R7, #72]               @ 0x48 
    /*000001c4*/ STR         R9, [SP, #68]               @ 0x44 
    /*000001c8*/ BL          strlen
    /*000001cc*/ STR         R0, [SP, #44]               @ 0x2c 
    /*000001d0*/ CMP         R0, #15 
    /*000001d4*/ MOV         R5, R0 
    /*000001d8*/ BHI         _ZN4hirt13WKModelLoader27parseOutputsForOneOperationEPNS_12GraphOfflineEPPhPNS_16OperationOfflineERSt3mapINSt7__cxx1112basic_stringIcSt11char_traitsIcESaIcEEEPNS_7OperandESt4lessISD_ESaISt4pairIKSD_SF_EEE_x460
    /*000001dc*/ CMP         R0, #1 
    /*000001e0*/ BEQ         _ZN4hirt13WKModelLoader27parseOutputsForOneOperationEPNS_12GraphOfflineEPPhPNS_16OperationOfflineERSt3mapINSt7__cxx1112basic_stringIcSt11char_traitsIcESaIcEEEPNS_7OperandESt4lessISD_ESaISt4pairIKSD_SF_EEE_x4e4
    /*000001e4*/ CMP         R0, #0 
    /*000001e8*/ MOVEQ       R2, R9 
    /*000001ec*/ BNE         _ZN4hirt13WKModelLoader27parseOutputsForOneOperationEPNS_12GraphOfflineEPPhPNS_16OperationOfflineERSt3mapINSt7__cxx1112basic_stringIcSt11char_traitsIcESaIcEEEPNS_7OperandESt4lessISD_ESaISt4pairIKSD_SF_EEE_x700
    _ZN4hirt13WKModelLoader27parseOutputsForOneOperationEPNS_12GraphOfflineEPPhPNS_16OperationOfflineERSt3mapINSt7__cxx1112basic_stringIcSt11char_traitsIcESaIcEEEPNS_7OperandESt4lessISD_ESaISt4pairIKSD_SF_EEE_x1f0:
    /*000001f0*/ STR         R5, [SP, #72]               @ 0x48 
    /*000001f4*/ MOV         R3, #0 
    /*000001f8*/ STRB        R3, [R2, R5] 
    /*000001fc*/ ADD         R3, SL, #4 
    /*00000200*/ LDR         R4, [SL, #8] 
    /*00000204*/ STR         R3, [SP, #12] 
    /*00000208*/ CMP         R4, #0 
    /*0000020c*/ BEQ         _ZN4hirt13WKModelLoader27parseOutputsForOneOperationEPNS_12GraphOfflineEPPhPNS_16OperationOfflineERSt3mapINSt7__cxx1112basic_stringIcSt11char_traitsIcESaIcEEEPNS_7OperandESt4lessISD_ESaISt4pairIKSD_SF_EEE_x544
    /*00000210*/ LDR         FP, [SP, #72]               @ 0x48 
    /*00000214*/ MOV         R6, R3 
    /*00000218*/ LDR         R8, [SP, #68]               @ 0x44 
    /*0000021c*/ B           _ZN4hirt13WKModelLoader27parseOutputsForOneOperationEPNS_12GraphOfflineEPPhPNS_16OperationOfflineERSt3mapINSt7__cxx1112basic_stringIcSt11char_traitsIcESaIcEEEPNS_7OperandESt4lessISD_ESaISt4pairIKSD_SF_EEE_x24c
    _ZN4hirt13WKModelLoader27parseOutputsForOneOperationEPNS_12GraphOfflineEPPhPNS_16OperationOfflineERSt3mapINSt7__cxx1112basic_stringIcSt11char_traitsIcESaIcEEEPNS_7OperandESt4lessISD_ESaISt4pairIKSD_SF_EEE_x220:
    /*00000220*/ LDR         R0, [R4, #16] 
    /*00000224*/ MOV         R1, R8 
    /*00000228*/ BL          memcmp
    /*0000022c*/ CMP         R0, #0 
    /*00000230*/ BEQ         _ZN4hirt13WKModelLoader27parseOutputsForOneOperationEPNS_12GraphOfflineEPPhPNS_16OperationOfflineERSt3mapINSt7__cxx1112basic_stringIcSt11char_traitsIcESaIcEEEPNS_7OperandESt4lessISD_ESaISt4pairIKSD_SF_EEE_x264
    _ZN4hirt13WKModelLoader27parseOutputsForOneOperationEPNS_12GraphOfflineEPPhPNS_16OperationOfflineERSt3mapINSt7__cxx1112basic_stringIcSt11char_traitsIcESaIcEEEPNS_7OperandESt4lessISD_ESaISt4pairIKSD_SF_EEE_x234:
    /*00000234*/ CMP         R0, #0 
    /*00000238*/ MOVGE       R6, R4 
    /*0000023c*/ LDRLT       R4, [R4, #12] 
    /*00000240*/ LDRGE       R4, [R4, #8] 
    /*00000244*/ CMP         R4, #0 
    /*00000248*/ BEQ         _ZN4hirt13WKModelLoader27parseOutputsForOneOperationEPNS_12GraphOfflineEPPhPNS_16OperationOfflineERSt3mapINSt7__cxx1112basic_stringIcSt11char_traitsIcESaIcEEEPNS_7OperandESt4lessISD_ESaISt4pairIKSD_SF_EEE_x26c
    _ZN4hirt13WKModelLoader27parseOutputsForOneOperationEPNS_12GraphOfflineEPPhPNS_16OperationOfflineERSt3mapINSt7__cxx1112basic_stringIcSt11char_traitsIcESaIcEEEPNS_7OperandESt4lessISD_ESaISt4pairIKSD_SF_EEE_x24c:
    /*0000024c*/ LDR         R5, [R4, #20] 
    /*00000250*/ CMP         R5, FP 
    /*00000254*/ MOVCC       R2, R5 
    /*00000258*/ MOVCS       R2, FP 
    /*0000025c*/ CMP         R2, #0 
    /*00000260*/ BNE         _ZN4hirt13WKModelLoader27parseOutputsForOneOperationEPNS_12GraphOfflineEPPhPNS_16OperationOfflineERSt3mapINSt7__cxx1112basic_stringIcSt11char_traitsIcESaIcEEEPNS_7OperandESt4lessISD_ESaISt4pairIKSD_SF_EEE_x220
    _ZN4hirt13WKModelLoader27parseOutputsForOneOperationEPNS_12GraphOfflineEPPhPNS_16OperationOfflineERSt3mapINSt7__cxx1112basic_stringIcSt11char_traitsIcESaIcEEEPNS_7OperandESt4lessISD_ESaISt4pairIKSD_SF_EEE_x264:
    /*00000264*/ SUB         R0, R5, FP 
    /*00000268*/ B           _ZN4hirt13WKModelLoader27parseOutputsForOneOperationEPNS_12GraphOfflineEPPhPNS_16OperationOfflineERSt3mapINSt7__cxx1112basic_stringIcSt11char_traitsIcESaIcEEEPNS_7OperandESt4lessISD_ESaISt4pairIKSD_SF_EEE_x234
    _ZN4hirt13WKModelLoader27parseOutputsForOneOperationEPNS_12GraphOfflineEPPhPNS_16OperationOfflineERSt3mapINSt7__cxx1112basic_stringIcSt11char_traitsIcESaIcEEEPNS_7OperandESt4lessISD_ESaISt4pairIKSD_SF_EEE_x26c:
    /*0000026c*/ LDR         R3, [SP, #12] 
    /*00000270*/ CMP         R3, R6 
    /*00000274*/ BEQ         _ZN4hirt13WKModelLoader27parseOutputsForOneOperationEPNS_12GraphOfflineEPPhPNS_16OperationOfflineERSt3mapINSt7__cxx1112basic_stringIcSt11char_traitsIcESaIcEEEPNS_7OperandESt4lessISD_ESaISt4pairIKSD_SF_EEE_x338
    /*00000278*/ LDR         R4, [R6, #20] 
    /*0000027c*/ CMP         R4, FP 
    /*00000280*/ MOVCC       R2, R4 
    /*00000284*/ MOVCS       R2, FP 
    /*00000288*/ CMP         R2, #0 
    /*0000028c*/ BEQ         _ZN4hirt13WKModelLoader27parseOutputsForOneOperationEPNS_12GraphOfflineEPPhPNS_16OperationOfflineERSt3mapINSt7__cxx1112basic_stringIcSt11char_traitsIcESaIcEEEPNS_7OperandESt4lessISD_ESaISt4pairIKSD_SF_EEE_x32c
    /*00000290*/ LDR         R1, [R6, #16] 
    /*00000294*/ MOV         R0, R8 
    /*00000298*/ BL          memcmp
    /*0000029c*/ CMP         R0, #0 
    /*000002a0*/ BEQ         _ZN4hirt13WKModelLoader27parseOutputsForOneOperationEPNS_12GraphOfflineEPPhPNS_16OperationOfflineERSt3mapINSt7__cxx1112basic_stringIcSt11char_traitsIcESaIcEEEPNS_7OperandESt4lessISD_ESaISt4pairIKSD_SF_EEE_x32c
    /*000002a4*/ CMP         R0, #0 
    /*000002a8*/ BLT         _ZN4hirt13WKModelLoader27parseOutputsForOneOperationEPNS_12GraphOfflineEPPhPNS_16OperationOfflineERSt3mapINSt7__cxx1112basic_stringIcSt11char_traitsIcESaIcEEEPNS_7OperandESt4lessISD_ESaISt4pairIKSD_SF_EEE_x338
    _ZN4hirt13WKModelLoader27parseOutputsForOneOperationEPNS_12GraphOfflineEPPhPNS_16OperationOfflineERSt3mapINSt7__cxx1112basic_stringIcSt11char_traitsIcESaIcEEEPNS_7OperandESt4lessISD_ESaISt4pairIKSD_SF_EEE_x2ac:
    /*000002ac*/ CMP         R8, R9 
    /*000002b0*/ STR         R7, [R6, #40]               @ 0x28 
    /*000002b4*/ BEQ         _ZN4hirt13WKModelLoader27parseOutputsForOneOperationEPNS_12GraphOfflineEPPhPNS_16OperationOfflineERSt3mapINSt7__cxx1112basic_stringIcSt11char_traitsIcESaIcEEEPNS_7OperandESt4lessISD_ESaISt4pairIKSD_SF_EEE_x2c0
    /*000002b8*/ MOV         R0, R8 
    /*000002bc*/ BL          _ZdlPv
    _ZN4hirt13WKModelLoader27parseOutputsForOneOperationEPNS_12GraphOfflineEPPhPNS_16OperationOfflineERSt3mapINSt7__cxx1112basic_stringIcSt11char_traitsIcESaIcEEEPNS_7OperandESt4lessISD_ESaISt4pairIKSD_SF_EEE_x2c0:
    /*000002c0*/ LDR         R0, [SP, #24] 
    /*000002c4*/ MOV         R1, R7 
    /*000002c8*/ LDR         R3, [R0] 
    /*000002cc*/ LDR         R3, [R3, #12] 
    /*000002d0*/ BLX         R3 
    /*000002d4*/ LDR         R3, [R7, #72]               @ 0x48 
    /*000002d8*/ CMP         R3, #0 
    /*000002dc*/ BLE         _ZN4hirt13WKModelLoader27parseOutputsForOneOperationEPNS_12GraphOfflineEPPhPNS_16OperationOfflineERSt3mapINSt7__cxx1112basic_stringIcSt11char_traitsIcESaIcEEEPNS_7OperandESt4lessISD_ESaISt4pairIKSD_SF_EEE_x30c
    /*000002e0*/ LDR         R2, [SP, #16] 
    /*000002e4*/ STR         R7, [SP, #40]               @ 0x28 
    /*000002e8*/ LDR         R3, [R2, #80]               @ 0x50 
    /*000002ec*/ LDR         R2, [R2, #84]               @ 0x54 
    /*000002f0*/ CMP         R3, R2 
    /*000002f4*/ BEQ         _ZN4hirt13WKModelLoader27parseOutputsForOneOperationEPNS_12GraphOfflineEPPhPNS_16OperationOfflineERSt3mapINSt7__cxx1112basic_stringIcSt11char_traitsIcESaIcEEEPNS_7OperandESt4lessISD_ESaISt4pairIKSD_SF_EEE_x6b4
    /*000002f8*/ LDR         R2, [SP, #16] 
    /*000002fc*/ CMP         R3, #0 
    /*00000300*/ STRNE       R7, [R3] 
    /*00000304*/ ADD         R3, R3, #4 
    /*00000308*/ STR         R3, [R2, #80]               @ 0x50 
    _ZN4hirt13WKModelLoader27parseOutputsForOneOperationEPNS_12GraphOfflineEPPhPNS_16OperationOfflineERSt3mapINSt7__cxx1112basic_stringIcSt11char_traitsIcESaIcEEEPNS_7OperandESt4lessISD_ESaISt4pairIKSD_SF_EEE_x30c:
    /*0000030c*/ LDR         R3, [SP, #20] 
    /*00000310*/ LDR         R2, [SP, #188]              @ 0xbc 
    /*00000314*/ LDR         R3, [R3] 
    /*00000318*/ LDR         R0, [SP, #8] 
    /*0000031c*/ CMP         R2, R3 
    /*00000320*/ BNE         _ZN4hirt13WKModelLoader27parseOutputsForOneOperationEPNS_12GraphOfflineEPPhPNS_16OperationOfflineERSt3mapINSt7__cxx1112basic_stringIcSt11char_traitsIcESaIcEEEPNS_7OperandESt4lessISD_ESaISt4pairIKSD_SF_EEE_x758
    /*00000324*/ ADD         SP, SP, #196                @ 0xc4 
    /*00000328*/ POP         {R4, R5, R6, R7, R8, R9, SL, FP, PC} 
    _ZN4hirt13WKModelLoader27parseOutputsForOneOperationEPNS_12GraphOfflineEPPhPNS_16OperationOfflineERSt3mapINSt7__cxx1112basic_stringIcSt11char_traitsIcESaIcEEEPNS_7OperandESt4lessISD_ESaISt4pairIKSD_SF_EEE_x32c:
    /*0000032c*/ SUB         R0, FP, R4 
    /*00000330*/ CMP         R0, #0 
    /*00000334*/ BGE         _ZN4hirt13WKModelLoader27parseOutputsForOneOperationEPNS_12GraphOfflineEPPhPNS_16OperationOfflineERSt3mapINSt7__cxx1112basic_stringIcSt11char_traitsIcESaIcEEEPNS_7OperandESt4lessISD_ESaISt4pairIKSD_SF_EEE_x2ac
    _ZN4hirt13WKModelLoader27parseOutputsForOneOperationEPNS_12GraphOfflineEPPhPNS_16OperationOfflineERSt3mapINSt7__cxx1112basic_stringIcSt11char_traitsIcESaIcEEEPNS_7OperandESt4lessISD_ESaISt4pairIKSD_SF_EEE_x338:
    /*00000338*/ MOV         R0, #44                     @ 0x2c 
    /*0000033c*/ BL          _Znwj
    /*00000340*/ LDR         R3, [SP, #68]               @ 0x44 
    /*00000344*/ ADD         R2, R0, #24 
    /*00000348*/ STR         R2, [SP, #32] 
    /*0000034c*/ MOV         R4, R0 
    /*00000350*/ CMP         R3, R9 
    /*00000354*/ STR         R2, [R0, #16] 
    /*00000358*/ ADD         R2, R0, #16 
    /*0000035c*/ STR         R3, [SP, #28] 
    /*00000360*/ STR         R2, [SP, #36]               @ 0x24 
    /*00000364*/ BEQ         _ZN4hirt13WKModelLoader27parseOutputsForOneOperationEPNS_12GraphOfflineEPPhPNS_16OperationOfflineERSt3mapINSt7__cxx1112basic_stringIcSt11char_traitsIcESaIcEEEPNS_7OperandESt4lessISD_ESaISt4pairIKSD_SF_EEE_x718
    /*00000368*/ MOV         R2, R3 
    /*0000036c*/ LDR         R3, [SP, #76]               @ 0x4c 
    /*00000370*/ STR         R2, [R4, #16] 
    /*00000374*/ STR         R3, [R4, #24] 
    _ZN4hirt13WKModelLoader27parseOutputsForOneOperationEPNS_12GraphOfflineEPPhPNS_16OperationOfflineERSt3mapINSt7__cxx1112basic_stringIcSt11char_traitsIcESaIcEEEPNS_7OperandESt4lessISD_ESaISt4pairIKSD_SF_EEE_x378:
    /*00000378*/ LDR         R3, [SP, #12] 
    /*0000037c*/ LDR         R8, [SP, #72]               @ 0x48 
    /*00000380*/ CMP         R3, R6 
    /*00000384*/ MOV         R3, #0 
    /*00000388*/ STR         R9, [SP, #68]               @ 0x44 
    /*0000038c*/ STR         R8, [R4, #20] 
    /*00000390*/ STR         R3, [SP, #72]               @ 0x48 
    /*00000394*/ STRB        R3, [SP, #76]               @ 0x4c 
    /*00000398*/ STR         R3, [R4, #40]               @ 0x28 
    /*0000039c*/ BEQ         _ZN4hirt13WKModelLoader27parseOutputsForOneOperationEPNS_12GraphOfflineEPPhPNS_16OperationOfflineERSt3mapINSt7__cxx1112basic_stringIcSt11char_traitsIcESaIcEEEPNS_7OperandESt4lessISD_ESaISt4pairIKSD_SF_EEE_x5f0
    /*000003a0*/ LDR         R5, [R6, #20] 
    /*000003a4*/ LDR         FP, [R6, #16] 
    /*000003a8*/ CMP         R8, R5 
    /*000003ac*/ MOVCC       R3, R8 
    /*000003b0*/ MOVCS       R3, R5 
    /*000003b4*/ CMP         R3, #0 
    /*000003b8*/ BNE         _ZN4hirt13WKModelLoader27parseOutputsForOneOperationEPNS_12GraphOfflineEPPhPNS_16OperationOfflineERSt3mapINSt7__cxx1112basic_stringIcSt11char_traitsIcESaIcEEEPNS_7OperandESt4lessISD_ESaISt4pairIKSD_SF_EEE_x4a4
    /*000003bc*/ SUB         R3, R8, R5 
    /*000003c0*/ CMP         R3, #0 
    /*000003c4*/ BLT         _ZN4hirt13WKModelLoader27parseOutputsForOneOperationEPNS_12GraphOfflineEPPhPNS_16OperationOfflineERSt3mapINSt7__cxx1112basic_stringIcSt11char_traitsIcESaIcEEEPNS_7OperandESt4lessISD_ESaISt4pairIKSD_SF_EEE_x4f4
    _ZN4hirt13WKModelLoader27parseOutputsForOneOperationEPNS_12GraphOfflineEPPhPNS_16OperationOfflineERSt3mapINSt7__cxx1112basic_stringIcSt11char_traitsIcESaIcEEEPNS_7OperandESt4lessISD_ESaISt4pairIKSD_SF_EEE_x3c8:
    /*000003c8*/ SUB         R0, R5, R8 
    _ZN4hirt13WKModelLoader27parseOutputsForOneOperationEPNS_12GraphOfflineEPPhPNS_16OperationOfflineERSt3mapINSt7__cxx1112basic_stringIcSt11char_traitsIcESaIcEEEPNS_7OperandESt4lessISD_ESaISt4pairIKSD_SF_EEE_x3cc:
    /*000003cc*/ CMP         R0, #0 
    /*000003d0*/ BLT         _ZN4hirt13WKModelLoader27parseOutputsForOneOperationEPNS_12GraphOfflineEPPhPNS_16OperationOfflineERSt3mapINSt7__cxx1112basic_stringIcSt11char_traitsIcESaIcEEEPNS_7OperandESt4lessISD_ESaISt4pairIKSD_SF_EEE_x54c
    _ZN4hirt13WKModelLoader27parseOutputsForOneOperationEPNS_12GraphOfflineEPPhPNS_16OperationOfflineERSt3mapINSt7__cxx1112basic_stringIcSt11char_traitsIcESaIcEEEPNS_7OperandESt4lessISD_ESaISt4pairIKSD_SF_EEE_x3d4:
    /*000003d4*/ LDR         R2, [SP, #32] 
    /*000003d8*/ LDR         R3, [SP, #28] 
    /*000003dc*/ CMP         R2, R3 
    /*000003e0*/ BEQ         _ZN4hirt13WKModelLoader27parseOutputsForOneOperationEPNS_12GraphOfflineEPPhPNS_16OperationOfflineERSt3mapINSt7__cxx1112basic_stringIcSt11char_traitsIcESaIcEEEPNS_7OperandESt4lessISD_ESaISt4pairIKSD_SF_EEE_x3ec
    /*000003e4*/ MOV         R0, R3 
    /*000003e8*/ BL          _ZdlPv
    _ZN4hirt13WKModelLoader27parseOutputsForOneOperationEPNS_12GraphOfflineEPPhPNS_16OperationOfflineERSt3mapINSt7__cxx1112basic_stringIcSt11char_traitsIcESaIcEEEPNS_7OperandESt4lessISD_ESaISt4pairIKSD_SF_EEE_x3ec:
    /*000003ec*/ MOV         R0, R4 
    /*000003f0*/ BL          _ZdlPv
    _ZN4hirt13WKModelLoader27parseOutputsForOneOperationEPNS_12GraphOfflineEPPhPNS_16OperationOfflineERSt3mapINSt7__cxx1112basic_stringIcSt11char_traitsIcESaIcEEEPNS_7OperandESt4lessISD_ESaISt4pairIKSD_SF_EEE_x3f4:
    /*000003f4*/ LDR         R8, [SP, #68]               @ 0x44 
    /*000003f8*/ B           _ZN4hirt13WKModelLoader27parseOutputsForOneOperationEPNS_12GraphOfflineEPPhPNS_16OperationOfflineERSt3mapINSt7__cxx1112basic_stringIcSt11char_traitsIcESaIcEEEPNS_7OperandESt4lessISD_ESaISt4pairIKSD_SF_EEE_x2ac
    _ZN4hirt13WKModelLoader27parseOutputsForOneOperationEPNS_12GraphOfflineEPPhPNS_16OperationOfflineERSt3mapINSt7__cxx1112basic_stringIcSt11char_traitsIcESaIcEEEPNS_7OperandESt4lessISD_ESaISt4pairIKSD_SF_EEE_x3fc:
    /*000003fc*/ LDR         R0, [SP, #68]               @ 0x44 
    /*00000400*/ CMP         R0, R9 
    /*00000404*/ BNE         _ZN4hirt13WKModelLoader27parseOutputsForOneOperationEPNS_12GraphOfflineEPPhPNS_16OperationOfflineERSt3mapINSt7__cxx1112basic_stringIcSt11char_traitsIcESaIcEEEPNS_7OperandESt4lessISD_ESaISt4pairIKSD_SF_EEE_x18c
    _ZN4hirt13WKModelLoader27parseOutputsForOneOperationEPNS_12GraphOfflineEPPhPNS_16OperationOfflineERSt3mapINSt7__cxx1112basic_stringIcSt11char_traitsIcESaIcEEEPNS_7OperandESt4lessISD_ESaISt4pairIKSD_SF_EEE_x408:
    /*00000408*/ LDR         R2, WORD_0784               @ LDR         R2, [PC, #884]              @ 0x0000000000000784 
    /*0000040c*/ MVN         R3, #0 
    /*00000410*/ LDR         R0, WORD_0788               @ LDR         R0, [PC, #880]              @ 0x0000000000000788 
    /*00000414*/ MOV         R1, #4 
    /*00000418*/ ADD         R2, PC, R2 
    /*0000041c*/ ADD         R0, PC, R0 
    /*00000420*/ STR         R3, [SP, #8] 
    /*00000424*/ BL          _Z15HIRT_LOG_PrintfPKc19tagHIRT_LOG_LEVEL_ES0_z
    /*00000428*/ B           _ZN4hirt13WKModelLoader27parseOutputsForOneOperationEPNS_12GraphOfflineEPPhPNS_16OperationOfflineERSt3mapINSt7__cxx1112basic_stringIcSt11char_traitsIcESaIcEEEPNS_7OperandESt4lessISD_ESaISt4pairIKSD_SF_EEE_x30c
    _ZN4hirt13WKModelLoader27parseOutputsForOneOperationEPNS_12GraphOfflineEPPhPNS_16OperationOfflineERSt3mapINSt7__cxx1112basic_stringIcSt11char_traitsIcESaIcEEEPNS_7OperandESt4lessISD_ESaISt4pairIKSD_SF_EEE_x42c:
    /*0000042c*/ LDR         R2, [SP, #8] 
    /*00000430*/ ADD         R1, SP, #44                 @ 0x2c 
    /*00000434*/ MOV         R0, R6 
    /*00000438*/ BL          _ZNSt7__cxx1112basic_stringIcSt11char_traitsIcESaIcEE9_M_createERjj
    /*0000043c*/ LDR         R3, [SP, #44]               @ 0x2c 
    /*00000440*/ STR         R0, [SP, #68]               @ 0x44 
    /*00000444*/ STR         R3, [SP, #76]               @ 0x4c 
    _ZN4hirt13WKModelLoader27parseOutputsForOneOperationEPNS_12GraphOfflineEPPhPNS_16OperationOfflineERSt3mapINSt7__cxx1112basic_stringIcSt11char_traitsIcESaIcEEEPNS_7OperandESt4lessISD_ESaISt4pairIKSD_SF_EEE_x448:
    /*00000448*/ MOV         R2, R8 
    /*0000044c*/ MOV         R1, R4 
    /*00000450*/ BL          memcpy
    /*00000454*/ LDR         R8, [SP, #44]               @ 0x2c 
    /*00000458*/ LDR         R2, [SP, #68]               @ 0x44 
    /*0000045c*/ B           _ZN4hirt13WKModelLoader27parseOutputsForOneOperationEPNS_12GraphOfflineEPPhPNS_16OperationOfflineERSt3mapINSt7__cxx1112basic_stringIcSt11char_traitsIcESaIcEEEPNS_7OperandESt4lessISD_ESaISt4pairIKSD_SF_EEE_x14c
    _ZN4hirt13WKModelLoader27parseOutputsForOneOperationEPNS_12GraphOfflineEPPhPNS_16OperationOfflineERSt3mapINSt7__cxx1112basic_stringIcSt11char_traitsIcESaIcEEEPNS_7OperandESt4lessISD_ESaISt4pairIKSD_SF_EEE_x460:
    /*00000460*/ MOV         R0, R6 
    /*00000464*/ MOV         R2, #0 
    /*00000468*/ ADD         R1, SP, #44                 @ 0x2c 
    /*0000046c*/ BL          _ZNSt7__cxx1112basic_stringIcSt11char_traitsIcESaIcEE9_M_createERjj
    /*00000470*/ LDR         R3, [SP, #44]               @ 0x2c 
    /*00000474*/ STR         R0, [SP, #68]               @ 0x44 
    /*00000478*/ STR         R3, [SP, #76]               @ 0x4c 
    _ZN4hirt13WKModelLoader27parseOutputsForOneOperationEPNS_12GraphOfflineEPPhPNS_16OperationOfflineERSt3mapINSt7__cxx1112basic_stringIcSt11char_traitsIcESaIcEEEPNS_7OperandESt4lessISD_ESaISt4pairIKSD_SF_EEE_x47c:
    /*0000047c*/ MOV         R2, R5 
    /*00000480*/ MOV         R1, R4 
    /*00000484*/ BL          memcpy
    /*00000488*/ LDR         R5, [SP, #44]               @ 0x2c 
    /*0000048c*/ LDR         R2, [SP, #68]               @ 0x44 
    /*00000490*/ B           _ZN4hirt13WKModelLoader27parseOutputsForOneOperationEPNS_12GraphOfflineEPPhPNS_16OperationOfflineERSt3mapINSt7__cxx1112basic_stringIcSt11char_traitsIcESaIcEEEPNS_7OperandESt4lessISD_ESaISt4pairIKSD_SF_EEE_x1f0
    _ZN4hirt13WKModelLoader27parseOutputsForOneOperationEPNS_12GraphOfflineEPPhPNS_16OperationOfflineERSt3mapINSt7__cxx1112basic_stringIcSt11char_traitsIcESaIcEEEPNS_7OperandESt4lessISD_ESaISt4pairIKSD_SF_EEE_x494:
    /*00000494*/ LDRB        R3, [SP, #124]              @ 0x7c 
    /*00000498*/ MOV         R2, R9 
    /*0000049c*/ STRB        R3, [SP, #76]               @ 0x4c 
    /*000004a0*/ B           _ZN4hirt13WKModelLoader27parseOutputsForOneOperationEPNS_12GraphOfflineEPPhPNS_16OperationOfflineERSt3mapINSt7__cxx1112basic_stringIcSt11char_traitsIcESaIcEEEPNS_7OperandESt4lessISD_ESaISt4pairIKSD_SF_EEE_x14c
    _ZN4hirt13WKModelLoader27parseOutputsForOneOperationEPNS_12GraphOfflineEPPhPNS_16OperationOfflineERSt3mapINSt7__cxx1112basic_stringIcSt11char_traitsIcESaIcEEEPNS_7OperandESt4lessISD_ESaISt4pairIKSD_SF_EEE_x4a4:
    /*000004a4*/ LDR         R0, [SP, #28] 
    /*000004a8*/ MOV         R2, R3 
    /*000004ac*/ STR         R3, [SP, #36]               @ 0x24 
    /*000004b0*/ MOV         R1, FP 
    /*000004b4*/ BL          memcmp
    /*000004b8*/ LDR         R3, [SP, #36]               @ 0x24 
    /*000004bc*/ CMP         R0, #0 
    /*000004c0*/ BEQ         _ZN4hirt13WKModelLoader27parseOutputsForOneOperationEPNS_12GraphOfflineEPPhPNS_16OperationOfflineERSt3mapINSt7__cxx1112basic_stringIcSt11char_traitsIcESaIcEEEPNS_7OperandESt4lessISD_ESaISt4pairIKSD_SF_EEE_x690
    _ZN4hirt13WKModelLoader27parseOutputsForOneOperationEPNS_12GraphOfflineEPPhPNS_16OperationOfflineERSt3mapINSt7__cxx1112basic_stringIcSt11char_traitsIcESaIcEEEPNS_7OperandESt4lessISD_ESaISt4pairIKSD_SF_EEE_x4c4:
    /*000004c4*/ BLT         _ZN4hirt13WKModelLoader27parseOutputsForOneOperationEPNS_12GraphOfflineEPPhPNS_16OperationOfflineERSt3mapINSt7__cxx1112basic_stringIcSt11char_traitsIcESaIcEEEPNS_7OperandESt4lessISD_ESaISt4pairIKSD_SF_EEE_x4f4
    /*000004c8*/ LDR         R1, [SP, #28] 
    /*000004cc*/ MOV         R2, R3 
    /*000004d0*/ MOV         R0, FP 
    /*000004d4*/ BL          memcmp
    /*000004d8*/ CMP         R0, #0 
    /*000004dc*/ BNE         _ZN4hirt13WKModelLoader27parseOutputsForOneOperationEPNS_12GraphOfflineEPPhPNS_16OperationOfflineERSt3mapINSt7__cxx1112basic_stringIcSt11char_traitsIcESaIcEEEPNS_7OperandESt4lessISD_ESaISt4pairIKSD_SF_EEE_x3cc
    /*000004e0*/ B           _ZN4hirt13WKModelLoader27parseOutputsForOneOperationEPNS_12GraphOfflineEPPhPNS_16OperationOfflineERSt3mapINSt7__cxx1112basic_stringIcSt11char_traitsIcESaIcEEEPNS_7OperandESt4lessISD_ESaISt4pairIKSD_SF_EEE_x3c8
    _ZN4hirt13WKModelLoader27parseOutputsForOneOperationEPNS_12GraphOfflineEPPhPNS_16OperationOfflineERSt3mapINSt7__cxx1112basic_stringIcSt11char_traitsIcESaIcEEEPNS_7OperandESt4lessISD_ESaISt4pairIKSD_SF_EEE_x4e4:
    /*000004e4*/ LDRB        R3, [SP, #124]              @ 0x7c 
    /*000004e8*/ MOV         R2, R9 
    /*000004ec*/ STRB        R3, [SP, #76]               @ 0x4c 
    /*000004f0*/ B           _ZN4hirt13WKModelLoader27parseOutputsForOneOperationEPNS_12GraphOfflineEPPhPNS_16OperationOfflineERSt3mapINSt7__cxx1112basic_stringIcSt11char_traitsIcESaIcEEEPNS_7OperandESt4lessISD_ESaISt4pairIKSD_SF_EEE_x1f0
    _ZN4hirt13WKModelLoader27parseOutputsForOneOperationEPNS_12GraphOfflineEPPhPNS_16OperationOfflineERSt3mapINSt7__cxx1112basic_stringIcSt11char_traitsIcESaIcEEEPNS_7OperandESt4lessISD_ESaISt4pairIKSD_SF_EEE_x4f4:
    /*000004f4*/ LDR         R3, [SL, #12] 
    /*000004f8*/ CMP         R3, R6 
    /*000004fc*/ BEQ         _ZN4hirt13WKModelLoader27parseOutputsForOneOperationEPNS_12GraphOfflineEPPhPNS_16OperationOfflineERSt3mapINSt7__cxx1112basic_stringIcSt11char_traitsIcESaIcEEEPNS_7OperandESt4lessISD_ESaISt4pairIKSD_SF_EEE_x73c
    /*00000500*/ MOV         R0, R6 
    /*00000504*/ BL          _ZSt18_Rb_tree_decrementPSt18_Rb_tree_node_base
    /*00000508*/ LDR         FP, [R0, #20] 
    /*0000050c*/ MOV         R5, R0 
    /*00000510*/ CMP         R8, FP 
    /*00000514*/ MOVCC       R2, R8 
    /*00000518*/ MOVCS       R2, FP 
    /*0000051c*/ CMP         R2, #0 
    /*00000520*/ BNE         _ZN4hirt13WKModelLoader27parseOutputsForOneOperationEPNS_12GraphOfflineEPPhPNS_16OperationOfflineERSt3mapINSt7__cxx1112basic_stringIcSt11char_traitsIcESaIcEEEPNS_7OperandESt4lessISD_ESaISt4pairIKSD_SF_EEE_x678
    _ZN4hirt13WKModelLoader27parseOutputsForOneOperationEPNS_12GraphOfflineEPPhPNS_16OperationOfflineERSt3mapINSt7__cxx1112basic_stringIcSt11char_traitsIcESaIcEEEPNS_7OperandESt4lessISD_ESaISt4pairIKSD_SF_EEE_x524:
    /*00000524*/ SUB         R0, FP, R8 
    _ZN4hirt13WKModelLoader27parseOutputsForOneOperationEPNS_12GraphOfflineEPPhPNS_16OperationOfflineERSt3mapINSt7__cxx1112basic_stringIcSt11char_traitsIcESaIcEEEPNS_7OperandESt4lessISD_ESaISt4pairIKSD_SF_EEE_x528:
    /*00000528*/ CMP         R0, #0 
    /*0000052c*/ BGE         _ZN4hirt13WKModelLoader27parseOutputsForOneOperationEPNS_12GraphOfflineEPPhPNS_16OperationOfflineERSt3mapINSt7__cxx1112basic_stringIcSt11char_traitsIcESaIcEEEPNS_7OperandESt4lessISD_ESaISt4pairIKSD_SF_EEE_x638
    /*00000530*/ LDR         R3, [R5, #12] 
    /*00000534*/ CMP         R3, #0 
    /*00000538*/ MOVEQ       R6, #0 
    /*0000053c*/ MOVNE       R5, R6 
    /*00000540*/ B           _ZN4hirt13WKModelLoader27parseOutputsForOneOperationEPNS_12GraphOfflineEPPhPNS_16OperationOfflineERSt3mapINSt7__cxx1112basic_stringIcSt11char_traitsIcESaIcEEEPNS_7OperandESt4lessISD_ESaISt4pairIKSD_SF_EEE_x658
    _ZN4hirt13WKModelLoader27parseOutputsForOneOperationEPNS_12GraphOfflineEPPhPNS_16OperationOfflineERSt3mapINSt7__cxx1112basic_stringIcSt11char_traitsIcESaIcEEEPNS_7OperandESt4lessISD_ESaISt4pairIKSD_SF_EEE_x544:
    /*00000544*/ MOV         R6, R3 
    /*00000548*/ B           _ZN4hirt13WKModelLoader27parseOutputsForOneOperationEPNS_12GraphOfflineEPPhPNS_16OperationOfflineERSt3mapINSt7__cxx1112basic_stringIcSt11char_traitsIcESaIcEEEPNS_7OperandESt4lessISD_ESaISt4pairIKSD_SF_EEE_x338
    _ZN4hirt13WKModelLoader27parseOutputsForOneOperationEPNS_12GraphOfflineEPPhPNS_16OperationOfflineERSt3mapINSt7__cxx1112basic_stringIcSt11char_traitsIcESaIcEEEPNS_7OperandESt4lessISD_ESaISt4pairIKSD_SF_EEE_x54c:
    /*0000054c*/ LDR         R3, [SL, #16] 
    /*00000550*/ CMP         R3, R6 
    /*00000554*/ BEQ         _ZN4hirt13WKModelLoader27parseOutputsForOneOperationEPNS_12GraphOfflineEPPhPNS_16OperationOfflineERSt3mapINSt7__cxx1112basic_stringIcSt11char_traitsIcESaIcEEEPNS_7OperandESt4lessISD_ESaISt4pairIKSD_SF_EEE_x598
    /*00000558*/ MOV         R0, R6 
    /*0000055c*/ BL          _ZSt18_Rb_tree_incrementPSt18_Rb_tree_node_base
    /*00000560*/ LDR         FP, [R0, #20] 
    /*00000564*/ MOV         R5, R0 
    /*00000568*/ CMP         R8, FP 
    /*0000056c*/ MOVCC       R2, R8 
    /*00000570*/ MOVCS       R2, FP 
    /*00000574*/ CMP         R2, #0 
    /*00000578*/ BNE         _ZN4hirt13WKModelLoader27parseOutputsForOneOperationEPNS_12GraphOfflineEPPhPNS_16OperationOfflineERSt3mapINSt7__cxx1112basic_stringIcSt11char_traitsIcESaIcEEEPNS_7OperandESt4lessISD_ESaISt4pairIKSD_SF_EEE_x69c
    _ZN4hirt13WKModelLoader27parseOutputsForOneOperationEPNS_12GraphOfflineEPPhPNS_16OperationOfflineERSt3mapINSt7__cxx1112basic_stringIcSt11char_traitsIcESaIcEEEPNS_7OperandESt4lessISD_ESaISt4pairIKSD_SF_EEE_x57c:
    /*0000057c*/ SUB         R0, R8, FP 
    _ZN4hirt13WKModelLoader27parseOutputsForOneOperationEPNS_12GraphOfflineEPPhPNS_16OperationOfflineERSt3mapINSt7__cxx1112basic_stringIcSt11char_traitsIcESaIcEEEPNS_7OperandESt4lessISD_ESaISt4pairIKSD_SF_EEE_x580:
    /*00000580*/ CMP         R0, #0 
    /*00000584*/ BGE         _ZN4hirt13WKModelLoader27parseOutputsForOneOperationEPNS_12GraphOfflineEPPhPNS_16OperationOfflineERSt3mapINSt7__cxx1112basic_stringIcSt11char_traitsIcESaIcEEEPNS_7OperandESt4lessISD_ESaISt4pairIKSD_SF_EEE_x638
    /*00000588*/ LDR         R3, [R6, #12] 
    /*0000058c*/ CMP         R3, #0 
    /*00000590*/ MOVNE       R6, R5 
    /*00000594*/ BNE         _ZN4hirt13WKModelLoader27parseOutputsForOneOperationEPNS_12GraphOfflineEPPhPNS_16OperationOfflineERSt3mapINSt7__cxx1112basic_stringIcSt11char_traitsIcESaIcEEEPNS_7OperandESt4lessISD_ESaISt4pairIKSD_SF_EEE_x658
    _ZN4hirt13WKModelLoader27parseOutputsForOneOperationEPNS_12GraphOfflineEPPhPNS_16OperationOfflineERSt3mapINSt7__cxx1112basic_stringIcSt11char_traitsIcESaIcEEEPNS_7OperandESt4lessISD_ESaISt4pairIKSD_SF_EEE_x598:
    /*00000598*/ MOV         R5, R6 
    _ZN4hirt13WKModelLoader27parseOutputsForOneOperationEPNS_12GraphOfflineEPPhPNS_16OperationOfflineERSt3mapINSt7__cxx1112basic_stringIcSt11char_traitsIcESaIcEEEPNS_7OperandESt4lessISD_ESaISt4pairIKSD_SF_EEE_x59c:
    /*0000059c*/ LDR         R6, [R5, #20] 
    /*000005a0*/ CMP         R8, R6 
    /*000005a4*/ MOVCC       R2, R8 
    /*000005a8*/ MOVCS       R2, R6 
    /*000005ac*/ CMP         R2, #0 
    /*000005b0*/ BEQ         _ZN4hirt13WKModelLoader27parseOutputsForOneOperationEPNS_12GraphOfflineEPPhPNS_16OperationOfflineERSt3mapINSt7__cxx1112basic_stringIcSt11char_traitsIcESaIcEEEPNS_7OperandESt4lessISD_ESaISt4pairIKSD_SF_EEE_x6f8
    /*000005b4*/ LDR         R1, [R5, #16] 
    /*000005b8*/ LDR         R0, [SP, #28] 
    /*000005bc*/ BL          memcmp
    /*000005c0*/ CMP         R0, #0 
    /*000005c4*/ BEQ         _ZN4hirt13WKModelLoader27parseOutputsForOneOperationEPNS_12GraphOfflineEPPhPNS_16OperationOfflineERSt3mapINSt7__cxx1112basic_stringIcSt11char_traitsIcESaIcEEEPNS_7OperandESt4lessISD_ESaISt4pairIKSD_SF_EEE_x6f8
    _ZN4hirt13WKModelLoader27parseOutputsForOneOperationEPNS_12GraphOfflineEPPhPNS_16OperationOfflineERSt3mapINSt7__cxx1112basic_stringIcSt11char_traitsIcESaIcEEEPNS_7OperandESt4lessISD_ESaISt4pairIKSD_SF_EEE_x5c8:
    /*000005c8*/ LSR         R0, R0, #31 
    /*000005cc*/ LDR         R3, [SP, #12] 
    _ZN4hirt13WKModelLoader27parseOutputsForOneOperationEPNS_12GraphOfflineEPPhPNS_16OperationOfflineERSt3mapINSt7__cxx1112basic_stringIcSt11char_traitsIcESaIcEEEPNS_7OperandESt4lessISD_ESaISt4pairIKSD_SF_EEE_x5d0:
    /*000005d0*/ MOV         R2, R5 
    /*000005d4*/ MOV         R1, R4 
    /*000005d8*/ MOV         R6, R4 
    /*000005dc*/ BL          _ZSt29_Rb_tree_insert_and_rebalancebPSt18_Rb_tree_node_baseS0_RS_
    /*000005e0*/ LDR         R3, [SL, #20] 
    /*000005e4*/ ADD         R3, R3, #1 
    /*000005e8*/ STR         R3, [SL, #20] 
    /*000005ec*/ B           _ZN4hirt13WKModelLoader27parseOutputsForOneOperationEPNS_12GraphOfflineEPPhPNS_16OperationOfflineERSt3mapINSt7__cxx1112basic_stringIcSt11char_traitsIcESaIcEEEPNS_7OperandESt4lessISD_ESaISt4pairIKSD_SF_EEE_x3f4
    _ZN4hirt13WKModelLoader27parseOutputsForOneOperationEPNS_12GraphOfflineEPPhPNS_16OperationOfflineERSt3mapINSt7__cxx1112basic_stringIcSt11char_traitsIcESaIcEEEPNS_7OperandESt4lessISD_ESaISt4pairIKSD_SF_EEE_x5f0:
    /*000005f0*/ LDR         R3, [SL, #20] 
    /*000005f4*/ CMP         R3, #0 
    /*000005f8*/ BEQ         _ZN4hirt13WKModelLoader27parseOutputsForOneOperationEPNS_12GraphOfflineEPPhPNS_16OperationOfflineERSt3mapINSt7__cxx1112basic_stringIcSt11char_traitsIcESaIcEEEPNS_7OperandESt4lessISD_ESaISt4pairIKSD_SF_EEE_x638
    /*000005fc*/ LDR         R5, [SL, #16] 
    /*00000600*/ LDR         R6, [R5, #20] 
    /*00000604*/ CMP         R8, R6 
    /*00000608*/ MOVCC       R2, R8 
    /*0000060c*/ MOVCS       R2, R6 
    /*00000610*/ CMP         R2, #0 
    /*00000614*/ BEQ         _ZN4hirt13WKModelLoader27parseOutputsForOneOperationEPNS_12GraphOfflineEPPhPNS_16OperationOfflineERSt3mapINSt7__cxx1112basic_stringIcSt11char_traitsIcESaIcEEEPNS_7OperandESt4lessISD_ESaISt4pairIKSD_SF_EEE_x710
    /*00000618*/ LDR         R0, [R5, #16] 
    /*0000061c*/ LDR         R1, [SP, #28] 
    /*00000620*/ BL          memcmp
    /*00000624*/ CMP         R0, #0 
    /*00000628*/ BEQ         _ZN4hirt13WKModelLoader27parseOutputsForOneOperationEPNS_12GraphOfflineEPPhPNS_16OperationOfflineERSt3mapINSt7__cxx1112basic_stringIcSt11char_traitsIcESaIcEEEPNS_7OperandESt4lessISD_ESaISt4pairIKSD_SF_EEE_x710
    _ZN4hirt13WKModelLoader27parseOutputsForOneOperationEPNS_12GraphOfflineEPPhPNS_16OperationOfflineERSt3mapINSt7__cxx1112basic_stringIcSt11char_traitsIcESaIcEEEPNS_7OperandESt4lessISD_ESaISt4pairIKSD_SF_EEE_x62c:
    /*0000062c*/ CMP         R0, #0 
    /*00000630*/ MOVLT       R6, #0 
    /*00000634*/ BLT         _ZN4hirt13WKModelLoader27parseOutputsForOneOperationEPNS_12GraphOfflineEPPhPNS_16OperationOfflineERSt3mapINSt7__cxx1112basic_stringIcSt11char_traitsIcESaIcEEEPNS_7OperandESt4lessISD_ESaISt4pairIKSD_SF_EEE_x658
    _ZN4hirt13WKModelLoader27parseOutputsForOneOperationEPNS_12GraphOfflineEPPhPNS_16OperationOfflineERSt3mapINSt7__cxx1112basic_stringIcSt11char_traitsIcESaIcEEEPNS_7OperandESt4lessISD_ESaISt4pairIKSD_SF_EEE_x638:
    /*00000638*/ ADD         R2, R4, #16 
    /*0000063c*/ MOV         R1, SL 
    /*00000640*/ ADD         R0, SP, #44                 @ 0x2c 
    /*00000644*/ BL          _ZNSt8_Rb_treeINSt7__cxx1112basic_stringIcSt11char_traitsIcESaIcEEESt4pairIKS5_PN4hirt7OperandEESt10_Select1stISB_ESt4lessIS5_ESaISB_EE24_M_get_insert_unique_posERS7_
    /*00000648*/ LDR         R5, [SP, #48]               @ 0x30 
    /*0000064c*/ LDR         R6, [SP, #44]               @ 0x2c 
    /*00000650*/ CMP         R5, #0 
    /*00000654*/ BEQ         _ZN4hirt13WKModelLoader27parseOutputsForOneOperationEPNS_12GraphOfflineEPPhPNS_16OperationOfflineERSt3mapINSt7__cxx1112basic_stringIcSt11char_traitsIcESaIcEEEPNS_7OperandESt4lessISD_ESaISt4pairIKSD_SF_EEE_x3d4
    _ZN4hirt13WKModelLoader27parseOutputsForOneOperationEPNS_12GraphOfflineEPPhPNS_16OperationOfflineERSt3mapINSt7__cxx1112basic_stringIcSt11char_traitsIcESaIcEEEPNS_7OperandESt4lessISD_ESaISt4pairIKSD_SF_EEE_x658:
    /*00000658*/ ADDS        R0, R6, #0 
    /*0000065c*/ LDR         R3, [SP, #12] 
    /*00000660*/ MOVNE       R0, #1 
    /*00000664*/ CMP         R3, R5 
    /*00000668*/ ORREQ       R0, R0, #1 
    /*0000066c*/ CMP         R0, #0 
    /*00000670*/ BEQ         _ZN4hirt13WKModelLoader27parseOutputsForOneOperationEPNS_12GraphOfflineEPPhPNS_16OperationOfflineERSt3mapINSt7__cxx1112basic_stringIcSt11char_traitsIcESaIcEEEPNS_7OperandESt4lessISD_ESaISt4pairIKSD_SF_EEE_x59c
    /*00000674*/ B           _ZN4hirt13WKModelLoader27parseOutputsForOneOperationEPNS_12GraphOfflineEPPhPNS_16OperationOfflineERSt3mapINSt7__cxx1112basic_stringIcSt11char_traitsIcESaIcEEEPNS_7OperandESt4lessISD_ESaISt4pairIKSD_SF_EEE_x5d0
    _ZN4hirt13WKModelLoader27parseOutputsForOneOperationEPNS_12GraphOfflineEPPhPNS_16OperationOfflineERSt3mapINSt7__cxx1112basic_stringIcSt11char_traitsIcESaIcEEEPNS_7OperandESt4lessISD_ESaISt4pairIKSD_SF_EEE_x678:
    /*00000678*/ LDR         R0, [R0, #16] 
    /*0000067c*/ LDR         R1, [SP, #28] 
    /*00000680*/ BL          memcmp
    /*00000684*/ CMP         R0, #0 
    /*00000688*/ BNE         _ZN4hirt13WKModelLoader27parseOutputsForOneOperationEPNS_12GraphOfflineEPPhPNS_16OperationOfflineERSt3mapINSt7__cxx1112basic_stringIcSt11char_traitsIcESaIcEEEPNS_7OperandESt4lessISD_ESaISt4pairIKSD_SF_EEE_x528
    /*0000068c*/ B           _ZN4hirt13WKModelLoader27parseOutputsForOneOperationEPNS_12GraphOfflineEPPhPNS_16OperationOfflineERSt3mapINSt7__cxx1112basic_stringIcSt11char_traitsIcESaIcEEEPNS_7OperandESt4lessISD_ESaISt4pairIKSD_SF_EEE_x524
    _ZN4hirt13WKModelLoader27parseOutputsForOneOperationEPNS_12GraphOfflineEPPhPNS_16OperationOfflineERSt3mapINSt7__cxx1112basic_stringIcSt11char_traitsIcESaIcEEEPNS_7OperandESt4lessISD_ESaISt4pairIKSD_SF_EEE_x690:
    /*00000690*/ SUB         R2, R8, R5 
    /*00000694*/ CMP         R2, #0 
    /*00000698*/ B           _ZN4hirt13WKModelLoader27parseOutputsForOneOperationEPNS_12GraphOfflineEPPhPNS_16OperationOfflineERSt3mapINSt7__cxx1112basic_stringIcSt11char_traitsIcESaIcEEEPNS_7OperandESt4lessISD_ESaISt4pairIKSD_SF_EEE_x4c4
    _ZN4hirt13WKModelLoader27parseOutputsForOneOperationEPNS_12GraphOfflineEPPhPNS_16OperationOfflineERSt3mapINSt7__cxx1112basic_stringIcSt11char_traitsIcESaIcEEEPNS_7OperandESt4lessISD_ESaISt4pairIKSD_SF_EEE_x69c:
    /*0000069c*/ LDR         R1, [R0, #16] 
    /*000006a0*/ LDR         R0, [SP, #28] 
    /*000006a4*/ BL          memcmp
    /*000006a8*/ CMP         R0, #0 
    /*000006ac*/ BNE         _ZN4hirt13WKModelLoader27parseOutputsForOneOperationEPNS_12GraphOfflineEPPhPNS_16OperationOfflineERSt3mapINSt7__cxx1112basic_stringIcSt11char_traitsIcESaIcEEEPNS_7OperandESt4lessISD_ESaISt4pairIKSD_SF_EEE_x580
    /*000006b0*/ B           _ZN4hirt13WKModelLoader27parseOutputsForOneOperationEPNS_12GraphOfflineEPPhPNS_16OperationOfflineERSt3mapINSt7__cxx1112basic_stringIcSt11char_traitsIcESaIcEEEPNS_7OperandESt4lessISD_ESaISt4pairIKSD_SF_EEE_x57c
    _ZN4hirt13WKModelLoader27parseOutputsForOneOperationEPNS_12GraphOfflineEPPhPNS_16OperationOfflineERSt3mapINSt7__cxx1112basic_stringIcSt11char_traitsIcESaIcEEEPNS_7OperandESt4lessISD_ESaISt4pairIKSD_SF_EEE_x6b4:
    /*000006b4*/ LDR         R3, [SP, #16] 
    /*000006b8*/ ADD         R1, SP, #40                 @ 0x28 
    /*000006bc*/ ADD         R0, R3, #76                 @ 0x4c 
    /*000006c0*/ BL          _ZNSt6vectorIPN4hirt7OperandESaIS2_EE19_M_emplace_back_auxIJRKS2_EEEvDpOT_
    /*000006c4*/ B           _ZN4hirt13WKModelLoader27parseOutputsForOneOperationEPNS_12GraphOfflineEPPhPNS_16OperationOfflineERSt3mapINSt7__cxx1112basic_stringIcSt11char_traitsIcESaIcEEEPNS_7OperandESt4lessISD_ESaISt4pairIKSD_SF_EEE_x30c
    _ZN4hirt13WKModelLoader27parseOutputsForOneOperationEPNS_12GraphOfflineEPPhPNS_16OperationOfflineERSt3mapINSt7__cxx1112basic_stringIcSt11char_traitsIcESaIcEEEPNS_7OperandESt4lessISD_ESaISt4pairIKSD_SF_EEE_x6c8:
    /*000006c8*/ STR         R3, [SP] 
    /*000006cc*/ MVN         R2, #0 
    /*000006d0*/ STR         R2, [SP, #8] 
    /*000006d4*/ MOV         R1, #4 
    /*000006d8*/ LDR         R3, WORD_078c               @ LDR         R3, [PC, #172]              @ 0x000000000000078c 
    /*000006dc*/ LDR         R2, WORD_0790               @ LDR         R2, [PC, #172]              @ 0x0000000000000790 
    /*000006e0*/ LDR         R0, WORD_0794               @ LDR         R0, [PC, #172]              @ 0x0000000000000794 
    /*000006e4*/ ADD         R3, PC, R3 
    /*000006e8*/ ADD         R2, PC, R2 
    /*000006ec*/ ADD         R0, PC, R0 
    /*000006f0*/ BL          _Z15HIRT_LOG_PrintfPKc19tagHIRT_LOG_LEVEL_ES0_z
    /*000006f4*/ B           _ZN4hirt13WKModelLoader27parseOutputsForOneOperationEPNS_12GraphOfflineEPPhPNS_16OperationOfflineERSt3mapINSt7__cxx1112basic_stringIcSt11char_traitsIcESaIcEEEPNS_7OperandESt4lessISD_ESaISt4pairIKSD_SF_EEE_x30c
    _ZN4hirt13WKModelLoader27parseOutputsForOneOperationEPNS_12GraphOfflineEPPhPNS_16OperationOfflineERSt3mapINSt7__cxx1112basic_stringIcSt11char_traitsIcESaIcEEEPNS_7OperandESt4lessISD_ESaISt4pairIKSD_SF_EEE_x6f8:
    /*000006f8*/ SUB         R0, R8, R6 
    /*000006fc*/ B           _ZN4hirt13WKModelLoader27parseOutputsForOneOperationEPNS_12GraphOfflineEPPhPNS_16OperationOfflineERSt3mapINSt7__cxx1112basic_stringIcSt11char_traitsIcESaIcEEEPNS_7OperandESt4lessISD_ESaISt4pairIKSD_SF_EEE_x5c8
    _ZN4hirt13WKModelLoader27parseOutputsForOneOperationEPNS_12GraphOfflineEPPhPNS_16OperationOfflineERSt3mapINSt7__cxx1112basic_stringIcSt11char_traitsIcESaIcEEEPNS_7OperandESt4lessISD_ESaISt4pairIKSD_SF_EEE_x700:
    /*00000700*/ MOV         R0, R9 
    /*00000704*/ B           _ZN4hirt13WKModelLoader27parseOutputsForOneOperationEPNS_12GraphOfflineEPPhPNS_16OperationOfflineERSt3mapINSt7__cxx1112basic_stringIcSt11char_traitsIcESaIcEEEPNS_7OperandESt4lessISD_ESaISt4pairIKSD_SF_EEE_x47c
    _ZN4hirt13WKModelLoader27parseOutputsForOneOperationEPNS_12GraphOfflineEPPhPNS_16OperationOfflineERSt3mapINSt7__cxx1112basic_stringIcSt11char_traitsIcESaIcEEEPNS_7OperandESt4lessISD_ESaISt4pairIKSD_SF_EEE_x708:
    /*00000708*/ MOV         R0, R9 
    /*0000070c*/ B           _ZN4hirt13WKModelLoader27parseOutputsForOneOperationEPNS_12GraphOfflineEPPhPNS_16OperationOfflineERSt3mapINSt7__cxx1112basic_stringIcSt11char_traitsIcESaIcEEEPNS_7OperandESt4lessISD_ESaISt4pairIKSD_SF_EEE_x448
    _ZN4hirt13WKModelLoader27parseOutputsForOneOperationEPNS_12GraphOfflineEPPhPNS_16OperationOfflineERSt3mapINSt7__cxx1112basic_stringIcSt11char_traitsIcESaIcEEEPNS_7OperandESt4lessISD_ESaISt4pairIKSD_SF_EEE_x710:
    /*00000710*/ SUB         R0, R6, R8 
    /*00000714*/ B           _ZN4hirt13WKModelLoader27parseOutputsForOneOperationEPNS_12GraphOfflineEPPhPNS_16OperationOfflineERSt3mapINSt7__cxx1112basic_stringIcSt11char_traitsIcESaIcEEEPNS_7OperandESt4lessISD_ESaISt4pairIKSD_SF_EEE_x62c
    _ZN4hirt13WKModelLoader27parseOutputsForOneOperationEPNS_12GraphOfflineEPPhPNS_16OperationOfflineERSt3mapINSt7__cxx1112basic_stringIcSt11char_traitsIcESaIcEEEPNS_7OperandESt4lessISD_ESaISt4pairIKSD_SF_EEE_x718:
    /*00000718*/ LDR         LR, [SP, #32] 
    /*0000071c*/ MOV         IP, R9 
    /*00000720*/ LDM         IP!, {R0, R1, R2, R3} 
    /*00000724*/ STR         LR, [SP, #28] 
    /*00000728*/ STR         R0, [R4, #24] 
    /*0000072c*/ STR         R1, [LR, #4] 
    /*00000730*/ STR         R2, [LR, #8] 
    /*00000734*/ STR         R3, [LR, #12] 
    /*00000738*/ B           _ZN4hirt13WKModelLoader27parseOutputsForOneOperationEPNS_12GraphOfflineEPPhPNS_16OperationOfflineERSt3mapINSt7__cxx1112basic_stringIcSt11char_traitsIcESaIcEEEPNS_7OperandESt4lessISD_ESaISt4pairIKSD_SF_EEE_x378
    _ZN4hirt13WKModelLoader27parseOutputsForOneOperationEPNS_12GraphOfflineEPPhPNS_16OperationOfflineERSt3mapINSt7__cxx1112basic_stringIcSt11char_traitsIcESaIcEEEPNS_7OperandESt4lessISD_ESaISt4pairIKSD_SF_EEE_x73c:
    /*0000073c*/ MOV         R5, R6 
    /*00000740*/ B           _ZN4hirt13WKModelLoader27parseOutputsForOneOperationEPNS_12GraphOfflineEPPhPNS_16OperationOfflineERSt3mapINSt7__cxx1112basic_stringIcSt11char_traitsIcESaIcEEEPNS_7OperandESt4lessISD_ESaISt4pairIKSD_SF_EEE_x658
    /*00000744*/ LDR         R0, [SP, #68]               @ 0x44 
    /*00000748*/ CMP         R0, R9 
    /*0000074c*/ BEQ         _ZN4hirt13WKModelLoader27parseOutputsForOneOperationEPNS_12GraphOfflineEPPhPNS_16OperationOfflineERSt3mapINSt7__cxx1112basic_stringIcSt11char_traitsIcESaIcEEEPNS_7OperandESt4lessISD_ESaISt4pairIKSD_SF_EEE_x754
    _ZN4hirt13WKModelLoader27parseOutputsForOneOperationEPNS_12GraphOfflineEPPhPNS_16OperationOfflineERSt3mapINSt7__cxx1112basic_stringIcSt11char_traitsIcESaIcEEEPNS_7OperandESt4lessISD_ESaISt4pairIKSD_SF_EEE_x750:
    /*00000750*/ BL          _ZdlPv
    _ZN4hirt13WKModelLoader27parseOutputsForOneOperationEPNS_12GraphOfflineEPPhPNS_16OperationOfflineERSt3mapINSt7__cxx1112basic_stringIcSt11char_traitsIcESaIcEEEPNS_7OperandESt4lessISD_ESaISt4pairIKSD_SF_EEE_x754:
    /*00000754*/ BL          __cxa_end_cleanup
    _ZN4hirt13WKModelLoader27parseOutputsForOneOperationEPNS_12GraphOfflineEPPhPNS_16OperationOfflineERSt3mapINSt7__cxx1112basic_stringIcSt11char_traitsIcESaIcEEEPNS_7OperandESt4lessISD_ESaISt4pairIKSD_SF_EEE_x758:
    /*00000758*/ BL          __stack_chk_fail
    /*0000075c*/ MOV         R0, R7 
    /*00000760*/ MOV         R1, R8 
    /*00000764*/ BL          _ZdlPvRKSt9nothrow_t
    /*00000768*/ LDR         R0, [SP, #68]               @ 0x44 
    /*0000076c*/ CMP         R0, R9 
    /*00000770*/ BNE         _ZN4hirt13WKModelLoader27parseOutputsForOneOperationEPNS_12GraphOfflineEPPhPNS_16OperationOfflineERSt3mapINSt7__cxx1112basic_stringIcSt11char_traitsIcESaIcEEEPNS_7OperandESt4lessISD_ESaISt4pairIKSD_SF_EEE_x750
    /*00000774*/ B           _ZN4hirt13WKModelLoader27parseOutputsForOneOperationEPNS_12GraphOfflineEPPhPNS_16OperationOfflineERSt3mapINSt7__cxx1112basic_stringIcSt11char_traitsIcESaIcEEEPNS_7OperandESt4lessISD_ESaISt4pairIKSD_SF_EEE_x754
    /*00000778*/ WORD_0778: .word 0x00000750
    /*0000077c*/ WORD_077c: .word 0x00000000
    /*00000780*/ WORD_0780: .word 0x00000000
    /*00000784*/ WORD_0784: .word 0x00000364
    /*00000788*/ WORD_0788: .word 0x00000364
    /*0000078c*/ WORD_078c: .word 0x000000a0
    /*00000790*/ WORD_0790: .word 0x000000a0
    /*00000794*/ WORD_0794: .word 0x000000a0
FUNC_END _ZN4hirt13WKModelLoader27parseOutputsForOneOperationEPNS_12GraphOfflineEPPhPNS_16OperationOfflineERSt3mapINSt7__cxx1112basic_stringIcSt11char_traitsIcESaIcEEEPNS_7OperandESt4lessISD_ESaISt4pairIKSD_SF_EEE


@ - - - - - - - - - - - - - - - - - - - - - - - - - - - - - 
@ .ARM.extab.text._ZN4hirt13WKModelLoader27parseOutputsForOneOperationEPNS_12GraphOfflineEPPhPNS_16OperationOfflineERSt3mapINSt7__cxx1112basic_stringIcSt11char_traitsIcESaIcEEEPNS_7OperandESt4lessISD_ESaISt4pairIKSD_SF_EEE
@ Size: 0x28
@ - - - - - - - - - - - - - - - - - - - - - - - - - - - - - 

@ - - - - - - - - - - - - - - - - - - - - - - - - - - - - - 
@ .text._ZN4hirt13WKModelLoader13parseExtendWKEPKhjPNS_5GraphEPNS_19GroupIndexContainerE
@ Size: 0xe80
@ - - - - - - - - - - - - - - - - - - - - - - - - - - - - - 

FUNC_BEGIN _ZN4hirt13WKModelLoader13parseExtendWKEPKhjPNS_5GraphEPNS_19GroupIndexContainerE
    /*00000000*/ MOV         IP, #16384                  @ 0x4000 
    /*00000004*/ PUSH        {R4, R5, R6, R7, R8, R9, SL, FP, LR} 
    /*00000008*/ SUB         IP, SP, IP 
    /*0000000c*/ STR         R0, [IP, #3728]             @ 0xe90 
    /*00000010*/ LDR         R8, WORD_0d80               @ LDR         R8, [PC, #3432]             @ 0x0000000000000d80 
    /*00000014*/ SUB         SP, SP, #332                @ 0x14c 
    /*00000018*/ LDR         IP, WORD_0d84               @ LDR         IP, [PC, #3428]             @ 0x0000000000000d84 
    /*0000001c*/ MOV         R5, R2 
    /*00000020*/ LDR         LR, [SP, #368]              @ 0x170 
    /*00000024*/ MOV         R4, #0 
    /*00000028*/ ADD         R8, PC, R8 
    /*0000002c*/ ADD         R7, SP, #164                @ 0xa4 
    /*00000030*/ STR         LR, [SP, #48]               @ 0x30 
    /*00000034*/ MOV         R6, R3 
    /*00000038*/ STR         R0, [SP, #16] 
    /*0000003c*/ LDR         R0, [R8, IP] 
    /*00000040*/ ADD         IP, SP, #244                @ 0xf4 
    /*00000044*/ STR         R1, [SP, #36]               @ 0x24 
    /*00000048*/ MOV         R9, IP 
    /*0000004c*/ LDR         R2, [R0] 
    /*00000050*/ MOV         R1, R4 
    /*00000054*/ STR         R0, [SP, #52]               @ 0x34 
    /*00000058*/ MOV         R0, R7 
    /*0000005c*/ STR         R2, [SP, #324]              @ 0x144 
    /*00000060*/ MOV         R2, #80                     @ 0x50 
    /*00000064*/ STR         IP, [SP, #44]               @ 0x2c 
    /*00000068*/ STR         R4, [SP, #60]               @ 0x3c 
    /*0000006c*/ STR         R4, [SP, #64]               @ 0x40 
    /*00000070*/ BL          memset
    /*00000074*/ MOV         R1, R4 
    /*00000078*/ MOV         R0, R9 
    /*0000007c*/ MOV         R2, #80                     @ 0x50 
    /*00000080*/ BL          memset
    /*00000084*/ CMP         R5, #79                     @ 0x4f 
    /*00000088*/ BLS         _ZN4hirt13WKModelLoader13parseExtendWKEPKhjPNS_5GraphEPNS_19GroupIndexContainerE_xd58
    /*0000008c*/ CMP         R5, #10485760               @ 0xa00000 
    /*00000090*/ BHI         _ZN4hirt13WKModelLoader13parseExtendWKEPKhjPNS_5GraphEPNS_19GroupIndexContainerE_xd38
    /*00000094*/ LDR         R2, [SP, #36]               @ 0x24 
    /*00000098*/ MOV         R3, #80                     @ 0x50 
    /*0000009c*/ MOV         R1, R3 
    /*000000a0*/ MOV         R0, R7 
    /*000000a4*/ BL          memcpy_s
    /*000000a8*/ CMP         R0, #0 
    /*000000ac*/ BNE         _ZN4hirt13WKModelLoader13parseExtendWKEPKhjPNS_5GraphEPNS_19GroupIndexContainerE_xd04
    /*000000b0*/ LDR         R4, WORD_0d88               @ LDR         R4, [PC, #3280]             @ 0x0000000000000d88 
    /*000000b4*/ MOV         R1, #1 
    /*000000b8*/ LDR         R2, WORD_0d8c               @ LDR         R2, [PC, #3276]             @ 0x0000000000000d8c 
    /*000000bc*/ ADD         R4, PC, R4 
    /*000000c0*/ ADD         R2, PC, R2 
    /*000000c4*/ MOV         R0, R4 
    /*000000c8*/ BL          _Z15HIRT_LOG_PrintfPKc19tagHIRT_LOG_LEVEL_ES0_z
    /*000000cc*/ LDR         R2, WORD_0d90               @ LDR         R2, [PC, #3260]             @ 0x0000000000000d90 
    /*000000d0*/ MOV         R1, #1 
    /*000000d4*/ LDR         R3, [SP, #164]              @ 0xa4 
    /*000000d8*/ MOV         R0, R4 
    /*000000dc*/ ADD         R2, PC, R2 
    /*000000e0*/ BL          _Z15HIRT_LOG_PrintfPKc19tagHIRT_LOG_LEVEL_ES0_z
    /*000000e4*/ LDR         R2, WORD_0d94               @ LDR         R2, [PC, #3240]             @ 0x0000000000000d94 
    /*000000e8*/ MOV         R1, #1 
    /*000000ec*/ LDR         R3, [SP, #168]              @ 0xa8 
    /*000000f0*/ MOV         R0, R4 
    /*000000f4*/ ADD         R2, PC, R2 
    /*000000f8*/ BL          _Z15HIRT_LOG_PrintfPKc19tagHIRT_LOG_LEVEL_ES0_z
    /*000000fc*/ LDR         R2, WORD_0d98               @ LDR         R2, [PC, #3220]             @ 0x0000000000000d98 
    /*00000100*/ MOV         R1, #1 
    /*00000104*/ LDR         R3, [SP, #172]              @ 0xac 
    /*00000108*/ MOV         R0, R4 
    /*0000010c*/ ADD         R2, PC, R2 
    /*00000110*/ BL          _Z15HIRT_LOG_PrintfPKc19tagHIRT_LOG_LEVEL_ES0_z
    /*00000114*/ LDR         R2, WORD_0d9c               @ LDR         R2, [PC, #3200]             @ 0x0000000000000d9c 
    /*00000118*/ MOV         R1, #1 
    /*0000011c*/ LDR         R3, [SP, #176]              @ 0xb0 
    /*00000120*/ MOV         R0, R4 
    /*00000124*/ ADD         R2, PC, R2 
    /*00000128*/ BL          _Z15HIRT_LOG_PrintfPKc19tagHIRT_LOG_LEVEL_ES0_z
    /*0000012c*/ LDR         R2, WORD_0da0               @ LDR         R2, [PC, #3180]             @ 0x0000000000000da0 
    /*00000130*/ ADD         R3, SP, #180                @ 0xb4 
    /*00000134*/ MOV         R1, #1 
    /*00000138*/ MOV         R0, R4 
    /*0000013c*/ ADD         R2, PC, R2 
    /*00000140*/ BL          _Z15HIRT_LOG_PrintfPKc19tagHIRT_LOG_LEVEL_ES0_z
    /*00000144*/ LDR         R2, WORD_0da4               @ LDR         R2, [PC, #3160]             @ 0x0000000000000da4 
    /*00000148*/ MOV         R1, #1 
    /*0000014c*/ LDRB        R3, [SP, #196]              @ 0xc4 
    /*00000150*/ MOV         R0, R4 
    /*00000154*/ ADD         R2, PC, R2 
    /*00000158*/ BL          _Z15HIRT_LOG_PrintfPKc19tagHIRT_LOG_LEVEL_ES0_z
    /*0000015c*/ LDR         R2, WORD_0da8               @ LDR         R2, [PC, #3140]             @ 0x0000000000000da8 
    /*00000160*/ MOV         R1, #1 
    /*00000164*/ LDRB        R3, [SP, #197]              @ 0xc5 
    /*00000168*/ MOV         R0, R4 
    /*0000016c*/ ADD         R2, PC, R2 
    /*00000170*/ BL          _Z15HIRT_LOG_PrintfPKc19tagHIRT_LOG_LEVEL_ES0_z
    /*00000174*/ LDR         R2, WORD_0dac               @ LDR         R2, [PC, #3120]             @ 0x0000000000000dac 
    /*00000178*/ MOV         R1, #1 
    /*0000017c*/ LDRB        R3, [SP, #198]              @ 0xc6 
    /*00000180*/ MOV         R0, R4 
    /*00000184*/ ADD         R2, PC, R2 
    /*00000188*/ BL          _Z15HIRT_LOG_PrintfPKc19tagHIRT_LOG_LEVEL_ES0_z
    /*0000018c*/ LDR         R2, WORD_0db0               @ LDR         R2, [PC, #3100]             @ 0x0000000000000db0 
    /*00000190*/ MOV         R1, #1 
    /*00000194*/ LDRB        R3, [SP, #199]              @ 0xc7 
    /*00000198*/ MOV         R0, R4 
    /*0000019c*/ ADD         R2, PC, R2 
    /*000001a0*/ BL          _Z15HIRT_LOG_PrintfPKc19tagHIRT_LOG_LEVEL_ES0_z
    /*000001a4*/ LDR         R2, WORD_0db4               @ LDR         R2, [PC, #3080]             @ 0x0000000000000db4 
    /*000001a8*/ MOV         R1, #1 
    /*000001ac*/ LDR         R3, [SP, #200]              @ 0xc8 
    /*000001b0*/ MOV         R0, R4 
    /*000001b4*/ ADD         R2, PC, R2 
    /*000001b8*/ BL          _Z15HIRT_LOG_PrintfPKc19tagHIRT_LOG_LEVEL_ES0_z
    /*000001bc*/ LDR         R2, WORD_0db8               @ LDR         R2, [PC, #3060]             @ 0x0000000000000db8 
    /*000001c0*/ MOV         R1, #1 
    /*000001c4*/ LDR         R3, [SP, #204]              @ 0xcc 
    /*000001c8*/ MOV         R0, R4 
    /*000001cc*/ ADD         R2, PC, R2 
    /*000001d0*/ BL          _Z15HIRT_LOG_PrintfPKc19tagHIRT_LOG_LEVEL_ES0_z
    /*000001d4*/ LDR         R2, WORD_0dbc               @ LDR         R2, [PC, #3040]             @ 0x0000000000000dbc 
    /*000001d8*/ MOV         R1, #1 
    /*000001dc*/ LDR         R3, [SP, #208]              @ 0xd0 
    /*000001e0*/ MOV         R0, R4 
    /*000001e4*/ ADD         R2, PC, R2 
    /*000001e8*/ BL          _Z15HIRT_LOG_PrintfPKc19tagHIRT_LOG_LEVEL_ES0_z
    /*000001ec*/ LDR         R2, WORD_0dc0               @ LDR         R2, [PC, #3020]             @ 0x0000000000000dc0 
    /*000001f0*/ MOV         R1, #1 
    /*000001f4*/ LDR         R3, [SP, #212]              @ 0xd4 
    /*000001f8*/ MOV         R0, R4 
    /*000001fc*/ ADD         R2, PC, R2 
    /*00000200*/ BL          _Z15HIRT_LOG_PrintfPKc19tagHIRT_LOG_LEVEL_ES0_z
    /*00000204*/ LDR         R2, WORD_0dc4               @ LDR         R2, [PC, #3000]             @ 0x0000000000000dc4 
    /*00000208*/ MOV         R1, #1 
    /*0000020c*/ LDRB        R3, [SP, #216]              @ 0xd8 
    /*00000210*/ MOV         R0, R4 
    /*00000214*/ ADD         R2, PC, R2 
    /*00000218*/ BL          _Z15HIRT_LOG_PrintfPKc19tagHIRT_LOG_LEVEL_ES0_z
    /*0000021c*/ LDR         R2, WORD_0dc8               @ LDR         R2, [PC, #2980]             @ 0x0000000000000dc8 
    /*00000220*/ MOV         R1, #1 
    /*00000224*/ LDRH        R3, [SP, #218]              @ 0xda 
    /*00000228*/ MOV         R0, R4 
    /*0000022c*/ ADD         R2, PC, R2 
    /*00000230*/ BL          _Z15HIRT_LOG_PrintfPKc19tagHIRT_LOG_LEVEL_ES0_z
    /*00000234*/ LDR         R2, WORD_0dcc               @ LDR         R2, [PC, #2960]             @ 0x0000000000000dcc 
    /*00000238*/ MOV         R1, #1 
    /*0000023c*/ LDR         R3, [SP, #220]              @ 0xdc 
    /*00000240*/ MOV         R0, R4 
    /*00000244*/ ADD         R2, PC, R2 
    /*00000248*/ BL          _Z15HIRT_LOG_PrintfPKc19tagHIRT_LOG_LEVEL_ES0_z
    /*0000024c*/ LDR         R2, WORD_0dd0               @ LDR         R2, [PC, #2940]             @ 0x0000000000000dd0 
    /*00000250*/ MOV         R1, #1 
    /*00000254*/ LDR         R3, [SP, #224]              @ 0xe0 
    /*00000258*/ MOV         R0, R4 
    /*0000025c*/ ADD         R2, PC, R2 
    /*00000260*/ BL          _Z15HIRT_LOG_PrintfPKc19tagHIRT_LOG_LEVEL_ES0_z
    /*00000264*/ LDR         R2, WORD_0dd4               @ LDR         R2, [PC, #2920]             @ 0x0000000000000dd4 
    /*00000268*/ MOV         R1, #1 
    /*0000026c*/ LDR         R3, [SP, #228]              @ 0xe4 
    /*00000270*/ MOV         R0, R4 
    /*00000274*/ ADD         R2, PC, R2 
    /*00000278*/ BL          _Z15HIRT_LOG_PrintfPKc19tagHIRT_LOG_LEVEL_ES0_z
    /*0000027c*/ LDR         R2, WORD_0dd8               @ LDR         R2, [PC, #2900]             @ 0x0000000000000dd8 
    /*00000280*/ MOV         R1, #1 
    /*00000284*/ LDR         R3, [SP, #232]              @ 0xe8 
    /*00000288*/ MOV         R0, R4 
    /*0000028c*/ ADD         R2, PC, R2 
    /*00000290*/ BL          _Z15HIRT_LOG_PrintfPKc19tagHIRT_LOG_LEVEL_ES0_z
    /*00000294*/ LDR         R2, WORD_0ddc               @ LDR         R2, [PC, #2880]             @ 0x0000000000000ddc 
    /*00000298*/ MOV         R0, R4 
    /*0000029c*/ MOV         R1, #1 
    /*000002a0*/ ADD         R2, PC, R2 
    /*000002a4*/ BL          _Z15HIRT_LOG_PrintfPKc19tagHIRT_LOG_LEVEL_ES0_z
    /*000002a8*/ LDR         R3, [SP, #228]              @ 0xe4 
    /*000002ac*/ CMP         R3, #16 
    /*000002b0*/ BHI         _ZN4hirt13WKModelLoader13parseExtendWKEPKhjPNS_5GraphEPNS_19GroupIndexContainerE_xcf4
    /*000002b4*/ LDR         R3, [SP, #232]              @ 0xe8 
    /*000002b8*/ LDR         R2, WORD_0de0               @ LDR         R2, [PC, #2848]             @ 0x0000000000000de0 
    /*000002bc*/ CMP         R3, #16 
    /*000002c0*/ ADD         R2, PC, R2 
    /*000002c4*/ BHI         _ZN4hirt13WKModelLoader13parseExtendWKEPKhjPNS_5GraphEPNS_19GroupIndexContainerE_xcfc
    /*000002c8*/ LDR         R3, [SP, #224]              @ 0xe0 
    /*000002cc*/ CMP         R3, #4096                   @ 0x1000 
    /*000002d0*/ BHI         _ZN4hirt13WKModelLoader13parseExtendWKEPKhjPNS_5GraphEPNS_19GroupIndexContainerE_xce4
    /*000002d4*/ LDR         R3, [SP, #220]              @ 0xdc 
    /*000002d8*/ MOVW        R2, #5000                   @ 0x1388 
    /*000002dc*/ CMP         R3, R2 
    /*000002e0*/ BHI         _ZN4hirt13WKModelLoader13parseExtendWKEPKhjPNS_5GraphEPNS_19GroupIndexContainerE_xcbc
    /*000002e4*/ LDR         R3, [SP, #212]              @ 0xd4 
    /*000002e8*/ CMP         R3, #256                    @ 0x100 
    /*000002ec*/ BHI         _ZN4hirt13WKModelLoader13parseExtendWKEPKhjPNS_5GraphEPNS_19GroupIndexContainerE_xcac
    /*000002f0*/ LDR         R3, [SP, #208]              @ 0xd0 
    /*000002f4*/ CMP         R3, #-1073741824            @ 0xc0000000 
    /*000002f8*/ BHI         _ZN4hirt13WKModelLoader13parseExtendWKEPKhjPNS_5GraphEPNS_19GroupIndexContainerE_xc80
    /*000002fc*/ LDR         R1, [SP, #36]               @ 0x24 
    /*00000300*/ MOV         R2, R5 
    /*00000304*/ LDR         R0, [SP, #16] 
    /*00000308*/ BL          _ZN4hirt13WKModelLoader25checkExtendWKNetHeadParamEPKhj
    /*0000030c*/ CMP         R0, #0 
    /*00000310*/ BNE         _ZN4hirt13WKModelLoader13parseExtendWKEPKhjPNS_5GraphEPNS_19GroupIndexContainerE_xc58
    /*00000314*/ CMP         R6, #0 
    /*00000318*/ BEQ         _ZN4hirt13WKModelLoader13parseExtendWKEPKhjPNS_5GraphEPNS_19GroupIndexContainerE_xc2c
    /*0000031c*/ LDR         R1, WORD_0de4               @ LDR         R1, [PC, #2752]             @ 0x0000000000000de4 
    /*00000320*/ MOV         R0, R6 
    /*00000324*/ LDR         R2, WORD_0de8               @ LDR         R2, [PC, #2748]             @ 0x0000000000000de8 
    /*00000328*/ MOV         R3, #0 
    /*0000032c*/ LDR         R1, [R8, R1] 
    /*00000330*/ ADD         R2, PC, R2 
    /*00000334*/ BL          __dynamic_cast
    /*00000338*/ STR         R0, [SP, #68]               @ 0x44 
    /*0000033c*/ CMP         R0, #0 
    /*00000340*/ BEQ         _ZN4hirt13WKModelLoader13parseExtendWKEPKhjPNS_5GraphEPNS_19GroupIndexContainerE_xc30
    /*00000344*/ LDR         R0, [SP, #16] 
    /*00000348*/ MOV         R1, R7 
    /*0000034c*/ ADD         R2, SP, #68                 @ 0x44 
    /*00000350*/ BL          _ZN4hirt13WKModelLoader18genGraphExceptOptsERK26hiRUNTIME_OFF_MODEL_HEAD_SRPNS_12GraphOfflineE
    /*00000354*/ SUBS        R3, R0, #0 
    /*00000358*/ STR         R3, [SP, #8] 
    /*0000035c*/ BNE         _ZN4hirt13WKModelLoader13parseExtendWKEPKhjPNS_5GraphEPNS_19GroupIndexContainerE_xc04
    /*00000360*/ LDR         R2, [SP, #224]              @ 0xe0 
    /*00000364*/ MOV         R0, R3 
    /*00000368*/ STR         R0, [SP, #112]              @ 0x70 
    /*0000036c*/ ADD         R3, SP, #96                 @ 0x60 
    /*00000370*/ STR         R3, [SP, #12] 
    /*00000374*/ MOV         R1, R3 
    /*00000378*/ LDR         R3, [SP, #172]              @ 0xac 
    /*0000037c*/ CMP         R2, #0 
    /*00000380*/ LDR         R2, [SP, #36]               @ 0x24 
    /*00000384*/ VMOV.I32    Q8, #0                      @ 0x00000000 
    /*00000388*/ ADD         R3, R2, R3 
    /*0000038c*/ STR         R3, [SP, #60]               @ 0x3c 
    /*00000390*/ MOV         R3, R1 
    /*00000394*/ MOVNE       R3, R0 
    /*00000398*/ STRNE       R3, [SP, #40]               @ 0x28 
    /*0000039c*/ ADDNE       R3, SP, #92                 @ 0x5c 
    /*000003a0*/ VST1.8      {D16-D17}, [R1] 
    /*000003a4*/ STRNE       R3, [SP, #28] 
    /*000003a8*/ STR         R1, [SP, #104]              @ 0x68 
    /*000003ac*/ STR         R1, [SP, #108]              @ 0x6c 
    /*000003b0*/ BEQ         _ZN4hirt13WKModelLoader13parseExtendWKEPKhjPNS_5GraphEPNS_19GroupIndexContainerE_xbf8
    _ZN4hirt13WKModelLoader13parseExtendWKEPKhjPNS_5GraphEPNS_19GroupIndexContainerE_x3b4:
    /*000003b4*/ LDR         R0, [SP, #44]               @ 0x2c 
    /*000003b8*/ MOV         R3, #80                     @ 0x50 
    /*000003bc*/ MOV         R2, #0 
    /*000003c0*/ MOV         R1, R3 
    /*000003c4*/ BL          memset_s
    /*000003c8*/ CMP         R0, #0 
    /*000003cc*/ BNE         _ZN4hirt13WKModelLoader13parseExtendWKEPKhjPNS_5GraphEPNS_19GroupIndexContainerE_xbd0
    /*000003d0*/ LDR         R4, [SP, #60]               @ 0x3c 
    /*000003d4*/ CMP         R4, #0 
    /*000003d8*/ BEQ         _ZN4hirt13WKModelLoader13parseExtendWKEPKhjPNS_5GraphEPNS_19GroupIndexContainerE_x4e8
    /*000003dc*/ LDR         R0, [SP, #44]               @ 0x2c 
    /*000003e0*/ MOV         R3, #80                     @ 0x50 
    /*000003e4*/ MOV         R2, R4 
    /*000003e8*/ MOV         R1, R3 
    /*000003ec*/ BL          memcpy_s
    /*000003f0*/ CMP         R0, #0 
    /*000003f4*/ BNE         _ZN4hirt13WKModelLoader13parseExtendWKEPKhjPNS_5GraphEPNS_19GroupIndexContainerE_xba8
    /*000003f8*/ LDR         R2, [SP, #60]               @ 0x3c 
    /*000003fc*/ ADD         R5, SP, #328                @ 0x148 
    /*00000400*/ LDR         R0, [SP, #16] 
    /*00000404*/ ADD         R1, SP, #64                 @ 0x40 
    /*00000408*/ STR         R1, [SP] 
    /*0000040c*/ ADD         R2, R2, #80                 @ 0x50 
    /*00000410*/ STR         R2, [R5, #-268]!            @ 0xfffffef4 
    /*00000414*/ MOV         R3, R4 
    /*00000418*/ LDR         R1, [SP, #44]               @ 0x2c 
    /*0000041c*/ MOV         R2, R5 
    /*00000420*/ BL          _ZN4hirt13WKModelLoader19genOneOptExceptOpdsERK26hiRUNTIME_NODE_COMM_INFO_SPPhS4_RPNS_16OperationOfflineE
    /*00000424*/ CMP         R0, #0 
    /*00000428*/ BNE         _ZN4hirt13WKModelLoader13parseExtendWKEPKhjPNS_5GraphEPNS_19GroupIndexContainerE_xb8c
    /*0000042c*/ LDR         IP, [SP, #48]               @ 0x30 
    /*00000430*/ LDR         R1, [SP, #64]               @ 0x40 
    /*00000434*/ LDR         R3, [IP] 
    /*00000438*/ LDR         R0, [SP, #68]               @ 0x44 
    /*0000043c*/ ADD         R2, R3, #1 
    /*00000440*/ STR         R2, [IP] 
    /*00000444*/ STR         R3, [R1, #148]              @ 0x94 
    /*00000448*/ BL          _ZN4hirt5Graph12addOperationEPNS_9OperationE
    /*0000044c*/ LDRH        R3, [SP, #248]              @ 0xf8 
    /*00000450*/ CMP         R3, #0 
    /*00000454*/ MOVNE       R4, #0 
    /*00000458*/ BNE         _ZN4hirt13WKModelLoader13parseExtendWKEPKhjPNS_5GraphEPNS_19GroupIndexContainerE_x474
    /*0000045c*/ B           _ZN4hirt13WKModelLoader13parseExtendWKEPKhjPNS_5GraphEPNS_19GroupIndexContainerE_x5bc
    _ZN4hirt13WKModelLoader13parseExtendWKEPKhjPNS_5GraphEPNS_19GroupIndexContainerE_x460:
    /*00000460*/ LDRH        R3, [SP, #248]              @ 0xf8 
    /*00000464*/ ADD         R4, R4, #1 
    /*00000468*/ UXTH        R4, R4 
    /*0000046c*/ CMP         R4, R3 
    /*00000470*/ BGE         _ZN4hirt13WKModelLoader13parseExtendWKEPKhjPNS_5GraphEPNS_19GroupIndexContainerE_x5bc
    _ZN4hirt13WKModelLoader13parseExtendWKEPKhjPNS_5GraphEPNS_19GroupIndexContainerE_x474:
    /*00000474*/ LDR         R3, [SP, #64]               @ 0x40 
    /*00000478*/ MOV         R2, R5 
    /*0000047c*/ LDR         R1, [SP, #68]               @ 0x44 
    /*00000480*/ LDR         R0, [SP, #16] 
    /*00000484*/ BL          _ZN4hirt13WKModelLoader26parseInputsForOneOperationEPNS_12GraphOfflineEPPhPNS_16OperationOfflineE
    /*00000488*/ CMP         R0, #0 
    /*0000048c*/ BEQ         _ZN4hirt13WKModelLoader13parseExtendWKEPKhjPNS_5GraphEPNS_19GroupIndexContainerE_x460
    /*00000490*/ LDR         R2, WORD_0dec               @ LDR         R2, [PC, #2388]             @ 0x0000000000000dec 
    /*00000494*/ MOV         R1, #4 
    /*00000498*/ LDR         R0, WORD_0df0               @ LDR         R0, [PC, #2384]             @ 0x0000000000000df0 
    /*0000049c*/ ADD         R2, PC, R2 
    /*000004a0*/ ADD         R0, PC, R0 
    /*000004a4*/ BL          _Z15HIRT_LOG_PrintfPKc19tagHIRT_LOG_LEVEL_ES0_z
    _ZN4hirt13WKModelLoader13parseExtendWKEPKhjPNS_5GraphEPNS_19GroupIndexContainerE_x4a8:
    /*000004a8*/ LDR         R1, [SP, #68]               @ 0x44 
    /*000004ac*/ LDR         R0, [SP, #16] 
    /*000004b0*/ BL          _ZN4hirt13WKModelLoader15releaseExtendWKEPKNS_12GraphOfflineE
    /*000004b4*/ MVN         R3, #0 
    /*000004b8*/ STR         R3, [SP, #8] 
    _ZN4hirt13WKModelLoader13parseExtendWKEPKhjPNS_5GraphEPNS_19GroupIndexContainerE_x4bc:
    /*000004bc*/ LDR         R0, [SP, #28] 
    /*000004c0*/ LDR         R1, [SP, #100]              @ 0x64 
    /*000004c4*/ BL          _ZNSt8_Rb_treeINSt7__cxx1112basic_stringIcSt11char_traitsIcESaIcEEESt4pairIKS5_PN4hirt7OperandEESt10_Select1stISB_ESt4lessIS5_ESaISB_EE8_M_eraseEPSt13_Rb_tree_nodeISB_E
    /*000004c8*/ LDR         R0, [SP, #8] 
    _ZN4hirt13WKModelLoader13parseExtendWKEPKhjPNS_5GraphEPNS_19GroupIndexContainerE_x4cc:
    /*000004cc*/ LDR         R3, [SP, #52]               @ 0x34 
    /*000004d0*/ LDR         R2, [SP, #324]              @ 0x144 
    /*000004d4*/ LDR         R3, [R3] 
    /*000004d8*/ CMP         R2, R3 
    /*000004dc*/ BNE         _ZN4hirt13WKModelLoader13parseExtendWKEPKhjPNS_5GraphEPNS_19GroupIndexContainerE_xb70
    /*000004e0*/ ADD         SP, SP, #332                @ 0x14c 
    /*000004e4*/ POP         {R4, R5, R6, R7, R8, R9, SL, FP, PC} 
    _ZN4hirt13WKModelLoader13parseExtendWKEPKhjPNS_5GraphEPNS_19GroupIndexContainerE_x4e8:
    /*000004e8*/ LDR         R2, [SP, #224]              @ 0xe0 
    _ZN4hirt13WKModelLoader13parseExtendWKEPKhjPNS_5GraphEPNS_19GroupIndexContainerE_x4ec:
    /*000004ec*/ LDR         R3, [SP, #40]               @ 0x28 
    /*000004f0*/ ADD         R3, R3, #1 
    /*000004f4*/ CMP         R3, R2 
    /*000004f8*/ STR         R3, [SP, #40]               @ 0x28 
    /*000004fc*/ BCC         _ZN4hirt13WKModelLoader13parseExtendWKEPKhjPNS_5GraphEPNS_19GroupIndexContainerE_x3b4
    _ZN4hirt13WKModelLoader13parseExtendWKEPKhjPNS_5GraphEPNS_19GroupIndexContainerE_x500:
    /*00000500*/ LDR         R5, [SP, #68]               @ 0x44 
    /*00000504*/ LDR         R4, [R5, #4] 
    /*00000508*/ ADD         R7, R5, #40                 @ 0x28 
    /*0000050c*/ LDR         R6, [R5, #8] 
    /*00000510*/ CMP         R4, R6 
    /*00000514*/ BNE         _ZN4hirt13WKModelLoader13parseExtendWKEPKhjPNS_5GraphEPNS_19GroupIndexContainerE_x524
    /*00000518*/ B           _ZN4hirt13WKModelLoader13parseExtendWKEPKhjPNS_5GraphEPNS_19GroupIndexContainerE_x4bc
    _ZN4hirt13WKModelLoader13parseExtendWKEPKhjPNS_5GraphEPNS_19GroupIndexContainerE_x51c:
    /*0000051c*/ CMP         R6, R4 
    /*00000520*/ BEQ         _ZN4hirt13WKModelLoader13parseExtendWKEPKhjPNS_5GraphEPNS_19GroupIndexContainerE_x560
    _ZN4hirt13WKModelLoader13parseExtendWKEPKhjPNS_5GraphEPNS_19GroupIndexContainerE_x524:
    /*00000524*/ MOV         R1, R4 
    /*00000528*/ LDR         R2, [R4], #4 
    /*0000052c*/ LDR         R3, [R2, #72]               @ 0x48 
    /*00000530*/ CMP         R3, #0 
    /*00000534*/ BNE         _ZN4hirt13WKModelLoader13parseExtendWKEPKhjPNS_5GraphEPNS_19GroupIndexContainerE_x51c
    /*00000538*/ LDR         R3, [R5, #44]               @ 0x2c 
    /*0000053c*/ LDR         R0, [R5, #48]               @ 0x30 
    /*00000540*/ CMP         R3, R0 
    /*00000544*/ BEQ         _ZN4hirt13WKModelLoader13parseExtendWKEPKhjPNS_5GraphEPNS_19GroupIndexContainerE_xb74
    /*00000548*/ CMP         R3, #0 
    /*0000054c*/ ADD         R3, R3, #4 
    /*00000550*/ STRNE       R2, [R3, #-4] 
    /*00000554*/ CMP         R6, R4 
    /*00000558*/ STR         R3, [R5, #44]               @ 0x2c 
    /*0000055c*/ BNE         _ZN4hirt13WKModelLoader13parseExtendWKEPKhjPNS_5GraphEPNS_19GroupIndexContainerE_x524
    _ZN4hirt13WKModelLoader13parseExtendWKEPKhjPNS_5GraphEPNS_19GroupIndexContainerE_x560:
    /*00000560*/ LDR         R5, [SP, #68]               @ 0x44 
    /*00000564*/ LDR         R4, [R5, #4] 
    /*00000568*/ ADD         R7, R5, #52                 @ 0x34 
    /*0000056c*/ LDR         R6, [R5, #8] 
    /*00000570*/ CMP         R4, R6 
    /*00000574*/ BNE         _ZN4hirt13WKModelLoader13parseExtendWKEPKhjPNS_5GraphEPNS_19GroupIndexContainerE_x584
    /*00000578*/ B           _ZN4hirt13WKModelLoader13parseExtendWKEPKhjPNS_5GraphEPNS_19GroupIndexContainerE_x4bc
    _ZN4hirt13WKModelLoader13parseExtendWKEPKhjPNS_5GraphEPNS_19GroupIndexContainerE_x57c:
    /*0000057c*/ CMP         R6, R4 
    /*00000580*/ BEQ         _ZN4hirt13WKModelLoader13parseExtendWKEPKhjPNS_5GraphEPNS_19GroupIndexContainerE_x4bc
    _ZN4hirt13WKModelLoader13parseExtendWKEPKhjPNS_5GraphEPNS_19GroupIndexContainerE_x584:
    /*00000584*/ MOV         R1, R4 
    /*00000588*/ LDR         R2, [R4], #4 
    /*0000058c*/ LDR         R3, [R2, #48]               @ 0x30 
    /*00000590*/ CMP         R3, #0 
    /*00000594*/ BNE         _ZN4hirt13WKModelLoader13parseExtendWKEPKhjPNS_5GraphEPNS_19GroupIndexContainerE_x57c
    /*00000598*/ LDR         R3, [R5, #56]               @ 0x38 
    /*0000059c*/ LDR         R0, [R5, #60]               @ 0x3c 
    /*000005a0*/ CMP         R3, R0 
    /*000005a4*/ BEQ         _ZN4hirt13WKModelLoader13parseExtendWKEPKhjPNS_5GraphEPNS_19GroupIndexContainerE_xb80
    /*000005a8*/ CMP         R3, #0 
    /*000005ac*/ ADD         R3, R3, #4 
    /*000005b0*/ STRNE       R2, [R3, #-4] 
    /*000005b4*/ STR         R3, [R5, #56]               @ 0x38 
    /*000005b8*/ B           _ZN4hirt13WKModelLoader13parseExtendWKEPKhjPNS_5GraphEPNS_19GroupIndexContainerE_x57c
    _ZN4hirt13WKModelLoader13parseExtendWKEPKhjPNS_5GraphEPNS_19GroupIndexContainerE_x5bc:
    /*000005bc*/ LDRH        R3, [SP, #250]              @ 0xfa 
    /*000005c0*/ CMP         R3, #0 
    /*000005c4*/ MOVNE       R4, #0 
    /*000005c8*/ BNE         _ZN4hirt13WKModelLoader13parseExtendWKEPKhjPNS_5GraphEPNS_19GroupIndexContainerE_x5e4
    /*000005cc*/ B           _ZN4hirt13WKModelLoader13parseExtendWKEPKhjPNS_5GraphEPNS_19GroupIndexContainerE_x624
    _ZN4hirt13WKModelLoader13parseExtendWKEPKhjPNS_5GraphEPNS_19GroupIndexContainerE_x5d0:
    /*000005d0*/ LDRH        R3, [SP, #250]              @ 0xfa 
    /*000005d4*/ ADD         R4, R4, #1 
    /*000005d8*/ UXTH        R4, R4 
    /*000005dc*/ CMP         R4, R3 
    /*000005e0*/ BGE         _ZN4hirt13WKModelLoader13parseExtendWKEPKhjPNS_5GraphEPNS_19GroupIndexContainerE_x624
    _ZN4hirt13WKModelLoader13parseExtendWKEPKhjPNS_5GraphEPNS_19GroupIndexContainerE_x5e4:
    /*000005e4*/ LDR         IP, [SP, #28] 
    /*000005e8*/ MOV         R2, R5 
    /*000005ec*/ LDR         R3, [SP, #64]               @ 0x40 
    /*000005f0*/ LDR         R1, [SP, #68]               @ 0x44 
    /*000005f4*/ LDR         R0, [SP, #16] 
    /*000005f8*/ STR         IP, [SP] 
    /*000005fc*/ BL          _ZN4hirt13WKModelLoader27parseOutputsForOneOperationEPNS_12GraphOfflineEPPhPNS_16OperationOfflineERSt3mapINSt7__cxx1112basic_stringIcSt11char_traitsIcESaIcEEEPNS_7OperandESt4lessISD_ESaISt4pairIKSD_SF_EEE
    /*00000600*/ CMP         R0, #0 
    /*00000604*/ BEQ         _ZN4hirt13WKModelLoader13parseExtendWKEPKhjPNS_5GraphEPNS_19GroupIndexContainerE_x5d0
    /*00000608*/ LDR         R2, WORD_0df4               @ LDR         R2, [PC, #2020]             @ 0x0000000000000df4 
    /*0000060c*/ MOV         R1, #4 
    /*00000610*/ LDR         R0, WORD_0df8               @ LDR         R0, [PC, #2016]             @ 0x0000000000000df8 
    /*00000614*/ ADD         R2, PC, R2 
    /*00000618*/ ADD         R0, PC, R0 
    /*0000061c*/ BL          _Z15HIRT_LOG_PrintfPKc19tagHIRT_LOG_LEVEL_ES0_z
    /*00000620*/ B           _ZN4hirt13WKModelLoader13parseExtendWKEPKhjPNS_5GraphEPNS_19GroupIndexContainerE_x4a8
    _ZN4hirt13WKModelLoader13parseExtendWKEPKhjPNS_5GraphEPNS_19GroupIndexContainerE_x624:
    /*00000624*/ LDRH        R2, [SP, #244]              @ 0xf4 
    /*00000628*/ MOVW        R3, #257                    @ 0x101 
    /*0000062c*/ CMP         R2, R3 
    /*00000630*/ BEQ         _ZN4hirt13WKModelLoader13parseExtendWKEPKhjPNS_5GraphEPNS_19GroupIndexContainerE_xb3c
    _ZN4hirt13WKModelLoader13parseExtendWKEPKhjPNS_5GraphEPNS_19GroupIndexContainerE_x634:
    /*00000634*/ LDR         R2, [SP, #224]              @ 0xe0 
    /*00000638*/ LDR         R3, [SP, #40]               @ 0x28 
    /*0000063c*/ SUB         R3, R2, R3 
    /*00000640*/ CMP         R3, #1 
    /*00000644*/ BEQ         _ZN4hirt13WKModelLoader13parseExtendWKEPKhjPNS_5GraphEPNS_19GroupIndexContainerE_xb04
    _ZN4hirt13WKModelLoader13parseExtendWKEPKhjPNS_5GraphEPNS_19GroupIndexContainerE_x648:
    /*00000648*/ LDR         R1, [SP, #64]               @ 0x40 
    /*0000064c*/ LDR         R3, [R1, #4] 
    /*00000650*/ LDR         R1, [R1, #8] 
    /*00000654*/ CMP         R3, R1 
    /*00000658*/ STR         R1, [SP, #32] 
    /*0000065c*/ BEQ         _ZN4hirt13WKModelLoader13parseExtendWKEPKhjPNS_5GraphEPNS_19GroupIndexContainerE_x4ec
    /*00000660*/ LDR         R8, [R3] 
    /*00000664*/ ADD         R2, SP, #124                @ 0x7c 
    /*00000668*/ STR         R2, [SP, #24] 
    /*0000066c*/ LDR         R5, [R8, #4] 
    /*00000670*/ LDR         R4, [R8, #8] 
    /*00000674*/ STR         R2, [SP, #116]              @ 0x74 
    /*00000678*/ RSB         R1, R4, #0 
    /*0000067c*/ CLZ         R2, R5 
    /*00000680*/ CMP         R5, R1 
    /*00000684*/ LSR         R2, R2, #5 
    /*00000688*/ MOVEQ       R2, #0 
    /*0000068c*/ CMP         R2, #0 
    /*00000690*/ BEQ         _ZN4hirt13WKModelLoader13parseExtendWKEPKhjPNS_5GraphEPNS_19GroupIndexContainerE_x6b0
    _ZN4hirt13WKModelLoader13parseExtendWKEPKhjPNS_5GraphEPNS_19GroupIndexContainerE_x694:
    /*00000694*/ LDR         R0, WORD_0dfc               @ LDR         R0, [PC, #1888]             @ 0x0000000000000dfc 
    /*00000698*/ ADD         R0, PC, R0 
    /*0000069c*/ BL          _ZSt19__throw_logic_errorPKc
    _ZN4hirt13WKModelLoader13parseExtendWKEPKhjPNS_5GraphEPNS_19GroupIndexContainerE_x6a0:
    /*000006a0*/ LDR         R1, [SP, #100]              @ 0x64 
    /*000006a4*/ LDR         R0, [SP, #28] 
    /*000006a8*/ BL          _ZNSt8_Rb_treeINSt7__cxx1112basic_stringIcSt11char_traitsIcESaIcEEESt4pairIKS5_PN4hirt7OperandEESt10_Select1stISB_ESt4lessIS5_ESaISB_EE8_M_eraseEPSt13_Rb_tree_nodeISB_E
    /*000006ac*/ BL          __cxa_end_cleanup
    _ZN4hirt13WKModelLoader13parseExtendWKEPKhjPNS_5GraphEPNS_19GroupIndexContainerE_x6b0:
    /*000006b0*/ STR         R4, [SP, #76]               @ 0x4c 
    /*000006b4*/ CMP         R4, #15 
    /*000006b8*/ ADD         R3, R3, #4 
    /*000006bc*/ STR         R3, [SP, #20] 
    /*000006c0*/ BHI         _ZN4hirt13WKModelLoader13parseExtendWKEPKhjPNS_5GraphEPNS_19GroupIndexContainerE_x844
    _ZN4hirt13WKModelLoader13parseExtendWKEPKhjPNS_5GraphEPNS_19GroupIndexContainerE_x6c4:
    /*000006c4*/ CMP         R4, #1 
    /*000006c8*/ BEQ         _ZN4hirt13WKModelLoader13parseExtendWKEPKhjPNS_5GraphEPNS_19GroupIndexContainerE_xac0
    /*000006cc*/ CMP         R4, #0 
    /*000006d0*/ LDREQ       R3, [SP, #24] 
    /*000006d4*/ BNE         _ZN4hirt13WKModelLoader13parseExtendWKEPKhjPNS_5GraphEPNS_19GroupIndexContainerE_xafc
    _ZN4hirt13WKModelLoader13parseExtendWKEPKhjPNS_5GraphEPNS_19GroupIndexContainerE_x6d8:
    /*000006d8*/ STR         R4, [SP, #120]              @ 0x78 
    /*000006dc*/ MOV         R2, #0 
    /*000006e0*/ STRB        R2, [R3, R4] 
    /*000006e4*/ LDR         R4, [SP, #100]              @ 0x64 
    /*000006e8*/ LDR         R7, [SP, #116]              @ 0x74 
    /*000006ec*/ CMP         R4, #0 
    /*000006f0*/ BEQ         _ZN4hirt13WKModelLoader13parseExtendWKEPKhjPNS_5GraphEPNS_19GroupIndexContainerE_xae0
    /*000006f4*/ LDR         R9, [SP, #120]              @ 0x78 
    /*000006f8*/ LDR         R6, [SP, #12] 
    /*000006fc*/ B           _ZN4hirt13WKModelLoader13parseExtendWKEPKhjPNS_5GraphEPNS_19GroupIndexContainerE_x72c
    _ZN4hirt13WKModelLoader13parseExtendWKEPKhjPNS_5GraphEPNS_19GroupIndexContainerE_x700:
    /*00000700*/ LDR         R0, [R4, #16] 
    /*00000704*/ MOV         R1, R7 
    /*00000708*/ BL          memcmp
    /*0000070c*/ CMP         R0, #0 
    /*00000710*/ BEQ         _ZN4hirt13WKModelLoader13parseExtendWKEPKhjPNS_5GraphEPNS_19GroupIndexContainerE_x744
    _ZN4hirt13WKModelLoader13parseExtendWKEPKhjPNS_5GraphEPNS_19GroupIndexContainerE_x714:
    /*00000714*/ CMP         R0, #0 
    /*00000718*/ MOVGE       R6, R4 
    /*0000071c*/ LDRLT       R4, [R4, #12] 
    /*00000720*/ LDRGE       R4, [R4, #8] 
    /*00000724*/ CMP         R4, #0 
    /*00000728*/ BEQ         _ZN4hirt13WKModelLoader13parseExtendWKEPKhjPNS_5GraphEPNS_19GroupIndexContainerE_x74c
    _ZN4hirt13WKModelLoader13parseExtendWKEPKhjPNS_5GraphEPNS_19GroupIndexContainerE_x72c:
    /*0000072c*/ LDR         R5, [R4, #20] 
    /*00000730*/ CMP         R5, R9 
    /*00000734*/ MOVCC       R2, R5 
    /*00000738*/ MOVCS       R2, R9 
    /*0000073c*/ CMP         R2, #0 
    /*00000740*/ BNE         _ZN4hirt13WKModelLoader13parseExtendWKEPKhjPNS_5GraphEPNS_19GroupIndexContainerE_x700
    _ZN4hirt13WKModelLoader13parseExtendWKEPKhjPNS_5GraphEPNS_19GroupIndexContainerE_x744:
    /*00000744*/ SUB         R0, R5, R9 
    /*00000748*/ B           _ZN4hirt13WKModelLoader13parseExtendWKEPKhjPNS_5GraphEPNS_19GroupIndexContainerE_x714
    _ZN4hirt13WKModelLoader13parseExtendWKEPKhjPNS_5GraphEPNS_19GroupIndexContainerE_x74c:
    /*0000074c*/ LDR         R3, [SP, #12] 
    /*00000750*/ CMP         R6, R3 
    /*00000754*/ BEQ         _ZN4hirt13WKModelLoader13parseExtendWKEPKhjPNS_5GraphEPNS_19GroupIndexContainerE_x7e8
    /*00000758*/ LDR         R4, [R6, #20] 
    /*0000075c*/ CMP         R4, R9 
    /*00000760*/ MOVCC       R2, R4 
    /*00000764*/ MOVCS       R2, R9 
    /*00000768*/ CMP         R2, #0 
    /*0000076c*/ BEQ         _ZN4hirt13WKModelLoader13parseExtendWKEPKhjPNS_5GraphEPNS_19GroupIndexContainerE_xa60
    /*00000770*/ LDR         R1, [R6, #16] 
    /*00000774*/ MOV         R0, R7 
    /*00000778*/ BL          memcmp
    /*0000077c*/ CMP         R0, #0 
    /*00000780*/ BEQ         _ZN4hirt13WKModelLoader13parseExtendWKEPKhjPNS_5GraphEPNS_19GroupIndexContainerE_xa60
    _ZN4hirt13WKModelLoader13parseExtendWKEPKhjPNS_5GraphEPNS_19GroupIndexContainerE_x784:
    /*00000784*/ CMP         R0, #0 
    /*00000788*/ BLT         _ZN4hirt13WKModelLoader13parseExtendWKEPKhjPNS_5GraphEPNS_19GroupIndexContainerE_x7e8
    /*0000078c*/ LDR         R3, [SP, #24] 
    /*00000790*/ CMP         R7, R3 
    /*00000794*/ BEQ         _ZN4hirt13WKModelLoader13parseExtendWKEPKhjPNS_5GraphEPNS_19GroupIndexContainerE_x7ac
    _ZN4hirt13WKModelLoader13parseExtendWKEPKhjPNS_5GraphEPNS_19GroupIndexContainerE_x798:
    /*00000798*/ MOV         R0, R7 
    /*0000079c*/ BL          _ZdlPv
    /*000007a0*/ LDR         R3, [SP, #12] 
    /*000007a4*/ CMP         R6, R3 
    /*000007a8*/ BEQ         _ZN4hirt13WKModelLoader13parseExtendWKEPKhjPNS_5GraphEPNS_19GroupIndexContainerE_x7f4
    _ZN4hirt13WKModelLoader13parseExtendWKEPKhjPNS_5GraphEPNS_19GroupIndexContainerE_x7ac:
    /*000007ac*/ LDR         R5, [R8, #4] 
    /*000007b0*/ ADD         R9, SP, #148                @ 0x94 
    /*000007b4*/ LDR         R4, [R8, #8] 
    /*000007b8*/ ADD         R0, SP, #140                @ 0x8c 
    /*000007bc*/ CLZ         R2, R5 
    /*000007c0*/ RSB         R3, R4, #0 
    /*000007c4*/ CMP         R5, R3 
    /*000007c8*/ LSR         R2, R2, #5 
    /*000007cc*/ MOVEQ       R2, #0 
    /*000007d0*/ STR         R9, [SP, #140]              @ 0x8c 
    /*000007d4*/ CMP         R2, #0 
    /*000007d8*/ BEQ         _ZN4hirt13WKModelLoader13parseExtendWKEPKhjPNS_5GraphEPNS_19GroupIndexContainerE_x878
    /*000007dc*/ LDR         R0, WORD_0e00               @ LDR         R0, [PC, #1564]             @ 0x0000000000000e00 
    /*000007e0*/ ADD         R0, PC, R0 
    /*000007e4*/ BL          _ZSt19__throw_logic_errorPKc
    _ZN4hirt13WKModelLoader13parseExtendWKEPKhjPNS_5GraphEPNS_19GroupIndexContainerE_x7e8:
    /*000007e8*/ LDR         R3, [SP, #24] 
    /*000007ec*/ CMP         R7, R3 
    /*000007f0*/ BNE         _ZN4hirt13WKModelLoader13parseExtendWKEPKhjPNS_5GraphEPNS_19GroupIndexContainerE_xaec
    _ZN4hirt13WKModelLoader13parseExtendWKEPKhjPNS_5GraphEPNS_19GroupIndexContainerE_x7f4:
    /*000007f4*/ LDR         R3, [SP, #20] 
    /*000007f8*/ LDR         R2, [SP, #32] 
    /*000007fc*/ CMP         R3, R2 
    /*00000800*/ BEQ         _ZN4hirt13WKModelLoader13parseExtendWKEPKhjPNS_5GraphEPNS_19GroupIndexContainerE_x4e8
    /*00000804*/ LDR         R8, [R3], #4 
    /*00000808*/ LDR         R5, [R8, #4] 
    /*0000080c*/ STR         R3, [SP, #20] 
    /*00000810*/ LDR         R4, [R8, #8] 
    /*00000814*/ LDR         R3, [SP, #24] 
    /*00000818*/ RSB         R2, R4, #0 
    /*0000081c*/ STR         R3, [SP, #116]              @ 0x74 
    /*00000820*/ CLZ         R3, R5 
    /*00000824*/ CMP         R5, R2 
    /*00000828*/ LSR         R3, R3, #5 
    /*0000082c*/ MOVEQ       R3, #0 
    /*00000830*/ CMP         R3, #0 
    /*00000834*/ BNE         _ZN4hirt13WKModelLoader13parseExtendWKEPKhjPNS_5GraphEPNS_19GroupIndexContainerE_x694
    /*00000838*/ STR         R4, [SP, #76]               @ 0x4c 
    /*0000083c*/ CMP         R4, #15 
    /*00000840*/ BLS         _ZN4hirt13WKModelLoader13parseExtendWKEPKhjPNS_5GraphEPNS_19GroupIndexContainerE_x6c4
    _ZN4hirt13WKModelLoader13parseExtendWKEPKhjPNS_5GraphEPNS_19GroupIndexContainerE_x844:
    /*00000844*/ MOV         R2, #0 
    /*00000848*/ ADD         R1, SP, #76                 @ 0x4c 
    /*0000084c*/ ADD         R0, SP, #116                @ 0x74 
    /*00000850*/ BL          _ZNSt7__cxx1112basic_stringIcSt11char_traitsIcESaIcEE9_M_createERjj
    /*00000854*/ LDR         R3, [SP, #76]               @ 0x4c 
    /*00000858*/ STR         R0, [SP, #116]              @ 0x74 
    /*0000085c*/ STR         R3, [SP, #124]              @ 0x7c 
    _ZN4hirt13WKModelLoader13parseExtendWKEPKhjPNS_5GraphEPNS_19GroupIndexContainerE_x860:
    /*00000860*/ MOV         R2, R4 
    /*00000864*/ MOV         R1, R5 
    /*00000868*/ BL          memcpy
    /*0000086c*/ LDR         R4, [SP, #76]               @ 0x4c 
    /*00000870*/ LDR         R3, [SP, #116]              @ 0x74 
    /*00000874*/ B           _ZN4hirt13WKModelLoader13parseExtendWKEPKhjPNS_5GraphEPNS_19GroupIndexContainerE_x6d8
    _ZN4hirt13WKModelLoader13parseExtendWKEPKhjPNS_5GraphEPNS_19GroupIndexContainerE_x878:
    /*00000878*/ STR         R4, [SP, #80]               @ 0x50 
    /*0000087c*/ CMP         R4, #15 
    /*00000880*/ BHI         _ZN4hirt13WKModelLoader13parseExtendWKEPKhjPNS_5GraphEPNS_19GroupIndexContainerE_xa94
    /*00000884*/ CMP         R4, #1 
    /*00000888*/ BEQ         _ZN4hirt13WKModelLoader13parseExtendWKEPKhjPNS_5GraphEPNS_19GroupIndexContainerE_xad0
    /*0000088c*/ CMP         R4, #0 
    /*00000890*/ MOVEQ       R3, R9 
    /*00000894*/ BNE         _ZN4hirt13WKModelLoader13parseExtendWKEPKhjPNS_5GraphEPNS_19GroupIndexContainerE_xaf4
    _ZN4hirt13WKModelLoader13parseExtendWKEPKhjPNS_5GraphEPNS_19GroupIndexContainerE_x898:
    /*00000898*/ STR         R4, [SP, #144]              @ 0x90 
    /*0000089c*/ MOV         R2, #0 
    /*000008a0*/ STRB        R2, [R3, R4] 
    /*000008a4*/ LDR         R4, [SP, #100]              @ 0x64 
    /*000008a8*/ CMP         R4, #0 
    /*000008ac*/ BEQ         _ZN4hirt13WKModelLoader13parseExtendWKEPKhjPNS_5GraphEPNS_19GroupIndexContainerE_xa74
    /*000008b0*/ LDR         R8, [SP, #144]              @ 0x90 
    /*000008b4*/ LDR         R7, [SP, #140]              @ 0x8c 
    /*000008b8*/ LDR         R6, [SP, #12] 
    /*000008bc*/ B           _ZN4hirt13WKModelLoader13parseExtendWKEPKhjPNS_5GraphEPNS_19GroupIndexContainerE_x8ec
    _ZN4hirt13WKModelLoader13parseExtendWKEPKhjPNS_5GraphEPNS_19GroupIndexContainerE_x8c0:
    /*000008c0*/ LDR         R0, [R4, #16] 
    /*000008c4*/ MOV         R1, R7 
    /*000008c8*/ BL          memcmp
    /*000008cc*/ CMP         R0, #0 
    /*000008d0*/ BEQ         _ZN4hirt13WKModelLoader13parseExtendWKEPKhjPNS_5GraphEPNS_19GroupIndexContainerE_x904
    _ZN4hirt13WKModelLoader13parseExtendWKEPKhjPNS_5GraphEPNS_19GroupIndexContainerE_x8d4:
    /*000008d4*/ CMP         R0, #0 
    /*000008d8*/ MOVGE       R6, R4 
    /*000008dc*/ LDRLT       R4, [R4, #12] 
    /*000008e0*/ LDRGE       R4, [R4, #8] 
    /*000008e4*/ CMP         R4, #0 
    /*000008e8*/ BEQ         _ZN4hirt13WKModelLoader13parseExtendWKEPKhjPNS_5GraphEPNS_19GroupIndexContainerE_x90c
    _ZN4hirt13WKModelLoader13parseExtendWKEPKhjPNS_5GraphEPNS_19GroupIndexContainerE_x8ec:
    /*000008ec*/ LDR         R5, [R4, #20] 
    /*000008f0*/ CMP         R5, R8 
    /*000008f4*/ MOVCC       R2, R5 
    /*000008f8*/ MOVCS       R2, R8 
    /*000008fc*/ CMP         R2, #0 
    /*00000900*/ BNE         _ZN4hirt13WKModelLoader13parseExtendWKEPKhjPNS_5GraphEPNS_19GroupIndexContainerE_x8c0
    _ZN4hirt13WKModelLoader13parseExtendWKEPKhjPNS_5GraphEPNS_19GroupIndexContainerE_x904:
    /*00000904*/ SUB         R0, R5, R8 
    /*00000908*/ B           _ZN4hirt13WKModelLoader13parseExtendWKEPKhjPNS_5GraphEPNS_19GroupIndexContainerE_x8d4
    _ZN4hirt13WKModelLoader13parseExtendWKEPKhjPNS_5GraphEPNS_19GroupIndexContainerE_x90c:
    /*0000090c*/ LDR         R3, [SP, #12] 
    /*00000910*/ CMP         R6, R3 
    /*00000914*/ BEQ         _ZN4hirt13WKModelLoader13parseExtendWKEPKhjPNS_5GraphEPNS_19GroupIndexContainerE_xa74
    /*00000918*/ LDR         R4, [R6, #20] 
    /*0000091c*/ CMP         R4, R8 
    /*00000920*/ MOVCC       R2, R4 
    /*00000924*/ MOVCS       R2, R8 
    /*00000928*/ CMP         R2, #0 
    /*0000092c*/ BEQ         _ZN4hirt13WKModelLoader13parseExtendWKEPKhjPNS_5GraphEPNS_19GroupIndexContainerE_xa68
    /*00000930*/ LDR         R1, [R6, #16] 
    /*00000934*/ MOV         R0, R7 
    /*00000938*/ BL          memcmp
    /*0000093c*/ CMP         R0, #0 
    /*00000940*/ BEQ         _ZN4hirt13WKModelLoader13parseExtendWKEPKhjPNS_5GraphEPNS_19GroupIndexContainerE_xa68
    /*00000944*/ CMP         R0, #0 
    /*00000948*/ BLT         _ZN4hirt13WKModelLoader13parseExtendWKEPKhjPNS_5GraphEPNS_19GroupIndexContainerE_xa74
    _ZN4hirt13WKModelLoader13parseExtendWKEPKhjPNS_5GraphEPNS_19GroupIndexContainerE_x94c:
    /*0000094c*/ CMP         R7, R9 
    /*00000950*/ LDR         R4, [R6, #40]               @ 0x28 
    /*00000954*/ BEQ         _ZN4hirt13WKModelLoader13parseExtendWKEPKhjPNS_5GraphEPNS_19GroupIndexContainerE_x960
    /*00000958*/ MOV         R0, R7 
    /*0000095c*/ BL          _ZdlPv
    _ZN4hirt13WKModelLoader13parseExtendWKEPKhjPNS_5GraphEPNS_19GroupIndexContainerE_x960:
    /*00000960*/ LDR         R7, [R4, #44]               @ 0x2c 
    /*00000964*/ LDR         SL, [R4, #48]               @ 0x30 
    /*00000968*/ CMP         R7, SL 
    /*0000096c*/ BEQ         _ZN4hirt13WKModelLoader13parseExtendWKEPKhjPNS_5GraphEPNS_19GroupIndexContainerE_x7f4
    _ZN4hirt13WKModelLoader13parseExtendWKEPKhjPNS_5GraphEPNS_19GroupIndexContainerE_x970:
    /*00000970*/ LDR         R6, [SP, #64]               @ 0x40 
    /*00000974*/ LDR         R8, [R7], #4 
    /*00000978*/ LDR         R4, [R6, #36]               @ 0x24 
    /*0000097c*/ ADD         R9, R6, #32 
    /*00000980*/ LDR         R5, [R8, #148]              @ 0x94 
    /*00000984*/ CMP         R4, #0 
    /*00000988*/ BNE         _ZN4hirt13WKModelLoader13parseExtendWKEPKhjPNS_5GraphEPNS_19GroupIndexContainerE_x994
    /*0000098c*/ B           _ZN4hirt13WKModelLoader13parseExtendWKEPKhjPNS_5GraphEPNS_19GroupIndexContainerE_xa58
    _ZN4hirt13WKModelLoader13parseExtendWKEPKhjPNS_5GraphEPNS_19GroupIndexContainerE_x990:
    /*00000990*/ MOV         R4, R3 
    _ZN4hirt13WKModelLoader13parseExtendWKEPKhjPNS_5GraphEPNS_19GroupIndexContainerE_x994:
    /*00000994*/ LDR         R2, [R4, #16] 
    /*00000998*/ CMP         R5, R2 
    /*0000099c*/ MOVCC       R1, #1 
    /*000009a0*/ MOVCS       R1, #0 
    /*000009a4*/ LDRCC       R3, [R4, #8] 
    /*000009a8*/ LDRCS       R3, [R4, #12] 
    /*000009ac*/ CMP         R3, #0 
    /*000009b0*/ BNE         _ZN4hirt13WKModelLoader13parseExtendWKEPKhjPNS_5GraphEPNS_19GroupIndexContainerE_x990
    /*000009b4*/ CMP         R1, #0 
    /*000009b8*/ BEQ         _ZN4hirt13WKModelLoader13parseExtendWKEPKhjPNS_5GraphEPNS_19GroupIndexContainerE_x9d4
    _ZN4hirt13WKModelLoader13parseExtendWKEPKhjPNS_5GraphEPNS_19GroupIndexContainerE_x9bc:
    /*000009bc*/ LDR         R3, [R6, #40]               @ 0x28 
    /*000009c0*/ CMP         R3, R4 
    /*000009c4*/ BEQ         _ZN4hirt13WKModelLoader13parseExtendWKEPKhjPNS_5GraphEPNS_19GroupIndexContainerE_xa08
    /*000009c8*/ MOV         R0, R4 
    /*000009cc*/ BL          _ZSt18_Rb_tree_decrementPSt18_Rb_tree_node_base
    /*000009d0*/ LDR         R2, [R0, #16] 
    _ZN4hirt13WKModelLoader13parseExtendWKEPKhjPNS_5GraphEPNS_19GroupIndexContainerE_x9d4:
    /*000009d4*/ CMP         R5, R2 
    /*000009d8*/ BHI         _ZN4hirt13WKModelLoader13parseExtendWKEPKhjPNS_5GraphEPNS_19GroupIndexContainerE_xa00
    _ZN4hirt13WKModelLoader13parseExtendWKEPKhjPNS_5GraphEPNS_19GroupIndexContainerE_x9dc:
    /*000009dc*/ LDR         R3, [R6, #148]              @ 0x94 
    /*000009e0*/ ADD         R1, R8, #52                 @ 0x34 
    /*000009e4*/ ADD         R2, SP, #72                 @ 0x48 
    /*000009e8*/ ADD         R0, SP, #84                 @ 0x54 
    /*000009ec*/ STR         R3, [SP, #72]               @ 0x48 
    /*000009f0*/ BL          _ZNSt8_Rb_treeIjjSt9_IdentityIjESt4lessIjESaIjEE16_M_insert_uniqueIRKjEESt4pairISt17_Rb_tree_iteratorIjEbEOT_
    /*000009f4*/ CMP         SL, R7 
    /*000009f8*/ BNE         _ZN4hirt13WKModelLoader13parseExtendWKEPKhjPNS_5GraphEPNS_19GroupIndexContainerE_x970
    /*000009fc*/ B           _ZN4hirt13WKModelLoader13parseExtendWKEPKhjPNS_5GraphEPNS_19GroupIndexContainerE_x7f4
    _ZN4hirt13WKModelLoader13parseExtendWKEPKhjPNS_5GraphEPNS_19GroupIndexContainerE_xa00:
    /*00000a00*/ CMP         R4, #0 
    /*00000a04*/ BEQ         _ZN4hirt13WKModelLoader13parseExtendWKEPKhjPNS_5GraphEPNS_19GroupIndexContainerE_x9dc
    _ZN4hirt13WKModelLoader13parseExtendWKEPKhjPNS_5GraphEPNS_19GroupIndexContainerE_xa08:
    /*00000a08*/ CMP         R4, R9 
    /*00000a0c*/ MOVEQ       FP, #1 
    /*00000a10*/ BEQ         _ZN4hirt13WKModelLoader13parseExtendWKEPKhjPNS_5GraphEPNS_19GroupIndexContainerE_xa24
    /*00000a14*/ LDR         FP, [R4, #16] 
    /*00000a18*/ CMP         R5, FP 
    /*00000a1c*/ MOVCS       FP, #0 
    /*00000a20*/ MOVCC       FP, #1 
    _ZN4hirt13WKModelLoader13parseExtendWKEPKhjPNS_5GraphEPNS_19GroupIndexContainerE_xa24:
    /*00000a24*/ MOV         R0, #20 
    /*00000a28*/ BL          _Znwj
    /*00000a2c*/ MOV         R1, R0 
    /*00000a30*/ MOV         R3, R9 
    /*00000a34*/ MOV         R0, FP 
    /*00000a38*/ MOV         R2, R4 
    /*00000a3c*/ STR         R5, [R1, #16] 
    /*00000a40*/ BL          _ZSt29_Rb_tree_insert_and_rebalancebPSt18_Rb_tree_node_baseS0_RS_
    /*00000a44*/ LDR         R3, [R6, #48]               @ 0x30 
    /*00000a48*/ ADD         R3, R3, #1 
    /*00000a4c*/ STR         R3, [R6, #48]               @ 0x30 
    /*00000a50*/ LDR         R6, [SP, #64]               @ 0x40 
    /*00000a54*/ B           _ZN4hirt13WKModelLoader13parseExtendWKEPKhjPNS_5GraphEPNS_19GroupIndexContainerE_x9dc
    _ZN4hirt13WKModelLoader13parseExtendWKEPKhjPNS_5GraphEPNS_19GroupIndexContainerE_xa58:
    /*00000a58*/ MOV         R4, R9 
    /*00000a5c*/ B           _ZN4hirt13WKModelLoader13parseExtendWKEPKhjPNS_5GraphEPNS_19GroupIndexContainerE_x9bc
    _ZN4hirt13WKModelLoader13parseExtendWKEPKhjPNS_5GraphEPNS_19GroupIndexContainerE_xa60:
    /*00000a60*/ SUB         R0, R9, R4 
    /*00000a64*/ B           _ZN4hirt13WKModelLoader13parseExtendWKEPKhjPNS_5GraphEPNS_19GroupIndexContainerE_x784
    _ZN4hirt13WKModelLoader13parseExtendWKEPKhjPNS_5GraphEPNS_19GroupIndexContainerE_xa68:
    /*00000a68*/ SUB         R0, R8, R4 
    /*00000a6c*/ CMP         R0, #0 
    /*00000a70*/ BGE         _ZN4hirt13WKModelLoader13parseExtendWKEPKhjPNS_5GraphEPNS_19GroupIndexContainerE_x94c
    _ZN4hirt13WKModelLoader13parseExtendWKEPKhjPNS_5GraphEPNS_19GroupIndexContainerE_xa74:
    /*00000a74*/ LDR         R0, WORD_0e04               @ LDR         R0, [PC, #904]              @ 0x0000000000000e04 
    /*00000a78*/ ADD         R0, PC, R0 
    /*00000a7c*/ BL          _ZSt20__throw_out_of_rangePKc
    /*00000a80*/ LDR         R0, [SP, #140]              @ 0x8c 
    /*00000a84*/ CMP         R0, R9 
    /*00000a88*/ BEQ         _ZN4hirt13WKModelLoader13parseExtendWKEPKhjPNS_5GraphEPNS_19GroupIndexContainerE_x6a0
    /*00000a8c*/ BL          _ZdlPv
    /*00000a90*/ B           _ZN4hirt13WKModelLoader13parseExtendWKEPKhjPNS_5GraphEPNS_19GroupIndexContainerE_x6a0
    _ZN4hirt13WKModelLoader13parseExtendWKEPKhjPNS_5GraphEPNS_19GroupIndexContainerE_xa94:
    /*00000a94*/ ADD         R1, SP, #80                 @ 0x50 
    /*00000a98*/ BL          _ZNSt7__cxx1112basic_stringIcSt11char_traitsIcESaIcEE9_M_createERjj
    /*00000a9c*/ LDR         R3, [SP, #80]               @ 0x50 
    /*00000aa0*/ STR         R0, [SP, #140]              @ 0x8c 
    /*00000aa4*/ STR         R3, [SP, #148]              @ 0x94 
    _ZN4hirt13WKModelLoader13parseExtendWKEPKhjPNS_5GraphEPNS_19GroupIndexContainerE_xaa8:
    /*00000aa8*/ MOV         R2, R4 
    /*00000aac*/ MOV         R1, R5 
    /*00000ab0*/ BL          memcpy
    /*00000ab4*/ LDR         R4, [SP, #80]               @ 0x50 
    /*00000ab8*/ LDR         R3, [SP, #140]              @ 0x8c 
    /*00000abc*/ B           _ZN4hirt13WKModelLoader13parseExtendWKEPKhjPNS_5GraphEPNS_19GroupIndexContainerE_x898
    _ZN4hirt13WKModelLoader13parseExtendWKEPKhjPNS_5GraphEPNS_19GroupIndexContainerE_xac0:
    /*00000ac0*/ LDRB        R2, [R5] 
    /*00000ac4*/ LDR         R3, [SP, #116]              @ 0x74 
    /*00000ac8*/ STRB        R2, [SP, #124]              @ 0x7c 
    /*00000acc*/ B           _ZN4hirt13WKModelLoader13parseExtendWKEPKhjPNS_5GraphEPNS_19GroupIndexContainerE_x6d8
    _ZN4hirt13WKModelLoader13parseExtendWKEPKhjPNS_5GraphEPNS_19GroupIndexContainerE_xad0:
    /*00000ad0*/ LDRB        R2, [R5] 
    /*00000ad4*/ MOV         R3, R9 
    /*00000ad8*/ STRB        R2, [SP, #148]              @ 0x94 
    /*00000adc*/ B           _ZN4hirt13WKModelLoader13parseExtendWKEPKhjPNS_5GraphEPNS_19GroupIndexContainerE_x898
    _ZN4hirt13WKModelLoader13parseExtendWKEPKhjPNS_5GraphEPNS_19GroupIndexContainerE_xae0:
    /*00000ae0*/ LDR         R3, [SP, #24] 
    /*00000ae4*/ CMP         R7, R3 
    /*00000ae8*/ BEQ         _ZN4hirt13WKModelLoader13parseExtendWKEPKhjPNS_5GraphEPNS_19GroupIndexContainerE_x7f4
    _ZN4hirt13WKModelLoader13parseExtendWKEPKhjPNS_5GraphEPNS_19GroupIndexContainerE_xaec:
    /*00000aec*/ LDR         R6, [SP, #12] 
    /*00000af0*/ B           _ZN4hirt13WKModelLoader13parseExtendWKEPKhjPNS_5GraphEPNS_19GroupIndexContainerE_x798
    _ZN4hirt13WKModelLoader13parseExtendWKEPKhjPNS_5GraphEPNS_19GroupIndexContainerE_xaf4:
    /*00000af4*/ MOV         R0, R9 
    /*00000af8*/ B           _ZN4hirt13WKModelLoader13parseExtendWKEPKhjPNS_5GraphEPNS_19GroupIndexContainerE_xaa8
    _ZN4hirt13WKModelLoader13parseExtendWKEPKhjPNS_5GraphEPNS_19GroupIndexContainerE_xafc:
    /*00000afc*/ LDR         R0, [SP, #24] 
    /*00000b00*/ B           _ZN4hirt13WKModelLoader13parseExtendWKEPKhjPNS_5GraphEPNS_19GroupIndexContainerE_x860
    _ZN4hirt13WKModelLoader13parseExtendWKEPKhjPNS_5GraphEPNS_19GroupIndexContainerE_xb04:
    /*00000b04*/ LDR         R3, [SP, #60]               @ 0x3c 
    /*00000b08*/ LDR         R0, [SP, #36]               @ 0x24 
    /*00000b0c*/ LDR         R1, [SP, #200]              @ 0xc8 
    /*00000b10*/ SUB         R3, R3, R0 
    /*00000b14*/ CMP         R3, R1 
    /*00000b18*/ BEQ         _ZN4hirt13WKModelLoader13parseExtendWKEPKhjPNS_5GraphEPNS_19GroupIndexContainerE_x648
    /*00000b1c*/ LDR         R2, WORD_0e08               @ LDR         R2, [PC, #740]              @ 0x0000000000000e08 
    /*00000b20*/ LDR         R0, WORD_0e0c               @ LDR         R0, [PC, #740]              @ 0x0000000000000e0c 
    /*00000b24*/ STR         R1, [SP] 
    /*00000b28*/ MOV         R1, #4 
    /*00000b2c*/ ADD         R2, PC, R2 
    /*00000b30*/ ADD         R0, PC, R0 
    /*00000b34*/ BL          _Z15HIRT_LOG_PrintfPKc19tagHIRT_LOG_LEVEL_ES0_z
    /*00000b38*/ B           _ZN4hirt13WKModelLoader13parseExtendWKEPKhjPNS_5GraphEPNS_19GroupIndexContainerE_x4a8
    _ZN4hirt13WKModelLoader13parseExtendWKEPKhjPNS_5GraphEPNS_19GroupIndexContainerE_xb3c:
    /*00000b3c*/ LDR         R2, [SP, #64]               @ 0x40 
    /*00000b40*/ MOV         R1, R5 
    /*00000b44*/ LDR         R0, [SP, #16] 
    /*00000b48*/ BL          _ZN4hirt13WKModelLoader29parseRoiInputsForOneOperationEPPhPNS_16OperationOfflineE
    /*00000b4c*/ CMP         R0, #0 
    /*00000b50*/ BEQ         _ZN4hirt13WKModelLoader13parseExtendWKEPKhjPNS_5GraphEPNS_19GroupIndexContainerE_x634
    /*00000b54*/ LDR         R2, WORD_0e10               @ LDR         R2, [PC, #692]              @ 0x0000000000000e10 
    /*00000b58*/ MOV         R1, #4 
    /*00000b5c*/ LDR         R0, WORD_0e14               @ LDR         R0, [PC, #688]              @ 0x0000000000000e14 
    /*00000b60*/ ADD         R2, PC, R2 
    /*00000b64*/ ADD         R0, PC, R0 
    /*00000b68*/ BL          _Z15HIRT_LOG_PrintfPKc19tagHIRT_LOG_LEVEL_ES0_z
    /*00000b6c*/ B           _ZN4hirt13WKModelLoader13parseExtendWKEPKhjPNS_5GraphEPNS_19GroupIndexContainerE_x4a8
    _ZN4hirt13WKModelLoader13parseExtendWKEPKhjPNS_5GraphEPNS_19GroupIndexContainerE_xb70:
    /*00000b70*/ BL          __stack_chk_fail
    _ZN4hirt13WKModelLoader13parseExtendWKEPKhjPNS_5GraphEPNS_19GroupIndexContainerE_xb74:
    /*00000b74*/ MOV         R0, R7 
    /*00000b78*/ BL          _ZNSt6vectorIPN4hirt9OperationESaIS2_EE19_M_emplace_back_auxIJRKS2_EEEvDpOT_
    /*00000b7c*/ B           _ZN4hirt13WKModelLoader13parseExtendWKEPKhjPNS_5GraphEPNS_19GroupIndexContainerE_x51c
    _ZN4hirt13WKModelLoader13parseExtendWKEPKhjPNS_5GraphEPNS_19GroupIndexContainerE_xb80:
    /*00000b80*/ MOV         R0, R7 
    /*00000b84*/ BL          _ZNSt6vectorIPN4hirt9OperationESaIS2_EE19_M_emplace_back_auxIJRKS2_EEEvDpOT_
    /*00000b88*/ B           _ZN4hirt13WKModelLoader13parseExtendWKEPKhjPNS_5GraphEPNS_19GroupIndexContainerE_x57c
    _ZN4hirt13WKModelLoader13parseExtendWKEPKhjPNS_5GraphEPNS_19GroupIndexContainerE_xb8c:
    /*00000b8c*/ LDR         R2, WORD_0e18               @ LDR         R2, [PC, #644]              @ 0x0000000000000e18 
    /*00000b90*/ MOV         R1, #4 
    /*00000b94*/ LDR         R0, WORD_0e1c               @ LDR         R0, [PC, #640]              @ 0x0000000000000e1c 
    /*00000b98*/ ADD         R2, PC, R2 
    /*00000b9c*/ ADD         R0, PC, R0 
    /*00000ba0*/ BL          _Z15HIRT_LOG_PrintfPKc19tagHIRT_LOG_LEVEL_ES0_z
    /*00000ba4*/ B           _ZN4hirt13WKModelLoader13parseExtendWKEPKhjPNS_5GraphEPNS_19GroupIndexContainerE_x4a8
    _ZN4hirt13WKModelLoader13parseExtendWKEPKhjPNS_5GraphEPNS_19GroupIndexContainerE_xba8:
    /*00000ba8*/ STR         R0, [SP] 
    /*00000bac*/ MOV         R1, #4 
    /*00000bb0*/ LDR         R3, WORD_0e20               @ LDR         R3, [PC, #616]              @ 0x0000000000000e20 
    /*00000bb4*/ LDR         R2, WORD_0e24               @ LDR         R2, [PC, #616]              @ 0x0000000000000e24 
    /*00000bb8*/ LDR         R0, WORD_0e28               @ LDR         R0, [PC, #616]              @ 0x0000000000000e28 
    /*00000bbc*/ ADD         R3, PC, R3 
    /*00000bc0*/ ADD         R2, PC, R2 
    /*00000bc4*/ ADD         R0, PC, R0 
    /*00000bc8*/ BL          _Z15HIRT_LOG_PrintfPKc19tagHIRT_LOG_LEVEL_ES0_z
    /*00000bcc*/ B           _ZN4hirt13WKModelLoader13parseExtendWKEPKhjPNS_5GraphEPNS_19GroupIndexContainerE_x4a8
    _ZN4hirt13WKModelLoader13parseExtendWKEPKhjPNS_5GraphEPNS_19GroupIndexContainerE_xbd0:
    /*00000bd0*/ STR         R0, [SP] 
    /*00000bd4*/ MOV         R1, #4 
    /*00000bd8*/ LDR         R3, WORD_0e2c               @ LDR         R3, [PC, #588]              @ 0x0000000000000e2c 
    /*00000bdc*/ LDR         R2, WORD_0e30               @ LDR         R2, [PC, #588]              @ 0x0000000000000e30 
    /*00000be0*/ LDR         R0, WORD_0e34               @ LDR         R0, [PC, #588]              @ 0x0000000000000e34 
    /*00000be4*/ ADD         R3, PC, R3 
    /*00000be8*/ ADD         R2, PC, R2 
    /*00000bec*/ ADD         R0, PC, R0 
    /*00000bf0*/ BL          _Z15HIRT_LOG_PrintfPKc19tagHIRT_LOG_LEVEL_ES0_z
    /*00000bf4*/ B           _ZN4hirt13WKModelLoader13parseExtendWKEPKhjPNS_5GraphEPNS_19GroupIndexContainerE_x4a8
    _ZN4hirt13WKModelLoader13parseExtendWKEPKhjPNS_5GraphEPNS_19GroupIndexContainerE_xbf8:
    /*00000bf8*/ ADD         R3, SP, #92                 @ 0x5c 
    /*00000bfc*/ STR         R3, [SP, #28] 
    /*00000c00*/ B           _ZN4hirt13WKModelLoader13parseExtendWKEPKhjPNS_5GraphEPNS_19GroupIndexContainerE_x500
    _ZN4hirt13WKModelLoader13parseExtendWKEPKhjPNS_5GraphEPNS_19GroupIndexContainerE_xc04:
    /*00000c04*/ LDR         R2, WORD_0e38               @ LDR         R2, [PC, #556]              @ 0x0000000000000e38 
    /*00000c08*/ MVN         R3, #0 
    /*00000c0c*/ LDR         R0, WORD_0e3c               @ LDR         R0, [PC, #552]              @ 0x0000000000000e3c 
    /*00000c10*/ MOV         R1, #4 
    /*00000c14*/ ADD         R2, PC, R2 
    /*00000c18*/ ADD         R0, PC, R0 
    /*00000c1c*/ STR         R3, [SP, #8] 
    /*00000c20*/ BL          _Z15HIRT_LOG_PrintfPKc19tagHIRT_LOG_LEVEL_ES0_z
    /*00000c24*/ LDR         R0, [SP, #8] 
    /*00000c28*/ B           _ZN4hirt13WKModelLoader13parseExtendWKEPKhjPNS_5GraphEPNS_19GroupIndexContainerE_x4cc
    _ZN4hirt13WKModelLoader13parseExtendWKEPKhjPNS_5GraphEPNS_19GroupIndexContainerE_xc2c:
    /*00000c2c*/ STR         R6, [SP, #68]               @ 0x44 
    _ZN4hirt13WKModelLoader13parseExtendWKEPKhjPNS_5GraphEPNS_19GroupIndexContainerE_xc30:
    /*00000c30*/ LDR         R2, WORD_0e40               @ LDR         R2, [PC, #520]              @ 0x0000000000000e40 
    /*00000c34*/ MVN         R3, #0 
    /*00000c38*/ LDR         R0, WORD_0e44               @ LDR         R0, [PC, #516]              @ 0x0000000000000e44 
    /*00000c3c*/ MOV         R1, #4 
    /*00000c40*/ ADD         R2, PC, R2 
    /*00000c44*/ ADD         R0, PC, R0 
    /*00000c48*/ STR         R3, [SP, #8] 
    /*00000c4c*/ BL          _Z15HIRT_LOG_PrintfPKc19tagHIRT_LOG_LEVEL_ES0_z
    /*00000c50*/ LDR         R0, [SP, #8] 
    /*00000c54*/ B           _ZN4hirt13WKModelLoader13parseExtendWKEPKhjPNS_5GraphEPNS_19GroupIndexContainerE_x4cc
    _ZN4hirt13WKModelLoader13parseExtendWKEPKhjPNS_5GraphEPNS_19GroupIndexContainerE_xc58:
    /*00000c58*/ LDR         R2, WORD_0e48               @ LDR         R2, [PC, #488]              @ 0x0000000000000e48 
    /*00000c5c*/ MVN         R3, #0 
    /*00000c60*/ LDR         R0, WORD_0e4c               @ LDR         R0, [PC, #484]              @ 0x0000000000000e4c 
    /*00000c64*/ MOV         R1, #4 
    /*00000c68*/ ADD         R2, PC, R2 
    /*00000c6c*/ ADD         R0, PC, R0 
    /*00000c70*/ STR         R3, [SP, #8] 
    /*00000c74*/ BL          _Z15HIRT_LOG_PrintfPKc19tagHIRT_LOG_LEVEL_ES0_z
    /*00000c78*/ LDR         R0, [SP, #8] 
    /*00000c7c*/ B           _ZN4hirt13WKModelLoader13parseExtendWKEPKhjPNS_5GraphEPNS_19GroupIndexContainerE_x4cc
    _ZN4hirt13WKModelLoader13parseExtendWKEPKhjPNS_5GraphEPNS_19GroupIndexContainerE_xc80:
    /*00000c80*/ LDR         R2, WORD_0e50               @ LDR         R2, [PC, #456]              @ 0x0000000000000e50 
    /*00000c84*/ MOV         R1, #-1073741824            @ 0xc0000000 
    /*00000c88*/ ADD         R2, PC, R2 
    _ZN4hirt13WKModelLoader13parseExtendWKEPKhjPNS_5GraphEPNS_19GroupIndexContainerE_xc8c:
    /*00000c8c*/ STR         R1, [SP] 
    /*00000c90*/ MOV         R0, R4 
    _ZN4hirt13WKModelLoader13parseExtendWKEPKhjPNS_5GraphEPNS_19GroupIndexContainerE_xc94:
    /*00000c94*/ MOV         R1, #4 
    /*00000c98*/ BL          _Z15HIRT_LOG_PrintfPKc19tagHIRT_LOG_LEVEL_ES0_z
    /*00000c9c*/ MVN         R3, #0 
    /*00000ca0*/ STR         R3, [SP, #8] 
    /*00000ca4*/ MOV         R0, R3 
    /*00000ca8*/ B           _ZN4hirt13WKModelLoader13parseExtendWKEPKhjPNS_5GraphEPNS_19GroupIndexContainerE_x4cc
    _ZN4hirt13WKModelLoader13parseExtendWKEPKhjPNS_5GraphEPNS_19GroupIndexContainerE_xcac:
    /*00000cac*/ LDR         R2, WORD_0e54               @ LDR         R2, [PC, #416]              @ 0x0000000000000e54 
    /*00000cb0*/ MOV         R1, #256                    @ 0x100 
    /*00000cb4*/ ADD         R2, PC, R2 
    /*00000cb8*/ B           _ZN4hirt13WKModelLoader13parseExtendWKEPKhjPNS_5GraphEPNS_19GroupIndexContainerE_xc8c
    _ZN4hirt13WKModelLoader13parseExtendWKEPKhjPNS_5GraphEPNS_19GroupIndexContainerE_xcbc:
    /*00000cbc*/ STR         R2, [SP] 
    /*00000cc0*/ MVN         IP, #0 
    /*00000cc4*/ LDR         R2, WORD_0e58               @ LDR         R2, [PC, #396]              @ 0x0000000000000e58 
    /*00000cc8*/ MOV         R0, R4 
    /*00000ccc*/ STR         IP, [SP, #8] 
    /*00000cd0*/ MOV         R1, #4 
    /*00000cd4*/ ADD         R2, PC, R2 
    /*00000cd8*/ BL          _Z15HIRT_LOG_PrintfPKc19tagHIRT_LOG_LEVEL_ES0_z
    /*00000cdc*/ LDR         R0, [SP, #8] 
    /*00000ce0*/ B           _ZN4hirt13WKModelLoader13parseExtendWKEPKhjPNS_5GraphEPNS_19GroupIndexContainerE_x4cc
    _ZN4hirt13WKModelLoader13parseExtendWKEPKhjPNS_5GraphEPNS_19GroupIndexContainerE_xce4:
    /*00000ce4*/ LDR         R2, WORD_0e5c               @ LDR         R2, [PC, #368]              @ 0x0000000000000e5c 
    /*00000ce8*/ MOV         R1, #4096                   @ 0x1000 
    /*00000cec*/ ADD         R2, PC, R2 
    /*00000cf0*/ B           _ZN4hirt13WKModelLoader13parseExtendWKEPKhjPNS_5GraphEPNS_19GroupIndexContainerE_xc8c
    _ZN4hirt13WKModelLoader13parseExtendWKEPKhjPNS_5GraphEPNS_19GroupIndexContainerE_xcf4:
    /*00000cf4*/ LDR         R2, WORD_0e60               @ LDR         R2, [PC, #356]              @ 0x0000000000000e60 
    /*00000cf8*/ ADD         R2, PC, R2 
    _ZN4hirt13WKModelLoader13parseExtendWKEPKhjPNS_5GraphEPNS_19GroupIndexContainerE_xcfc:
    /*00000cfc*/ MOV         R1, #16 
    /*00000d00*/ B           _ZN4hirt13WKModelLoader13parseExtendWKEPKhjPNS_5GraphEPNS_19GroupIndexContainerE_xc8c
    _ZN4hirt13WKModelLoader13parseExtendWKEPKhjPNS_5GraphEPNS_19GroupIndexContainerE_xd04:
    /*00000d04*/ STR         R0, [SP] 
    /*00000d08*/ MVN         R2, #0 
    /*00000d0c*/ STR         R2, [SP, #8] 
    /*00000d10*/ MOV         R1, #4 
    /*00000d14*/ LDR         R3, WORD_0e64               @ LDR         R3, [PC, #328]              @ 0x0000000000000e64 
    /*00000d18*/ LDR         R2, WORD_0e68               @ LDR         R2, [PC, #328]              @ 0x0000000000000e68 
    /*00000d1c*/ LDR         R0, WORD_0e6c               @ LDR         R0, [PC, #328]              @ 0x0000000000000e6c 
    /*00000d20*/ ADD         R3, PC, R3 
    /*00000d24*/ ADD         R2, PC, R2 
    /*00000d28*/ ADD         R0, PC, R0 
    /*00000d2c*/ BL          _Z15HIRT_LOG_PrintfPKc19tagHIRT_LOG_LEVEL_ES0_z
    /*00000d30*/ LDR         R0, [SP, #8] 
    /*00000d34*/ B           _ZN4hirt13WKModelLoader13parseExtendWKEPKhjPNS_5GraphEPNS_19GroupIndexContainerE_x4cc
    _ZN4hirt13WKModelLoader13parseExtendWKEPKhjPNS_5GraphEPNS_19GroupIndexContainerE_xd38:
    /*00000d38*/ LDR         R2, WORD_0e70               @ LDR         R2, [PC, #304]              @ 0x0000000000000e70 
    /*00000d3c*/ MOV         R3, #10485760               @ 0xa00000 
    /*00000d40*/ LDR         R0, WORD_0e74               @ LDR         R0, [PC, #300]              @ 0x0000000000000e74 
    /*00000d44*/ STR         R3, [SP] 
    /*00000d48*/ MOV         R3, R5 
    /*00000d4c*/ ADD         R2, PC, R2 
    /*00000d50*/ ADD         R0, PC, R0 
    /*00000d54*/ B           _ZN4hirt13WKModelLoader13parseExtendWKEPKhjPNS_5GraphEPNS_19GroupIndexContainerE_xc94
    _ZN4hirt13WKModelLoader13parseExtendWKEPKhjPNS_5GraphEPNS_19GroupIndexContainerE_xd58:
    /*00000d58*/ LDR         R2, WORD_0e78               @ LDR         R2, [PC, #280]              @ 0x0000000000000e78 
    /*00000d5c*/ MVN         R3, #0 
    /*00000d60*/ LDR         R0, WORD_0e7c               @ LDR         R0, [PC, #276]              @ 0x0000000000000e7c 
    /*00000d64*/ MOV         R1, #4 
    /*00000d68*/ ADD         R2, PC, R2 
    /*00000d6c*/ ADD         R0, PC, R0 
    /*00000d70*/ STR         R3, [SP, #8] 
    /*00000d74*/ BL          _Z15HIRT_LOG_PrintfPKc19tagHIRT_LOG_LEVEL_ES0_z
    /*00000d78*/ LDR         R0, [SP, #8] 
    /*00000d7c*/ B           _ZN4hirt13WKModelLoader13parseExtendWKEPKhjPNS_5GraphEPNS_19GroupIndexContainerE_x4cc
    /*00000d80*/ WORD_0d80: .word 0x00000d50
    /*00000d84*/ WORD_0d84: .word 0x00000000
    /*00000d88*/ WORD_0d88: .word 0x00000cc4
    /*00000d8c*/ WORD_0d8c: .word 0x00000cc4
    /*00000d90*/ WORD_0d90: .word 0x00000cac
    /*00000d94*/ WORD_0d94: .word 0x00000c98
    /*00000d98*/ WORD_0d98: .word 0x00000c84
    /*00000d9c*/ WORD_0d9c: .word 0x00000c70
    /*00000da0*/ WORD_0da0: .word 0x00000c5c
    /*00000da4*/ WORD_0da4: .word 0x00000c48
    /*00000da8*/ WORD_0da8: .word 0x00000c34
    /*00000dac*/ WORD_0dac: .word 0x00000c20
    /*00000db0*/ WORD_0db0: .word 0x00000c0c
    /*00000db4*/ WORD_0db4: .word 0x00000bf8
    /*00000db8*/ WORD_0db8: .word 0x00000be4
    /*00000dbc*/ WORD_0dbc: .word 0x00000bd0
    /*00000dc0*/ WORD_0dc0: .word 0x00000bbc
    /*00000dc4*/ WORD_0dc4: .word 0x00000ba8
    /*00000dc8*/ WORD_0dc8: .word 0x00000b94
    /*00000dcc*/ WORD_0dcc: .word 0x00000b80
    /*00000dd0*/ WORD_0dd0: .word 0x00000b6c
    /*00000dd4*/ WORD_0dd4: .word 0x00000b58
    /*00000dd8*/ WORD_0dd8: .word 0x00000b44
    /*00000ddc*/ WORD_0ddc: .word 0x00000b34
    /*00000de0*/ WORD_0de0: .word 0x00000b18
    /*00000de4*/ WORD_0de4: .word 0x00000000
    /*00000de8*/ WORD_0de8: .word 0x00000ab0
    /*00000dec*/ WORD_0dec: .word 0x00000948
    /*00000df0*/ WORD_0df0: .word 0x00000948
    /*00000df4*/ WORD_0df4: .word 0x000007d8
    /*00000df8*/ WORD_0df8: .word 0x000007d8
    /*00000dfc*/ WORD_0dfc: .word 0x0000075c
    /*00000e00*/ WORD_0e00: .word 0x00000618
    /*00000e04*/ WORD_0e04: .word 0x00000384
    /*00000e08*/ WORD_0e08: .word 0x000002d4
    /*00000e0c*/ WORD_0e0c: .word 0x000002d4
    /*00000e10*/ WORD_0e10: .word 0x000002a8
    /*00000e14*/ WORD_0e14: .word 0x000002a8
    /*00000e18*/ WORD_0e18: .word 0x00000278
    /*00000e1c*/ WORD_0e1c: .word 0x00000278
    /*00000e20*/ WORD_0e20: .word 0x0000025c
    /*00000e24*/ WORD_0e24: .word 0x0000025c
    /*00000e28*/ WORD_0e28: .word 0x0000025c
    /*00000e2c*/ WORD_0e2c: .word 0x00000240
    /*00000e30*/ WORD_0e30: .word 0x00000240
    /*00000e34*/ WORD_0e34: .word 0x00000240
    /*00000e38*/ WORD_0e38: .word 0x0000021c
    /*00000e3c*/ WORD_0e3c: .word 0x0000021c
    /*00000e40*/ WORD_0e40: .word 0x000001f8
    /*00000e44*/ WORD_0e44: .word 0x000001f8
    /*00000e48*/ WORD_0e48: .word 0x000001d8
    /*00000e4c*/ WORD_0e4c: .word 0x000001d8
    /*00000e50*/ WORD_0e50: .word 0x000001c0
    /*00000e54*/ WORD_0e54: .word 0x00000198
    /*00000e58*/ WORD_0e58: .word 0x0000017c
    /*00000e5c*/ WORD_0e5c: .word 0x00000168
    /*00000e60*/ WORD_0e60: .word 0x00000160
    /*00000e64*/ WORD_0e64: .word 0x0000013c
    /*00000e68*/ WORD_0e68: .word 0x0000013c
    /*00000e6c*/ WORD_0e6c: .word 0x0000013c
    /*00000e70*/ WORD_0e70: .word 0x0000011c
    /*00000e74*/ WORD_0e74: .word 0x0000011c
    /*00000e78*/ WORD_0e78: .word 0x00000108
    /*00000e7c*/ WORD_0e7c: .word 0x00000108
FUNC_END _ZN4hirt13WKModelLoader13parseExtendWKEPKhjPNS_5GraphEPNS_19GroupIndexContainerE


@ - - - - - - - - - - - - - - - - - - - - - - - - - - - - - 
@ .ARM.extab.text._ZN4hirt13WKModelLoader13parseExtendWKEPKhjPNS_5GraphEPNS_19GroupIndexContainerE
@ Size: 0x38
@ - - - - - - - - - - - - - - - - - - - - - - - - - - - - - 

@ - - - - - - - - - - - - - - - - - - - - - - - - - - - - - 
@ .text._ZN4hirt13WKModelLoader12parseWKModelERK15hiRUNTIME_MEM_SRNS_16hiMODEL_LOADER_SEPNS_19GroupIndexContainerE
@ Size: 0x2f8
@ - - - - - - - - - - - - - - - - - - - - - - - - - - - - - 

FUNC_BEGIN _ZN4hirt13WKModelLoader12parseWKModelERK15hiRUNTIME_MEM_SRNS_16hiMODEL_LOADER_SEPNS_19GroupIndexContainerE
    /*00000000*/ MOV         IP, #16384                  @ 0x4000 
    /*00000004*/ PUSH        {R4, R5, R6, R7, R8, R9, SL, FP, LR} 
    /*00000008*/ SUB         IP, SP, IP 
    /*0000000c*/ STR         R0, [IP, #4032]             @ 0xfc0 
    /*00000010*/ LDR         R7, WORD_02ac               @ LDR         R7, [PC, #660]              @ 0x00000000000002ac 
    /*00000014*/ SUB         SP, SP, #28 
    /*00000018*/ MOV         R5, #0 
    /*0000001c*/ MOV         R9, R0 
    /*00000020*/ STR         R5, [SP, #16] 
    /*00000024*/ MOVW        R0, #13992                  @ 0x36a8 
    /*00000028*/ STR         R5, [SP, #20] 
    /*0000002c*/ MOV         R6, R2 
    /*00000030*/ ADD         R7, PC, R7 
    /*00000034*/ MOV         R8, R1 
    /*00000038*/ MOV         SL, R3 
    /*0000003c*/ BL          malloc
    /*00000040*/ CMP         R0, R5 
    /*00000044*/ STR         R0, [R6, #4] 
    /*00000048*/ BEQ         _ZN4hirt13WKModelLoader12parseWKModelERK15hiRUNTIME_MEM_SRNS_16hiMODEL_LOADER_SEPNS_19GroupIndexContainerE_x27c
    /*0000004c*/ MOVW        R3, #13992                  @ 0x36a8 
    /*00000050*/ MOV         R2, R5 
    /*00000054*/ MOV         R1, R3 
    /*00000058*/ MOV         R4, R0 
    /*0000005c*/ BL          memset_s
    /*00000060*/ CMP         R0, #0 
    /*00000064*/ BNE         _ZN4hirt13WKModelLoader12parseWKModelERK15hiRUNTIME_MEM_SRNS_16hiMODEL_LOADER_SEPNS_19GroupIndexContainerE_xb0
    /*00000068*/ ADD         R3, SP, #16 
    /*0000006c*/ MOV         R2, R4 
    /*00000070*/ MOV         R1, R8 
    /*00000074*/ MOV         R0, R9 
    /*00000078*/ BL          _ZN4hirt13WKModelLoader11parseNnieWKERK15hiRUNTIME_MEM_SP18hiSVP_NNIE_MODEL_SPj
    /*0000007c*/ SUBS        R5, R0, #0 
    /*00000080*/ BEQ         _ZN4hirt13WKModelLoader12parseWKModelERK15hiRUNTIME_MEM_SRNS_16hiMODEL_LOADER_SEPNS_19GroupIndexContainerE_xdc
    /*00000084*/ LDR         R2, WORD_02b0               @ LDR         R2, [PC, #548]              @ 0x00000000000002b0 
    /*00000088*/ MOV         R1, #4 
    /*0000008c*/ LDR         R0, WORD_02b4               @ LDR         R0, [PC, #544]              @ 0x00000000000002b4 
    /*00000090*/ ADD         R2, PC, R2 
    /*00000094*/ ADD         R0, PC, R0 
    /*00000098*/ BL          _Z15HIRT_LOG_PrintfPKc19tagHIRT_LOG_LEVEL_ES0_z
    _ZN4hirt13WKModelLoader12parseWKModelERK15hiRUNTIME_MEM_SRNS_16hiMODEL_LOADER_SEPNS_19GroupIndexContainerE_x9c:
    /*0000009c*/ MOV         R0, R4 
    /*000000a0*/ BL          free
    _ZN4hirt13WKModelLoader12parseWKModelERK15hiRUNTIME_MEM_SRNS_16hiMODEL_LOADER_SEPNS_19GroupIndexContainerE_xa4:
    /*000000a4*/ MOV         R0, R5 
    /*000000a8*/ ADD         SP, SP, #28 
    /*000000ac*/ POP         {R4, R5, R6, R7, R8, R9, SL, FP, PC} 
    _ZN4hirt13WKModelLoader12parseWKModelERK15hiRUNTIME_MEM_SRNS_16hiMODEL_LOADER_SEPNS_19GroupIndexContainerE_xb0:
    /*000000b0*/ STR         R0, [SP] 
    /*000000b4*/ MOV         R1, #4 
    /*000000b8*/ LDR         R3, WORD_02b8               @ LDR         R3, [PC, #504]              @ 0x00000000000002b8 
    /*000000bc*/ MVN         R5, #0 
    /*000000c0*/ LDR         R2, WORD_02bc               @ LDR         R2, [PC, #500]              @ 0x00000000000002bc 
    /*000000c4*/ LDR         R0, WORD_02c0               @ LDR         R0, [PC, #500]              @ 0x00000000000002c0 
    /*000000c8*/ ADD         R3, PC, R3 
    /*000000cc*/ ADD         R2, PC, R2 
    /*000000d0*/ ADD         R0, PC, R0 
    /*000000d4*/ BL          _Z15HIRT_LOG_PrintfPKc19tagHIRT_LOG_LEVEL_ES0_z
    /*000000d8*/ B           _ZN4hirt13WKModelLoader12parseWKModelERK15hiRUNTIME_MEM_SRNS_16hiMODEL_LOADER_SEPNS_19GroupIndexContainerE_x9c
    _ZN4hirt13WKModelLoader12parseWKModelERK15hiRUNTIME_MEM_SRNS_16hiMODEL_LOADER_SEPNS_19GroupIndexContainerE_xdc:
    /*000000dc*/ LDR         R3, WORD_02c4               @ LDR         R3, [PC, #480]              @ 0x00000000000002c4 
    /*000000e0*/ MOV         R0, #156                    @ 0x9c 
    /*000000e4*/ LDR         FP, [R7, R3] 
    /*000000e8*/ MOV         R1, FP 
    /*000000ec*/ BL          _ZnwjRKSt9nothrow_t
    /*000000f0*/ SUBS        R7, R0, #0 
    /*000000f4*/ BEQ         _ZN4hirt13WKModelLoader12parseWKModelERK15hiRUNTIME_MEM_SRNS_16hiMODEL_LOADER_SEPNS_19GroupIndexContainerE_x1d8
    /*000000f8*/ BL          _ZN4hirt12GraphOfflineC1Ev
    /*000000fc*/ LDR         R2, [R8, #16] 
    /*00000100*/ MOV         R3, R7 
    /*00000104*/ LDR         IP, [R8, #8] 
    /*00000108*/ MOV         R0, R9 
    /*0000010c*/ LDR         R1, [SP, #16] 
    /*00000110*/ STR         R7, [R6] 
    /*00000114*/ SUB         R2, R2, R1 
    /*00000118*/ STR         SL, [SP] 
    /*0000011c*/ ADD         R1, R1, IP 
    /*00000120*/ BL          _ZN4hirt13WKModelLoader13parseExtendWKEPKhjPNS_5GraphEPNS_19GroupIndexContainerE
    /*00000124*/ SUBS        R5, R0, #0 
    /*00000128*/ BEQ         _ZN4hirt13WKModelLoader12parseWKModelERK15hiRUNTIME_MEM_SRNS_16hiMODEL_LOADER_SEPNS_19GroupIndexContainerE_x1f4
    /*0000012c*/ LDR         R2, WORD_02c8               @ LDR         R2, [PC, #404]              @ 0x00000000000002c8 
    /*00000130*/ MOV         R1, #4 
    /*00000134*/ LDR         R0, WORD_02cc               @ LDR         R0, [PC, #400]              @ 0x00000000000002cc 
    /*00000138*/ ADD         R2, PC, R2 
    /*0000013c*/ ADD         R0, PC, R0 
    /*00000140*/ BL          _Z15HIRT_LOG_PrintfPKc19tagHIRT_LOG_LEVEL_ES0_z
    _ZN4hirt13WKModelLoader12parseWKModelERK15hiRUNTIME_MEM_SRNS_16hiMODEL_LOADER_SEPNS_19GroupIndexContainerE_x144:
    /*00000144*/ LDR         R2, [R7] 
    /*00000148*/ LDR         R3, WORD_02d0               @ LDR         R3, [PC, #384]              @ 0x00000000000002d0 
    /*0000014c*/ LDR         R2, [R2, #4] 
    /*00000150*/ ADD         R3, PC, R3 
    /*00000154*/ CMP         R2, R3 
    /*00000158*/ BNE         _ZN4hirt13WKModelLoader12parseWKModelERK15hiRUNTIME_MEM_SRNS_16hiMODEL_LOADER_SEPNS_19GroupIndexContainerE_x270
    /*0000015c*/ LDR         R0, [R7, #116]              @ 0x74 
    /*00000160*/ ADD         R2, R7, #124                @ 0x7c 
    /*00000164*/ LDR         R3, WORD_02d4               @ LDR         R3, [PC, #360]              @ 0x00000000000002d4 
    /*00000168*/ CMP         R0, R2 
    /*0000016c*/ ADD         R3, PC, R3 
    /*00000170*/ ADD         R3, R3, #8 
    /*00000174*/ STR         R3, [R7] 
    /*00000178*/ BEQ         _ZN4hirt13WKModelLoader12parseWKModelERK15hiRUNTIME_MEM_SRNS_16hiMODEL_LOADER_SEPNS_19GroupIndexContainerE_x180
    /*0000017c*/ BL          _ZdlPv
    _ZN4hirt13WKModelLoader12parseWKModelERK15hiRUNTIME_MEM_SRNS_16hiMODEL_LOADER_SEPNS_19GroupIndexContainerE_x180:
    /*00000180*/ LDR         R0, [R7, #76]               @ 0x4c 
    /*00000184*/ CMP         R0, #0 
    /*00000188*/ BEQ         _ZN4hirt13WKModelLoader12parseWKModelERK15hiRUNTIME_MEM_SRNS_16hiMODEL_LOADER_SEPNS_19GroupIndexContainerE_x190
    /*0000018c*/ BL          _ZdlPv
    _ZN4hirt13WKModelLoader12parseWKModelERK15hiRUNTIME_MEM_SRNS_16hiMODEL_LOADER_SEPNS_19GroupIndexContainerE_x190:
    /*00000190*/ LDR         R0, [R7, #64]               @ 0x40 
    /*00000194*/ CMP         R0, #0 
    /*00000198*/ BEQ         _ZN4hirt13WKModelLoader12parseWKModelERK15hiRUNTIME_MEM_SRNS_16hiMODEL_LOADER_SEPNS_19GroupIndexContainerE_x1a0
    /*0000019c*/ BL          _ZdlPv
    _ZN4hirt13WKModelLoader12parseWKModelERK15hiRUNTIME_MEM_SRNS_16hiMODEL_LOADER_SEPNS_19GroupIndexContainerE_x1a0:
    /*000001a0*/ LDR         R0, [R7, #52]               @ 0x34 
    /*000001a4*/ CMP         R0, #0 
    /*000001a8*/ BEQ         _ZN4hirt13WKModelLoader12parseWKModelERK15hiRUNTIME_MEM_SRNS_16hiMODEL_LOADER_SEPNS_19GroupIndexContainerE_x1b0
    /*000001ac*/ BL          _ZdlPv
    _ZN4hirt13WKModelLoader12parseWKModelERK15hiRUNTIME_MEM_SRNS_16hiMODEL_LOADER_SEPNS_19GroupIndexContainerE_x1b0:
    /*000001b0*/ LDR         R0, [R7, #40]               @ 0x28 
    /*000001b4*/ CMP         R0, #0 
    /*000001b8*/ BEQ         _ZN4hirt13WKModelLoader12parseWKModelERK15hiRUNTIME_MEM_SRNS_16hiMODEL_LOADER_SEPNS_19GroupIndexContainerE_x1c0
    /*000001bc*/ BL          _ZdlPv
    _ZN4hirt13WKModelLoader12parseWKModelERK15hiRUNTIME_MEM_SRNS_16hiMODEL_LOADER_SEPNS_19GroupIndexContainerE_x1c0:
    /*000001c0*/ MOV         R0, R7 
    /*000001c4*/ BL          _ZN4hirt5GraphD2Ev
    /*000001c8*/ MOV         R0, R7 
    /*000001cc*/ MOV         R1, #156                    @ 0x9c 
    /*000001d0*/ BL          _ZdlPvj
    /*000001d4*/ B           _ZN4hirt13WKModelLoader12parseWKModelERK15hiRUNTIME_MEM_SRNS_16hiMODEL_LOADER_SEPNS_19GroupIndexContainerE_x9c
    _ZN4hirt13WKModelLoader12parseWKModelERK15hiRUNTIME_MEM_SRNS_16hiMODEL_LOADER_SEPNS_19GroupIndexContainerE_x1d8:
    /*000001d8*/ LDR         R2, WORD_02d8               @ LDR         R2, [PC, #248]              @ 0x00000000000002d8 
    /*000001dc*/ MOV         R1, #4 
    /*000001e0*/ LDR         R0, WORD_02dc               @ LDR         R0, [PC, #244]              @ 0x00000000000002dc 
    /*000001e4*/ ADD         R2, PC, R2 
    /*000001e8*/ ADD         R0, PC, R0 
    /*000001ec*/ BL          _Z15HIRT_LOG_PrintfPKc19tagHIRT_LOG_LEVEL_ES0_z
    /*000001f0*/ B           _ZN4hirt13WKModelLoader12parseWKModelERK15hiRUNTIME_MEM_SRNS_16hiMODEL_LOADER_SEPNS_19GroupIndexContainerE_x9c
    _ZN4hirt13WKModelLoader12parseWKModelERK15hiRUNTIME_MEM_SRNS_16hiMODEL_LOADER_SEPNS_19GroupIndexContainerE_x1f4:
    /*000001f4*/ MOV         R0, R9 
    /*000001f8*/ ADD         R3, SP, #20 
    /*000001fc*/ MOV         R2, R4 
    /*00000200*/ MOV         R1, R7 
    /*00000204*/ BL          _ZN4hirt13WKModelLoader14getNnieTskSizeEPKNS_12GraphOfflineEPK18hiSVP_NNIE_MODEL_SPj
    /*00000208*/ SUBS        R5, R0, #0 
    /*0000020c*/ BEQ         _ZN4hirt13WKModelLoader12parseWKModelERK15hiRUNTIME_MEM_SRNS_16hiMODEL_LOADER_SEPNS_19GroupIndexContainerE_x22c
    /*00000210*/ LDR         R2, WORD_02e0               @ LDR         R2, [PC, #200]              @ 0x00000000000002e0 
    /*00000214*/ MOV         R1, #4 
    /*00000218*/ LDR         R0, WORD_02e4               @ LDR         R0, [PC, #196]              @ 0x00000000000002e4 
    /*0000021c*/ ADD         R2, PC, R2 
    /*00000220*/ ADD         R0, PC, R0 
    /*00000224*/ BL          _Z15HIRT_LOG_PrintfPKc19tagHIRT_LOG_LEVEL_ES0_z
    /*00000228*/ B           _ZN4hirt13WKModelLoader12parseWKModelERK15hiRUNTIME_MEM_SRNS_16hiMODEL_LOADER_SEPNS_19GroupIndexContainerE_x144
    _ZN4hirt13WKModelLoader12parseWKModelERK15hiRUNTIME_MEM_SRNS_16hiMODEL_LOADER_SEPNS_19GroupIndexContainerE_x22c:
    /*0000022c*/ LDR         R3, [R4, #4] 
    /*00000230*/ MOV         R1, #1 
    /*00000234*/ LDR         R0, [SP, #20] 
    /*00000238*/ LDR         IP, [R7, #92]               @ 0x5c 
    /*0000023c*/ ADD         R2, R3, R0 
    /*00000240*/ ADD         R2, R2, IP 
    /*00000244*/ STR         R3, [SP, #4] 
    /*00000248*/ MOV         R3, R2 
    /*0000024c*/ STR         IP, [SP] 
    /*00000250*/ STR         R2, [R6, #8] 
    /*00000254*/ STR         R0, [SP, #8] 
    /*00000258*/ LDR         R2, WORD_02e8               @ LDR         R2, [PC, #136]              @ 0x00000000000002e8 
    /*0000025c*/ LDR         R0, WORD_02ec               @ LDR         R0, [PC, #136]              @ 0x00000000000002ec 
    /*00000260*/ ADD         R2, PC, R2 
    /*00000264*/ ADD         R0, PC, R0 
    /*00000268*/ BL          _Z15HIRT_LOG_PrintfPKc19tagHIRT_LOG_LEVEL_ES0_z
    /*0000026c*/ B           _ZN4hirt13WKModelLoader12parseWKModelERK15hiRUNTIME_MEM_SRNS_16hiMODEL_LOADER_SEPNS_19GroupIndexContainerE_xa4
    _ZN4hirt13WKModelLoader12parseWKModelERK15hiRUNTIME_MEM_SRNS_16hiMODEL_LOADER_SEPNS_19GroupIndexContainerE_x270:
    /*00000270*/ MOV         R0, R7 
    /*00000274*/ BLX         R2 
    /*00000278*/ B           _ZN4hirt13WKModelLoader12parseWKModelERK15hiRUNTIME_MEM_SRNS_16hiMODEL_LOADER_SEPNS_19GroupIndexContainerE_x9c
    _ZN4hirt13WKModelLoader12parseWKModelERK15hiRUNTIME_MEM_SRNS_16hiMODEL_LOADER_SEPNS_19GroupIndexContainerE_x27c:
    /*0000027c*/ LDR         R2, WORD_02f0               @ LDR         R2, [PC, #108]              @ 0x00000000000002f0 
    /*00000280*/ MOV         R1, #4 
    /*00000284*/ LDR         R0, WORD_02f4               @ LDR         R0, [PC, #104]              @ 0x00000000000002f4 
    /*00000288*/ MVN         R5, #0 
    /*0000028c*/ ADD         R2, PC, R2 
    /*00000290*/ ADD         R0, PC, R0 
    /*00000294*/ BL          _Z15HIRT_LOG_PrintfPKc19tagHIRT_LOG_LEVEL_ES0_z
    /*00000298*/ B           _ZN4hirt13WKModelLoader12parseWKModelERK15hiRUNTIME_MEM_SRNS_16hiMODEL_LOADER_SEPNS_19GroupIndexContainerE_xa4
    /*0000029c*/ MOV         R1, FP 
    /*000002a0*/ MOV         R0, R7 
    /*000002a4*/ BL          _ZdlPvRKSt9nothrow_t
    /*000002a8*/ BL          __cxa_end_cleanup
    /*000002ac*/ WORD_02ac: .word 0x00000274
    /*000002b0*/ WORD_02b0: .word 0x00000218
    /*000002b4*/ WORD_02b4: .word 0x00000218
    /*000002b8*/ WORD_02b8: .word 0x000001e8
    /*000002bc*/ WORD_02bc: .word 0x000001e8
    /*000002c0*/ WORD_02c0: .word 0x000001e8
    /*000002c4*/ WORD_02c4: .word 0x00000000
    /*000002c8*/ WORD_02c8: .word 0x00000188
    /*000002cc*/ WORD_02cc: .word 0x00000188
    /*000002d0*/ WORD_02d0: .word 0x00000178
    /*000002d4*/ WORD_02d4: .word 0x00000160
    /*000002d8*/ WORD_02d8: .word 0x000000ec
    /*000002dc*/ WORD_02dc: .word 0x000000ec
    /*000002e0*/ WORD_02e0: .word 0x000000bc
    /*000002e4*/ WORD_02e4: .word 0x000000bc
    /*000002e8*/ WORD_02e8: .word 0x00000080
    /*000002ec*/ WORD_02ec: .word 0x00000080
    /*000002f0*/ WORD_02f0: .word 0x0000005c
    /*000002f4*/ WORD_02f4: .word 0x0000005c
FUNC_END _ZN4hirt13WKModelLoader12parseWKModelERK15hiRUNTIME_MEM_SRNS_16hiMODEL_LOADER_SEPNS_19GroupIndexContainerE


@ - - - - - - - - - - - - - - - - - - - - - - - - - - - - - 
@ .ARM.extab.text._ZN4hirt13WKModelLoader12parseWKModelERK15hiRUNTIME_MEM_SRNS_16hiMODEL_LOADER_SEPNS_19GroupIndexContainerE
@ Size: 0x1c
@ - - - - - - - - - - - - - - - - - - - - - - - - - - - - - 

@ - - - - - - - - - - - - - - - - - - - - - - - - - - - - - 
@ .text.startup._GLOBAL__sub_I_ModelLoader.cpp
@ Size: 0x54
@ - - - - - - - - - - - - - - - - - - - - - - - - - - - - - 

FUNC_BEGIN _GLOBAL__sub_I_ModelLoader.cpp
    /*00000000*/ MOV         IP, #16384                  @ 0x4000 
    /*00000004*/ PUSH        {R4, R5, R6, LR} 
    /*00000008*/ SUB         IP, SP, IP 
    /*0000000c*/ STR         R0, [IP, #4080]             @ 0xff0 
    /*00000010*/ LDR         R4, WORD_0044               @ LDR         R4, [PC, #44]               @ 0x0000000000000044 
    /*00000014*/ LDR         R5, WORD_0048               @ LDR         R5, [PC, #44]               @ 0x0000000000000048 
    /*00000018*/ ADD         R4, PC, R4 
    /*0000001c*/ ADD         R5, PC, R5 
    /*00000020*/ MOV         R0, R4 
    /*00000024*/ BL          _ZNSt8ios_base4InitC1Ev
    /*00000028*/ LDR         R3, WORD_004c               @ LDR         R3, [PC, #28]               @ 0x000000000000004c 
    /*0000002c*/ MOV         R0, R4 
    /*00000030*/ LDR         R2, WORD_0050               @ LDR         R2, [PC, #24]               @ 0x0000000000000050 
    /*00000034*/ LDR         R1, [R5, R3] 
    /*00000038*/ ADD         R2, PC, R2 
    /*0000003c*/ POP         {R4, R5, R6, LR} 
    _GLOBAL__sub_I_ModelLoader.cpp_x40:
    /*00000040*/ B           _GLOBAL__sub_I_ModelLoader.cpp_x40@ __aeabi_atexit [R_ARM_JUMP24: +0x0] 
    /*00000044*/ WORD_0044: .word 0x00000024
    /*00000048*/ WORD_0048: .word 0x00000024
    /*0000004c*/ WORD_004c: .word 0x00000000
    /*00000050*/ WORD_0050: .word 0x00000010
FUNC_END _GLOBAL__sub_I_ModelLoader.cpp


