@
@ -- FILES --
@

@ ModelGroupConfig.cpp


unsigned char data[0] = {
};

unsigned char bss[0];

_RODATA__ZTSST11_MUTEX_BASEILN9__GNU_CXX12_LOCK_POLICYE2EE_0000: .ascii "St11_Mutex_baseILN9__gnu_cxx12_Lock_policyE2EE\0"


unsigned char data.rel.ro._ZTISt11_Mutex_baseILN9__gnu_cxx12_Lock_policyE2EE[8] = {
    /*0000*/ 0x08, 0x00, 0x00, 0x00, 0x00, 0x00, 0x00, 0x00, 
};

unsigned char rel.data.rel.ro._ZTISt11_Mutex_baseILN9__gnu_cxx12_Lock_policyE2EE[16] = {
    /*0000*/ 0x00, 0x00, 0x00, 0x00, 0x02, 0xc0, 0x08, 0x00, 0x04, 0x00, 0x00, 0x00, 0x02, 0xbe, 0x08, 0x00, 
};

_RODATA__ZTSST16_SP_COUNTED_BASEILN9__GNU_CXX12_LOCK_POLICYE2EE_0000: .ascii "St16_Sp_counted_baseILN9__gnu_cxx12_Lock_policyE2EE\0",
_RODATA__ZTSST16_SP_COUNTED_BASEILN9__GNU_CXX12_LOCK_POLICYE2EE_0034: .ascii ""


unsigned char data.rel.ro._ZTISt16_Sp_counted_baseILN9__gnu_cxx12_Lock_policyE2EE[12] = {
    /*0000*/ 0x08, 0x00, 0x00, 0x00, 0x00, 0x00, 0x00, 0x00, 0x00, 0x00, 0x00, 0x00, 
};

unsigned char rel.data.rel.ro._ZTISt16_Sp_counted_baseILN9__gnu_cxx12_Lock_policyE2EE[24] = {
    /*0000*/ 0x00, 0x00, 0x00, 0x00, 0x02, 0xc3, 0x08, 0x00, 0x04, 0x00, 0x00, 0x00, 0x02, 0xc1, 0x08, 0x00, 
    /*0010*/ 0x08, 0x00, 0x00, 0x00, 0x02, 0xbf, 0x08, 0x00, 
};

_RODATA__ZTSN10HIRTPARSER4BLOBE_0000: .ascii "N10hirtparser4BlobE\0",
_RODATA__ZTSN10HIRTPARSER4BLOBE_0014: .ascii ""


unsigned char data.rel.ro._ZTIN10hirtparser4BlobE[8] = {
    /*0000*/ 0x08, 0x00, 0x00, 0x00, 0x00, 0x00, 0x00, 0x00, 
};

unsigned char rel.data.rel.ro._ZTIN10hirtparser4BlobE[16] = {
    /*0000*/ 0x00, 0x00, 0x00, 0x00, 0x02, 0xc0, 0x08, 0x00, 0x04, 0x00, 0x00, 0x00, 0x02, 0xc4, 0x08, 0x00, 
};

_RODATA__ZTSST19_SP_MAKE_SHARED_TAG_0000: .ascii "St19_Sp_make_shared_tag\0",
_RODATA__ZTSST19_SP_MAKE_SHARED_TAG_0018: .ascii ""


unsigned char data.rel.ro._ZTISt19_Sp_make_shared_tag[8] = {
    /*0000*/ 0x08, 0x00, 0x00, 0x00, 0x00, 0x00, 0x00, 0x00, 
};

unsigned char rel.data.rel.ro._ZTISt19_Sp_make_shared_tag[16] = {
    /*0000*/ 0x00, 0x00, 0x00, 0x00, 0x02, 0xc0, 0x08, 0x00, 0x04, 0x00, 0x00, 0x00, 0x02, 0xc6, 0x08, 0x00, 
};

_RODATA__ZTSST23_SP_COUNTED_PTR_INPLACEINST8__DETAIL4_NFAINST7__CXX1112REGEX_TRAITSICEEEESAIS5_ELN9__GNU_CXX12_LOCK_POLICYE2EE_0000: .ascii "St23_Sp_counted_ptr_inplaceINSt8__detail4_NFAINSt7__cxx1112regex_traitsIcEEEESaIS5_ELN9__gnu_cxx12_Lock_policyE2EE\0"


unsigned char data.rel.ro._ZTISt23_Sp_counted_ptr_inplaceINSt8__detail4_NFAINSt7__cxx1112regex_traitsIcEEEESaIS5_ELN9__gnu_cxx12_Lock_policyE2EE[12] = {
    /*0000*/ 0x08, 0x00, 0x00, 0x00, 0x00, 0x00, 0x00, 0x00, 0x00, 0x00, 0x00, 0x00, 
};

unsigned char rel.data.rel.ro._ZTISt23_Sp_counted_ptr_inplaceINSt8__detail4_NFAINSt7__cxx1112regex_traitsIcEEEESaIS5_ELN9__gnu_cxx12_Lock_policyE2EE[24] = {
    /*0000*/ 0x00, 0x00, 0x00, 0x00, 0x02, 0xc3, 0x08, 0x00, 0x04, 0x00, 0x00, 0x00, 0x02, 0xc7, 0x08, 0x00, 
    /*0010*/ 0x08, 0x00, 0x00, 0x00, 0x02, 0xc2, 0x08, 0x00, 
};

_RODATA__ZTSNST8__DETAIL11_ANYMATCHERINST7__CXX1112REGEX_TRAITSICEELB0ELB0ELB0EEE_0000: .ascii "NSt8__detail11_AnyMatcherINSt7__cxx1112regex_traitsIcEELb0ELb0ELb0EEE\0"


unsigned char data.rel.ro._ZTINSt8__detail11_AnyMatcherINSt7__cxx1112regex_traitsIcEELb0ELb0ELb0EEE[8] = {
    /*0000*/ 0x08, 0x00, 0x00, 0x00, 0x00, 0x00, 0x00, 0x00, 
};

unsigned char rel.data.rel.ro._ZTINSt8__detail11_AnyMatcherINSt7__cxx1112regex_traitsIcEELb0ELb0ELb0EEE[16] = {
    /*0000*/ 0x00, 0x00, 0x00, 0x00, 0x02, 0xc0, 0x08, 0x00, 0x04, 0x00, 0x00, 0x00, 0x02, 0xc9, 0x08, 0x00, 
};

_RODATA__ZTSNST8__DETAIL11_ANYMATCHERINST7__CXX1112REGEX_TRAITSICEELB0ELB0ELB1EEE_0000: .ascii "NSt8__detail11_AnyMatcherINSt7__cxx1112regex_traitsIcEELb0ELb0ELb1EEE\0"


unsigned char data.rel.ro._ZTINSt8__detail11_AnyMatcherINSt7__cxx1112regex_traitsIcEELb0ELb0ELb1EEE[8] = {
    /*0000*/ 0x08, 0x00, 0x00, 0x00, 0x00, 0x00, 0x00, 0x00, 
};

unsigned char rel.data.rel.ro._ZTINSt8__detail11_AnyMatcherINSt7__cxx1112regex_traitsIcEELb0ELb0ELb1EEE[16] = {
    /*0000*/ 0x00, 0x00, 0x00, 0x00, 0x02, 0xc0, 0x08, 0x00, 0x04, 0x00, 0x00, 0x00, 0x02, 0xca, 0x08, 0x00, 
};

_RODATA__ZTSNST8__DETAIL11_ANYMATCHERINST7__CXX1112REGEX_TRAITSICEELB0ELB1ELB0EEE_0000: .ascii "NSt8__detail11_AnyMatcherINSt7__cxx1112regex_traitsIcEELb0ELb1ELb0EEE\0"


unsigned char data.rel.ro._ZTINSt8__detail11_AnyMatcherINSt7__cxx1112regex_traitsIcEELb0ELb1ELb0EEE[8] = {
    /*0000*/ 0x08, 0x00, 0x00, 0x00, 0x00, 0x00, 0x00, 0x00, 
};

unsigned char rel.data.rel.ro._ZTINSt8__detail11_AnyMatcherINSt7__cxx1112regex_traitsIcEELb0ELb1ELb0EEE[16] = {
    /*0000*/ 0x00, 0x00, 0x00, 0x00, 0x02, 0xc0, 0x08, 0x00, 0x04, 0x00, 0x00, 0x00, 0x02, 0xcb, 0x08, 0x00, 
};

_RODATA__ZTSNST8__DETAIL11_ANYMATCHERINST7__CXX1112REGEX_TRAITSICEELB0ELB1ELB1EEE_0000: .ascii "NSt8__detail11_AnyMatcherINSt7__cxx1112regex_traitsIcEELb0ELb1ELb1EEE\0"


unsigned char data.rel.ro._ZTINSt8__detail11_AnyMatcherINSt7__cxx1112regex_traitsIcEELb0ELb1ELb1EEE[8] = {
    /*0000*/ 0x08, 0x00, 0x00, 0x00, 0x00, 0x00, 0x00, 0x00, 
};

unsigned char rel.data.rel.ro._ZTINSt8__detail11_AnyMatcherINSt7__cxx1112regex_traitsIcEELb0ELb1ELb1EEE[16] = {
    /*0000*/ 0x00, 0x00, 0x00, 0x00, 0x02, 0xc0, 0x08, 0x00, 0x04, 0x00, 0x00, 0x00, 0x02, 0xcc, 0x08, 0x00, 
};

_RODATA__ZTSNST8__DETAIL11_ANYMATCHERINST7__CXX1112REGEX_TRAITSICEELB1ELB0ELB0EEE_0000: .ascii "NSt8__detail11_AnyMatcherINSt7__cxx1112regex_traitsIcEELb1ELb0ELb0EEE\0"


unsigned char data.rel.ro._ZTINSt8__detail11_AnyMatcherINSt7__cxx1112regex_traitsIcEELb1ELb0ELb0EEE[8] = {
    /*0000*/ 0x08, 0x00, 0x00, 0x00, 0x00, 0x00, 0x00, 0x00, 
};

unsigned char rel.data.rel.ro._ZTINSt8__detail11_AnyMatcherINSt7__cxx1112regex_traitsIcEELb1ELb0ELb0EEE[16] = {
    /*0000*/ 0x00, 0x00, 0x00, 0x00, 0x02, 0xc0, 0x08, 0x00, 0x04, 0x00, 0x00, 0x00, 0x02, 0xcd, 0x08, 0x00, 
};

_RODATA__ZTSNST8__DETAIL11_ANYMATCHERINST7__CXX1112REGEX_TRAITSICEELB1ELB0ELB1EEE_0000: .ascii "NSt8__detail11_AnyMatcherINSt7__cxx1112regex_traitsIcEELb1ELb0ELb1EEE\0"


unsigned char data.rel.ro._ZTINSt8__detail11_AnyMatcherINSt7__cxx1112regex_traitsIcEELb1ELb0ELb1EEE[8] = {
    /*0000*/ 0x08, 0x00, 0x00, 0x00, 0x00, 0x00, 0x00, 0x00, 
};

unsigned char rel.data.rel.ro._ZTINSt8__detail11_AnyMatcherINSt7__cxx1112regex_traitsIcEELb1ELb0ELb1EEE[16] = {
    /*0000*/ 0x00, 0x00, 0x00, 0x00, 0x02, 0xc0, 0x08, 0x00, 0x04, 0x00, 0x00, 0x00, 0x02, 0xce, 0x08, 0x00, 
};

_RODATA__ZTSNST8__DETAIL11_ANYMATCHERINST7__CXX1112REGEX_TRAITSICEELB1ELB1ELB0EEE_0000: .ascii "NSt8__detail11_AnyMatcherINSt7__cxx1112regex_traitsIcEELb1ELb1ELb0EEE\0"


unsigned char data.rel.ro._ZTINSt8__detail11_AnyMatcherINSt7__cxx1112regex_traitsIcEELb1ELb1ELb0EEE[8] = {
    /*0000*/ 0x08, 0x00, 0x00, 0x00, 0x00, 0x00, 0x00, 0x00, 
};

unsigned char rel.data.rel.ro._ZTINSt8__detail11_AnyMatcherINSt7__cxx1112regex_traitsIcEELb1ELb1ELb0EEE[16] = {
    /*0000*/ 0x00, 0x00, 0x00, 0x00, 0x02, 0xc0, 0x08, 0x00, 0x04, 0x00, 0x00, 0x00, 0x02, 0xcf, 0x08, 0x00, 
};

_RODATA__ZTSNST8__DETAIL11_ANYMATCHERINST7__CXX1112REGEX_TRAITSICEELB1ELB1ELB1EEE_0000: .ascii "NSt8__detail11_AnyMatcherINSt7__cxx1112regex_traitsIcEELb1ELb1ELb1EEE\0"


unsigned char data.rel.ro._ZTINSt8__detail11_AnyMatcherINSt7__cxx1112regex_traitsIcEELb1ELb1ELb1EEE[8] = {
    /*0000*/ 0x08, 0x00, 0x00, 0x00, 0x00, 0x00, 0x00, 0x00, 
};

unsigned char rel.data.rel.ro._ZTINSt8__detail11_AnyMatcherINSt7__cxx1112regex_traitsIcEELb1ELb1ELb1EEE[16] = {
    /*0000*/ 0x00, 0x00, 0x00, 0x00, 0x02, 0xc0, 0x08, 0x00, 0x04, 0x00, 0x00, 0x00, 0x02, 0xd0, 0x08, 0x00, 
};

_RODATA__ZTSNST8__DETAIL12_CHARMATCHERINST7__CXX1112REGEX_TRAITSICEELB0ELB0EEE_0000: .ascii "NSt8__detail12_CharMatcherINSt7__cxx1112regex_traitsIcEELb0ELb0EEE\0"


unsigned char data.rel.ro._ZTINSt8__detail12_CharMatcherINSt7__cxx1112regex_traitsIcEELb0ELb0EEE[8] = {
    /*0000*/ 0x08, 0x00, 0x00, 0x00, 0x00, 0x00, 0x00, 0x00, 
};

unsigned char rel.data.rel.ro._ZTINSt8__detail12_CharMatcherINSt7__cxx1112regex_traitsIcEELb0ELb0EEE[16] = {
    /*0000*/ 0x00, 0x00, 0x00, 0x00, 0x02, 0xc0, 0x08, 0x00, 0x04, 0x00, 0x00, 0x00, 0x02, 0xd1, 0x08, 0x00, 
};

_RODATA__ZTSNST8__DETAIL12_CHARMATCHERINST7__CXX1112REGEX_TRAITSICEELB0ELB1EEE_0000: .ascii "NSt8__detail12_CharMatcherINSt7__cxx1112regex_traitsIcEELb0ELb1EEE\0"


unsigned char data.rel.ro._ZTINSt8__detail12_CharMatcherINSt7__cxx1112regex_traitsIcEELb0ELb1EEE[8] = {
    /*0000*/ 0x08, 0x00, 0x00, 0x00, 0x00, 0x00, 0x00, 0x00, 
};

unsigned char rel.data.rel.ro._ZTINSt8__detail12_CharMatcherINSt7__cxx1112regex_traitsIcEELb0ELb1EEE[16] = {
    /*0000*/ 0x00, 0x00, 0x00, 0x00, 0x02, 0xc0, 0x08, 0x00, 0x04, 0x00, 0x00, 0x00, 0x02, 0xd2, 0x08, 0x00, 
};

_RODATA__ZTSNST8__DETAIL12_CHARMATCHERINST7__CXX1112REGEX_TRAITSICEELB1ELB0EEE_0000: .ascii "NSt8__detail12_CharMatcherINSt7__cxx1112regex_traitsIcEELb1ELb0EEE\0"


unsigned char data.rel.ro._ZTINSt8__detail12_CharMatcherINSt7__cxx1112regex_traitsIcEELb1ELb0EEE[8] = {
    /*0000*/ 0x08, 0x00, 0x00, 0x00, 0x00, 0x00, 0x00, 0x00, 
};

unsigned char rel.data.rel.ro._ZTINSt8__detail12_CharMatcherINSt7__cxx1112regex_traitsIcEELb1ELb0EEE[16] = {
    /*0000*/ 0x00, 0x00, 0x00, 0x00, 0x02, 0xc0, 0x08, 0x00, 0x04, 0x00, 0x00, 0x00, 0x02, 0xd3, 0x08, 0x00, 
};

_RODATA__ZTSNST8__DETAIL12_CHARMATCHERINST7__CXX1112REGEX_TRAITSICEELB1ELB1EEE_0000: .ascii "NSt8__detail12_CharMatcherINSt7__cxx1112regex_traitsIcEELb1ELb1EEE\0"


unsigned char data.rel.ro._ZTINSt8__detail12_CharMatcherINSt7__cxx1112regex_traitsIcEELb1ELb1EEE[8] = {
    /*0000*/ 0x08, 0x00, 0x00, 0x00, 0x00, 0x00, 0x00, 0x00, 
};

unsigned char rel.data.rel.ro._ZTINSt8__detail12_CharMatcherINSt7__cxx1112regex_traitsIcEELb1ELb1EEE[16] = {
    /*0000*/ 0x00, 0x00, 0x00, 0x00, 0x02, 0xc0, 0x08, 0x00, 0x04, 0x00, 0x00, 0x00, 0x02, 0xd4, 0x08, 0x00, 
};

_RODATA__ZTSNST8__DETAIL15_BRACKETMATCHERINST7__CXX1112REGEX_TRAITSICEELB0ELB0EEE_0000: .ascii "NSt8__detail15_BracketMatcherINSt7__cxx1112regex_traitsIcEELb0ELb0EEE\0"


unsigned char data.rel.ro._ZTINSt8__detail15_BracketMatcherINSt7__cxx1112regex_traitsIcEELb0ELb0EEE[8] = {
    /*0000*/ 0x08, 0x00, 0x00, 0x00, 0x00, 0x00, 0x00, 0x00, 
};

unsigned char rel.data.rel.ro._ZTINSt8__detail15_BracketMatcherINSt7__cxx1112regex_traitsIcEELb0ELb0EEE[16] = {
    /*0000*/ 0x00, 0x00, 0x00, 0x00, 0x02, 0xc0, 0x08, 0x00, 0x04, 0x00, 0x00, 0x00, 0x02, 0xd5, 0x08, 0x00, 
};

_RODATA__ZTSNST8__DETAIL15_BRACKETMATCHERINST7__CXX1112REGEX_TRAITSICEELB0ELB1EEE_0000: .ascii "NSt8__detail15_BracketMatcherINSt7__cxx1112regex_traitsIcEELb0ELb1EEE\0"


unsigned char data.rel.ro._ZTINSt8__detail15_BracketMatcherINSt7__cxx1112regex_traitsIcEELb0ELb1EEE[8] = {
    /*0000*/ 0x08, 0x00, 0x00, 0x00, 0x00, 0x00, 0x00, 0x00, 
};

unsigned char rel.data.rel.ro._ZTINSt8__detail15_BracketMatcherINSt7__cxx1112regex_traitsIcEELb0ELb1EEE[16] = {
    /*0000*/ 0x00, 0x00, 0x00, 0x00, 0x02, 0xc0, 0x08, 0x00, 0x04, 0x00, 0x00, 0x00, 0x02, 0xd6, 0x08, 0x00, 
};

_RODATA__ZTSNST8__DETAIL15_BRACKETMATCHERINST7__CXX1112REGEX_TRAITSICEELB1ELB0EEE_0000: .ascii "NSt8__detail15_BracketMatcherINSt7__cxx1112regex_traitsIcEELb1ELb0EEE\0"


unsigned char data.rel.ro._ZTINSt8__detail15_BracketMatcherINSt7__cxx1112regex_traitsIcEELb1ELb0EEE[8] = {
    /*0000*/ 0x08, 0x00, 0x00, 0x00, 0x00, 0x00, 0x00, 0x00, 
};

unsigned char rel.data.rel.ro._ZTINSt8__detail15_BracketMatcherINSt7__cxx1112regex_traitsIcEELb1ELb0EEE[16] = {
    /*0000*/ 0x00, 0x00, 0x00, 0x00, 0x02, 0xc0, 0x08, 0x00, 0x04, 0x00, 0x00, 0x00, 0x02, 0xd7, 0x08, 0x00, 
};

_RODATA__ZTSNST8__DETAIL15_BRACKETMATCHERINST7__CXX1112REGEX_TRAITSICEELB1ELB1EEE_0000: .ascii "NSt8__detail15_BracketMatcherINSt7__cxx1112regex_traitsIcEELb1ELb1EEE\0"


unsigned char data.rel.ro._ZTINSt8__detail15_BracketMatcherINSt7__cxx1112regex_traitsIcEELb1ELb1EEE[8] = {
    /*0000*/ 0x08, 0x00, 0x00, 0x00, 0x00, 0x00, 0x00, 0x00, 
};

unsigned char rel.data.rel.ro._ZTINSt8__detail15_BracketMatcherINSt7__cxx1112regex_traitsIcEELb1ELb1EEE[16] = {
    /*0000*/ 0x00, 0x00, 0x00, 0x00, 0x02, 0xc0, 0x08, 0x00, 0x04, 0x00, 0x00, 0x00, 0x02, 0xd8, 0x08, 0x00, 
};

unsigned char data.rel.ro.local._ZTVN10hirtparser4BlobE[16] = {
    /*0000*/ 0x00, 0x00, 0x00, 0x00, 0x00, 0x00, 0x00, 0x00, 0x00, 0x00, 0x00, 0x00, 0x00, 0x00, 0x00, 0x00, 
};

unsigned char rel.data.rel.ro.local._ZTVN10hirtparser4BlobE[24] = {
    /*0000*/ 0x04, 0x00, 0x00, 0x00, 0x02, 0xc5, 0x08, 0x00, 0x08, 0x00, 0x00, 0x00, 0x02, 0x7b, 0x07, 0x00, 
    /*0010*/ 0x0c, 0x00, 0x00, 0x00, 0x02, 0x9f, 0x07, 0x00, 
};

unsigned char data.rel.ro._ZTVSt23_Sp_counted_ptr_inplaceINSt8__detail4_NFAINSt7__cxx1112regex_traitsIcEEEESaIS5_ELN9__gnu_cxx12_Lock_policyE2EE[28] = {
    /*0000*/ 0x00, 0x00, 0x00, 0x00, 0x00, 0x00, 0x00, 0x00, 0x00, 0x00, 0x00, 0x00, 0x00, 0x00, 0x00, 0x00, 
    /*0010*/ 0x00, 0x00, 0x00, 0x00, 0x00, 0x00, 0x00, 0x00, 0x00, 0x00, 0x00, 0x00, 
};

unsigned char rel.data.rel.ro._ZTVSt23_Sp_counted_ptr_inplaceINSt8__detail4_NFAINSt7__cxx1112regex_traitsIcEEEESaIS5_ELN9__gnu_cxx12_Lock_policyE2EE[48] = {
    /*0000*/ 0x04, 0x00, 0x00, 0x00, 0x02, 0xc8, 0x08, 0x00, 0x08, 0x00, 0x00, 0x00, 0x02, 0x77, 0x07, 0x00, 
    /*0010*/ 0x0c, 0x00, 0x00, 0x00, 0x02, 0x80, 0x07, 0x00, 0x10, 0x00, 0x00, 0x00, 0x02, 0xb9, 0x07, 0x00, 
    /*0020*/ 0x14, 0x00, 0x00, 0x00, 0x02, 0x7c, 0x07, 0x00, 0x18, 0x00, 0x00, 0x00, 0x02, 0x7d, 0x07, 0x00, 
};

unsigned char data.rel.local._ZZNKSt7__cxx1112regex_traitsIcE18lookup_collatenameIPKcEENS_12basic_stringIcSt11char_traitsIcESaIcEEET_SA_E14__collatenames[512] = {
    /*0000*/ 0x00, 0x00, 0x00, 0x00, 0x04, 0x00, 0x00, 0x00, 0x08, 0x00, 0x00, 0x00, 0x0c, 0x00, 0x00, 0x00, 
    /*0010*/ 0x10, 0x00, 0x00, 0x00, 0x14, 0x00, 0x00, 0x00, 0x18, 0x00, 0x00, 0x00, 0x1c, 0x00, 0x00, 0x00, 
    /*0020*/ 0x24, 0x00, 0x00, 0x00, 0x30, 0x00, 0x00, 0x00, 0x34, 0x00, 0x00, 0x00, 0x3c, 0x00, 0x00, 0x00, 
    /*0030*/ 0x4c, 0x00, 0x00, 0x00, 0x58, 0x00, 0x00, 0x00, 0x68, 0x00, 0x00, 0x00, 0x6c, 0x00, 0x00, 0x00, 
    /*0040*/ 0x70, 0x00, 0x00, 0x00, 0x74, 0x00, 0x00, 0x00, 0x78, 0x00, 0x00, 0x00, 0x7c, 0x00, 0x00, 0x00, 
    /*0050*/ 0x80, 0x00, 0x00, 0x00, 0x84, 0x00, 0x00, 0x00, 0x88, 0x00, 0x00, 0x00, 0x8c, 0x00, 0x00, 0x00, 
    /*0060*/ 0x90, 0x00, 0x00, 0x00, 0x94, 0x00, 0x00, 0x00, 0x98, 0x00, 0x00, 0x00, 0x9c, 0x00, 0x00, 0x00, 
    /*0070*/ 0xa0, 0x00, 0x00, 0x00, 0xa4, 0x00, 0x00, 0x00, 0xa8, 0x00, 0x00, 0x00, 0xac, 0x00, 0x00, 0x00, 
    /*0080*/ 0xb0, 0x00, 0x00, 0x00, 0xb8, 0x00, 0x00, 0x00, 0xcc, 0x00, 0x00, 0x00, 0xdc, 0x00, 0x00, 0x00, 
    /*0090*/ 0xe8, 0x00, 0x00, 0x00, 0xf4, 0x00, 0x00, 0x00, 0x04, 0x01, 0x00, 0x00, 0x10, 0x01, 0x00, 0x00, 
    /*00a0*/ 0x1c, 0x01, 0x00, 0x00, 0x30, 0x01, 0x00, 0x00, 0x44, 0x01, 0x00, 0x00, 0x50, 0x01, 0x00, 0x00, 
    /*00b0*/ 0x5c, 0x01, 0x00, 0x00, 0x64, 0x01, 0x00, 0x00, 0x6c, 0x01, 0x00, 0x00, 0x74, 0x01, 0x00, 0x00, 
    /*00c0*/ 0x7c, 0x01, 0x00, 0x00, 0x84, 0x01, 0x00, 0x00, 0x88, 0x01, 0x00, 0x00, 0x8c, 0x01, 0x00, 0x00, 
    /*00d0*/ 0x94, 0x01, 0x00, 0x00, 0x9c, 0x01, 0x00, 0x00, 0xa4, 0x01, 0x00, 0x00, 0xa8, 0x01, 0x00, 0x00, 
    /*00e0*/ 0xb0, 0x01, 0x00, 0x00, 0xb8, 0x01, 0x00, 0x00, 0xc0, 0x01, 0x00, 0x00, 0xc8, 0x01, 0x00, 0x00, 
    /*00f0*/ 0xd4, 0x01, 0x00, 0x00, 0xe4, 0x01, 0x00, 0x00, 0xf0, 0x01, 0x00, 0x00, 0x04, 0x02, 0x00, 0x00, 
    /*0100*/ 0x14, 0x02, 0x00, 0x00, 0x24, 0x02, 0x00, 0x00, 0x28, 0x02, 0x00, 0x00, 0x2c, 0x02, 0x00, 0x00, 
    /*0110*/ 0x30, 0x02, 0x00, 0x00, 0x34, 0x02, 0x00, 0x00, 0x38, 0x02, 0x00, 0x00, 0x3c, 0x02, 0x00, 0x00, 
    /*0120*/ 0x40, 0x02, 0x00, 0x00, 0x44, 0x02, 0x00, 0x00, 0x48, 0x02, 0x00, 0x00, 0x4c, 0x02, 0x00, 0x00, 
    /*0130*/ 0x50, 0x02, 0x00, 0x00, 0x54, 0x02, 0x00, 0x00, 0x58, 0x02, 0x00, 0x00, 0x5c, 0x02, 0x00, 0x00, 
    /*0140*/ 0x60, 0x02, 0x00, 0x00, 0x64, 0x02, 0x00, 0x00, 0x68, 0x02, 0x00, 0x00, 0x6c, 0x02, 0x00, 0x00, 
    /*0150*/ 0x70, 0x02, 0x00, 0x00, 0x74, 0x02, 0x00, 0x00, 0x78, 0x02, 0x00, 0x00, 0x7c, 0x02, 0x00, 0x00, 
    /*0160*/ 0x80, 0x02, 0x00, 0x00, 0x84, 0x02, 0x00, 0x00, 0x88, 0x02, 0x00, 0x00, 0x8c, 0x02, 0x00, 0x00, 
    /*0170*/ 0xa0, 0x02, 0x00, 0x00, 0xac, 0x02, 0x00, 0x00, 0xc4, 0x02, 0x00, 0x00, 0xd0, 0x02, 0x00, 0x00, 
    /*0180*/ 0xdc, 0x02, 0x00, 0x00, 0xec, 0x02, 0x00, 0x00, 0xf0, 0x02, 0x00, 0x00, 0xf4, 0x02, 0x00, 0x00, 
    /*0190*/ 0xf8, 0x02, 0x00, 0x00, 0xfc, 0x02, 0x00, 0x00, 0x00, 0x03, 0x00, 0x00, 0x04, 0x03, 0x00, 0x00, 
    /*01a0*/ 0x08, 0x03, 0x00, 0x00, 0x0c, 0x03, 0x00, 0x00, 0x10, 0x03, 0x00, 0x00, 0x14, 0x03, 0x00, 0x00, 
    /*01b0*/ 0x18, 0x03, 0x00, 0x00, 0x1c, 0x03, 0x00, 0x00, 0x20, 0x03, 0x00, 0x00, 0x24, 0x03, 0x00, 0x00, 
    /*01c0*/ 0x28, 0x03, 0x00, 0x00, 0x2c, 0x03, 0x00, 0x00, 0x30, 0x03, 0x00, 0x00, 0x34, 0x03, 0x00, 0x00, 
    /*01d0*/ 0x38, 0x03, 0x00, 0x00, 0x3c, 0x03, 0x00, 0x00, 0x40, 0x03, 0x00, 0x00, 0x44, 0x03, 0x00, 0x00, 
    /*01e0*/ 0x48, 0x03, 0x00, 0x00, 0x4c, 0x03, 0x00, 0x00, 0x50, 0x03, 0x00, 0x00, 0x54, 0x03, 0x00, 0x00, 
    /*01f0*/ 0x68, 0x03, 0x00, 0x00, 0x78, 0x03, 0x00, 0x00, 0x8c, 0x03, 0x00, 0x00, 0x94, 0x03, 0x00, 0x00, 
};

unsigned char rel.data.rel.local._ZZNKSt7__cxx1112regex_traitsIcE18lookup_collatenameIPKcEENS_12basic_stringIcSt11char_traitsIcESaIcEEET_SA_E14__collatenames[1024] = {
    /*0000*/ 0x00, 0x00, 0x00, 0x00, 0x02, 0x4d, 0x06, 0x00, 0x04, 0x00, 0x00, 0x00, 0x02, 0x4d, 0x06, 0x00, 
    /*0010*/ 0x08, 0x00, 0x00, 0x00, 0x02, 0x4d, 0x06, 0x00, 0x0c, 0x00, 0x00, 0x00, 0x02, 0x4d, 0x06, 0x00, 
    /*0020*/ 0x10, 0x00, 0x00, 0x00, 0x02, 0x4d, 0x06, 0x00, 0x14, 0x00, 0x00, 0x00, 0x02, 0x4d, 0x06, 0x00, 
    /*0030*/ 0x18, 0x00, 0x00, 0x00, 0x02, 0x4d, 0x06, 0x00, 0x1c, 0x00, 0x00, 0x00, 0x02, 0x4d, 0x06, 0x00, 
    /*0040*/ 0x20, 0x00, 0x00, 0x00, 0x02, 0x4d, 0x06, 0x00, 0x24, 0x00, 0x00, 0x00, 0x02, 0x4d, 0x06, 0x00, 
    /*0050*/ 0x28, 0x00, 0x00, 0x00, 0x02, 0x4d, 0x06, 0x00, 0x2c, 0x00, 0x00, 0x00, 0x02, 0x4d, 0x06, 0x00, 
    /*0060*/ 0x30, 0x00, 0x00, 0x00, 0x02, 0x4d, 0x06, 0x00, 0x34, 0x00, 0x00, 0x00, 0x02, 0x4d, 0x06, 0x00, 
    /*0070*/ 0x38, 0x00, 0x00, 0x00, 0x02, 0x4d, 0x06, 0x00, 0x3c, 0x00, 0x00, 0x00, 0x02, 0x4d, 0x06, 0x00, 
    /*0080*/ 0x40, 0x00, 0x00, 0x00, 0x02, 0x4d, 0x06, 0x00, 0x44, 0x00, 0x00, 0x00, 0x02, 0x4d, 0x06, 0x00, 
    /*0090*/ 0x48, 0x00, 0x00, 0x00, 0x02, 0x4d, 0x06, 0x00, 0x4c, 0x00, 0x00, 0x00, 0x02, 0x4d, 0x06, 0x00, 
    /*00a0*/ 0x50, 0x00, 0x00, 0x00, 0x02, 0x4d, 0x06, 0x00, 0x54, 0x00, 0x00, 0x00, 0x02, 0x4d, 0x06, 0x00, 
    /*00b0*/ 0x58, 0x00, 0x00, 0x00, 0x02, 0x4d, 0x06, 0x00, 0x5c, 0x00, 0x00, 0x00, 0x02, 0x4d, 0x06, 0x00, 
    /*00c0*/ 0x60, 0x00, 0x00, 0x00, 0x02, 0x4d, 0x06, 0x00, 0x64, 0x00, 0x00, 0x00, 0x02, 0x4d, 0x06, 0x00, 
    /*00d0*/ 0x68, 0x00, 0x00, 0x00, 0x02, 0x4d, 0x06, 0x00, 0x6c, 0x00, 0x00, 0x00, 0x02, 0x4d, 0x06, 0x00, 
    /*00e0*/ 0x70, 0x00, 0x00, 0x00, 0x02, 0x4d, 0x06, 0x00, 0x74, 0x00, 0x00, 0x00, 0x02, 0x4d, 0x06, 0x00, 
    /*00f0*/ 0x78, 0x00, 0x00, 0x00, 0x02, 0x4d, 0x06, 0x00, 0x7c, 0x00, 0x00, 0x00, 0x02, 0x4d, 0x06, 0x00, 
    /*0100*/ 0x80, 0x00, 0x00, 0x00, 0x02, 0x4d, 0x06, 0x00, 0x84, 0x00, 0x00, 0x00, 0x02, 0x4d, 0x06, 0x00, 
    /*0110*/ 0x88, 0x00, 0x00, 0x00, 0x02, 0x4d, 0x06, 0x00, 0x8c, 0x00, 0x00, 0x00, 0x02, 0x4d, 0x06, 0x00, 
    /*0120*/ 0x90, 0x00, 0x00, 0x00, 0x02, 0x4d, 0x06, 0x00, 0x94, 0x00, 0x00, 0x00, 0x02, 0x4d, 0x06, 0x00, 
    /*0130*/ 0x98, 0x00, 0x00, 0x00, 0x02, 0x4d, 0x06, 0x00, 0x9c, 0x00, 0x00, 0x00, 0x02, 0x4d, 0x06, 0x00, 
    /*0140*/ 0xa0, 0x00, 0x00, 0x00, 0x02, 0x4d, 0x06, 0x00, 0xa4, 0x00, 0x00, 0x00, 0x02, 0x4d, 0x06, 0x00, 
    /*0150*/ 0xa8, 0x00, 0x00, 0x00, 0x02, 0x4d, 0x06, 0x00, 0xac, 0x00, 0x00, 0x00, 0x02, 0x4d, 0x06, 0x00, 
    /*0160*/ 0xb0, 0x00, 0x00, 0x00, 0x02, 0x4d, 0x06, 0x00, 0xb4, 0x00, 0x00, 0x00, 0x02, 0x4d, 0x06, 0x00, 
    /*0170*/ 0xb8, 0x00, 0x00, 0x00, 0x02, 0x4d, 0x06, 0x00, 0xbc, 0x00, 0x00, 0x00, 0x02, 0x4d, 0x06, 0x00, 
    /*0180*/ 0xc0, 0x00, 0x00, 0x00, 0x02, 0x4d, 0x06, 0x00, 0xc4, 0x00, 0x00, 0x00, 0x02, 0x4d, 0x06, 0x00, 
    /*0190*/ 0xc8, 0x00, 0x00, 0x00, 0x02, 0x4d, 0x06, 0x00, 0xcc, 0x00, 0x00, 0x00, 0x02, 0x4d, 0x06, 0x00, 
    /*01a0*/ 0xd0, 0x00, 0x00, 0x00, 0x02, 0x4d, 0x06, 0x00, 0xd4, 0x00, 0x00, 0x00, 0x02, 0x4d, 0x06, 0x00, 
    /*01b0*/ 0xd8, 0x00, 0x00, 0x00, 0x02, 0x4d, 0x06, 0x00, 0xdc, 0x00, 0x00, 0x00, 0x02, 0x4d, 0x06, 0x00, 
    /*01c0*/ 0xe0, 0x00, 0x00, 0x00, 0x02, 0x4d, 0x06, 0x00, 0xe4, 0x00, 0x00, 0x00, 0x02, 0x4d, 0x06, 0x00, 
    /*01d0*/ 0xe8, 0x00, 0x00, 0x00, 0x02, 0x4d, 0x06, 0x00, 0xec, 0x00, 0x00, 0x00, 0x02, 0x4d, 0x06, 0x00, 
    /*01e0*/ 0xf0, 0x00, 0x00, 0x00, 0x02, 0x4d, 0x06, 0x00, 0xf4, 0x00, 0x00, 0x00, 0x02, 0x4d, 0x06, 0x00, 
    /*01f0*/ 0xf8, 0x00, 0x00, 0x00, 0x02, 0x4d, 0x06, 0x00, 0xfc, 0x00, 0x00, 0x00, 0x02, 0x4d, 0x06, 0x00, 
    /*0200*/ 0x00, 0x01, 0x00, 0x00, 0x02, 0x4d, 0x06, 0x00, 0x04, 0x01, 0x00, 0x00, 0x02, 0x4d, 0x06, 0x00, 
    /*0210*/ 0x08, 0x01, 0x00, 0x00, 0x02, 0x4d, 0x06, 0x00, 0x0c, 0x01, 0x00, 0x00, 0x02, 0x4d, 0x06, 0x00, 
    /*0220*/ 0x10, 0x01, 0x00, 0x00, 0x02, 0x4d, 0x06, 0x00, 0x14, 0x01, 0x00, 0x00, 0x02, 0x4d, 0x06, 0x00, 
    /*0230*/ 0x18, 0x01, 0x00, 0x00, 0x02, 0x4d, 0x06, 0x00, 0x1c, 0x01, 0x00, 0x00, 0x02, 0x4d, 0x06, 0x00, 
    /*0240*/ 0x20, 0x01, 0x00, 0x00, 0x02, 0x4d, 0x06, 0x00, 0x24, 0x01, 0x00, 0x00, 0x02, 0x4d, 0x06, 0x00, 
    /*0250*/ 0x28, 0x01, 0x00, 0x00, 0x02, 0x4d, 0x06, 0x00, 0x2c, 0x01, 0x00, 0x00, 0x02, 0x4d, 0x06, 0x00, 
    /*0260*/ 0x30, 0x01, 0x00, 0x00, 0x02, 0x4d, 0x06, 0x00, 0x34, 0x01, 0x00, 0x00, 0x02, 0x4d, 0x06, 0x00, 
    /*0270*/ 0x38, 0x01, 0x00, 0x00, 0x02, 0x4d, 0x06, 0x00, 0x3c, 0x01, 0x00, 0x00, 0x02, 0x4d, 0x06, 0x00, 
    /*0280*/ 0x40, 0x01, 0x00, 0x00, 0x02, 0x4d, 0x06, 0x00, 0x44, 0x01, 0x00, 0x00, 0x02, 0x4d, 0x06, 0x00, 
    /*0290*/ 0x48, 0x01, 0x00, 0x00, 0x02, 0x4d, 0x06, 0x00, 0x4c, 0x01, 0x00, 0x00, 0x02, 0x4d, 0x06, 0x00, 
    /*02a0*/ 0x50, 0x01, 0x00, 0x00, 0x02, 0x4d, 0x06, 0x00, 0x54, 0x01, 0x00, 0x00, 0x02, 0x4d, 0x06, 0x00, 
    /*02b0*/ 0x58, 0x01, 0x00, 0x00, 0x02, 0x4d, 0x06, 0x00, 0x5c, 0x01, 0x00, 0x00, 0x02, 0x4d, 0x06, 0x00, 
    /*02c0*/ 0x60, 0x01, 0x00, 0x00, 0x02, 0x4d, 0x06, 0x00, 0x64, 0x01, 0x00, 0x00, 0x02, 0x4d, 0x06, 0x00, 
    /*02d0*/ 0x68, 0x01, 0x00, 0x00, 0x02, 0x4d, 0x06, 0x00, 0x6c, 0x01, 0x00, 0x00, 0x02, 0x4d, 0x06, 0x00, 
    /*02e0*/ 0x70, 0x01, 0x00, 0x00, 0x02, 0x4d, 0x06, 0x00, 0x74, 0x01, 0x00, 0x00, 0x02, 0x4d, 0x06, 0x00, 
    /*02f0*/ 0x78, 0x01, 0x00, 0x00, 0x02, 0x4d, 0x06, 0x00, 0x7c, 0x01, 0x00, 0x00, 0x02, 0x4d, 0x06, 0x00, 
    /*0300*/ 0x80, 0x01, 0x00, 0x00, 0x02, 0x4d, 0x06, 0x00, 0x84, 0x01, 0x00, 0x00, 0x02, 0x4d, 0x06, 0x00, 
    /*0310*/ 0x88, 0x01, 0x00, 0x00, 0x02, 0x4d, 0x06, 0x00, 0x8c, 0x01, 0x00, 0x00, 0x02, 0x4d, 0x06, 0x00, 
    /*0320*/ 0x90, 0x01, 0x00, 0x00, 0x02, 0x4d, 0x06, 0x00, 0x94, 0x01, 0x00, 0x00, 0x02, 0x4d, 0x06, 0x00, 
    /*0330*/ 0x98, 0x01, 0x00, 0x00, 0x02, 0x4d, 0x06, 0x00, 0x9c, 0x01, 0x00, 0x00, 0x02, 0x4d, 0x06, 0x00, 
    /*0340*/ 0xa0, 0x01, 0x00, 0x00, 0x02, 0x4d, 0x06, 0x00, 0xa4, 0x01, 0x00, 0x00, 0x02, 0x4d, 0x06, 0x00, 
    /*0350*/ 0xa8, 0x01, 0x00, 0x00, 0x02, 0x4d, 0x06, 0x00, 0xac, 0x01, 0x00, 0x00, 0x02, 0x4d, 0x06, 0x00, 
    /*0360*/ 0xb0, 0x01, 0x00, 0x00, 0x02, 0x4d, 0x06, 0x00, 0xb4, 0x01, 0x00, 0x00, 0x02, 0x4d, 0x06, 0x00, 
    /*0370*/ 0xb8, 0x01, 0x00, 0x00, 0x02, 0x4d, 0x06, 0x00, 0xbc, 0x01, 0x00, 0x00, 0x02, 0x4d, 0x06, 0x00, 
    /*0380*/ 0xc0, 0x01, 0x00, 0x00, 0x02, 0x4d, 0x06, 0x00, 0xc4, 0x01, 0x00, 0x00, 0x02, 0x4d, 0x06, 0x00, 
    /*0390*/ 0xc8, 0x01, 0x00, 0x00, 0x02, 0x4d, 0x06, 0x00, 0xcc, 0x01, 0x00, 0x00, 0x02, 0x4d, 0x06, 0x00, 
    /*03a0*/ 0xd0, 0x01, 0x00, 0x00, 0x02, 0x4d, 0x06, 0x00, 0xd4, 0x01, 0x00, 0x00, 0x02, 0x4d, 0x06, 0x00, 
    /*03b0*/ 0xd8, 0x01, 0x00, 0x00, 0x02, 0x4d, 0x06, 0x00, 0xdc, 0x01, 0x00, 0x00, 0x02, 0x4d, 0x06, 0x00, 
    /*03c0*/ 0xe0, 0x01, 0x00, 0x00, 0x02, 0x4d, 0x06, 0x00, 0xe4, 0x01, 0x00, 0x00, 0x02, 0x4d, 0x06, 0x00, 
    /*03d0*/ 0xe8, 0x01, 0x00, 0x00, 0x02, 0x4d, 0x06, 0x00, 0xec, 0x01, 0x00, 0x00, 0x02, 0x4d, 0x06, 0x00, 
    /*03e0*/ 0xf0, 0x01, 0x00, 0x00, 0x02, 0x4d, 0x06, 0x00, 0xf4, 0x01, 0x00, 0x00, 0x02, 0x4d, 0x06, 0x00, 
    /*03f0*/ 0xf8, 0x01, 0x00, 0x00, 0x02, 0x4d, 0x06, 0x00, 0xfc, 0x01, 0x00, 0x00, 0x02, 0x4d, 0x06, 0x00, 
};

unsigned char bss._ZGVZNKSt8__detail11_AnyMatcherINSt7__cxx1112regex_traitsIcEELb0ELb1ELb1EEclEcE5__nul[4];

unsigned char bss._ZZNKSt8__detail11_AnyMatcherINSt7__cxx1112regex_traitsIcEELb0ELb1ELb1EEclEcE5__nul[1];

unsigned char bss._ZGVZNKSt8__detail11_AnyMatcherINSt7__cxx1112regex_traitsIcEELb0ELb1ELb0EEclEcE5__nul[4];

unsigned char bss._ZZNKSt8__detail11_AnyMatcherINSt7__cxx1112regex_traitsIcEELb0ELb1ELb0EEclEcE5__nul[1];

unsigned char bss._ZGVZNKSt8__detail11_AnyMatcherINSt7__cxx1112regex_traitsIcEELb0ELb0ELb1EEclEcE5__nul[4];

unsigned char bss._ZZNKSt8__detail11_AnyMatcherINSt7__cxx1112regex_traitsIcEELb0ELb0ELb1EEclEcE5__nul[1];

unsigned char bss._ZGVZNKSt8__detail11_AnyMatcherINSt7__cxx1112regex_traitsIcEELb0ELb0ELb0EEclEcE5__nul[4];

unsigned char bss._ZZNKSt8__detail11_AnyMatcherINSt7__cxx1112regex_traitsIcEELb0ELb0ELb0EEclEcE5__nul[1];

unsigned char data.rel.ro.local._ZZNKSt7__cxx1112regex_traitsIcE16lookup_classnameIPKcEENS1_10_RegexMaskET_S6_bE12__classnames[120] = {
    /*0000*/ 0xf8, 0x02, 0x00, 0x00, 0x00, 0x08, 0x00, 0x00, 0x44, 0x03, 0x00, 0x00, 0x00, 0x0c, 0x01, 0x00, 
    /*0010*/ 0x34, 0x03, 0x00, 0x00, 0x00, 0x20, 0x00, 0x00, 0x98, 0x03, 0x00, 0x00, 0x00, 0x0c, 0x00, 0x00, 
    /*0020*/ 0xa0, 0x03, 0x00, 0x00, 0x00, 0x04, 0x00, 0x00, 0xa8, 0x03, 0x00, 0x00, 0x01, 0x00, 0x00, 0x00, 
    /*0030*/ 0xb0, 0x03, 0x00, 0x00, 0x02, 0x00, 0x00, 0x00, 0xb8, 0x03, 0x00, 0x00, 0x00, 0x08, 0x00, 0x00, 
    /*0040*/ 0xc0, 0x03, 0x00, 0x00, 0x04, 0x0c, 0x00, 0x00, 0xc8, 0x03, 0x00, 0x00, 0x00, 0x02, 0x00, 0x00, 
    /*0050*/ 0xd0, 0x03, 0x00, 0x00, 0x00, 0x40, 0x00, 0x00, 0xd8, 0x03, 0x00, 0x00, 0x04, 0x00, 0x00, 0x00, 
    /*0060*/ 0xb0, 0x00, 0x00, 0x00, 0x00, 0x20, 0x00, 0x00, 0xe0, 0x03, 0x00, 0x00, 0x00, 0x01, 0x00, 0x00, 
    /*0070*/ 0xe8, 0x03, 0x00, 0x00, 0x00, 0x10, 0x00, 0x00, 
};

unsigned char rel.data.rel.ro.local._ZZNKSt7__cxx1112regex_traitsIcE16lookup_classnameIPKcEENS1_10_RegexMaskET_S6_bE12__classnames[120] = {
    /*0000*/ 0x00, 0x00, 0x00, 0x00, 0x02, 0x4d, 0x06, 0x00, 0x08, 0x00, 0x00, 0x00, 0x02, 0x4d, 0x06, 0x00, 
    /*0010*/ 0x10, 0x00, 0x00, 0x00, 0x02, 0x4d, 0x06, 0x00, 0x18, 0x00, 0x00, 0x00, 0x02, 0x4d, 0x06, 0x00, 
    /*0020*/ 0x20, 0x00, 0x00, 0x00, 0x02, 0x4d, 0x06, 0x00, 0x28, 0x00, 0x00, 0x00, 0x02, 0x4d, 0x06, 0x00, 
    /*0030*/ 0x30, 0x00, 0x00, 0x00, 0x02, 0x4d, 0x06, 0x00, 0x38, 0x00, 0x00, 0x00, 0x02, 0x4d, 0x06, 0x00, 
    /*0040*/ 0x40, 0x00, 0x00, 0x00, 0x02, 0x4d, 0x06, 0x00, 0x48, 0x00, 0x00, 0x00, 0x02, 0x4d, 0x06, 0x00, 
    /*0050*/ 0x50, 0x00, 0x00, 0x00, 0x02, 0x4d, 0x06, 0x00, 0x58, 0x00, 0x00, 0x00, 0x02, 0x4d, 0x06, 0x00, 
    /*0060*/ 0x60, 0x00, 0x00, 0x00, 0x02, 0x4d, 0x06, 0x00, 0x68, 0x00, 0x00, 0x00, 0x02, 0x4d, 0x06, 0x00, 
    /*0070*/ 0x70, 0x00, 0x00, 0x00, 0x02, 0x4d, 0x06, 0x00, 
};

_RODATA__ZZNKST8__DETAIL9_EXECUTORIN9__GNU_CXX17__NORMAL_ITERATORIPKCNST7__CXX1112BASIC_STRINGICST11CHAR_TRAITSICESAICEEEEESAINS5_9SUB_MATCHISB_EEENS5_12REGEX_TRAITSICEELB1EE10_M_IS_WORDECE3__S_0000: .ascii "w\0"


_RODATA__ZZNKST8__DETAIL9_EXECUTORIN9__GNU_CXX17__NORMAL_ITERATORIPKCNST7__CXX1112BASIC_STRINGICST11CHAR_TRAITSICESAICEEEEESAINS5_9SUB_MATCHISB_EEENS5_12REGEX_TRAITSICEELB0EE10_M_IS_WORDECE3__S_0000: .ascii "w\0"


_RODATA_0000: .ascii "^\0\0\0",
_RODATA_0004: .ascii "\x16\0\0\0",
_RODATA_0008: .ascii "$\0\0\0",
_RODATA_000c: .ascii "\x17\0\0\0",
_RODATA_0010: .ascii ".\0\0\0",
_RODATA_0014: .ascii "\0\0\0\0",
_RODATA_0018: .ascii "*\0\0\0",
_RODATA_001c: .ascii "\x14\0\0\0",
_RODATA_0020: .ascii "+\0\0\0",
_RODATA_0024: .ascii "\x15\0\0\0",
_RODATA_0028: .ascii "?\0\0\0",
_RODATA_002c: .ascii "\x12\0\0\0",
_RODATA_0030: .ascii "|\0\0\0",
_RODATA_0034: .ascii "\x13\0\0\0",
_RODATA_0038: .ascii "\n\0\0\0",
_RODATA_003c: .ascii "\x13\0\0\0",
_RODATA_0040: .ascii "\0\0\0\0",
_RODATA_0044: .ascii "\x13\0\0\0",
_RODATA_0048: .ascii "0\0b\x08f\x0cn\nr\rt\tv\x0b\0\0",
_RODATA_0058: .ascii "\"\"//\\a\x07b\x08f\x0cn\nr\rt\tv\x0b\0\0"


unsigned char bss._ZL13BLOB_TYPE_MAP[24];

_RODATA__GLOBAL__SUB_I_MODELGROUPCONFIG_CPP_STR1_4_0000: .ascii "U8\0\0",
_RODATA__GLOBAL__SUB_I_MODELGROUPCONFIG_CPP_STR1_4_0004: .ascii "S32\0",
_RODATA__GLOBAL__SUB_I_MODELGROUPCONFIG_CPP_STR1_4_0008: .ascii "YVU420SP\0\0\0\0",
_RODATA__GLOBAL__SUB_I_MODELGROUPCONFIG_CPP_STR1_4_0014: .ascii "YVU422SP\0\0\0\0",
_RODATA__GLOBAL__SUB_I_MODELGROUPCONFIG_CPP_STR1_4_0020: .ascii "VEC_S32\0",
_RODATA__GLOBAL__SUB_I_MODELGROUPCONFIG_CPP_STR1_4_0028: .ascii "SEQ_S32\0",
_RODATA__GLOBAL__SUB_I_MODELGROUPCONFIG_CPP_STR1_4_0030: .ascii ""


_RODATA__Z14PARSEALIGNSIZERKNST7__CXX1112BASIC_STRINGICST11CHAR_TRAITSICESAICEEERJ_STR1_4_0000: .ascii "align_size\s*:\s*(\d+)\0\0",
_RODATA__Z14PARSEALIGNSIZERKNST7__CXX1112BASIC_STRINGICST11CHAR_TRAITSICESAICEEERJ_STR1_4_0018: .ascii "error: align_size is not %u and %u\0"


_RODATA__Z22PARSEMAXTMPBUFSIZEINMBRKNST7__CXX1112BASIC_STRINGICST11CHAR_TRAITSICESAICEEERJ_STR1_4_0000: .ascii "max_tmpbuf_size_mb\s*:\s*(\d+)\0"


_RODATA__ZL14PARSETOPBOTTOMRKNST7__CXX1112BASIC_STRINGICST11CHAR_TRAITSICESAICEEERKNS_11BASIC_REGEXICNS_12REGEX_TRAITSICEEEERST6VECTORIN10HIRTPARSER4BLOBESAISF_EE_STR1_4_0000: .ascii "basic_string::substr\0\0\0\0",
_RODATA__ZL14PARSETOPBOTTOMRKNST7__CXX1112BASIC_STRINGICST11CHAR_TRAITSICESAICEEERKNS_11BASIC_REGEXICNS_12REGEX_TRAITSICEEEERST6VECTORIN10HIRTPARSER4BLOBESAISF_EE_STR1_4_0018: .ascii "%s: __pos (which is %zu) > this->size() (which is %zu)\0\0",
_RODATA__ZL14PARSETOPBOTTOMRKNST7__CXX1112BASIC_STRINGICST11CHAR_TRAITSICESAICEEERKNS_11BASIC_REGEXICNS_12REGEX_TRAITSICEEEERST6VECTORIN10HIRTPARSER4BLOBESAISF_EE_STR1_4_0050: .ascii "top big parantheses not match\0\0\0",
_RODATA__ZL14PARSETOPBOTTOMRKNST7__CXX1112BASIC_STRINGICST11CHAR_TRAITSICESAICEEERKNS_11BASIC_REGEXICNS_12REGEX_TRAITSICEEEERST6VECTORIN10HIRTPARSER4BLOBESAISF_EE_STR1_4_0070: .ascii "\0"


_RODATA__ZL4STOURKNST7__CXX1112BASIC_STRINGICST11CHAR_TRAITSICESAICEEE_STR1_4_0000: .ascii "stoll\0\0\0",
_RODATA__ZL4STOURKNST7__CXX1112BASIC_STRINGICST11CHAR_TRAITSICESAICEEE_STR1_4_0008: .ascii "stou number < 0 or > max(HI_U32)\0\0\0\0",
_RODATA__ZL4STOURKNST7__CXX1112BASIC_STRINGICST11CHAR_TRAITSICESAICEEE_STR1_4_002c: .ascii "hirt\0\0\0\0",
_RODATA__ZL4STOURKNST7__CXX1112BASIC_STRINGICST11CHAR_TRAITSICESAICEEE_STR1_4_0034: .ascii "stou out_of_range\0"


_RODATA__ZL9PARSENAMENST7__CXX1112BASIC_STRINGICST11CHAR_TRAITSICESAICEEERS4__STR1_4_0000: .ascii "name\s*:\s*\"([\w\.-]*)\"\0",
_RODATA__ZL9PARSENAMENST7__CXX1112BASIC_STRINGICST11CHAR_TRAITSICESAICEEERS4__STR1_4_0018: .ascii ""


_RODATA__ZN10HIRTPARSER16MODELGROUPCONFIG15PARSEFROMSTRINGERKNST7__CXX1112BASIC_STRINGICST11CHAR_TRAITSICESAICEEEPS0__STR1_4_0000: .ascii "input\s*\{\0\0",
_RODATA__ZN10HIRTPARSER16MODELGROUPCONFIG15PARSEFROMSTRINGERKNST7__CXX1112BASIC_STRINGICST11CHAR_TRAITSICESAICEEEPS0__STR1_4_000c: .ascii "model\s*\{\0\0",
_RODATA__ZN10HIRTPARSER16MODELGROUPCONFIG15PARSEFROMSTRINGERKNST7__CXX1112BASIC_STRINGICST11CHAR_TRAITSICESAICEEEPS0__STR1_4_0018: .ascii "connector\s*\{\0\0",
_RODATA__ZN10HIRTPARSER16MODELGROUPCONFIG15PARSEFROMSTRINGERKNST7__CXX1112BASIC_STRINGICST11CHAR_TRAITSICESAICEEEPS0__STR1_4_0028: .ascii "#.*\0",
_RODATA__ZN10HIRTPARSER16MODELGROUPCONFIG15PARSEFROMSTRINGERKNST7__CXX1112BASIC_STRINGICST11CHAR_TRAITSICESAICEEEPS0__STR1_4_002c: .ascii "input big parantheses not match\0",
_RODATA__ZN10HIRTPARSER16MODELGROUPCONFIG15PARSEFROMSTRINGERKNST7__CXX1112BASIC_STRINGICST11CHAR_TRAITSICESAICEEEPS0__STR1_4_004c: .ascii "basic_string::erase\0",
_RODATA__ZN10HIRTPARSER16MODELGROUPCONFIG15PARSEFROMSTRINGERKNST7__CXX1112BASIC_STRINGICST11CHAR_TRAITSICESAICEEEPS0__STR1_4_0060: .ascii "model big parantheses not match\0",
_RODATA__ZN10HIRTPARSER16MODELGROUPCONFIG15PARSEFROMSTRINGERKNST7__CXX1112BASIC_STRINGICST11CHAR_TRAITSICESAICEEEPS0__STR1_4_0080: .ascii "model parse fail\0\0\0\0",
_RODATA__ZN10HIRTPARSER16MODELGROUPCONFIG15PARSEFROMSTRINGERKNST7__CXX1112BASIC_STRINGICST11CHAR_TRAITSICESAICEEEPS0__STR1_4_0094: .ascii "connector big parantheses not match\0",
_RODATA__ZN10HIRTPARSER16MODELGROUPCONFIG15PARSEFROMSTRINGERKNST7__CXX1112BASIC_STRINGICST11CHAR_TRAITSICESAICEEEPS0__STR1_4_00b8: .ascii "connector parse fail\0\0\0\0",
_RODATA__ZN10HIRTPARSER16MODELGROUPCONFIG15PARSEFROMSTRINGERKNST7__CXX1112BASIC_STRINGICST11CHAR_TRAITSICESAICEEEPS0__STR1_4_00d0: .ascii "group has no name\0\0\0",
_RODATA__ZN10HIRTPARSER16MODELGROUPCONFIG15PARSEFROMSTRINGERKNST7__CXX1112BASIC_STRINGICST11CHAR_TRAITSICESAICEEEPS0__STR1_4_00e4: .ascii "priority\s*:\s*(\d+)\0\0\0\0",
_RODATA__ZN10HIRTPARSER16MODELGROUPCONFIG15PARSEFROMSTRINGERKNST7__CXX1112BASIC_STRINGICST11CHAR_TRAITSICESAICEEEPS0__STR1_4_00fc: .ascii "priority parse fail\0",
_RODATA__ZN10HIRTPARSER16MODELGROUPCONFIG15PARSEFROMSTRINGERKNST7__CXX1112BASIC_STRINGICST11CHAR_TRAITSICESAICEEEPS0__STR1_4_0110: .ascii "max_tmpbuf_size_mb parse fail\0\0\0",
_RODATA__ZN10HIRTPARSER16MODELGROUPCONFIG15PARSEFROMSTRINGERKNST7__CXX1112BASIC_STRINGICST11CHAR_TRAITSICESAICEEEPS0__STR1_4_0130: .ascii "align_size parse fail\0"


_RODATA__ZN10HIRTPARSER4BLOB5PARSEERKNST7__CXX1112BASIC_STRINGICST11CHAR_TRAITSICESAICEEE_STR1_4_0000: .ascii "shape\s*:\s*\{([^}]+)\}\0",
_RODATA__ZN10HIRTPARSER4BLOB5PARSEERKNST7__CXX1112BASIC_STRINGICST11CHAR_TRAITSICESAICEEE_STR1_4_0018: .ascii "dim\s*:\s*(\d+)\0",
_RODATA__ZN10HIRTPARSER4BLOB5PARSEERKNST7__CXX1112BASIC_STRINGICST11CHAR_TRAITSICESAICEEE_STR1_4_0028: .ascii "type\s*:\s*(\w+)\0\0\0\0",
_RODATA__ZN10HIRTPARSER4BLOB5PARSEERKNST7__CXX1112BASIC_STRINGICST11CHAR_TRAITSICESAICEEE_STR1_4_003c: .ascii "report_flag\s*:\s*(\w+)\0",
_RODATA__ZN10HIRTPARSER4BLOB5PARSEERKNST7__CXX1112BASIC_STRINGICST11CHAR_TRAITSICESAICEEE_STR1_4_0054: .ascii "frame_depend\s*:\s*(\-?\d+)\0",
_RODATA__ZN10HIRTPARSER4BLOB5PARSEERKNST7__CXX1112BASIC_STRINGICST11CHAR_TRAITSICESAICEEE_STR1_4_0070: .ascii "blob name parse fail\0\0\0\0",
_RODATA__ZN10HIRTPARSER4BLOB5PARSEERKNST7__CXX1112BASIC_STRINGICST11CHAR_TRAITSICESAICEEE_STR1_4_0088: .ascii "stoi\0\0\0\0",
_RODATA__ZN10HIRTPARSER4BLOB5PARSEERKNST7__CXX1112BASIC_STRINGICST11CHAR_TRAITSICESAICEEE_STR1_4_0090: .ascii "%s shape should has 4 dims\0\0",
_RODATA__ZN10HIRTPARSER4BLOB5PARSEERKNST7__CXX1112BASIC_STRINGICST11CHAR_TRAITSICESAICEEE_STR1_4_00ac: .ascii "Blob type is wrong\0\0",
_RODATA__ZN10HIRTPARSER4BLOB5PARSEERKNST7__CXX1112BASIC_STRINGICST11CHAR_TRAITSICESAICEEE_STR1_4_00c0: .ascii "true\0\0\0\0",
_RODATA__ZN10HIRTPARSER4BLOB5PARSEERKNST7__CXX1112BASIC_STRINGICST11CHAR_TRAITSICESAICEEE_STR1_4_00c8: .ascii "false\0\0\0",
_RODATA__ZN10HIRTPARSER4BLOB5PARSEERKNST7__CXX1112BASIC_STRINGICST11CHAR_TRAITSICESAICEEE_STR1_4_00d0: .ascii "report flag is wrong, only true/false support: %s\0\0\0",
_RODATA__ZN10HIRTPARSER4BLOB5PARSEERKNST7__CXX1112BASIC_STRINGICST11CHAR_TRAITSICESAICEEE_STR1_4_0104: .ascii "blob %s shape dim out of range\0\0",
_RODATA__ZN10HIRTPARSER4BLOB5PARSEERKNST7__CXX1112BASIC_STRINGICST11CHAR_TRAITSICESAICEEE_STR1_4_0124: .ascii "blob %s frame_depend out of range\0\0\0",
_RODATA__ZN10HIRTPARSER4BLOB5PARSEERKNST7__CXX1112BASIC_STRINGICST11CHAR_TRAITSICESAICEEE_STR1_4_0148: .ascii "map::at\0",
_RODATA__ZN10HIRTPARSER4BLOB5PARSEERKNST7__CXX1112BASIC_STRINGICST11CHAR_TRAITSICESAICEEE_STR1_4_0150: .ascii ""


_RODATA__ZN10HIRTPARSER5MODEL5PARSEERKNST7__CXX1112BASIC_STRINGICST11CHAR_TRAITSICESAICEEE_STR1_4_0000: .ascii "cops\s*\{\s*([^}]+)\0",
_RODATA__ZN10HIRTPARSER5MODEL5PARSEERKNST7__CXX1112BASIC_STRINGICST11CHAR_TRAITSICESAICEEE_STR1_4_0014: .ascii "hirt_batch_num\s*:\s*(\d+)\0\0",
_RODATA__ZN10HIRTPARSER5MODEL5PARSEERKNST7__CXX1112BASIC_STRINGICST11CHAR_TRAITSICESAICEEE_STR1_4_0030: .ascii "hirt_batch_num parse fail\0\0\0",
_RODATA__ZN10HIRTPARSER5MODEL5PARSEERKNST7__CXX1112BASIC_STRINGICST11CHAR_TRAITSICESAICEEE_STR1_4_004c: .ascii "cop name parse fail\0",
_RODATA__ZN10HIRTPARSER5MODEL5PARSEERKNST7__CXX1112BASIC_STRINGICST11CHAR_TRAITSICESAICEEE_STR1_4_0060: .ascii ""


_RODATA__ZN10HIRTPARSER9GROUPITEM5PARSEERKNST7__CXX1112BASIC_STRINGICST11CHAR_TRAITSICESAICEEE_STR1_4_0000: .ascii "top\s*:\s*\{\0\0\0\0",
_RODATA__ZN10HIRTPARSER9GROUPITEM5PARSEERKNST7__CXX1112BASIC_STRINGICST11CHAR_TRAITSICESAICEEE_STR1_4_0010: .ascii "bottom\s*:\s*\{\0",
_RODATA__ZN10HIRTPARSER9GROUPITEM5PARSEERKNST7__CXX1112BASIC_STRINGICST11CHAR_TRAITSICESAICEEE_STR1_4_0020: .ascii "%s's top parse fail\0",
_RODATA__ZN10HIRTPARSER9GROUPITEM5PARSEERKNST7__CXX1112BASIC_STRINGICST11CHAR_TRAITSICESAICEEE_STR1_4_0034: .ascii "%s's bottom parse fail\0"


_RODATA__ZNST6VECTORINST7__CXX119SUB_MATCHIN9__GNU_CXX17__NORMAL_ITERATORIPKCNS0_12BASIC_STRINGICST11CHAR_TRAITSICESAICEEEEEEESAISC_EE17_M_DEFAULT_APPENDEJ_STR1_4_0000: .ascii "vector::_M_default_append\0"


_RODATA__ZNST6VECTORICSAICEE12EMPLACE_BACKIJCEEEVDPOT__STR1_4_0000: .ascii "vector::_M_emplace_back_aux\0",
_RODATA__ZNST6VECTORICSAICEE12EMPLACE_BACKIJCEEEVDPOT__STR1_4_001c: .ascii ""


_RODATA__ZNST7__CXX1112BASIC_STRINGICST11CHAR_TRAITSICESAICEE12_M_CONSTRUCTIPCEEVT_S7_ST20FORWARD_ITERATOR_TAG_ISRA_120_STR1_4_0000: .ascii "basic_string::_M_construct null not valid\0"


_RODATA__ZNST8__DETAIL15_BRACKETMATCHERINST7__CXX1112REGEX_TRAITSICEELB0ELB0EE22_M_ADD_CHARACTER_CLASSERKNS1_12BASIC_STRINGICST11CHAR_TRAITSICESAICEEEB_STR1_4_0000: .ascii "Invalid character class.\0"


_RODATA__ZNST8__DETAIL4_NFAINST7__CXX1112REGEX_TRAITSICEEE15_M_INSERT_STATEENS_6_STATEICEE_STR1_4_0000: .ascii "Number of NFA states exceeds limit. Please use shorter regex string, or use smaller brace expression, or make _GLIBCXX_REGEX_STATE_LIMIT larger.\0"


_RODATA__ZNST8__DETAIL4_NFAINST7__CXX1112REGEX_TRAITSICEEE17_M_INSERT_BACKREFEJ_STR1_4_0000: .ascii "Unexpected back-reference in polynomial mode.\0\0\0",
_RODATA__ZNST8__DETAIL4_NFAINST7__CXX1112REGEX_TRAITSICEEE17_M_INSERT_BACKREFEJ_STR1_4_0030: .ascii "Back-reference index exceeds current sub-expression count.\0\0",
_RODATA__ZNST8__DETAIL4_NFAINST7__CXX1112REGEX_TRAITSICEEE17_M_INSERT_BACKREFEJ_STR1_4_006c: .ascii "Back-reference referred to an opened sub-expression.\0"


_RODATA__ZNST8__DETAIL8_SCANNERICE12_M_EAT_CLASSEC_STR1_4_0000: .ascii "Unexpected end of character class.\0"


_RODATA__ZNST8__DETAIL8_SCANNERICE14_M_SCAN_NORMALEV_STR1_4_0000: .ascii "Unexpected end of regex when in an open parenthesis.\0\0\0\0",
_RODATA__ZNST8__DETAIL8_SCANNERICE14_M_SCAN_NORMALEV_STR1_4_0038: .ascii "Invalid special open parenthesis.\0"


_RODATA__ZNST8__DETAIL8_SCANNERICE16_M_SCAN_IN_BRACEEV_STR1_4_0000: .ascii "Unexpected end of regex when in brace expression.\0\0\0",
_RODATA__ZNST8__DETAIL8_SCANNERICE16_M_SCAN_IN_BRACEEV_STR1_4_0034: .ascii "Unexpected character in brace expression.\0"


_RODATA__ZNST8__DETAIL8_SCANNERICE17_M_EAT_ESCAPE_AWKEV_STR1_4_0000: .ascii "Unexpected escape character.\0"


_RODATA__ZNST8__DETAIL8_SCANNERICE18_M_EAT_ESCAPE_ECMAEV_STR1_4_0000: .ascii "Unexpected end of regex when escaping.\0\0",
_RODATA__ZNST8__DETAIL8_SCANNERICE18_M_EAT_ESCAPE_ECMAEV_STR1_4_0028: .ascii "Unexpected end of regex when reading control code.\0\0",
_RODATA__ZNST8__DETAIL8_SCANNERICE18_M_EAT_ESCAPE_ECMAEV_STR1_4_005c: .ascii "Unexpected end of regex when ascii character.\0"


_RODATA__ZNST8__DETAIL8_SCANNERICE18_M_SCAN_IN_BRACKETEV_STR1_4_0000: .ascii "Unexpected end of regex when in bracket expression.\0",
_RODATA__ZNST8__DETAIL8_SCANNERICE18_M_SCAN_IN_BRACKETEV_STR1_4_0034: .ascii "Unexpected character class open bracket.\0"


_RODATA__ZNST8__DETAIL8_SCANNERICEC2EPKCS3_NST15REGEX_CONSTANTS18SYNTAX_OPTION_TYPEEST6LOCALE_STR1_4_0000: .ascii "^$\.*+?()[]{}|\0\0",
_RODATA__ZNST8__DETAIL8_SCANNERICEC2EPKCS3_NST15REGEX_CONSTANTS18SYNTAX_OPTION_TYPEEST6LOCALE_STR1_4_0010: .ascii ".[\*^$\0\0",
_RODATA__ZNST8__DETAIL8_SCANNERICEC2EPKCS3_NST15REGEX_CONSTANTS18SYNTAX_OPTION_TYPEEST6LOCALE_STR1_4_0018: .ascii ".[\()*+?{|^$\0\0\0\0",
_RODATA__ZNST8__DETAIL8_SCANNERICEC2EPKCS3_NST15REGEX_CONSTANTS18SYNTAX_OPTION_TYPEEST6LOCALE_STR1_4_0028: .ascii ".[\*^$\n\0",
_RODATA__ZNST8__DETAIL8_SCANNERICEC2EPKCS3_NST15REGEX_CONSTANTS18SYNTAX_OPTION_TYPEEST6LOCALE_STR1_4_0030: .ascii ".[\()*+?{|^$\n\0"


_RODATA__ZNST8__DETAIL9_COMPILERINST7__CXX1112REGEX_TRAITSICEEE13_M_QUANTIFIEREV_STR1_4_0000: .ascii "Invalid range in brace expression.\0\0",
_RODATA__ZNST8__DETAIL9_COMPILERINST7__CXX1112REGEX_TRAITSICEEE13_M_QUANTIFIEREV_STR1_4_0024: .ascii "Unexpected token in brace expression.\0\0\0",
_RODATA__ZNST8__DETAIL9_COMPILERINST7__CXX1112REGEX_TRAITSICEEE13_M_QUANTIFIEREV_STR1_4_004c: .ascii "Unexpected end of brace expression.\0",
_RODATA__ZNST8__DETAIL9_COMPILERINST7__CXX1112REGEX_TRAITSICEEE13_M_QUANTIFIEREV_STR1_4_0070: .ascii ""


_RODATA__ZNST8__DETAIL9_COMPILERINST7__CXX1112REGEX_TRAITSICEEE18_M_EXPRESSION_TERMILB0ELB0EEEBRST4PAIRIBCERNS_15_BRACKETMATCHERIS3_XT_EXT0_EEE_STR1_4_0000: .ascii "Invalid collate element.\0\0\0\0",
_RODATA__ZNST8__DETAIL9_COMPILERINST7__CXX1112REGEX_TRAITSICEEE18_M_EXPRESSION_TERMILB0ELB0EEEBRST4PAIRIBCERNS_15_BRACKETMATCHERIS3_XT_EXT0_EEE_STR1_4_001c: .ascii "Invalid equivalence class.\0\0",
_RODATA__ZNST8__DETAIL9_COMPILERINST7__CXX1112REGEX_TRAITSICEEE18_M_EXPRESSION_TERMILB0ELB0EEEBRST4PAIRIBCERNS_15_BRACKETMATCHERIS3_XT_EXT0_EEE_STR1_4_0038: .ascii "Invalid range in bracket expression.\0\0\0\0",
_RODATA__ZNST8__DETAIL9_COMPILERINST7__CXX1112REGEX_TRAITSICEEE18_M_EXPRESSION_TERMILB0ELB0EEEBRST4PAIRIBCERNS_15_BRACKETMATCHERIS3_XT_EXT0_EEE_STR1_4_0060: .ascii "Unexpected end of bracket expression.\0\0\0",
_RODATA__ZNST8__DETAIL9_COMPILERINST7__CXX1112REGEX_TRAITSICEEE18_M_EXPRESSION_TERMILB0ELB0EEEBRST4PAIRIBCERNS_15_BRACKETMATCHERIS3_XT_EXT0_EEE_STR1_4_0088: .ascii "Unexpected dash in bracket expression. For POSIX syntax, a dash is not treated literally only when it is at beginning or end.\0\0\0",
_RODATA__ZNST8__DETAIL9_COMPILERINST7__CXX1112REGEX_TRAITSICEEE18_M_EXPRESSION_TERMILB0ELB0EEEBRST4PAIRIBCERNS_15_BRACKETMATCHERIS3_XT_EXT0_EEE_STR1_4_0108: .ascii "Unexpected character in bracket expression.\0",
_RODATA__ZNST8__DETAIL9_COMPILERINST7__CXX1112REGEX_TRAITSICEEE18_M_EXPRESSION_TERMILB0ELB0EEEBRST4PAIRIBCERNS_15_BRACKETMATCHERIS3_XT_EXT0_EEE_STR1_4_0134: .ascii ""


_RODATA__ZNST8__DETAIL9_COMPILERINST7__CXX1112REGEX_TRAITSICEEE7_M_ATOMEV_STR1_4_0000: .ascii "Parenthesis is not closed.\0"


_RODATA__ZZNST8__DETAIL9_COMPILERINST7__CXX1112REGEX_TRAITSICEEE13_M_QUANTIFIEREVENKULVE_CLEV_STR1_4_0000: .ascii "Nothing to repeat before a quantifier.\0"


_RODATA_STR1_4_0000: .ascii "NUL\0",
_RODATA_STR1_4_0004: .ascii "SOH\0",
_RODATA_STR1_4_0008: .ascii "STX\0",
_RODATA_STR1_4_000c: .ascii "ETX\0",
_RODATA_STR1_4_0010: .ascii "EOT\0",
_RODATA_STR1_4_0014: .ascii "ENQ\0",
_RODATA_STR1_4_0018: .ascii "ACK\0",
_RODATA_STR1_4_001c: .ascii "alert\0\0\0",
_RODATA_STR1_4_0024: .ascii "backspace\0\0\0",
_RODATA_STR1_4_0030: .ascii "tab\0",
_RODATA_STR1_4_0034: .ascii "newline\0",
_RODATA_STR1_4_003c: .ascii "vertical-tab\0\0\0\0",
_RODATA_STR1_4_004c: .ascii "form-feed\0\0\0",
_RODATA_STR1_4_0058: .ascii "carriage-return\0",
_RODATA_STR1_4_0068: .ascii "SO\0\0",
_RODATA_STR1_4_006c: .ascii "SI\0\0",
_RODATA_STR1_4_0070: .ascii "DLE\0",
_RODATA_STR1_4_0074: .ascii "DC1\0",
_RODATA_STR1_4_0078: .ascii "DC2\0",
_RODATA_STR1_4_007c: .ascii "DC3\0",
_RODATA_STR1_4_0080: .ascii "DC4\0",
_RODATA_STR1_4_0084: .ascii "NAK\0",
_RODATA_STR1_4_0088: .ascii "SYN\0",
_RODATA_STR1_4_008c: .ascii "ETB\0",
_RODATA_STR1_4_0090: .ascii "CAN\0",
_RODATA_STR1_4_0094: .ascii "EM\0\0",
_RODATA_STR1_4_0098: .ascii "SUB\0",
_RODATA_STR1_4_009c: .ascii "ESC\0",
_RODATA_STR1_4_00a0: .ascii "IS4\0",
_RODATA_STR1_4_00a4: .ascii "IS3\0",
_RODATA_STR1_4_00a8: .ascii "IS2\0",
_RODATA_STR1_4_00ac: .ascii "IS1\0",
_RODATA_STR1_4_00b0: .ascii "space\0\0\0",
_RODATA_STR1_4_00b8: .ascii "exclamation-mark\0\0\0\0",
_RODATA_STR1_4_00cc: .ascii "quotation-mark\0\0",
_RODATA_STR1_4_00dc: .ascii "number-sign\0",
_RODATA_STR1_4_00e8: .ascii "dollar-sign\0",
_RODATA_STR1_4_00f4: .ascii "percent-sign\0\0\0\0",
_RODATA_STR1_4_0104: .ascii "ampersand\0\0\0",
_RODATA_STR1_4_0110: .ascii "apostrophe\0\0",
_RODATA_STR1_4_011c: .ascii "left-parenthesis\0\0\0\0",
_RODATA_STR1_4_0130: .ascii "right-parenthesis\0\0\0",
_RODATA_STR1_4_0144: .ascii "asterisk\0\0\0\0",
_RODATA_STR1_4_0150: .ascii "plus-sign\0\0\0",
_RODATA_STR1_4_015c: .ascii "comma\0\0\0",
_RODATA_STR1_4_0164: .ascii "hyphen\0\0",
_RODATA_STR1_4_016c: .ascii "period\0\0",
_RODATA_STR1_4_0174: .ascii "slash\0\0\0",
_RODATA_STR1_4_017c: .ascii "zero\0\0\0\0",
_RODATA_STR1_4_0184: .ascii "one\0",
_RODATA_STR1_4_0188: .ascii "two\0",
_RODATA_STR1_4_018c: .ascii "three\0\0\0",
_RODATA_STR1_4_0194: .ascii "four\0\0\0\0",
_RODATA_STR1_4_019c: .ascii "five\0\0\0\0",
_RODATA_STR1_4_01a4: .ascii "six\0",
_RODATA_STR1_4_01a8: .ascii "seven\0\0\0",
_RODATA_STR1_4_01b0: .ascii "eight\0\0\0",
_RODATA_STR1_4_01b8: .ascii "nine\0\0\0\0",
_RODATA_STR1_4_01c0: .ascii "colon\0\0\0",
_RODATA_STR1_4_01c8: .ascii "semicolon\0\0\0",
_RODATA_STR1_4_01d4: .ascii "less-than-sign\0\0",
_RODATA_STR1_4_01e4: .ascii "equals-sign\0",
_RODATA_STR1_4_01f0: .ascii "greater-than-sign\0\0\0",
_RODATA_STR1_4_0204: .ascii "question-mark\0\0\0",
_RODATA_STR1_4_0214: .ascii "commercial-at\0\0\0",
_RODATA_STR1_4_0224: .ascii "A\0\0\0",
_RODATA_STR1_4_0228: .ascii "B\0\0\0",
_RODATA_STR1_4_022c: .ascii "C\0\0\0",
_RODATA_STR1_4_0230: .ascii "D\0\0\0",
_RODATA_STR1_4_0234: .ascii "E\0\0\0",
_RODATA_STR1_4_0238: .ascii "F\0\0\0",
_RODATA_STR1_4_023c: .ascii "G\0\0\0",
_RODATA_STR1_4_0240: .ascii "H\0\0\0",
_RODATA_STR1_4_0244: .ascii "I\0\0\0",
_RODATA_STR1_4_0248: .ascii "J\0\0\0",
_RODATA_STR1_4_024c: .ascii "K\0\0\0",
_RODATA_STR1_4_0250: .ascii "L\0\0\0",
_RODATA_STR1_4_0254: .ascii "M\0\0\0",
_RODATA_STR1_4_0258: .ascii "N\0\0\0",
_RODATA_STR1_4_025c: .ascii "O\0\0\0",
_RODATA_STR1_4_0260: .ascii "P\0\0\0",
_RODATA_STR1_4_0264: .ascii "Q\0\0\0",
_RODATA_STR1_4_0268: .ascii "R\0\0\0",
_RODATA_STR1_4_026c: .ascii "S\0\0\0",
_RODATA_STR1_4_0270: .ascii "T\0\0\0",
_RODATA_STR1_4_0274: .ascii "U\0\0\0",
_RODATA_STR1_4_0278: .ascii "V\0\0\0",
_RODATA_STR1_4_027c: .ascii "W\0\0\0",
_RODATA_STR1_4_0280: .ascii "X\0\0\0",
_RODATA_STR1_4_0284: .ascii "Y\0\0\0",
_RODATA_STR1_4_0288: .ascii "Z\0\0\0",
_RODATA_STR1_4_028c: .ascii "left-square-bracket\0",
_RODATA_STR1_4_02a0: .ascii "backslash\0\0\0",
_RODATA_STR1_4_02ac: .ascii "right-square-bracket\0\0\0\0",
_RODATA_STR1_4_02c4: .ascii "circumflex\0\0",
_RODATA_STR1_4_02d0: .ascii "underscore\0\0",
_RODATA_STR1_4_02dc: .ascii "grave-accent\0\0\0\0",
_RODATA_STR1_4_02ec: .ascii "a\0\0\0",
_RODATA_STR1_4_02f0: .ascii "b\0\0\0",
_RODATA_STR1_4_02f4: .ascii "c\0\0\0",
_RODATA_STR1_4_02f8: .ascii "d\0\0\0",
_RODATA_STR1_4_02fc: .ascii "e\0\0\0",
_RODATA_STR1_4_0300: .ascii "f\0\0\0",
_RODATA_STR1_4_0304: .ascii "g\0\0\0",
_RODATA_STR1_4_0308: .ascii "h\0\0\0",
_RODATA_STR1_4_030c: .ascii "i\0\0\0",
_RODATA_STR1_4_0310: .ascii "j\0\0\0",
_RODATA_STR1_4_0314: .ascii "k\0\0\0",
_RODATA_STR1_4_0318: .ascii "l\0\0\0",
_RODATA_STR1_4_031c: .ascii "m\0\0\0",
_RODATA_STR1_4_0320: .ascii "n\0\0\0",
_RODATA_STR1_4_0324: .ascii "o\0\0\0",
_RODATA_STR1_4_0328: .ascii "p\0\0\0",
_RODATA_STR1_4_032c: .ascii "q\0\0\0",
_RODATA_STR1_4_0330: .ascii "r\0\0\0",
_RODATA_STR1_4_0334: .ascii "s\0\0\0",
_RODATA_STR1_4_0338: .ascii "t\0\0\0",
_RODATA_STR1_4_033c: .ascii "u\0\0\0",
_RODATA_STR1_4_0340: .ascii "v\0\0\0",
_RODATA_STR1_4_0344: .ascii "w\0\0\0",
_RODATA_STR1_4_0348: .ascii "x\0\0\0",
_RODATA_STR1_4_034c: .ascii "y\0\0\0",
_RODATA_STR1_4_0350: .ascii "z\0\0\0",
_RODATA_STR1_4_0354: .ascii "left-curly-bracket\0\0",
_RODATA_STR1_4_0368: .ascii "vertical-line\0\0\0",
_RODATA_STR1_4_0378: .ascii "right-curly-bracket\0",
_RODATA_STR1_4_038c: .ascii "tilde\0\0\0",
_RODATA_STR1_4_0394: .ascii "DEL\0",
_RODATA_STR1_4_0398: .ascii "alnum\0\0\0",
_RODATA_STR1_4_03a0: .ascii "alpha\0\0\0",
_RODATA_STR1_4_03a8: .ascii "blank\0\0\0",
_RODATA_STR1_4_03b0: .ascii "cntrl\0\0\0",
_RODATA_STR1_4_03b8: .ascii "digit\0\0\0",
_RODATA_STR1_4_03c0: .ascii "graph\0\0\0",
_RODATA_STR1_4_03c8: .ascii "lower\0\0\0",
_RODATA_STR1_4_03d0: .ascii "print\0\0\0",
_RODATA_STR1_4_03d8: .ascii "punct\0\0\0",
_RODATA_STR1_4_03e0: .ascii "upper\0\0\0",
_RODATA_STR1_4_03e8: .ascii "xdigit\0"


@ - - - - - - - - - - - - - - - - - - - - - - - - - - - - - 
@ .text._ZNKSt5ctypeIcE8do_widenEc
@ Size: 0x8
@ - - - - - - - - - - - - - - - - - - - - - - - - - - - - - 

FUNC_BEGIN _ZNKSt5ctypeIcE8do_widenEc
    /*00000000*/ MOV         R0, R1 
    /*00000004*/ BX          LR 
FUNC_END _ZNKSt5ctypeIcE8do_widenEc


@ - - - - - - - - - - - - - - - - - - - - - - - - - - - - - 
@ .text._ZNKSt5ctypeIcE9do_narrowEcc
@ Size: 0x8
@ - - - - - - - - - - - - - - - - - - - - - - - - - - - - - 

FUNC_BEGIN _ZNKSt5ctypeIcE9do_narrowEcc
    /*00000000*/ MOV         R0, R1 
    /*00000004*/ BX          LR 
FUNC_END _ZNKSt5ctypeIcE9do_narrowEcc


@ - - - - - - - - - - - - - - - - - - - - - - - - - - - - - 
@ .text._ZL22findLastBigParanthesesRKNSt7__cxx1112basic_stringIcSt11char_traitsIcESaIcEEE
@ Size: 0x5c
@ - - - - - - - - - - - - - - - - - - - - - - - - - - - - - 

FUNC_BEGIN _ZL22findLastBigParanthesesRKNSt7__cxx1112basic_stringIcSt11char_traitsIcESaIcEEE
    /*00000000*/ PUSH        {LR}                        @ (str lr, [sp, #-4]!) 
    /*00000004*/ LDM         R0, {IP, LR} 
    /*00000008*/ ADD         LR, IP, LR 
    /*0000000c*/ CMP         LR, IP 
    /*00000010*/ BEQ         _ZL22findLastBigParanthesesRKNSt7__cxx1112basic_stringIcSt11char_traitsIcESaIcEEE_x54
    /*00000014*/ MOV         R3, IP 
    /*00000018*/ MOV         R1, #0 
    /*0000001c*/ B           _ZL22findLastBigParanthesesRKNSt7__cxx1112basic_stringIcSt11char_traitsIcESaIcEEE_x28
    _ZL22findLastBigParanthesesRKNSt7__cxx1112basic_stringIcSt11char_traitsIcESaIcEEE_x20:
    /*00000020*/ CMP         LR, R3 
    /*00000024*/ BEQ         _ZL22findLastBigParanthesesRKNSt7__cxx1112basic_stringIcSt11char_traitsIcESaIcEEE_x54
    _ZL22findLastBigParanthesesRKNSt7__cxx1112basic_stringIcSt11char_traitsIcESaIcEEE_x28:
    /*00000028*/ LDRB        R2, [R3], #1 
    /*0000002c*/ SUB         R0, R3, IP 
    /*00000030*/ CMP         R2, #123                    @ 0x7b 
    /*00000034*/ ADDEQ       R1, R1, #1 
    /*00000038*/ BEQ         _ZL22findLastBigParanthesesRKNSt7__cxx1112basic_stringIcSt11char_traitsIcESaIcEEE_x20
    /*0000003c*/ CMP         R2, #125                    @ 0x7d 
    /*00000040*/ BNE         _ZL22findLastBigParanthesesRKNSt7__cxx1112basic_stringIcSt11char_traitsIcESaIcEEE_x20
    /*00000044*/ SUBS        R1, R1, #1 
    /*00000048*/ POPEQ       {PC}                        @ (ldreq pc, [sp], #4) 
    /*0000004c*/ CMN         R1, #1 
    /*00000050*/ BNE         _ZL22findLastBigParanthesesRKNSt7__cxx1112basic_stringIcSt11char_traitsIcESaIcEEE_x20
    _ZL22findLastBigParanthesesRKNSt7__cxx1112basic_stringIcSt11char_traitsIcESaIcEEE_x54:
    /*00000054*/ MOV         R0, #0 
    /*00000058*/ POP         {PC}                        @ (ldr pc, [sp], #4) 
FUNC_END _ZL22findLastBigParanthesesRKNSt7__cxx1112basic_stringIcSt11char_traitsIcESaIcEEE


@ - - - - - - - - - - - - - - - - - - - - - - - - - - - - - 
@ .text._ZNSt14_Function_base13_Base_managerINSt8__detail11_AnyMatcherINSt7__cxx1112regex_traitsIcEELb0ELb0ELb0EEEE10_M_managerERSt9_Any_dataRKS8_St18_Manager_operation
@ Size: 0x3c
@ - - - - - - - - - - - - - - - - - - - - - - - - - - - - - 

FUNC_BEGIN _ZNSt14_Function_base13_Base_managerINSt8__detail11_AnyMatcherINSt7__cxx1112regex_traitsIcEELb0ELb0ELb0EEEE10_M_managerERSt9_Any_dataRKS8_St18_Manager_operation
    /*00000000*/ LDR         R3, WORD_0034               @ LDR         R3, [PC, #44]               @ 0x0000000000000034 
    /*00000004*/ CMP         R2, #0 
    /*00000008*/ ADD         R3, PC, R3 
    /*0000000c*/ BEQ         _ZNSt14_Function_base13_Base_managerINSt8__detail11_AnyMatcherINSt7__cxx1112regex_traitsIcEELb0ELb0ELb0EEEE10_M_managerERSt9_Any_dataRKS8_St18_Manager_operation_x20
    /*00000010*/ CMP         R2, #1 
    /*00000014*/ STREQ       R1, [R0] 
    /*00000018*/ MOV         R0, #0 
    /*0000001c*/ BX          LR 
    _ZNSt14_Function_base13_Base_managerINSt8__detail11_AnyMatcherINSt7__cxx1112regex_traitsIcEELb0ELb0ELb0EEEE10_M_managerERSt9_Any_dataRKS8_St18_Manager_operation_x20:
    /*00000020*/ LDR         R2, WORD_0038               @ LDR         R2, [PC, #16]               @ 0x0000000000000038 
    /*00000024*/ LDR         R3, [R3, R2] 
    /*00000028*/ STR         R3, [R0] 
    /*0000002c*/ MOV         R0, #0 
    /*00000030*/ BX          LR 
    /*00000034*/ WORD_0034: .word 0x00000024
    /*00000038*/ WORD_0038: .word 0x00000000
FUNC_END _ZNSt14_Function_base13_Base_managerINSt8__detail11_AnyMatcherINSt7__cxx1112regex_traitsIcEELb0ELb0ELb0EEEE10_M_managerERSt9_Any_dataRKS8_St18_Manager_operation


@ - - - - - - - - - - - - - - - - - - - - - - - - - - - - - 
@ .text._ZNSt14_Function_base13_Base_managerINSt8__detail11_AnyMatcherINSt7__cxx1112regex_traitsIcEELb0ELb0ELb1EEEE10_M_managerERSt9_Any_dataRKS8_St18_Manager_operation
@ Size: 0x48
@ - - - - - - - - - - - - - - - - - - - - - - - - - - - - - 

FUNC_BEGIN _ZNSt14_Function_base13_Base_managerINSt8__detail11_AnyMatcherINSt7__cxx1112regex_traitsIcEELb0ELb0ELb1EEEE10_M_managerERSt9_Any_dataRKS8_St18_Manager_operation
    /*00000000*/ LDR         R3, WORD_0040               @ LDR         R3, [PC, #56]               @ 0x0000000000000040 
    /*00000004*/ CMP         R2, #1 
    /*00000008*/ STREQ       R1, [R0] 
    /*0000000c*/ ADD         R3, PC, R3 
    /*00000010*/ BEQ         _ZNSt14_Function_base13_Base_managerINSt8__detail11_AnyMatcherINSt7__cxx1112regex_traitsIcEELb0ELb0ELb1EEEE10_M_managerERSt9_Any_dataRKS8_St18_Manager_operation_x24
    /*00000014*/ BCC         _ZNSt14_Function_base13_Base_managerINSt8__detail11_AnyMatcherINSt7__cxx1112regex_traitsIcEELb0ELb0ELb1EEEE10_M_managerERSt9_Any_dataRKS8_St18_Manager_operation_x2c
    /*00000018*/ CMP         R2, #2 
    /*0000001c*/ LDREQ       R3, [R1] 
    /*00000020*/ STREQ       R3, [R0] 
    _ZNSt14_Function_base13_Base_managerINSt8__detail11_AnyMatcherINSt7__cxx1112regex_traitsIcEELb0ELb0ELb1EEEE10_M_managerERSt9_Any_dataRKS8_St18_Manager_operation_x24:
    /*00000024*/ MOV         R0, #0 
    /*00000028*/ BX          LR 
    _ZNSt14_Function_base13_Base_managerINSt8__detail11_AnyMatcherINSt7__cxx1112regex_traitsIcEELb0ELb0ELb1EEEE10_M_managerERSt9_Any_dataRKS8_St18_Manager_operation_x2c:
    /*0000002c*/ LDR         R2, WORD_0044               @ LDR         R2, [PC, #16]               @ 0x0000000000000044 
    /*00000030*/ LDR         R3, [R3, R2] 
    /*00000034*/ STR         R3, [R0] 
    /*00000038*/ MOV         R0, #0 
    /*0000003c*/ BX          LR 
    /*00000040*/ WORD_0040: .word 0x0000002c
    /*00000044*/ WORD_0044: .word 0x00000000
FUNC_END _ZNSt14_Function_base13_Base_managerINSt8__detail11_AnyMatcherINSt7__cxx1112regex_traitsIcEELb0ELb0ELb1EEEE10_M_managerERSt9_Any_dataRKS8_St18_Manager_operation


@ - - - - - - - - - - - - - - - - - - - - - - - - - - - - - 
@ .text._ZNSt14_Function_base13_Base_managerINSt8__detail11_AnyMatcherINSt7__cxx1112regex_traitsIcEELb0ELb1ELb0EEEE10_M_managerERSt9_Any_dataRKS8_St18_Manager_operation
@ Size: 0x48
@ - - - - - - - - - - - - - - - - - - - - - - - - - - - - - 

FUNC_BEGIN _ZNSt14_Function_base13_Base_managerINSt8__detail11_AnyMatcherINSt7__cxx1112regex_traitsIcEELb0ELb1ELb0EEEE10_M_managerERSt9_Any_dataRKS8_St18_Manager_operation
    /*00000000*/ LDR         R3, WORD_0040               @ LDR         R3, [PC, #56]               @ 0x0000000000000040 
    /*00000004*/ CMP         R2, #1 
    /*00000008*/ STREQ       R1, [R0] 
    /*0000000c*/ ADD         R3, PC, R3 
    /*00000010*/ BEQ         _ZNSt14_Function_base13_Base_managerINSt8__detail11_AnyMatcherINSt7__cxx1112regex_traitsIcEELb0ELb1ELb0EEEE10_M_managerERSt9_Any_dataRKS8_St18_Manager_operation_x24
    /*00000014*/ BCC         _ZNSt14_Function_base13_Base_managerINSt8__detail11_AnyMatcherINSt7__cxx1112regex_traitsIcEELb0ELb1ELb0EEEE10_M_managerERSt9_Any_dataRKS8_St18_Manager_operation_x2c
    /*00000018*/ CMP         R2, #2 
    /*0000001c*/ LDREQ       R3, [R1] 
    /*00000020*/ STREQ       R3, [R0] 
    _ZNSt14_Function_base13_Base_managerINSt8__detail11_AnyMatcherINSt7__cxx1112regex_traitsIcEELb0ELb1ELb0EEEE10_M_managerERSt9_Any_dataRKS8_St18_Manager_operation_x24:
    /*00000024*/ MOV         R0, #0 
    /*00000028*/ BX          LR 
    _ZNSt14_Function_base13_Base_managerINSt8__detail11_AnyMatcherINSt7__cxx1112regex_traitsIcEELb0ELb1ELb0EEEE10_M_managerERSt9_Any_dataRKS8_St18_Manager_operation_x2c:
    /*0000002c*/ LDR         R2, WORD_0044               @ LDR         R2, [PC, #16]               @ 0x0000000000000044 
    /*00000030*/ LDR         R3, [R3, R2] 
    /*00000034*/ STR         R3, [R0] 
    /*00000038*/ MOV         R0, #0 
    /*0000003c*/ BX          LR 
    /*00000040*/ WORD_0040: .word 0x0000002c
    /*00000044*/ WORD_0044: .word 0x00000000
FUNC_END _ZNSt14_Function_base13_Base_managerINSt8__detail11_AnyMatcherINSt7__cxx1112regex_traitsIcEELb0ELb1ELb0EEEE10_M_managerERSt9_Any_dataRKS8_St18_Manager_operation


@ - - - - - - - - - - - - - - - - - - - - - - - - - - - - - 
@ .text._ZNSt14_Function_base13_Base_managerINSt8__detail11_AnyMatcherINSt7__cxx1112regex_traitsIcEELb0ELb1ELb1EEEE10_M_managerERSt9_Any_dataRKS8_St18_Manager_operation
@ Size: 0x48
@ - - - - - - - - - - - - - - - - - - - - - - - - - - - - - 

FUNC_BEGIN _ZNSt14_Function_base13_Base_managerINSt8__detail11_AnyMatcherINSt7__cxx1112regex_traitsIcEELb0ELb1ELb1EEEE10_M_managerERSt9_Any_dataRKS8_St18_Manager_operation
    /*00000000*/ LDR         R3, WORD_0040               @ LDR         R3, [PC, #56]               @ 0x0000000000000040 
    /*00000004*/ CMP         R2, #1 
    /*00000008*/ STREQ       R1, [R0] 
    /*0000000c*/ ADD         R3, PC, R3 
    /*00000010*/ BEQ         _ZNSt14_Function_base13_Base_managerINSt8__detail11_AnyMatcherINSt7__cxx1112regex_traitsIcEELb0ELb1ELb1EEEE10_M_managerERSt9_Any_dataRKS8_St18_Manager_operation_x24
    /*00000014*/ BCC         _ZNSt14_Function_base13_Base_managerINSt8__detail11_AnyMatcherINSt7__cxx1112regex_traitsIcEELb0ELb1ELb1EEEE10_M_managerERSt9_Any_dataRKS8_St18_Manager_operation_x2c
    /*00000018*/ CMP         R2, #2 
    /*0000001c*/ LDREQ       R3, [R1] 
    /*00000020*/ STREQ       R3, [R0] 
    _ZNSt14_Function_base13_Base_managerINSt8__detail11_AnyMatcherINSt7__cxx1112regex_traitsIcEELb0ELb1ELb1EEEE10_M_managerERSt9_Any_dataRKS8_St18_Manager_operation_x24:
    /*00000024*/ MOV         R0, #0 
    /*00000028*/ BX          LR 
    _ZNSt14_Function_base13_Base_managerINSt8__detail11_AnyMatcherINSt7__cxx1112regex_traitsIcEELb0ELb1ELb1EEEE10_M_managerERSt9_Any_dataRKS8_St18_Manager_operation_x2c:
    /*0000002c*/ LDR         R2, WORD_0044               @ LDR         R2, [PC, #16]               @ 0x0000000000000044 
    /*00000030*/ LDR         R3, [R3, R2] 
    /*00000034*/ STR         R3, [R0] 
    /*00000038*/ MOV         R0, #0 
    /*0000003c*/ BX          LR 
    /*00000040*/ WORD_0040: .word 0x0000002c
    /*00000044*/ WORD_0044: .word 0x00000000
FUNC_END _ZNSt14_Function_base13_Base_managerINSt8__detail11_AnyMatcherINSt7__cxx1112regex_traitsIcEELb0ELb1ELb1EEEE10_M_managerERSt9_Any_dataRKS8_St18_Manager_operation


@ - - - - - - - - - - - - - - - - - - - - - - - - - - - - - 
@ .text._ZNSt17_Function_handlerIFbcENSt8__detail11_AnyMatcherINSt7__cxx1112regex_traitsIcEELb1ELb0ELb0EEEE9_M_invokeERKSt9_Any_dataOc
@ Size: 0x18
@ - - - - - - - - - - - - - - - - - - - - - - - - - - - - - 

FUNC_BEGIN _ZNSt17_Function_handlerIFbcENSt8__detail11_AnyMatcherINSt7__cxx1112regex_traitsIcEELb1ELb0ELb0EEEE9_M_invokeERKSt9_Any_dataOc
    /*00000000*/ LDRB        R0, [R1] 
    /*00000004*/ CMP         R0, #13 
    /*00000008*/ CMPNE       R0, #10 
    /*0000000c*/ MOVNE       R0, #1 
    /*00000010*/ MOVEQ       R0, #0 
    /*00000014*/ BX          LR 
FUNC_END _ZNSt17_Function_handlerIFbcENSt8__detail11_AnyMatcherINSt7__cxx1112regex_traitsIcEELb1ELb0ELb0EEEE9_M_invokeERKSt9_Any_dataOc


@ - - - - - - - - - - - - - - - - - - - - - - - - - - - - - 
@ .text._ZNSt14_Function_base13_Base_managerINSt8__detail11_AnyMatcherINSt7__cxx1112regex_traitsIcEELb1ELb0ELb0EEEE10_M_managerERSt9_Any_dataRKS8_St18_Manager_operation
@ Size: 0x3c
@ - - - - - - - - - - - - - - - - - - - - - - - - - - - - - 

FUNC_BEGIN _ZNSt14_Function_base13_Base_managerINSt8__detail11_AnyMatcherINSt7__cxx1112regex_traitsIcEELb1ELb0ELb0EEEE10_M_managerERSt9_Any_dataRKS8_St18_Manager_operation
    /*00000000*/ LDR         R3, WORD_0034               @ LDR         R3, [PC, #44]               @ 0x0000000000000034 
    /*00000004*/ CMP         R2, #0 
    /*00000008*/ ADD         R3, PC, R3 
    /*0000000c*/ BEQ         _ZNSt14_Function_base13_Base_managerINSt8__detail11_AnyMatcherINSt7__cxx1112regex_traitsIcEELb1ELb0ELb0EEEE10_M_managerERSt9_Any_dataRKS8_St18_Manager_operation_x20
    /*00000010*/ CMP         R2, #1 
    /*00000014*/ STREQ       R1, [R0] 
    /*00000018*/ MOV         R0, #0 
    /*0000001c*/ BX          LR 
    _ZNSt14_Function_base13_Base_managerINSt8__detail11_AnyMatcherINSt7__cxx1112regex_traitsIcEELb1ELb0ELb0EEEE10_M_managerERSt9_Any_dataRKS8_St18_Manager_operation_x20:
    /*00000020*/ LDR         R2, WORD_0038               @ LDR         R2, [PC, #16]               @ 0x0000000000000038 
    /*00000024*/ LDR         R3, [R3, R2] 
    /*00000028*/ STR         R3, [R0] 
    /*0000002c*/ MOV         R0, #0 
    /*00000030*/ BX          LR 
    /*00000034*/ WORD_0034: .word 0x00000024
    /*00000038*/ WORD_0038: .word 0x00000000
FUNC_END _ZNSt14_Function_base13_Base_managerINSt8__detail11_AnyMatcherINSt7__cxx1112regex_traitsIcEELb1ELb0ELb0EEEE10_M_managerERSt9_Any_dataRKS8_St18_Manager_operation


@ - - - - - - - - - - - - - - - - - - - - - - - - - - - - - 
@ .text._ZNSt17_Function_handlerIFbcENSt8__detail11_AnyMatcherINSt7__cxx1112regex_traitsIcEELb1ELb0ELb1EEEE9_M_invokeERKSt9_Any_dataOc
@ Size: 0x18
@ - - - - - - - - - - - - - - - - - - - - - - - - - - - - - 

FUNC_BEGIN _ZNSt17_Function_handlerIFbcENSt8__detail11_AnyMatcherINSt7__cxx1112regex_traitsIcEELb1ELb0ELb1EEEE9_M_invokeERKSt9_Any_dataOc
    /*00000000*/ LDRB        R0, [R1] 
    /*00000004*/ CMP         R0, #13 
    /*00000008*/ CMPNE       R0, #10 
    /*0000000c*/ MOVNE       R0, #1 
    /*00000010*/ MOVEQ       R0, #0 
    /*00000014*/ BX          LR 
FUNC_END _ZNSt17_Function_handlerIFbcENSt8__detail11_AnyMatcherINSt7__cxx1112regex_traitsIcEELb1ELb0ELb1EEEE9_M_invokeERKSt9_Any_dataOc


@ - - - - - - - - - - - - - - - - - - - - - - - - - - - - - 
@ .text._ZNSt14_Function_base13_Base_managerINSt8__detail11_AnyMatcherINSt7__cxx1112regex_traitsIcEELb1ELb0ELb1EEEE10_M_managerERSt9_Any_dataRKS8_St18_Manager_operation
@ Size: 0x48
@ - - - - - - - - - - - - - - - - - - - - - - - - - - - - - 

FUNC_BEGIN _ZNSt14_Function_base13_Base_managerINSt8__detail11_AnyMatcherINSt7__cxx1112regex_traitsIcEELb1ELb0ELb1EEEE10_M_managerERSt9_Any_dataRKS8_St18_Manager_operation
    /*00000000*/ LDR         R3, WORD_0040               @ LDR         R3, [PC, #56]               @ 0x0000000000000040 
    /*00000004*/ CMP         R2, #1 
    /*00000008*/ STREQ       R1, [R0] 
    /*0000000c*/ ADD         R3, PC, R3 
    /*00000010*/ BEQ         _ZNSt14_Function_base13_Base_managerINSt8__detail11_AnyMatcherINSt7__cxx1112regex_traitsIcEELb1ELb0ELb1EEEE10_M_managerERSt9_Any_dataRKS8_St18_Manager_operation_x24
    /*00000014*/ BCC         _ZNSt14_Function_base13_Base_managerINSt8__detail11_AnyMatcherINSt7__cxx1112regex_traitsIcEELb1ELb0ELb1EEEE10_M_managerERSt9_Any_dataRKS8_St18_Manager_operation_x2c
    /*00000018*/ CMP         R2, #2 
    /*0000001c*/ LDREQ       R3, [R1] 
    /*00000020*/ STREQ       R3, [R0] 
    _ZNSt14_Function_base13_Base_managerINSt8__detail11_AnyMatcherINSt7__cxx1112regex_traitsIcEELb1ELb0ELb1EEEE10_M_managerERSt9_Any_dataRKS8_St18_Manager_operation_x24:
    /*00000024*/ MOV         R0, #0 
    /*00000028*/ BX          LR 
    _ZNSt14_Function_base13_Base_managerINSt8__detail11_AnyMatcherINSt7__cxx1112regex_traitsIcEELb1ELb0ELb1EEEE10_M_managerERSt9_Any_dataRKS8_St18_Manager_operation_x2c:
    /*0000002c*/ LDR         R2, WORD_0044               @ LDR         R2, [PC, #16]               @ 0x0000000000000044 
    /*00000030*/ LDR         R3, [R3, R2] 
    /*00000034*/ STR         R3, [R0] 
    /*00000038*/ MOV         R0, #0 
    /*0000003c*/ BX          LR 
    /*00000040*/ WORD_0040: .word 0x0000002c
    /*00000044*/ WORD_0044: .word 0x00000000
FUNC_END _ZNSt14_Function_base13_Base_managerINSt8__detail11_AnyMatcherINSt7__cxx1112regex_traitsIcEELb1ELb0ELb1EEEE10_M_managerERSt9_Any_dataRKS8_St18_Manager_operation


@ - - - - - - - - - - - - - - - - - - - - - - - - - - - - - 
@ .text._ZNSt14_Function_base13_Base_managerINSt8__detail11_AnyMatcherINSt7__cxx1112regex_traitsIcEELb1ELb1ELb0EEEE10_M_managerERSt9_Any_dataRKS8_St18_Manager_operation
@ Size: 0x48
@ - - - - - - - - - - - - - - - - - - - - - - - - - - - - - 

FUNC_BEGIN _ZNSt14_Function_base13_Base_managerINSt8__detail11_AnyMatcherINSt7__cxx1112regex_traitsIcEELb1ELb1ELb0EEEE10_M_managerERSt9_Any_dataRKS8_St18_Manager_operation
    /*00000000*/ LDR         R3, WORD_0040               @ LDR         R3, [PC, #56]               @ 0x0000000000000040 
    /*00000004*/ CMP         R2, #1 
    /*00000008*/ STREQ       R1, [R0] 
    /*0000000c*/ ADD         R3, PC, R3 
    /*00000010*/ BEQ         _ZNSt14_Function_base13_Base_managerINSt8__detail11_AnyMatcherINSt7__cxx1112regex_traitsIcEELb1ELb1ELb0EEEE10_M_managerERSt9_Any_dataRKS8_St18_Manager_operation_x24
    /*00000014*/ BCC         _ZNSt14_Function_base13_Base_managerINSt8__detail11_AnyMatcherINSt7__cxx1112regex_traitsIcEELb1ELb1ELb0EEEE10_M_managerERSt9_Any_dataRKS8_St18_Manager_operation_x2c
    /*00000018*/ CMP         R2, #2 
    /*0000001c*/ LDREQ       R3, [R1] 
    /*00000020*/ STREQ       R3, [R0] 
    _ZNSt14_Function_base13_Base_managerINSt8__detail11_AnyMatcherINSt7__cxx1112regex_traitsIcEELb1ELb1ELb0EEEE10_M_managerERSt9_Any_dataRKS8_St18_Manager_operation_x24:
    /*00000024*/ MOV         R0, #0 
    /*00000028*/ BX          LR 
    _ZNSt14_Function_base13_Base_managerINSt8__detail11_AnyMatcherINSt7__cxx1112regex_traitsIcEELb1ELb1ELb0EEEE10_M_managerERSt9_Any_dataRKS8_St18_Manager_operation_x2c:
    /*0000002c*/ LDR         R2, WORD_0044               @ LDR         R2, [PC, #16]               @ 0x0000000000000044 
    /*00000030*/ LDR         R3, [R3, R2] 
    /*00000034*/ STR         R3, [R0] 
    /*00000038*/ MOV         R0, #0 
    /*0000003c*/ BX          LR 
    /*00000040*/ WORD_0040: .word 0x0000002c
    /*00000044*/ WORD_0044: .word 0x00000000
FUNC_END _ZNSt14_Function_base13_Base_managerINSt8__detail11_AnyMatcherINSt7__cxx1112regex_traitsIcEELb1ELb1ELb0EEEE10_M_managerERSt9_Any_dataRKS8_St18_Manager_operation


@ - - - - - - - - - - - - - - - - - - - - - - - - - - - - - 
@ .text._ZNSt14_Function_base13_Base_managerINSt8__detail11_AnyMatcherINSt7__cxx1112regex_traitsIcEELb1ELb1ELb1EEEE10_M_managerERSt9_Any_dataRKS8_St18_Manager_operation
@ Size: 0x48
@ - - - - - - - - - - - - - - - - - - - - - - - - - - - - - 

FUNC_BEGIN _ZNSt14_Function_base13_Base_managerINSt8__detail11_AnyMatcherINSt7__cxx1112regex_traitsIcEELb1ELb1ELb1EEEE10_M_managerERSt9_Any_dataRKS8_St18_Manager_operation
    /*00000000*/ LDR         R3, WORD_0040               @ LDR         R3, [PC, #56]               @ 0x0000000000000040 
    /*00000004*/ CMP         R2, #1 
    /*00000008*/ STREQ       R1, [R0] 
    /*0000000c*/ ADD         R3, PC, R3 
    /*00000010*/ BEQ         _ZNSt14_Function_base13_Base_managerINSt8__detail11_AnyMatcherINSt7__cxx1112regex_traitsIcEELb1ELb1ELb1EEEE10_M_managerERSt9_Any_dataRKS8_St18_Manager_operation_x24
    /*00000014*/ BCC         _ZNSt14_Function_base13_Base_managerINSt8__detail11_AnyMatcherINSt7__cxx1112regex_traitsIcEELb1ELb1ELb1EEEE10_M_managerERSt9_Any_dataRKS8_St18_Manager_operation_x2c
    /*00000018*/ CMP         R2, #2 
    /*0000001c*/ LDREQ       R3, [R1] 
    /*00000020*/ STREQ       R3, [R0] 
    _ZNSt14_Function_base13_Base_managerINSt8__detail11_AnyMatcherINSt7__cxx1112regex_traitsIcEELb1ELb1ELb1EEEE10_M_managerERSt9_Any_dataRKS8_St18_Manager_operation_x24:
    /*00000024*/ MOV         R0, #0 
    /*00000028*/ BX          LR 
    _ZNSt14_Function_base13_Base_managerINSt8__detail11_AnyMatcherINSt7__cxx1112regex_traitsIcEELb1ELb1ELb1EEEE10_M_managerERSt9_Any_dataRKS8_St18_Manager_operation_x2c:
    /*0000002c*/ LDR         R2, WORD_0044               @ LDR         R2, [PC, #16]               @ 0x0000000000000044 
    /*00000030*/ LDR         R3, [R3, R2] 
    /*00000034*/ STR         R3, [R0] 
    /*00000038*/ MOV         R0, #0 
    /*0000003c*/ BX          LR 
    /*00000040*/ WORD_0040: .word 0x0000002c
    /*00000044*/ WORD_0044: .word 0x00000000
FUNC_END _ZNSt14_Function_base13_Base_managerINSt8__detail11_AnyMatcherINSt7__cxx1112regex_traitsIcEELb1ELb1ELb1EEEE10_M_managerERSt9_Any_dataRKS8_St18_Manager_operation


@ - - - - - - - - - - - - - - - - - - - - - - - - - - - - - 
@ .text._ZNSt17_Function_handlerIFbcENSt8__detail12_CharMatcherINSt7__cxx1112regex_traitsIcEELb0ELb0EEEE9_M_invokeERKSt9_Any_dataOc
@ Size: 0x18
@ - - - - - - - - - - - - - - - - - - - - - - - - - - - - - 

FUNC_BEGIN _ZNSt17_Function_handlerIFbcENSt8__detail12_CharMatcherINSt7__cxx1112regex_traitsIcEELb0ELb0EEEE9_M_invokeERKSt9_Any_dataOc
    /*00000000*/ LDRB        R3, [R1] 
    /*00000004*/ LDRB        R0, [R0, #1] 
    /*00000008*/ SUB         R0, R3, R0 
    /*0000000c*/ CLZ         R0, R0 
    /*00000010*/ LSR         R0, R0, #5 
    /*00000014*/ BX          LR 
FUNC_END _ZNSt17_Function_handlerIFbcENSt8__detail12_CharMatcherINSt7__cxx1112regex_traitsIcEELb0ELb0EEEE9_M_invokeERKSt9_Any_dataOc


@ - - - - - - - - - - - - - - - - - - - - - - - - - - - - - 
@ .text._ZNSt14_Function_base13_Base_managerINSt8__detail12_CharMatcherINSt7__cxx1112regex_traitsIcEELb0ELb0EEEE10_M_managerERSt9_Any_dataRKS8_St18_Manager_operation
@ Size: 0x48
@ - - - - - - - - - - - - - - - - - - - - - - - - - - - - - 

FUNC_BEGIN _ZNSt14_Function_base13_Base_managerINSt8__detail12_CharMatcherINSt7__cxx1112regex_traitsIcEELb0ELb0EEEE10_M_managerERSt9_Any_dataRKS8_St18_Manager_operation
    /*00000000*/ LDR         R3, WORD_0040               @ LDR         R3, [PC, #56]               @ 0x0000000000000040 
    /*00000004*/ CMP         R2, #1 
    /*00000008*/ STREQ       R1, [R0] 
    /*0000000c*/ ADD         R3, PC, R3 
    /*00000010*/ BEQ         _ZNSt14_Function_base13_Base_managerINSt8__detail12_CharMatcherINSt7__cxx1112regex_traitsIcEELb0ELb0EEEE10_M_managerERSt9_Any_dataRKS8_St18_Manager_operation_x24
    /*00000014*/ BCC         _ZNSt14_Function_base13_Base_managerINSt8__detail12_CharMatcherINSt7__cxx1112regex_traitsIcEELb0ELb0EEEE10_M_managerERSt9_Any_dataRKS8_St18_Manager_operation_x2c
    /*00000018*/ CMP         R2, #2 
    /*0000001c*/ LDRHEQ      R3, [R1] 
    /*00000020*/ STRHEQ      R3, [R0] 
    _ZNSt14_Function_base13_Base_managerINSt8__detail12_CharMatcherINSt7__cxx1112regex_traitsIcEELb0ELb0EEEE10_M_managerERSt9_Any_dataRKS8_St18_Manager_operation_x24:
    /*00000024*/ MOV         R0, #0 
    /*00000028*/ BX          LR 
    _ZNSt14_Function_base13_Base_managerINSt8__detail12_CharMatcherINSt7__cxx1112regex_traitsIcEELb0ELb0EEEE10_M_managerERSt9_Any_dataRKS8_St18_Manager_operation_x2c:
    /*0000002c*/ LDR         R2, WORD_0044               @ LDR         R2, [PC, #16]               @ 0x0000000000000044 
    /*00000030*/ LDR         R3, [R3, R2] 
    /*00000034*/ STR         R3, [R0] 
    /*00000038*/ MOV         R0, #0 
    /*0000003c*/ BX          LR 
    /*00000040*/ WORD_0040: .word 0x0000002c
    /*00000044*/ WORD_0044: .word 0x00000000
FUNC_END _ZNSt14_Function_base13_Base_managerINSt8__detail12_CharMatcherINSt7__cxx1112regex_traitsIcEELb0ELb0EEEE10_M_managerERSt9_Any_dataRKS8_St18_Manager_operation


@ - - - - - - - - - - - - - - - - - - - - - - - - - - - - - 
@ .text._ZNSt17_Function_handlerIFbcENSt8__detail12_CharMatcherINSt7__cxx1112regex_traitsIcEELb0ELb1EEEE9_M_invokeERKSt9_Any_dataOc
@ Size: 0x18
@ - - - - - - - - - - - - - - - - - - - - - - - - - - - - - 

FUNC_BEGIN _ZNSt17_Function_handlerIFbcENSt8__detail12_CharMatcherINSt7__cxx1112regex_traitsIcEELb0ELb1EEEE9_M_invokeERKSt9_Any_dataOc
    /*00000000*/ LDRB        R3, [R1] 
    /*00000004*/ LDRB        R0, [R0, #4] 
    /*00000008*/ SUB         R0, R3, R0 
    /*0000000c*/ CLZ         R0, R0 
    /*00000010*/ LSR         R0, R0, #5 
    /*00000014*/ BX          LR 
FUNC_END _ZNSt17_Function_handlerIFbcENSt8__detail12_CharMatcherINSt7__cxx1112regex_traitsIcEELb0ELb1EEEE9_M_invokeERKSt9_Any_dataOc


@ - - - - - - - - - - - - - - - - - - - - - - - - - - - - - 
@ .text._ZNSt14_Function_base13_Base_managerINSt8__detail12_CharMatcherINSt7__cxx1112regex_traitsIcEELb0ELb1EEEE10_M_managerERSt9_Any_dataRKS8_St18_Manager_operation
@ Size: 0x4c
@ - - - - - - - - - - - - - - - - - - - - - - - - - - - - - 

FUNC_BEGIN _ZNSt14_Function_base13_Base_managerINSt8__detail12_CharMatcherINSt7__cxx1112regex_traitsIcEELb0ELb1EEEE10_M_managerERSt9_Any_dataRKS8_St18_Manager_operation
    /*00000000*/ LDR         R3, WORD_0044               @ LDR         R3, [PC, #60]               @ 0x0000000000000044 
    /*00000004*/ CMP         R2, #1 
    /*00000008*/ STREQ       R1, [R0] 
    /*0000000c*/ MOV         IP, R0 
    /*00000010*/ ADD         R3, PC, R3 
    /*00000014*/ BEQ         _ZNSt14_Function_base13_Base_managerINSt8__detail12_CharMatcherINSt7__cxx1112regex_traitsIcEELb0ELb1EEEE10_M_managerERSt9_Any_dataRKS8_St18_Manager_operation_x28
    /*00000018*/ BCC         _ZNSt14_Function_base13_Base_managerINSt8__detail12_CharMatcherINSt7__cxx1112regex_traitsIcEELb0ELb1EEEE10_M_managerERSt9_Any_dataRKS8_St18_Manager_operation_x30
    /*0000001c*/ CMP         R2, #2 
    /*00000020*/ LDMEQ       R1, {R0, R1} 
    /*00000024*/ STMEQ       IP, {R0, R1} 
    _ZNSt14_Function_base13_Base_managerINSt8__detail12_CharMatcherINSt7__cxx1112regex_traitsIcEELb0ELb1EEEE10_M_managerERSt9_Any_dataRKS8_St18_Manager_operation_x28:
    /*00000028*/ MOV         R0, #0 
    /*0000002c*/ BX          LR 
    _ZNSt14_Function_base13_Base_managerINSt8__detail12_CharMatcherINSt7__cxx1112regex_traitsIcEELb0ELb1EEEE10_M_managerERSt9_Any_dataRKS8_St18_Manager_operation_x30:
    /*00000030*/ LDR         R2, WORD_0048               @ LDR         R2, [PC, #16]               @ 0x0000000000000048 
    /*00000034*/ LDR         R3, [R3, R2] 
    /*00000038*/ STR         R3, [R0] 
    /*0000003c*/ MOV         R0, #0 
    /*00000040*/ BX          LR 
    /*00000044*/ WORD_0044: .word 0x0000002c
    /*00000048*/ WORD_0048: .word 0x00000000
FUNC_END _ZNSt14_Function_base13_Base_managerINSt8__detail12_CharMatcherINSt7__cxx1112regex_traitsIcEELb0ELb1EEEE10_M_managerERSt9_Any_dataRKS8_St18_Manager_operation


@ - - - - - - - - - - - - - - - - - - - - - - - - - - - - - 
@ .text._ZNSt14_Function_base13_Base_managerINSt8__detail12_CharMatcherINSt7__cxx1112regex_traitsIcEELb1ELb0EEEE10_M_managerERSt9_Any_dataRKS8_St18_Manager_operation
@ Size: 0x4c
@ - - - - - - - - - - - - - - - - - - - - - - - - - - - - - 

FUNC_BEGIN _ZNSt14_Function_base13_Base_managerINSt8__detail12_CharMatcherINSt7__cxx1112regex_traitsIcEELb1ELb0EEEE10_M_managerERSt9_Any_dataRKS8_St18_Manager_operation
    /*00000000*/ LDR         R3, WORD_0044               @ LDR         R3, [PC, #60]               @ 0x0000000000000044 
    /*00000004*/ CMP         R2, #1 
    /*00000008*/ STREQ       R1, [R0] 
    /*0000000c*/ MOV         IP, R0 
    /*00000010*/ ADD         R3, PC, R3 
    /*00000014*/ BEQ         _ZNSt14_Function_base13_Base_managerINSt8__detail12_CharMatcherINSt7__cxx1112regex_traitsIcEELb1ELb0EEEE10_M_managerERSt9_Any_dataRKS8_St18_Manager_operation_x28
    /*00000018*/ BCC         _ZNSt14_Function_base13_Base_managerINSt8__detail12_CharMatcherINSt7__cxx1112regex_traitsIcEELb1ELb0EEEE10_M_managerERSt9_Any_dataRKS8_St18_Manager_operation_x30
    /*0000001c*/ CMP         R2, #2 
    /*00000020*/ LDMEQ       R1, {R0, R1} 
    /*00000024*/ STMEQ       IP, {R0, R1} 
    _ZNSt14_Function_base13_Base_managerINSt8__detail12_CharMatcherINSt7__cxx1112regex_traitsIcEELb1ELb0EEEE10_M_managerERSt9_Any_dataRKS8_St18_Manager_operation_x28:
    /*00000028*/ MOV         R0, #0 
    /*0000002c*/ BX          LR 
    _ZNSt14_Function_base13_Base_managerINSt8__detail12_CharMatcherINSt7__cxx1112regex_traitsIcEELb1ELb0EEEE10_M_managerERSt9_Any_dataRKS8_St18_Manager_operation_x30:
    /*00000030*/ LDR         R2, WORD_0048               @ LDR         R2, [PC, #16]               @ 0x0000000000000048 
    /*00000034*/ LDR         R3, [R3, R2] 
    /*00000038*/ STR         R3, [R0] 
    /*0000003c*/ MOV         R0, #0 
    /*00000040*/ BX          LR 
    /*00000044*/ WORD_0044: .word 0x0000002c
    /*00000048*/ WORD_0048: .word 0x00000000
FUNC_END _ZNSt14_Function_base13_Base_managerINSt8__detail12_CharMatcherINSt7__cxx1112regex_traitsIcEELb1ELb0EEEE10_M_managerERSt9_Any_dataRKS8_St18_Manager_operation


@ - - - - - - - - - - - - - - - - - - - - - - - - - - - - - 
@ .text._ZNSt14_Function_base13_Base_managerINSt8__detail12_CharMatcherINSt7__cxx1112regex_traitsIcEELb1ELb1EEEE10_M_managerERSt9_Any_dataRKS8_St18_Manager_operation
@ Size: 0x4c
@ - - - - - - - - - - - - - - - - - - - - - - - - - - - - - 

FUNC_BEGIN _ZNSt14_Function_base13_Base_managerINSt8__detail12_CharMatcherINSt7__cxx1112regex_traitsIcEELb1ELb1EEEE10_M_managerERSt9_Any_dataRKS8_St18_Manager_operation
    /*00000000*/ LDR         R3, WORD_0044               @ LDR         R3, [PC, #60]               @ 0x0000000000000044 
    /*00000004*/ CMP         R2, #1 
    /*00000008*/ STREQ       R1, [R0] 
    /*0000000c*/ MOV         IP, R0 
    /*00000010*/ ADD         R3, PC, R3 
    /*00000014*/ BEQ         _ZNSt14_Function_base13_Base_managerINSt8__detail12_CharMatcherINSt7__cxx1112regex_traitsIcEELb1ELb1EEEE10_M_managerERSt9_Any_dataRKS8_St18_Manager_operation_x28
    /*00000018*/ BCC         _ZNSt14_Function_base13_Base_managerINSt8__detail12_CharMatcherINSt7__cxx1112regex_traitsIcEELb1ELb1EEEE10_M_managerERSt9_Any_dataRKS8_St18_Manager_operation_x30
    /*0000001c*/ CMP         R2, #2 
    /*00000020*/ LDMEQ       R1, {R0, R1} 
    /*00000024*/ STMEQ       IP, {R0, R1} 
    _ZNSt14_Function_base13_Base_managerINSt8__detail12_CharMatcherINSt7__cxx1112regex_traitsIcEELb1ELb1EEEE10_M_managerERSt9_Any_dataRKS8_St18_Manager_operation_x28:
    /*00000028*/ MOV         R0, #0 
    /*0000002c*/ BX          LR 
    _ZNSt14_Function_base13_Base_managerINSt8__detail12_CharMatcherINSt7__cxx1112regex_traitsIcEELb1ELb1EEEE10_M_managerERSt9_Any_dataRKS8_St18_Manager_operation_x30:
    /*00000030*/ LDR         R2, WORD_0048               @ LDR         R2, [PC, #16]               @ 0x0000000000000048 
    /*00000034*/ LDR         R3, [R3, R2] 
    /*00000038*/ STR         R3, [R0] 
    /*0000003c*/ MOV         R0, #0 
    /*00000040*/ BX          LR 
    /*00000044*/ WORD_0044: .word 0x0000002c
    /*00000048*/ WORD_0048: .word 0x00000000
FUNC_END _ZNSt14_Function_base13_Base_managerINSt8__detail12_CharMatcherINSt7__cxx1112regex_traitsIcEELb1ELb1EEEE10_M_managerERSt9_Any_dataRKS8_St18_Manager_operation


@ - - - - - - - - - - - - - - - - - - - - - - - - - - - - - 
@ .text._ZNSt17_Function_handlerIFbcENSt8__detail15_BracketMatcherINSt7__cxx1112regex_traitsIcEELb0ELb0EEEE9_M_invokeERKSt9_Any_dataOc
@ Size: 0x2c
@ - - - - - - - - - - - - - - - - - - - - - - - - - - - - - 

FUNC_BEGIN _ZNSt17_Function_handlerIFbcENSt8__detail15_BracketMatcherINSt7__cxx1112regex_traitsIcEELb0ELb0EEEE9_M_invokeERKSt9_Any_dataOc
    /*00000000*/ LDRB        R3, [R1] 
    /*00000004*/ MOV         R1, #1 
    /*00000008*/ LDR         R2, [R0] 
    /*0000000c*/ LSR         R0, R3, #5 
    /*00000010*/ AND         R3, R3, #31 
    /*00000014*/ ADD         R2, R2, R0, LSL #2 
    /*00000018*/ LDR         R2, [R2, #64]               @ 0x40 
    /*0000001c*/ ANDS        R3, R2, R1, LSL R3 
    /*00000020*/ MOVNE       R0, R1 
    /*00000024*/ MOVEQ       R0, #0 
    /*00000028*/ BX          LR 
FUNC_END _ZNSt17_Function_handlerIFbcENSt8__detail15_BracketMatcherINSt7__cxx1112regex_traitsIcEELb0ELb0EEEE9_M_invokeERKSt9_Any_dataOc


@ - - - - - - - - - - - - - - - - - - - - - - - - - - - - - 
@ .text._ZNSt17_Function_handlerIFbcENSt8__detail15_BracketMatcherINSt7__cxx1112regex_traitsIcEELb0ELb1EEEE9_M_invokeERKSt9_Any_dataOc
@ Size: 0x2c
@ - - - - - - - - - - - - - - - - - - - - - - - - - - - - - 

FUNC_BEGIN _ZNSt17_Function_handlerIFbcENSt8__detail15_BracketMatcherINSt7__cxx1112regex_traitsIcEELb0ELb1EEEE9_M_invokeERKSt9_Any_dataOc
    /*00000000*/ LDRB        R3, [R1] 
    /*00000004*/ MOV         R1, #1 
    /*00000008*/ LDR         R2, [R0] 
    /*0000000c*/ LSR         R0, R3, #5 
    /*00000010*/ AND         R3, R3, #31 
    /*00000014*/ ADD         R2, R2, R0, LSL #2 
    /*00000018*/ LDR         R2, [R2, #64]               @ 0x40 
    /*0000001c*/ ANDS        R3, R2, R1, LSL R3 
    /*00000020*/ MOVNE       R0, R1 
    /*00000024*/ MOVEQ       R0, #0 
    /*00000028*/ BX          LR 
FUNC_END _ZNSt17_Function_handlerIFbcENSt8__detail15_BracketMatcherINSt7__cxx1112regex_traitsIcEELb0ELb1EEEE9_M_invokeERKSt9_Any_dataOc


@ - - - - - - - - - - - - - - - - - - - - - - - - - - - - - 
@ .text._ZNSt17_Function_handlerIFbcENSt8__detail15_BracketMatcherINSt7__cxx1112regex_traitsIcEELb1ELb0EEEE9_M_invokeERKSt9_Any_dataOc
@ Size: 0x2c
@ - - - - - - - - - - - - - - - - - - - - - - - - - - - - - 

FUNC_BEGIN _ZNSt17_Function_handlerIFbcENSt8__detail15_BracketMatcherINSt7__cxx1112regex_traitsIcEELb1ELb0EEEE9_M_invokeERKSt9_Any_dataOc
    /*00000000*/ LDRB        R3, [R1] 
    /*00000004*/ MOV         R1, #1 
    /*00000008*/ LDR         R2, [R0] 
    /*0000000c*/ LSR         R0, R3, #5 
    /*00000010*/ AND         R3, R3, #31 
    /*00000014*/ ADD         R2, R2, R0, LSL #2 
    /*00000018*/ LDR         R2, [R2, #64]               @ 0x40 
    /*0000001c*/ ANDS        R3, R2, R1, LSL R3 
    /*00000020*/ MOVNE       R0, R1 
    /*00000024*/ MOVEQ       R0, #0 
    /*00000028*/ BX          LR 
FUNC_END _ZNSt17_Function_handlerIFbcENSt8__detail15_BracketMatcherINSt7__cxx1112regex_traitsIcEELb1ELb0EEEE9_M_invokeERKSt9_Any_dataOc


@ - - - - - - - - - - - - - - - - - - - - - - - - - - - - - 
@ .text._ZNSt17_Function_handlerIFbcENSt8__detail15_BracketMatcherINSt7__cxx1112regex_traitsIcEELb1ELb1EEEE9_M_invokeERKSt9_Any_dataOc
@ Size: 0x2c
@ - - - - - - - - - - - - - - - - - - - - - - - - - - - - - 

FUNC_BEGIN _ZNSt17_Function_handlerIFbcENSt8__detail15_BracketMatcherINSt7__cxx1112regex_traitsIcEELb1ELb1EEEE9_M_invokeERKSt9_Any_dataOc
    /*00000000*/ LDRB        R3, [R1] 
    /*00000004*/ MOV         R1, #1 
    /*00000008*/ LDR         R2, [R0] 
    /*0000000c*/ LSR         R0, R3, #5 
    /*00000010*/ AND         R3, R3, #31 
    /*00000014*/ ADD         R2, R2, R0, LSL #2 
    /*00000018*/ LDR         R2, [R2, #64]               @ 0x40 
    /*0000001c*/ ANDS        R3, R2, R1, LSL R3 
    /*00000020*/ MOVNE       R0, R1 
    /*00000024*/ MOVEQ       R0, #0 
    /*00000028*/ BX          LR 
FUNC_END _ZNSt17_Function_handlerIFbcENSt8__detail15_BracketMatcherINSt7__cxx1112regex_traitsIcEELb1ELb1EEEE9_M_invokeERKSt9_Any_dataOc


@ - - - - - - - - - - - - - - - - - - - - - - - - - - - - - 
@ .text._ZNSt23_Sp_counted_ptr_inplaceINSt8__detail4_NFAINSt7__cxx1112regex_traitsIcEEEESaIS5_ELN9__gnu_cxx12_Lock_policyE2EED2Ev
@ Size: 0x4
@ - - - - - - - - - - - - - - - - - - - - - - - - - - - - - 

FUNC_BEGIN _ZNSt23_Sp_counted_ptr_inplaceINSt8__detail4_NFAINSt7__cxx1112regex_traitsIcEEEESaIS5_ELN9__gnu_cxx12_Lock_policyE2EED2Ev
    /*00000000*/ BX          LR 
FUNC_END _ZNSt23_Sp_counted_ptr_inplaceINSt8__detail4_NFAINSt7__cxx1112regex_traitsIcEEEESaIS5_ELN9__gnu_cxx12_Lock_policyE2EED2Ev


FUNC_BEGIN _ZNSt23_Sp_counted_ptr_inplaceINSt8__detail4_NFAINSt7__cxx1112regex_traitsIcEEEESaIS5_ELN9__gnu_cxx12_Lock_policyE2EED1Ev
    /*00000000*/ BX          LR 
FUNC_END _ZNSt23_Sp_counted_ptr_inplaceINSt8__detail4_NFAINSt7__cxx1112regex_traitsIcEEEESaIS5_ELN9__gnu_cxx12_Lock_policyE2EED1Ev


@ - - - - - - - - - - - - - - - - - - - - - - - - - - - - - 
@ .text._ZN10hirtparser4BlobD2Ev
@ Size: 0x54
@ - - - - - - - - - - - - - - - - - - - - - - - - - - - - - 

FUNC_BEGIN _ZN10hirtparser4BlobD2Ev
    /*00000000*/ MOV         IP, #16384                  @ 0x4000 
    /*00000004*/ PUSH        {R4, LR} 
    /*00000008*/ SUB         IP, SP, IP 
    /*0000000c*/ STR         R0, [IP, #4088]             @ 0xff8 
    /*00000010*/ LDR         R3, WORD_0050               @ LDR         R3, [PC, #56]               @ 0x0000000000000050 
    /*00000014*/ MOV         R4, R0 
    /*00000018*/ LDR         R0, [R0, #20] 
    /*0000001c*/ ADD         R2, R4, #28 
    /*00000020*/ ADD         R3, PC, R3 
    /*00000024*/ CMP         R0, R2 
    /*00000028*/ ADD         R3, R3, #8 
    /*0000002c*/ STR         R3, [R4] 
    /*00000030*/ BEQ         _ZN10hirtparser4BlobD2Ev_x38
    /*00000034*/ BL          _ZdlPv
    _ZN10hirtparser4BlobD2Ev_x38:
    /*00000038*/ LDR         R0, [R4, #4] 
    /*0000003c*/ CMP         R0, #0 
    /*00000040*/ BEQ         _ZN10hirtparser4BlobD2Ev_x48
    /*00000044*/ BL          _ZdlPv
    _ZN10hirtparser4BlobD2Ev_x48:
    /*00000048*/ MOV         R0, R4 
    /*0000004c*/ POP         {R4, PC} 
    /*00000050*/ WORD_0050: .word 0x00000028
FUNC_END _ZN10hirtparser4BlobD2Ev


FUNC_BEGIN _ZN10hirtparser4BlobD1Ev
    /*00000000*/ MOV         IP, #16384                  @ 0x4000 
    /*00000004*/ PUSH        {R4, LR} 
    /*00000008*/ SUB         IP, SP, IP 
    /*0000000c*/ STR         R0, [IP, #4088]             @ 0xff8 
    /*00000010*/ LDR         R3, WORD_0050               @ LDR         R3, [PC, #56]               @ 0x0000000000000050 
    /*00000014*/ MOV         R4, R0 
    /*00000018*/ LDR         R0, [R0, #20] 
    /*0000001c*/ ADD         R2, R4, #28 
    /*00000020*/ ADD         R3, PC, R3 
    /*00000024*/ CMP         R0, R2 
    /*00000028*/ ADD         R3, R3, #8 
    /*0000002c*/ STR         R3, [R4] 
    /*00000030*/ BEQ         _ZN10hirtparser4BlobD1Ev_x38
    /*00000034*/ BL          _ZdlPv
    _ZN10hirtparser4BlobD1Ev_x38:
    /*00000038*/ LDR         R0, [R4, #4] 
    /*0000003c*/ CMP         R0, #0 
    /*00000040*/ BEQ         _ZN10hirtparser4BlobD1Ev_x48
    /*00000044*/ BL          _ZdlPv
    _ZN10hirtparser4BlobD1Ev_x48:
    /*00000048*/ MOV         R0, R4 
    /*0000004c*/ POP         {R4, PC} 
    /*00000050*/ WORD_0050: .word 0x00000028
FUNC_END _ZN10hirtparser4BlobD1Ev


@ - - - - - - - - - - - - - - - - - - - - - - - - - - - - - 
@ .text._ZNSt23_Sp_counted_ptr_inplaceINSt8__detail4_NFAINSt7__cxx1112regex_traitsIcEEEESaIS5_ELN9__gnu_cxx12_Lock_policyE2EE10_M_destroyEv
@ Size: 0x4
@ - - - - - - - - - - - - - - - - - - - - - - - - - - - - - 

FUNC_BEGIN _ZNSt23_Sp_counted_ptr_inplaceINSt8__detail4_NFAINSt7__cxx1112regex_traitsIcEEEESaIS5_ELN9__gnu_cxx12_Lock_policyE2EE10_M_destroyEv
    _ZNSt23_Sp_counted_ptr_inplaceINSt8__detail4_NFAINSt7__cxx1112regex_traitsIcEEEESaIS5_ELN9__gnu_cxx12_Lock_policyE2EE10_M_destroyEv_x0:
    /*00000000*/ B           _ZNSt23_Sp_counted_ptr_inplaceINSt8__detail4_NFAINSt7__cxx1112regex_traitsIcEEEESaIS5_ELN9__gnu_cxx12_Lock_policyE2EE10_M_destroyEv_x0@ _ZdlPv [R_ARM_JUMP24: +0x0] 
FUNC_END _ZNSt23_Sp_counted_ptr_inplaceINSt8__detail4_NFAINSt7__cxx1112regex_traitsIcEEEESaIS5_ELN9__gnu_cxx12_Lock_policyE2EE10_M_destroyEv


@ - - - - - - - - - - - - - - - - - - - - - - - - - - - - - 
@ .text._ZNSt23_Sp_counted_ptr_inplaceINSt8__detail4_NFAINSt7__cxx1112regex_traitsIcEEEESaIS5_ELN9__gnu_cxx12_Lock_policyE2EE14_M_get_deleterERKSt9type_info
@ Size: 0x44
@ - - - - - - - - - - - - - - - - - - - - - - - - - - - - - 

FUNC_BEGIN _ZNSt23_Sp_counted_ptr_inplaceINSt8__detail4_NFAINSt7__cxx1112regex_traitsIcEEEESaIS5_ELN9__gnu_cxx12_Lock_policyE2EE14_M_get_deleterERKSt9type_info
    /*00000000*/ MOV         IP, #16384                  @ 0x4000 
    /*00000004*/ PUSH        {R4, LR} 
    /*00000008*/ SUB         IP, SP, IP 
    /*0000000c*/ STR         R0, [IP, #4088]             @ 0xff8 
    /*00000010*/ LDR         R3, WORD_003c               @ LDR         R3, [PC, #36]               @ 0x000000000000003c 
    /*00000014*/ MOV         R4, R0 
    /*00000018*/ LDR         R2, WORD_0040               @ LDR         R2, [PC, #32]               @ 0x0000000000000040 
    /*0000001c*/ MOV         R0, R1 
    /*00000020*/ ADD         R3, PC, R3 
    /*00000024*/ LDR         R2, [R3, R2] 
    /*00000028*/ MOV         R1, R2 
    /*0000002c*/ BL          _ZNKSt9type_infoeqERKS_
    /*00000030*/ CMP         R0, #0 
    /*00000034*/ ADDNE       R0, R4, #12 
    /*00000038*/ POP         {R4, PC} 
    /*0000003c*/ WORD_003c: .word 0x00000014
    /*00000040*/ WORD_0040: .word 0x00000000
FUNC_END _ZNSt23_Sp_counted_ptr_inplaceINSt8__detail4_NFAINSt7__cxx1112regex_traitsIcEEEESaIS5_ELN9__gnu_cxx12_Lock_policyE2EE14_M_get_deleterERKSt9type_info


@ - - - - - - - - - - - - - - - - - - - - - - - - - - - - - 
@ .text._ZNSt23_Sp_counted_ptr_inplaceINSt8__detail4_NFAINSt7__cxx1112regex_traitsIcEEEESaIS5_ELN9__gnu_cxx12_Lock_policyE2EED0Ev
@ Size: 0x24
@ - - - - - - - - - - - - - - - - - - - - - - - - - - - - - 

FUNC_BEGIN _ZNSt23_Sp_counted_ptr_inplaceINSt8__detail4_NFAINSt7__cxx1112regex_traitsIcEEEESaIS5_ELN9__gnu_cxx12_Lock_policyE2EED0Ev
    /*00000000*/ MOV         IP, #16384                  @ 0x4000 
    /*00000004*/ PUSH        {R4, LR} 
    /*00000008*/ SUB         IP, SP, IP 
    /*0000000c*/ STR         R0, [IP, #4088]             @ 0xff8 
    /*00000010*/ MOV         R1, #56                     @ 0x38 
    /*00000014*/ MOV         R4, R0 
    /*00000018*/ BL          _ZdlPvj
    /*0000001c*/ MOV         R0, R4 
    /*00000020*/ POP         {R4, PC} 
FUNC_END _ZNSt23_Sp_counted_ptr_inplaceINSt8__detail4_NFAINSt7__cxx1112regex_traitsIcEEEESaIS5_ELN9__gnu_cxx12_Lock_policyE2EED0Ev


@ - - - - - - - - - - - - - - - - - - - - - - - - - - - - - 
@ .text._ZL4stouRKNSt7__cxx1112basic_stringIcSt11char_traitsIcESaIcEEE
@ Size: 0x15c
@ - - - - - - - - - - - - - - - - - - - - - - - - - - - - - 

FUNC_BEGIN _ZL4stouRKNSt7__cxx1112basic_stringIcSt11char_traitsIcESaIcEEE
    /*00000000*/ MOV         IP, #16384                  @ 0x4000 
    /*00000004*/ PUSH        {R4, R5, R6, R7, LR} 
    /*00000008*/ SUB         IP, SP, IP 
    /*0000000c*/ STR         R0, [IP, #4056]             @ 0xfd8 
    /*00000010*/ LDR         R5, [R0] 
    /*00000014*/ SUB         SP, SP, #20 
    /*00000018*/ LDR         R6, WORD_013c               @ LDR         R6, [PC, #284]              @ 0x000000000000013c 
    /*0000001c*/ BL          __errno_location
    /*00000020*/ LDR         R7, [R0] 
    /*00000024*/ MOV         R4, R0 
    /*00000028*/ ADD         R6, PC, R6 
    /*0000002c*/ MOV         R3, #0 
    /*00000030*/ STR         R3, [R4] 
    /*00000034*/ MOV         R0, R5 
    /*00000038*/ MOV         R2, #10 
    /*0000003c*/ ADD         R1, SP, #4 
    /*00000040*/ BL          strtoll
    /*00000044*/ LDR         R3, [SP, #4] 
    /*00000048*/ CMP         R5, R3 
    /*0000004c*/ BEQ         _ZL4stouRKNSt7__cxx1112basic_stringIcSt11char_traitsIcESaIcEEE_x11c
    /*00000050*/ LDR         R3, [R4] 
    /*00000054*/ CMP         R3, #34                     @ 0x22 
    /*00000058*/ BEQ         _ZL4stouRKNSt7__cxx1112basic_stringIcSt11char_traitsIcESaIcEEE_xa4
    /*0000005c*/ CMP         R3, #0 
    /*00000060*/ MOV         R3, #0 
    /*00000064*/ STREQ       R7, [R4] 
    /*00000068*/ MVN         R2, #0 
    /*0000006c*/ CMP         R1, R3 
    /*00000070*/ CMPEQ       R0, R2 
    /*00000074*/ BHI         _ZL4stouRKNSt7__cxx1112basic_stringIcSt11char_traitsIcESaIcEEE_x80
    /*00000078*/ ADD         SP, SP, #20 
    /*0000007c*/ POP         {R4, R5, R6, R7, PC} 
    _ZL4stouRKNSt7__cxx1112basic_stringIcSt11char_traitsIcESaIcEEE_x80:
    /*00000080*/ LDR         R2, WORD_0140               @ LDR         R2, [PC, #184]              @ 0x0000000000000140 
    /*00000084*/ MOV         R1, #4 
    /*00000088*/ LDR         R0, WORD_0144               @ LDR         R0, [PC, #180]              @ 0x0000000000000144 
    /*0000008c*/ ADD         R2, PC, R2 
    /*00000090*/ ADD         R0, PC, R0 
    /*00000094*/ BL          _Z15HIRT_LOG_PrintfPKc19tagHIRT_LOG_LEVEL_ES0_z
    _ZL4stouRKNSt7__cxx1112basic_stringIcSt11char_traitsIcESaIcEEE_x98:
    /*00000098*/ MVN         R0, #0 
    /*0000009c*/ ADD         SP, SP, #20 
    /*000000a0*/ POP         {R4, R5, R6, R7, PC} 
    _ZL4stouRKNSt7__cxx1112basic_stringIcSt11char_traitsIcESaIcEEE_xa4:
    /*000000a4*/ LDR         R0, WORD_0148               @ LDR         R0, [PC, #156]              @ 0x0000000000000148 
    /*000000a8*/ ADD         R0, PC, R0 
    /*000000ac*/ BL          _ZSt20__throw_out_of_rangePKc
    /*000000b0*/ LDR         R3, [R4] 
    /*000000b4*/ CMP         R3, #0 
    /*000000b8*/ STREQ       R7, [R4] 
    _ZL4stouRKNSt7__cxx1112basic_stringIcSt11char_traitsIcESaIcEEE_xbc:
    /*000000bc*/ CMP         R1, #1 
    /*000000c0*/ MOV         R4, R0 
    /*000000c4*/ BNE         _ZL4stouRKNSt7__cxx1112basic_stringIcSt11char_traitsIcESaIcEEE_x138
    /*000000c8*/ ADD         R5, SP, #8 
    /*000000cc*/ BL          __cxa_get_exception_ptr
    /*000000d0*/ MOV         R1, R0 
    /*000000d4*/ MOV         R0, R5 
    /*000000d8*/ BL          _ZNSt11logic_errorC2ERKS_
    /*000000dc*/ LDR         R3, WORD_014c               @ LDR         R3, [PC, #104]              @ 0x000000000000014c 
    /*000000e0*/ MOV         R0, R4 
    /*000000e4*/ LDR         R3, [R6, R3] 
    /*000000e8*/ ADD         R3, R3, #8 
    /*000000ec*/ STR         R3, [SP, #8] 
    /*000000f0*/ BL          __cxa_begin_catch
    /*000000f4*/ LDR         R2, WORD_0150               @ LDR         R2, [PC, #84]               @ 0x0000000000000150 
    /*000000f8*/ MOV         R1, #4 
    /*000000fc*/ LDR         R0, WORD_0154               @ LDR         R0, [PC, #80]               @ 0x0000000000000154 
    /*00000100*/ ADD         R2, PC, R2 
    /*00000104*/ ADD         R0, PC, R0 
    /*00000108*/ BL          _Z15HIRT_LOG_PrintfPKc19tagHIRT_LOG_LEVEL_ES0_z
    /*0000010c*/ MOV         R0, R5 
    /*00000110*/ BL          _ZNSt12out_of_rangeD1Ev
    /*00000114*/ BL          __cxa_end_catch
    /*00000118*/ B           _ZL4stouRKNSt7__cxx1112basic_stringIcSt11char_traitsIcESaIcEEE_x98
    _ZL4stouRKNSt7__cxx1112basic_stringIcSt11char_traitsIcESaIcEEE_x11c:
    /*0000011c*/ LDR         R0, WORD_0158               @ LDR         R0, [PC, #52]               @ 0x0000000000000158 
    /*00000120*/ ADD         R0, PC, R0 
    /*00000124*/ BL          _ZSt24__throw_invalid_argumentPKc
    /*00000128*/ B           _ZL4stouRKNSt7__cxx1112basic_stringIcSt11char_traitsIcESaIcEEE_xbc
    /*0000012c*/ MOV         R0, R5 
    /*00000130*/ BL          _ZNSt12out_of_rangeD1Ev
    /*00000134*/ BL          __cxa_end_catch
    _ZL4stouRKNSt7__cxx1112basic_stringIcSt11char_traitsIcESaIcEEE_x138:
    /*00000138*/ BL          __cxa_end_cleanup
    /*0000013c*/ WORD_013c: .word 0x0000010c
    /*00000140*/ WORD_0140: .word 0x000000ac
    /*00000144*/ WORD_0144: .word 0x000000ac
    /*00000148*/ WORD_0148: .word 0x00000098
    /*0000014c*/ WORD_014c: .word 0x00000000
    /*00000150*/ WORD_0150: .word 0x00000048
    /*00000154*/ WORD_0154: .word 0x00000048
    /*00000158*/ WORD_0158: .word 0x00000030
FUNC_END _ZL4stouRKNSt7__cxx1112basic_stringIcSt11char_traitsIcESaIcEEE


@ - - - - - - - - - - - - - - - - - - - - - - - - - - - - - 
@ .ARM.extab.text._ZL4stouRKNSt7__cxx1112basic_stringIcSt11char_traitsIcESaIcEEE
@ Size: 0x34
@ - - - - - - - - - - - - - - - - - - - - - - - - - - - - - 

@ - - - - - - - - - - - - - - - - - - - - - - - - - - - - - 
@ .text._ZNSt7__cxx1112basic_stringIcSt11char_traitsIcESaIcEE12_M_constructIPcEEvT_S7_St20forward_iterator_tag.isra.120
@ Size: 0xc0
@ - - - - - - - - - - - - - - - - - - - - - - - - - - - - - 

FUNC_BEGIN _ZNSt7__cxx1112basic_stringIcSt11char_traitsIcESaIcEE12_M_constructIPcEEvT_S7_St20forward_iterator_tag.isra.120
    /*00000000*/ MOV         IP, #16384                  @ 0x4000 
    /*00000004*/ PUSH        {R4, R5, R6, LR} 
    /*00000008*/ SUB         IP, SP, IP 
    /*0000000c*/ STR         R0, [IP, #4072]             @ 0xfe8 
    /*00000010*/ CLZ         R3, R1 
    /*00000014*/ CMP         R2, #0 
    /*00000018*/ SUB         SP, SP, #8 
    /*0000001c*/ LSR         R3, R3, #5 
    /*00000020*/ MOVEQ       R3, #0 
    /*00000024*/ CMP         R3, #0 
    /*00000028*/ BEQ         _ZNSt7__cxx1112basic_stringIcSt11char_traitsIcESaIcEE12_M_constructIPcEEvT_S7_St20forward_iterator_tag.isra.120_x38
    /*0000002c*/ LDR         R0, WORD_00bc               @ LDR         R0, [PC, #136]              @ 0x00000000000000bc 
    /*00000030*/ ADD         R0, PC, R0 
    /*00000034*/ BL          _ZSt19__throw_logic_errorPKc
    _ZNSt7__cxx1112basic_stringIcSt11char_traitsIcESaIcEE12_M_constructIPcEEvT_S7_St20forward_iterator_tag.isra.120_x38:
    /*00000038*/ SUB         R4, R2, R1 
    /*0000003c*/ MOV         R6, R1 
    /*00000040*/ STR         R4, [SP, #4] 
    /*00000044*/ CMP         R4, #15 
    /*00000048*/ MOV         R5, R0 
    /*0000004c*/ BHI         _ZNSt7__cxx1112basic_stringIcSt11char_traitsIcESaIcEE12_M_constructIPcEEvT_S7_St20forward_iterator_tag.isra.120_x78
    /*00000050*/ LDR         R0, [R5] 
    /*00000054*/ CMP         R4, #1 
    /*00000058*/ BEQ         _ZNSt7__cxx1112basic_stringIcSt11char_traitsIcESaIcEE12_M_constructIPcEEvT_S7_St20forward_iterator_tag.isra.120_xa8
    /*0000005c*/ CMP         R4, #0 
    /*00000060*/ BNE         _ZNSt7__cxx1112basic_stringIcSt11char_traitsIcESaIcEE12_M_constructIPcEEvT_S7_St20forward_iterator_tag.isra.120_x90
    _ZNSt7__cxx1112basic_stringIcSt11char_traitsIcESaIcEE12_M_constructIPcEEvT_S7_St20forward_iterator_tag.isra.120_x64:
    /*00000064*/ STR         R4, [R5, #4] 
    /*00000068*/ MOV         R3, #0 
    /*0000006c*/ STRB        R3, [R0, R4] 
    /*00000070*/ ADD         SP, SP, #8 
    /*00000074*/ POP         {R4, R5, R6, PC} 
    _ZNSt7__cxx1112basic_stringIcSt11char_traitsIcESaIcEE12_M_constructIPcEEvT_S7_St20forward_iterator_tag.isra.120_x78:
    /*00000078*/ MOV         R2, R3 
    /*0000007c*/ ADD         R1, SP, #4 
    /*00000080*/ BL          _ZNSt7__cxx1112basic_stringIcSt11char_traitsIcESaIcEE9_M_createERjj
    /*00000084*/ LDR         R3, [SP, #4] 
    /*00000088*/ STR         R0, [R5] 
    /*0000008c*/ STR         R3, [R5, #8] 
    _ZNSt7__cxx1112basic_stringIcSt11char_traitsIcESaIcEE12_M_constructIPcEEvT_S7_St20forward_iterator_tag.isra.120_x90:
    /*00000090*/ MOV         R2, R4 
    /*00000094*/ MOV         R1, R6 
    /*00000098*/ BL          memcpy
    /*0000009c*/ LDR         R4, [SP, #4] 
    /*000000a0*/ LDR         R0, [R5] 
    /*000000a4*/ B           _ZNSt7__cxx1112basic_stringIcSt11char_traitsIcESaIcEE12_M_constructIPcEEvT_S7_St20forward_iterator_tag.isra.120_x64
    _ZNSt7__cxx1112basic_stringIcSt11char_traitsIcESaIcEE12_M_constructIPcEEvT_S7_St20forward_iterator_tag.isra.120_xa8:
    /*000000a8*/ LDRB        R3, [R6] 
    /*000000ac*/ STRB        R3, [R0] 
    /*000000b0*/ LDR         R4, [SP, #4] 
    /*000000b4*/ LDR         R0, [R5] 
    /*000000b8*/ B           _ZNSt7__cxx1112basic_stringIcSt11char_traitsIcESaIcEE12_M_constructIPcEEvT_S7_St20forward_iterator_tag.isra.120_x64
    /*000000bc*/ WORD_00bc: .word 0x00000084
FUNC_END _ZNSt7__cxx1112basic_stringIcSt11char_traitsIcESaIcEE12_M_constructIPcEEvT_S7_St20forward_iterator_tag.isra.120


FUNC_BEGIN _ZNSt7__cxx1112basic_stringIcSt11char_traitsIcESaIcEE12_M_constructIPKcEEvT_S8_St20forward_iterator_tag.isra.112
    /*00000000*/ MOV         IP, #16384                  @ 0x4000 
    /*00000004*/ PUSH        {R4, R5, R6, LR} 
    /*00000008*/ SUB         IP, SP, IP 
    /*0000000c*/ STR         R0, [IP, #4072]             @ 0xfe8 
    /*00000010*/ CLZ         R3, R1 
    /*00000014*/ CMP         R2, #0 
    /*00000018*/ SUB         SP, SP, #8 
    /*0000001c*/ LSR         R3, R3, #5 
    /*00000020*/ MOVEQ       R3, #0 
    /*00000024*/ CMP         R3, #0 
    /*00000028*/ BEQ         _ZNSt7__cxx1112basic_stringIcSt11char_traitsIcESaIcEE12_M_constructIPKcEEvT_S8_St20forward_iterator_tag.isra.112_x38
    /*0000002c*/ LDR         R0, WORD_00bc               @ LDR         R0, [PC, #136]              @ 0x00000000000000bc 
    /*00000030*/ ADD         R0, PC, R0 
    /*00000034*/ BL          _ZSt19__throw_logic_errorPKc
    _ZNSt7__cxx1112basic_stringIcSt11char_traitsIcESaIcEE12_M_constructIPKcEEvT_S8_St20forward_iterator_tag.isra.112_x38:
    /*00000038*/ SUB         R4, R2, R1 
    /*0000003c*/ MOV         R6, R1 
    /*00000040*/ STR         R4, [SP, #4] 
    /*00000044*/ CMP         R4, #15 
    /*00000048*/ MOV         R5, R0 
    /*0000004c*/ BHI         _ZNSt7__cxx1112basic_stringIcSt11char_traitsIcESaIcEE12_M_constructIPKcEEvT_S8_St20forward_iterator_tag.isra.112_x78
    /*00000050*/ LDR         R0, [R5] 
    /*00000054*/ CMP         R4, #1 
    /*00000058*/ BEQ         _ZNSt7__cxx1112basic_stringIcSt11char_traitsIcESaIcEE12_M_constructIPKcEEvT_S8_St20forward_iterator_tag.isra.112_xa8
    /*0000005c*/ CMP         R4, #0 
    /*00000060*/ BNE         _ZNSt7__cxx1112basic_stringIcSt11char_traitsIcESaIcEE12_M_constructIPKcEEvT_S8_St20forward_iterator_tag.isra.112_x90
    _ZNSt7__cxx1112basic_stringIcSt11char_traitsIcESaIcEE12_M_constructIPKcEEvT_S8_St20forward_iterator_tag.isra.112_x64:
    /*00000064*/ STR         R4, [R5, #4] 
    /*00000068*/ MOV         R3, #0 
    /*0000006c*/ STRB        R3, [R0, R4] 
    /*00000070*/ ADD         SP, SP, #8 
    /*00000074*/ POP         {R4, R5, R6, PC} 
    _ZNSt7__cxx1112basic_stringIcSt11char_traitsIcESaIcEE12_M_constructIPKcEEvT_S8_St20forward_iterator_tag.isra.112_x78:
    /*00000078*/ MOV         R2, R3 
    /*0000007c*/ ADD         R1, SP, #4 
    /*00000080*/ BL          _ZNSt7__cxx1112basic_stringIcSt11char_traitsIcESaIcEE9_M_createERjj
    /*00000084*/ LDR         R3, [SP, #4] 
    /*00000088*/ STR         R0, [R5] 
    /*0000008c*/ STR         R3, [R5, #8] 
    _ZNSt7__cxx1112basic_stringIcSt11char_traitsIcESaIcEE12_M_constructIPKcEEvT_S8_St20forward_iterator_tag.isra.112_x90:
    /*00000090*/ MOV         R2, R4 
    /*00000094*/ MOV         R1, R6 
    /*00000098*/ BL          memcpy
    /*0000009c*/ LDR         R4, [SP, #4] 
    /*000000a0*/ LDR         R0, [R5] 
    /*000000a4*/ B           _ZNSt7__cxx1112basic_stringIcSt11char_traitsIcESaIcEE12_M_constructIPKcEEvT_S8_St20forward_iterator_tag.isra.112_x64
    _ZNSt7__cxx1112basic_stringIcSt11char_traitsIcESaIcEE12_M_constructIPKcEEvT_S8_St20forward_iterator_tag.isra.112_xa8:
    /*000000a8*/ LDRB        R3, [R6] 
    /*000000ac*/ STRB        R3, [R0] 
    /*000000b0*/ LDR         R4, [SP, #4] 
    /*000000b4*/ LDR         R0, [R5] 
    /*000000b8*/ B           _ZNSt7__cxx1112basic_stringIcSt11char_traitsIcESaIcEE12_M_constructIPKcEEvT_S8_St20forward_iterator_tag.isra.112_x64
    /*000000bc*/ WORD_00bc: .word 0x00000084
FUNC_END _ZNSt7__cxx1112basic_stringIcSt11char_traitsIcESaIcEE12_M_constructIPKcEEvT_S8_St20forward_iterator_tag.isra.112


@ - - - - - - - - - - - - - - - - - - - - - - - - - - - - - 
@ .text.startup._ZNSt7__cxx1112basic_stringIcSt11char_traitsIcESaIcEEC2EPKcRKS3_.isra.115
@ Size: 0x48
@ - - - - - - - - - - - - - - - - - - - - - - - - - - - - - 

FUNC_BEGIN _ZNSt7__cxx1112basic_stringIcSt11char_traitsIcESaIcEEC2EPKcRKS3_.isra.115
    /*00000000*/ MOV         IP, #16384                  @ 0x4000 
    /*00000004*/ PUSH        {R4, R5, R6, LR} 
    /*00000008*/ SUB         IP, SP, IP 
    /*0000000c*/ STR         R0, [IP, #4080]             @ 0xff0 
    /*00000010*/ SUBS        R5, R1, #0 
    /*00000014*/ ADD         R3, R0, #8 
    /*00000018*/ STR         R3, [R0] 
    /*0000001c*/ MOV         R4, R0 
    /*00000020*/ MVNEQ       R2, #0 
    /*00000024*/ BEQ         _ZNSt7__cxx1112basic_stringIcSt11char_traitsIcESaIcEEC2EPKcRKS3_.isra.115_x34
    /*00000028*/ MOV         R0, R5 
    /*0000002c*/ BL          strlen
    /*00000030*/ ADD         R2, R5, R0 
    _ZNSt7__cxx1112basic_stringIcSt11char_traitsIcESaIcEEC2EPKcRKS3_.isra.115_x34:
    /*00000034*/ MOV         R0, R4 
    /*00000038*/ MOV         R1, R5 
    /*0000003c*/ BL          _ZNSt7__cxx1112basic_stringIcSt11char_traitsIcESaIcEE12_M_constructIPKcEEvT_S8_St20forward_iterator_tag.isra.112
    /*00000040*/ MOV         R0, R4 
    /*00000044*/ POP         {R4, R5, R6, PC} 
FUNC_END _ZNSt7__cxx1112basic_stringIcSt11char_traitsIcESaIcEEC2EPKcRKS3_.isra.115


@ - - - - - - - - - - - - - - - - - - - - - - - - - - - - - 
@ .text._ZNSt7__cxx1112basic_stringIcSt11char_traitsIcESaIcEE12_M_constructIN9__gnu_cxx17__normal_iteratorIPKcS4_EEEEvT_SB_St20forward_iterator_tag.isra.139
@ Size: 0x98
@ - - - - - - - - - - - - - - - - - - - - - - - - - - - - - 

FUNC_BEGIN _ZNSt7__cxx1112basic_stringIcSt11char_traitsIcESaIcEE12_M_constructIN9__gnu_cxx17__normal_iteratorIPKcS4_EEEEvT_SB_St20forward_iterator_tag.isra.139
    /*00000000*/ MOV         IP, #16384                  @ 0x4000 
    /*00000004*/ PUSH        {R4, R5, R6, LR} 
    /*00000008*/ SUB         IP, SP, IP 
    /*0000000c*/ STR         R0, [IP, #4072]             @ 0xfe8 
    /*00000010*/ SUB         R4, R2, R1 
    /*00000014*/ SUB         SP, SP, #8 
    /*00000018*/ CMP         R4, #15 
    /*0000001c*/ MOV         R6, R1 
    /*00000020*/ STR         R4, [SP, #4] 
    /*00000024*/ MOV         R5, R0 
    /*00000028*/ BHI         _ZNSt7__cxx1112basic_stringIcSt11char_traitsIcESaIcEE12_M_constructIN9__gnu_cxx17__normal_iteratorIPKcS4_EEEEvT_SB_St20forward_iterator_tag.isra.139_x54
    /*0000002c*/ LDR         R0, [R0] 
    /*00000030*/ CMP         R4, #1 
    /*00000034*/ BEQ         _ZNSt7__cxx1112basic_stringIcSt11char_traitsIcESaIcEE12_M_constructIN9__gnu_cxx17__normal_iteratorIPKcS4_EEEEvT_SB_St20forward_iterator_tag.isra.139_x84
    /*00000038*/ CMP         R4, #0 
    /*0000003c*/ BNE         _ZNSt7__cxx1112basic_stringIcSt11char_traitsIcESaIcEE12_M_constructIN9__gnu_cxx17__normal_iteratorIPKcS4_EEEEvT_SB_St20forward_iterator_tag.isra.139_x6c
    _ZNSt7__cxx1112basic_stringIcSt11char_traitsIcESaIcEE12_M_constructIN9__gnu_cxx17__normal_iteratorIPKcS4_EEEEvT_SB_St20forward_iterator_tag.isra.139_x40:
    /*00000040*/ STR         R4, [R5, #4] 
    /*00000044*/ MOV         R3, #0 
    /*00000048*/ STRB        R3, [R0, R4] 
    /*0000004c*/ ADD         SP, SP, #8 
    /*00000050*/ POP         {R4, R5, R6, PC} 
    _ZNSt7__cxx1112basic_stringIcSt11char_traitsIcESaIcEE12_M_constructIN9__gnu_cxx17__normal_iteratorIPKcS4_EEEEvT_SB_St20forward_iterator_tag.isra.139_x54:
    /*00000054*/ MOV         R2, #0 
    /*00000058*/ ADD         R1, SP, #4 
    /*0000005c*/ BL          _ZNSt7__cxx1112basic_stringIcSt11char_traitsIcESaIcEE9_M_createERjj
    /*00000060*/ LDR         R3, [SP, #4] 
    /*00000064*/ STR         R0, [R5] 
    /*00000068*/ STR         R3, [R5, #8] 
    _ZNSt7__cxx1112basic_stringIcSt11char_traitsIcESaIcEE12_M_constructIN9__gnu_cxx17__normal_iteratorIPKcS4_EEEEvT_SB_St20forward_iterator_tag.isra.139_x6c:
    /*0000006c*/ MOV         R2, R4 
    /*00000070*/ MOV         R1, R6 
    /*00000074*/ BL          memcpy
    /*00000078*/ LDR         R4, [SP, #4] 
    /*0000007c*/ LDR         R0, [R5] 
    /*00000080*/ B           _ZNSt7__cxx1112basic_stringIcSt11char_traitsIcESaIcEE12_M_constructIN9__gnu_cxx17__normal_iteratorIPKcS4_EEEEvT_SB_St20forward_iterator_tag.isra.139_x40
    _ZNSt7__cxx1112basic_stringIcSt11char_traitsIcESaIcEE12_M_constructIN9__gnu_cxx17__normal_iteratorIPKcS4_EEEEvT_SB_St20forward_iterator_tag.isra.139_x84:
    /*00000084*/ LDRB        R3, [R1] 
    /*00000088*/ STRB        R3, [R0] 
    /*0000008c*/ LDR         R4, [SP, #4] 
    /*00000090*/ LDR         R0, [R5] 
    /*00000094*/ B           _ZNSt7__cxx1112basic_stringIcSt11char_traitsIcESaIcEE12_M_constructIN9__gnu_cxx17__normal_iteratorIPKcS4_EEEEvT_SB_St20forward_iterator_tag.isra.139_x40
FUNC_END _ZNSt7__cxx1112basic_stringIcSt11char_traitsIcESaIcEE12_M_constructIN9__gnu_cxx17__normal_iteratorIPKcS4_EEEEvT_SB_St20forward_iterator_tag.isra.139


@ - - - - - - - - - - - - - - - - - - - - - - - - - - - - - 
@ .text._ZNSt8__detail6_StateIcED2Ev.part.204
@ Size: 0x1c
@ - - - - - - - - - - - - - - - - - - - - - - - - - - - - - 

FUNC_BEGIN _ZNSt8__detail6_StateIcED2Ev.part.204
    /*00000000*/ LDR         R3, [R0, #16] 
    /*00000004*/ CMP         R3, #0 
    /*00000008*/ BXEQ        LR 
    /*0000000c*/ ADD         R1, R0, #8 
    /*00000010*/ MOV         R2, #3 
    /*00000014*/ MOV         R0, R1 
    /*00000018*/ BX          R3 
FUNC_END _ZNSt8__detail6_StateIcED2Ev.part.204


@ - - - - - - - - - - - - - - - - - - - - - - - - - - - - - 
@ .ARM.extab.text._ZNSt8__detail6_StateIcED2Ev.part.204
@ Size: 0xc
@ - - - - - - - - - - - - - - - - - - - - - - - - - - - - - 

@ - - - - - - - - - - - - - - - - - - - - - - - - - - - - - 
@ .text._ZNSt17_Function_handlerIFbcENSt8__detail11_AnyMatcherINSt7__cxx1112regex_traitsIcEELb0ELb0ELb0EEEE9_M_invokeERKSt9_Any_dataOc
@ Size: 0x84
@ - - - - - - - - - - - - - - - - - - - - - - - - - - - - - 

FUNC_BEGIN _ZNSt17_Function_handlerIFbcENSt8__detail11_AnyMatcherINSt7__cxx1112regex_traitsIcEELb0ELb0ELb0EEEE9_M_invokeERKSt9_Any_dataOc
    /*00000000*/ MOV         IP, #16384                  @ 0x4000 
    /*00000004*/ PUSH        {R4, R5, R6, R7, R8, LR} 
    /*00000008*/ SUB         IP, SP, IP 
    /*0000000c*/ STR         R0, [IP, #4072]             @ 0xfe8 
    /*00000010*/ LDR         R5, WORD_0078               @ LDR         R5, [PC, #96]               @ 0x0000000000000078 
    /*00000014*/ LDR         R3, WORD_007c               @ LDR         R3, [PC, #96]               @ 0x000000000000007c 
    /*00000018*/ ADD         R5, PC, R5 
    /*0000001c*/ LDRB        R7, [R1] 
    /*00000020*/ LDR         R6, [R5, R3] 
    /*00000024*/ LDRB        R3, [R6] 
    /*00000028*/ DMB         ISH 
    /*0000002c*/ ANDS        R4, R3, #1 
    /*00000030*/ BEQ         _ZNSt17_Function_handlerIFbcENSt8__detail11_AnyMatcherINSt7__cxx1112regex_traitsIcEELb0ELb0ELb0EEEE9_M_invokeERKSt9_Any_dataOc_x4c
    /*00000034*/ LDR         R3, WORD_0080               @ LDR         R3, [PC, #68]               @ 0x0000000000000080 
    /*00000038*/ LDR         R5, [R5, R3] 
    _ZNSt17_Function_handlerIFbcENSt8__detail11_AnyMatcherINSt7__cxx1112regex_traitsIcEELb0ELb0ELb0EEEE9_M_invokeERKSt9_Any_dataOc_x3c:
    /*0000003c*/ LDRB        R0, [R5] 
    /*00000040*/ SUBS        R0, R0, R7 
    /*00000044*/ MOVNE       R0, #1 
    /*00000048*/ POP         {R4, R5, R6, R7, R8, PC} 
    _ZNSt17_Function_handlerIFbcENSt8__detail11_AnyMatcherINSt7__cxx1112regex_traitsIcEELb0ELb0ELb0EEEE9_M_invokeERKSt9_Any_dataOc_x4c:
    /*0000004c*/ MOV         R0, R6 
    /*00000050*/ BL          __cxa_guard_acquire
    /*00000054*/ LDR         R3, WORD_0080               @ LDR         R3, [PC, #36]               @ 0x0000000000000080 
    /*00000058*/ CMP         R0, #0 
    /*0000005c*/ LDREQ       R5, [R5, R3] 
    /*00000060*/ BEQ         _ZNSt17_Function_handlerIFbcENSt8__detail11_AnyMatcherINSt7__cxx1112regex_traitsIcEELb0ELb0ELb0EEEE9_M_invokeERKSt9_Any_dataOc_x3c
    /*00000064*/ LDR         R5, [R5, R3] 
    /*00000068*/ MOV         R0, R6 
    /*0000006c*/ STRB        R4, [R5] 
    /*00000070*/ BL          __cxa_guard_release
    /*00000074*/ B           _ZNSt17_Function_handlerIFbcENSt8__detail11_AnyMatcherINSt7__cxx1112regex_traitsIcEELb0ELb0ELb0EEEE9_M_invokeERKSt9_Any_dataOc_x3c
    /*00000078*/ WORD_0078: .word 0x00000058
    /*0000007c*/ WORD_007c: .word 0x00000000
    /*00000080*/ WORD_0080: .word 0x00000000
FUNC_END _ZNSt17_Function_handlerIFbcENSt8__detail11_AnyMatcherINSt7__cxx1112regex_traitsIcEELb0ELb0ELb0EEEE9_M_invokeERKSt9_Any_dataOc


@ - - - - - - - - - - - - - - - - - - - - - - - - - - - - - 
@ .text._ZNSt17_Function_handlerIFbcENSt8__detail11_AnyMatcherINSt7__cxx1112regex_traitsIcEELb0ELb0ELb1EEEE9_M_invokeERKSt9_Any_dataOc
@ Size: 0x84
@ - - - - - - - - - - - - - - - - - - - - - - - - - - - - - 

FUNC_BEGIN _ZNSt17_Function_handlerIFbcENSt8__detail11_AnyMatcherINSt7__cxx1112regex_traitsIcEELb0ELb0ELb1EEEE9_M_invokeERKSt9_Any_dataOc
    /*00000000*/ MOV         IP, #16384                  @ 0x4000 
    /*00000004*/ PUSH        {R4, R5, R6, R7, R8, LR} 
    /*00000008*/ SUB         IP, SP, IP 
    /*0000000c*/ STR         R0, [IP, #4072]             @ 0xfe8 
    /*00000010*/ LDR         R5, WORD_0078               @ LDR         R5, [PC, #96]               @ 0x0000000000000078 
    /*00000014*/ LDR         R3, WORD_007c               @ LDR         R3, [PC, #96]               @ 0x000000000000007c 
    /*00000018*/ ADD         R5, PC, R5 
    /*0000001c*/ LDRB        R7, [R1] 
    /*00000020*/ LDR         R6, [R5, R3] 
    /*00000024*/ LDRB        R3, [R6] 
    /*00000028*/ DMB         ISH 
    /*0000002c*/ ANDS        R4, R3, #1 
    /*00000030*/ BEQ         _ZNSt17_Function_handlerIFbcENSt8__detail11_AnyMatcherINSt7__cxx1112regex_traitsIcEELb0ELb0ELb1EEEE9_M_invokeERKSt9_Any_dataOc_x4c
    /*00000034*/ LDR         R3, WORD_0080               @ LDR         R3, [PC, #68]               @ 0x0000000000000080 
    /*00000038*/ LDR         R5, [R5, R3] 
    _ZNSt17_Function_handlerIFbcENSt8__detail11_AnyMatcherINSt7__cxx1112regex_traitsIcEELb0ELb0ELb1EEEE9_M_invokeERKSt9_Any_dataOc_x3c:
    /*0000003c*/ LDRB        R0, [R5] 
    /*00000040*/ SUBS        R0, R0, R7 
    /*00000044*/ MOVNE       R0, #1 
    /*00000048*/ POP         {R4, R5, R6, R7, R8, PC} 
    _ZNSt17_Function_handlerIFbcENSt8__detail11_AnyMatcherINSt7__cxx1112regex_traitsIcEELb0ELb0ELb1EEEE9_M_invokeERKSt9_Any_dataOc_x4c:
    /*0000004c*/ MOV         R0, R6 
    /*00000050*/ BL          __cxa_guard_acquire
    /*00000054*/ LDR         R3, WORD_0080               @ LDR         R3, [PC, #36]               @ 0x0000000000000080 
    /*00000058*/ CMP         R0, #0 
    /*0000005c*/ LDREQ       R5, [R5, R3] 
    /*00000060*/ BEQ         _ZNSt17_Function_handlerIFbcENSt8__detail11_AnyMatcherINSt7__cxx1112regex_traitsIcEELb0ELb0ELb1EEEE9_M_invokeERKSt9_Any_dataOc_x3c
    /*00000064*/ LDR         R5, [R5, R3] 
    /*00000068*/ MOV         R0, R6 
    /*0000006c*/ STRB        R4, [R5] 
    /*00000070*/ BL          __cxa_guard_release
    /*00000074*/ B           _ZNSt17_Function_handlerIFbcENSt8__detail11_AnyMatcherINSt7__cxx1112regex_traitsIcEELb0ELb0ELb1EEEE9_M_invokeERKSt9_Any_dataOc_x3c
    /*00000078*/ WORD_0078: .word 0x00000058
    /*0000007c*/ WORD_007c: .word 0x00000000
    /*00000080*/ WORD_0080: .word 0x00000000
FUNC_END _ZNSt17_Function_handlerIFbcENSt8__detail11_AnyMatcherINSt7__cxx1112regex_traitsIcEELb0ELb0ELb1EEEE9_M_invokeERKSt9_Any_dataOc


@ - - - - - - - - - - - - - - - - - - - - - - - - - - - - - 
@ .text._ZNKSt7__cxx1113match_resultsIN9__gnu_cxx17__normal_iteratorIPKcNS_12basic_stringIcSt11char_traitsIcESaIcEEEEESaINS_9sub_matchISA_EEEE3strEj.constprop.663
@ Size: 0xa0
@ - - - - - - - - - - - - - - - - - - - - - - - - - - - - - 

FUNC_BEGIN _ZNKSt7__cxx1113match_resultsIN9__gnu_cxx17__normal_iteratorIPKcNS_12basic_stringIcSt11char_traitsIcESaIcEEEEESaINS_9sub_matchISA_EEEE3strEj.constprop.663
    /*00000000*/ MOV         IP, #16384                  @ 0x4000 
    /*00000004*/ PUSH        {R4, LR} 
    /*00000008*/ SUB         IP, SP, IP 
    /*0000000c*/ STR         R0, [IP, #4088]             @ 0xff8 
    /*00000010*/ LDM         R1, {R2, R3} 
    /*00000014*/ MOV         R4, R0 
    /*00000018*/ CMP         R2, R3 
    /*0000001c*/ BEQ         _ZNKSt7__cxx1113match_resultsIN9__gnu_cxx17__normal_iteratorIPKcNS_12basic_stringIcSt11char_traitsIcESaIcEEEEESaINS_9sub_matchISA_EEEE3strEj.constprop.663_x68
    /*00000020*/ SUB         R1, R3, R2 
    /*00000024*/ MOVW        R3, #43691                  @ 0xaaab 
    /*00000028*/ MOVT        R3, #43690                  @ 0xaaaa 
    /*0000002c*/ ASR         R1, R1, #2 
    /*00000030*/ MUL         R3, R3, R1 
    /*00000034*/ SUB         R3, R3, #3 
    /*00000038*/ CMP         R3, #1 
    /*0000003c*/ ADDHI       R2, R2, #12 
    /*00000040*/ BLS         _ZNKSt7__cxx1113match_resultsIN9__gnu_cxx17__normal_iteratorIPKcNS_12basic_stringIcSt11char_traitsIcESaIcEEEEESaINS_9sub_matchISA_EEEE3strEj.constprop.663_x6c
    /*00000044*/ LDRB        R3, [R2, #8] 
    /*00000048*/ CMP         R3, #0 
    /*0000004c*/ BNE         _ZNKSt7__cxx1113match_resultsIN9__gnu_cxx17__normal_iteratorIPKcNS_12basic_stringIcSt11char_traitsIcESaIcEEEEESaINS_9sub_matchISA_EEEE3strEj.constprop.663_x80
    _ZNKSt7__cxx1113match_resultsIN9__gnu_cxx17__normal_iteratorIPKcNS_12basic_stringIcSt11char_traitsIcESaIcEEEEESaINS_9sub_matchISA_EEEE3strEj.constprop.663_x50:
    /*00000050*/ STR         R3, [R4, #4] 
    /*00000054*/ ADD         R2, R4, #8 
    /*00000058*/ STRB        R3, [R4, #8] 
    /*0000005c*/ MOV         R0, R4 
    /*00000060*/ STR         R2, [R4] 
    /*00000064*/ POP         {R4, PC} 
    _ZNKSt7__cxx1113match_resultsIN9__gnu_cxx17__normal_iteratorIPKcNS_12basic_stringIcSt11char_traitsIcESaIcEEEEESaINS_9sub_matchISA_EEEE3strEj.constprop.663_x68:
    /*00000068*/ MVN         R3, #2 
    _ZNKSt7__cxx1113match_resultsIN9__gnu_cxx17__normal_iteratorIPKcNS_12basic_stringIcSt11char_traitsIcESaIcEEEEESaINS_9sub_matchISA_EEEE3strEj.constprop.663_x6c:
    /*0000006c*/ MOV         R1, #12 
    /*00000070*/ MLA         R2, R1, R3, R2 
    /*00000074*/ LDRB        R3, [R2, #8] 
    /*00000078*/ CMP         R3, #0 
    /*0000007c*/ BEQ         _ZNKSt7__cxx1113match_resultsIN9__gnu_cxx17__normal_iteratorIPKcNS_12basic_stringIcSt11char_traitsIcESaIcEEEEESaINS_9sub_matchISA_EEEE3strEj.constprop.663_x50
    _ZNKSt7__cxx1113match_resultsIN9__gnu_cxx17__normal_iteratorIPKcNS_12basic_stringIcSt11char_traitsIcESaIcEEEEESaINS_9sub_matchISA_EEEE3strEj.constprop.663_x80:
    /*00000080*/ LDR         R1, [R2] 
    /*00000084*/ ADD         R3, R4, #8 
    /*00000088*/ LDR         R2, [R2, #4] 
    /*0000008c*/ MOV         R0, R4 
    /*00000090*/ STR         R3, [R4] 
    /*00000094*/ BL          _ZNSt7__cxx1112basic_stringIcSt11char_traitsIcESaIcEE12_M_constructIN9__gnu_cxx17__normal_iteratorIPKcS4_EEEEvT_SB_St20forward_iterator_tag.isra.139
    /*00000098*/ MOV         R0, R4 
    /*0000009c*/ POP         {R4, PC} 
FUNC_END _ZNKSt7__cxx1113match_resultsIN9__gnu_cxx17__normal_iteratorIPKcNS_12basic_stringIcSt11char_traitsIcESaIcEEEEESaINS_9sub_matchISA_EEEE3strEj.constprop.663


@ - - - - - - - - - - - - - - - - - - - - - - - - - - - - - 
@ .text._ZNKSt7__cxx1112regex_traitsIcE7isctypeEcNS1_10_RegexMaskE.isra.258
@ Size: 0xb0
@ - - - - - - - - - - - - - - - - - - - - - - - - - - - - - 

FUNC_BEGIN _ZNKSt7__cxx1112regex_traitsIcE7isctypeEcNS1_10_RegexMaskE.isra.258
    /*00000000*/ MOV         IP, #16384                  @ 0x4000 
    /*00000004*/ PUSH        {R4, R5, R6, R7, R8, LR} 
    /*00000008*/ SUB         IP, SP, IP 
    /*0000000c*/ STR         R0, [IP, #4072]             @ 0xfe8 
    /*00000010*/ LDR         R7, WORD_00a8               @ LDR         R7, [PC, #144]              @ 0x00000000000000a8 
    /*00000014*/ MOV         R6, R1 
    /*00000018*/ MOV         R8, R2 
    /*0000001c*/ MOV         R4, R3 
    /*00000020*/ ADD         R7, PC, R7 
    /*00000024*/ BL          _ZSt9use_facetISt5ctypeIcEERKT_RKSt6locale
    /*00000028*/ LDR         R2, [R0, #24] 
    /*0000002c*/ LSL         R3, R6, #1 
    /*00000030*/ LDRH        R3, [R2, R3] 
    /*00000034*/ TST         R8, R3 
    /*00000038*/ BNE         _ZNKSt7__cxx1112regex_traitsIcE7isctypeEcNS1_10_RegexMaskE.isra.258_x70
    /*0000003c*/ ANDS        R4, R4, #1 
    /*00000040*/ BEQ         _ZNKSt7__cxx1112regex_traitsIcE7isctypeEcNS1_10_RegexMaskE.isra.258_x68
    /*00000044*/ LDRB        R3, [R0, #28] 
    /*00000048*/ MOV         R5, R0 
    /*0000004c*/ CMP         R3, #0 
    /*00000050*/ BEQ         _ZNKSt7__cxx1112regex_traitsIcE7isctypeEcNS1_10_RegexMaskE.isra.258_x78
    /*00000054*/ LDRB        R0, [R0, #124]              @ 0x7c 
    _ZNKSt7__cxx1112regex_traitsIcE7isctypeEcNS1_10_RegexMaskE.isra.258_x58:
    /*00000058*/ SUB         R0, R6, R0 
    /*0000005c*/ CLZ         R0, R0 
    /*00000060*/ LSR         R0, R0, #5 
    /*00000064*/ POP         {R4, R5, R6, R7, R8, PC} 
    _ZNKSt7__cxx1112regex_traitsIcE7isctypeEcNS1_10_RegexMaskE.isra.258_x68:
    /*00000068*/ MOV         R0, R4 
    /*0000006c*/ POP         {R4, R5, R6, R7, R8, PC} 
    _ZNKSt7__cxx1112regex_traitsIcE7isctypeEcNS1_10_RegexMaskE.isra.258_x70:
    /*00000070*/ MOV         R0, #1 
    /*00000074*/ POP         {R4, R5, R6, R7, R8, PC} 
    _ZNKSt7__cxx1112regex_traitsIcE7isctypeEcNS1_10_RegexMaskE.isra.258_x78:
    /*00000078*/ BL          _ZNKSt5ctypeIcE13_M_widen_initEv
    /*0000007c*/ LDR         R2, [R5] 
    /*00000080*/ LDR         R3, WORD_00ac               @ LDR         R3, [PC, #36]               @ 0x00000000000000ac 
    /*00000084*/ LDR         R2, [R2, #24] 
    /*00000088*/ LDR         R3, [R7, R3] 
    /*0000008c*/ CMP         R2, R3 
    /*00000090*/ MOVEQ       R0, #95                     @ 0x5f 
    /*00000094*/ BEQ         _ZNKSt7__cxx1112regex_traitsIcE7isctypeEcNS1_10_RegexMaskE.isra.258_x58
    /*00000098*/ MOV         R0, R5 
    /*0000009c*/ MOV         R1, #95                     @ 0x5f 
    /*000000a0*/ BLX         R2 
    /*000000a4*/ B           _ZNKSt7__cxx1112regex_traitsIcE7isctypeEcNS1_10_RegexMaskE.isra.258_x58
    /*000000a8*/ WORD_00a8: .word 0x00000080
    /*000000ac*/ WORD_00ac: .word 0x00000000
FUNC_END _ZNKSt7__cxx1112regex_traitsIcE7isctypeEcNS1_10_RegexMaskE.isra.258


@ - - - - - - - - - - - - - - - - - - - - - - - - - - - - - 
@ .text._ZN10hirtparser4BlobD0Ev
@ Size: 0x60
@ - - - - - - - - - - - - - - - - - - - - - - - - - - - - - 

FUNC_BEGIN _ZN10hirtparser4BlobD0Ev
    /*00000000*/ MOV         IP, #16384                  @ 0x4000 
    /*00000004*/ PUSH        {R4, LR} 
    /*00000008*/ SUB         IP, SP, IP 
    /*0000000c*/ STR         R0, [IP, #4088]             @ 0xff8 
    /*00000010*/ LDR         R3, WORD_005c               @ LDR         R3, [PC, #68]               @ 0x000000000000005c 
    /*00000014*/ MOV         R4, R0 
    /*00000018*/ LDR         R0, [R0, #20] 
    /*0000001c*/ ADD         R2, R4, #28 
    /*00000020*/ ADD         R3, PC, R3 
    /*00000024*/ CMP         R0, R2 
    /*00000028*/ ADD         R3, R3, #8 
    /*0000002c*/ STR         R3, [R4] 
    /*00000030*/ BEQ         _ZN10hirtparser4BlobD0Ev_x38
    /*00000034*/ BL          _ZdlPv
    _ZN10hirtparser4BlobD0Ev_x38:
    /*00000038*/ LDR         R0, [R4, #4] 
    /*0000003c*/ CMP         R0, #0 
    /*00000040*/ BEQ         _ZN10hirtparser4BlobD0Ev_x48
    /*00000044*/ BL          _ZdlPv
    _ZN10hirtparser4BlobD0Ev_x48:
    /*00000048*/ MOV         R0, R4 
    /*0000004c*/ MOV         R1, #68                     @ 0x44 
    /*00000050*/ BL          _ZdlPvj
    /*00000054*/ MOV         R0, R4 
    /*00000058*/ POP         {R4, PC} 
    /*0000005c*/ WORD_005c: .word 0x00000034
FUNC_END _ZN10hirtparser4BlobD0Ev


@ - - - - - - - - - - - - - - - - - - - - - - - - - - - - - 
@ .text._ZNSt17_Function_handlerIFbcENSt8__detail11_AnyMatcherINSt7__cxx1112regex_traitsIcEELb1ELb1ELb0EEEE9_M_invokeERKSt9_Any_dataOc
@ Size: 0x7c
@ - - - - - - - - - - - - - - - - - - - - - - - - - - - - - 

FUNC_BEGIN _ZNSt17_Function_handlerIFbcENSt8__detail11_AnyMatcherINSt7__cxx1112regex_traitsIcEELb1ELb1ELb0EEEE9_M_invokeERKSt9_Any_dataOc
    /*00000000*/ MOV         IP, #16384                  @ 0x4000 
    /*00000004*/ PUSH        {R4, R5, R6, LR} 
    /*00000008*/ SUB         IP, SP, IP 
    /*0000000c*/ STR         R0, [IP, #4080]             @ 0xff0 
    /*00000010*/ LDRB        R5, [R1] 
    /*00000014*/ MOV         R4, R0 
    /*00000018*/ LDR         R0, [R0] 
    /*0000001c*/ BL          _ZSt9use_facetISt5ctypeIcEERKT_RKSt6locale
    /*00000020*/ LDR         R3, [R0] 
    /*00000024*/ MOV         R1, R5 
    /*00000028*/ LDR         R3, [R3, #16] 
    /*0000002c*/ BLX         R3 
    /*00000030*/ MOV         R5, R0 
    /*00000034*/ LDR         R0, [R4] 
    /*00000038*/ BL          _ZSt9use_facetISt5ctypeIcEERKT_RKSt6locale
    /*0000003c*/ LDR         R3, [R0] 
    /*00000040*/ MOV         R1, #10 
    /*00000044*/ LDR         R3, [R3, #16] 
    /*00000048*/ BLX         R3 
    /*0000004c*/ MOV         R6, R0 
    /*00000050*/ LDR         R0, [R4] 
    /*00000054*/ BL          _ZSt9use_facetISt5ctypeIcEERKT_RKSt6locale
    /*00000058*/ LDR         R3, [R0] 
    /*0000005c*/ MOV         R1, #13 
    /*00000060*/ LDR         R3, [R3, #16] 
    /*00000064*/ BLX         R3 
    /*00000068*/ CMP         R6, R5 
    /*0000006c*/ CMPNE       R0, R5 
    /*00000070*/ MOVNE       R0, #1 
    /*00000074*/ MOVEQ       R0, #0 
    /*00000078*/ POP         {R4, R5, R6, PC} 
FUNC_END _ZNSt17_Function_handlerIFbcENSt8__detail11_AnyMatcherINSt7__cxx1112regex_traitsIcEELb1ELb1ELb0EEEE9_M_invokeERKSt9_Any_dataOc


@ - - - - - - - - - - - - - - - - - - - - - - - - - - - - - 
@ .text._ZNSt17_Function_handlerIFbcENSt8__detail12_CharMatcherINSt7__cxx1112regex_traitsIcEELb1ELb0EEEE9_M_invokeERKSt9_Any_dataOc
@ Size: 0x44
@ - - - - - - - - - - - - - - - - - - - - - - - - - - - - - 

FUNC_BEGIN _ZNSt17_Function_handlerIFbcENSt8__detail12_CharMatcherINSt7__cxx1112regex_traitsIcEELb1ELb0EEEE9_M_invokeERKSt9_Any_dataOc
    /*00000000*/ MOV         IP, #16384                  @ 0x4000 
    /*00000004*/ PUSH        {R4, R5, R6, LR} 
    /*00000008*/ SUB         IP, SP, IP 
    /*0000000c*/ STR         R0, [IP, #4080]             @ 0xff0 
    /*00000010*/ LDRB        R5, [R1] 
    /*00000014*/ MOV         R3, R0 
    /*00000018*/ LDR         R0, [R0] 
    /*0000001c*/ LDRB        R4, [R3, #4] 
    /*00000020*/ BL          _ZSt9use_facetISt5ctypeIcEERKT_RKSt6locale
    /*00000024*/ LDR         R3, [R0] 
    /*00000028*/ MOV         R1, R5 
    /*0000002c*/ LDR         R3, [R3, #16] 
    /*00000030*/ BLX         R3 
    /*00000034*/ SUB         R0, R4, R0 
    /*00000038*/ CLZ         R0, R0 
    /*0000003c*/ LSR         R0, R0, #5 
    /*00000040*/ POP         {R4, R5, R6, PC} 
FUNC_END _ZNSt17_Function_handlerIFbcENSt8__detail12_CharMatcherINSt7__cxx1112regex_traitsIcEELb1ELb0EEEE9_M_invokeERKSt9_Any_dataOc


@ - - - - - - - - - - - - - - - - - - - - - - - - - - - - - 
@ .text._ZNSt17_Function_handlerIFbcENSt8__detail11_AnyMatcherINSt7__cxx1112regex_traitsIcEELb1ELb1ELb1EEEE9_M_invokeERKSt9_Any_dataOc
@ Size: 0x7c
@ - - - - - - - - - - - - - - - - - - - - - - - - - - - - - 

FUNC_BEGIN _ZNSt17_Function_handlerIFbcENSt8__detail11_AnyMatcherINSt7__cxx1112regex_traitsIcEELb1ELb1ELb1EEEE9_M_invokeERKSt9_Any_dataOc
    /*00000000*/ MOV         IP, #16384                  @ 0x4000 
    /*00000004*/ PUSH        {R4, R5, R6, LR} 
    /*00000008*/ SUB         IP, SP, IP 
    /*0000000c*/ STR         R0, [IP, #4080]             @ 0xff0 
    /*00000010*/ LDRB        R5, [R1] 
    /*00000014*/ MOV         R4, R0 
    /*00000018*/ LDR         R0, [R0] 
    /*0000001c*/ BL          _ZSt9use_facetISt5ctypeIcEERKT_RKSt6locale
    /*00000020*/ LDR         R3, [R0] 
    /*00000024*/ MOV         R1, R5 
    /*00000028*/ LDR         R3, [R3, #16] 
    /*0000002c*/ BLX         R3 
    /*00000030*/ MOV         R5, R0 
    /*00000034*/ LDR         R0, [R4] 
    /*00000038*/ BL          _ZSt9use_facetISt5ctypeIcEERKT_RKSt6locale
    /*0000003c*/ LDR         R3, [R0] 
    /*00000040*/ MOV         R1, #10 
    /*00000044*/ LDR         R3, [R3, #16] 
    /*00000048*/ BLX         R3 
    /*0000004c*/ MOV         R6, R0 
    /*00000050*/ LDR         R0, [R4] 
    /*00000054*/ BL          _ZSt9use_facetISt5ctypeIcEERKT_RKSt6locale
    /*00000058*/ LDR         R3, [R0] 
    /*0000005c*/ MOV         R1, #13 
    /*00000060*/ LDR         R3, [R3, #16] 
    /*00000064*/ BLX         R3 
    /*00000068*/ CMP         R6, R5 
    /*0000006c*/ CMPNE       R0, R5 
    /*00000070*/ MOVNE       R0, #1 
    /*00000074*/ MOVEQ       R0, #0 
    /*00000078*/ POP         {R4, R5, R6, PC} 
FUNC_END _ZNSt17_Function_handlerIFbcENSt8__detail11_AnyMatcherINSt7__cxx1112regex_traitsIcEELb1ELb1ELb1EEEE9_M_invokeERKSt9_Any_dataOc


@ - - - - - - - - - - - - - - - - - - - - - - - - - - - - - 
@ .text._ZNSt17_Function_handlerIFbcENSt8__detail12_CharMatcherINSt7__cxx1112regex_traitsIcEELb1ELb1EEEE9_M_invokeERKSt9_Any_dataOc
@ Size: 0x44
@ - - - - - - - - - - - - - - - - - - - - - - - - - - - - - 

FUNC_BEGIN _ZNSt17_Function_handlerIFbcENSt8__detail12_CharMatcherINSt7__cxx1112regex_traitsIcEELb1ELb1EEEE9_M_invokeERKSt9_Any_dataOc
    /*00000000*/ MOV         IP, #16384                  @ 0x4000 
    /*00000004*/ PUSH        {R4, R5, R6, LR} 
    /*00000008*/ SUB         IP, SP, IP 
    /*0000000c*/ STR         R0, [IP, #4080]             @ 0xff0 
    /*00000010*/ LDRB        R5, [R1] 
    /*00000014*/ MOV         R3, R0 
    /*00000018*/ LDR         R0, [R0] 
    /*0000001c*/ LDRB        R4, [R3, #4] 
    /*00000020*/ BL          _ZSt9use_facetISt5ctypeIcEERKT_RKSt6locale
    /*00000024*/ LDR         R3, [R0] 
    /*00000028*/ MOV         R1, R5 
    /*0000002c*/ LDR         R3, [R3, #16] 
    /*00000030*/ BLX         R3 
    /*00000034*/ SUB         R0, R4, R0 
    /*00000038*/ CLZ         R0, R0 
    /*0000003c*/ LSR         R0, R0, #5 
    /*00000040*/ POP         {R4, R5, R6, PC} 
FUNC_END _ZNSt17_Function_handlerIFbcENSt8__detail12_CharMatcherINSt7__cxx1112regex_traitsIcEELb1ELb1EEEE9_M_invokeERKSt9_Any_dataOc


@ - - - - - - - - - - - - - - - - - - - - - - - - - - - - - 
@ .text._ZNKSt7__cxx1112regex_traitsIcE5valueEci.constprop.656
@ Size: 0x174
@ - - - - - - - - - - - - - - - - - - - - - - - - - - - - - 

FUNC_BEGIN _ZNKSt7__cxx1112regex_traitsIcE5valueEci.constprop.656
    /*00000000*/ MOV         IP, #16384                  @ 0x4000 
    /*00000004*/ PUSH        {R4, R5, R6, R7, R8, LR} 
    /*00000008*/ SUB         IP, SP, IP 
    /*0000000c*/ STR         R0, [IP, #3832]             @ 0xef8 
    /*00000010*/ LDR         R4, WORD_0158               @ LDR         R4, [PC, #320]              @ 0x0000000000000158 
    /*00000014*/ SUB         SP, SP, #240                @ 0xf0 
    /*00000018*/ LDR         R3, WORD_015c               @ LDR         R3, [PC, #316]              @ 0x000000000000015c 
    /*0000001c*/ ADD         R5, SP, #8 
    /*00000020*/ ADD         R4, PC, R4 
    /*00000024*/ MOV         R2, R0 
    /*00000028*/ MOV         R1, #1 
    /*0000002c*/ MOV         R0, R5 
    /*00000030*/ LDR         R6, [R4, R3] 
    /*00000034*/ ADD         R8, SP, #16 
    /*00000038*/ STR         R8, [SP, #8] 
    /*0000003c*/ ADD         R7, SP, #32 
    /*00000040*/ LDR         R3, [R6] 
    /*00000044*/ STR         R3, [SP, #236]              @ 0xec 
    /*00000048*/ BL          _ZNSt7__cxx1112basic_stringIcSt11char_traitsIcESaIcEE12_M_constructEjc
    /*0000004c*/ MOV         R1, R5 
    /*00000050*/ MOV         R0, R7 
    /*00000054*/ MOV         R2, #8 
    /*00000058*/ BL          _ZNSt7__cxx1119basic_istringstreamIcSt11char_traitsIcESaIcEEC1ERKNS_12basic_stringIcS2_S3_EESt13_Ios_Openmode
    /*0000005c*/ LDR         R0, [SP, #8] 
    /*00000060*/ CMP         R0, R8 
    /*00000064*/ BEQ         _ZNKSt7__cxx1112regex_traitsIcE5valueEci.constprop.656_x6c
    /*00000068*/ BL          _ZdlPv
    _ZNKSt7__cxx1112regex_traitsIcE5valueEci.constprop.656_x6c:
    /*0000006c*/ ADD         R1, SP, #4 
    /*00000070*/ MOV         R0, R7 
    /*00000074*/ BL          _ZNSi10_M_extractIlEERSiRT_
    /*00000078*/ LDR         R3, [SP, #120]              @ 0x78 
    /*0000007c*/ ADD         R1, SP, #84                 @ 0x54 
    /*00000080*/ LDR         R0, [SP, #76]               @ 0x4c 
    /*00000084*/ LDR         R2, WORD_0160               @ LDR         R2, [PC, #212]              @ 0x0000000000000160 
    /*00000088*/ TST         R3, #5 
    /*0000008c*/ LDR         R3, WORD_0164               @ LDR         R3, [PC, #208]              @ 0x0000000000000164 
    /*00000090*/ MVNNE       R5, #0 
    /*00000094*/ LDREQ       R5, [SP, #4] 
    /*00000098*/ LDR         R3, [R4, R3] 
    /*0000009c*/ CMP         R0, R1 
    /*000000a0*/ ADD         R1, R3, #12 
    /*000000a4*/ ADD         R3, R3, #32 
    /*000000a8*/ STR         R1, [SP, #32] 
    /*000000ac*/ STR         R3, [SP, #100]              @ 0x64 
    /*000000b0*/ LDR         R3, [R4, R2] 
    /*000000b4*/ ADD         R3, R3, #8 
    /*000000b8*/ STR         R3, [SP, #40]               @ 0x28 
    /*000000bc*/ BEQ         _ZNKSt7__cxx1112regex_traitsIcE5valueEci.constprop.656_xc4
    /*000000c0*/ BL          _ZdlPv
    _ZNKSt7__cxx1112regex_traitsIcE5valueEci.constprop.656_xc4:
    /*000000c4*/ LDR         R3, WORD_0168               @ LDR         R3, [PC, #156]              @ 0x0000000000000168 
    /*000000c8*/ ADD         R0, SP, #68                 @ 0x44 
    /*000000cc*/ LDR         R3, [R4, R3] 
    /*000000d0*/ ADD         R3, R3, #8 
    /*000000d4*/ STR         R3, [SP, #40]               @ 0x28 
    /*000000d8*/ BL          _ZNSt6localeD1Ev
    /*000000dc*/ LDR         R2, WORD_016c               @ LDR         R2, [PC, #136]              @ 0x000000000000016c 
    /*000000e0*/ ADD         R0, SP, #240                @ 0xf0 
    /*000000e4*/ LDR         R3, WORD_0170               @ LDR         R3, [PC, #132]              @ 0x0000000000000170 
    /*000000e8*/ MOV         IP, #0 
    /*000000ec*/ LDR         R2, [R4, R2] 
    /*000000f0*/ LDMIB       R2, {R1, LR} 
    /*000000f4*/ LDR         R2, [R1, #-12] 
    /*000000f8*/ STR         R1, [SP, #32] 
    /*000000fc*/ ADD         R2, R0, R2 
    /*00000100*/ STR         LR, [R2, #-208]             @ 0xffffff30 
    /*00000104*/ STR         IP, [SP, #36]               @ 0x24 
    /*00000108*/ LDR         R3, [R4, R3] 
    /*0000010c*/ ADD         R3, R3, #8 
    /*00000110*/ STR         R3, [R0, #-140]!            @ 0xffffff74 
    /*00000114*/ BL          _ZNSt8ios_baseD2Ev
    /*00000118*/ LDR         R2, [SP, #236]              @ 0xec 
    /*0000011c*/ MOV         R0, R5 
    /*00000120*/ LDR         R3, [R6] 
    /*00000124*/ CMP         R2, R3 
    /*00000128*/ BNE         _ZNKSt7__cxx1112regex_traitsIcE5valueEci.constprop.656_x134
    /*0000012c*/ ADD         SP, SP, #240                @ 0xf0 
    /*00000130*/ POP         {R4, R5, R6, R7, R8, PC} 
    _ZNKSt7__cxx1112regex_traitsIcE5valueEci.constprop.656_x134:
    /*00000134*/ BL          __stack_chk_fail
    /*00000138*/ MOV         R0, R7 
    /*0000013c*/ BL          _ZNSt7__cxx1119basic_istringstreamIcSt11char_traitsIcESaIcEED1Ev
    _ZNKSt7__cxx1112regex_traitsIcE5valueEci.constprop.656_x140:
    /*00000140*/ BL          __cxa_end_cleanup
    /*00000144*/ LDR         R0, [SP, #8] 
    /*00000148*/ CMP         R0, R8 
    /*0000014c*/ BEQ         _ZNKSt7__cxx1112regex_traitsIcE5valueEci.constprop.656_x140
    /*00000150*/ BL          _ZdlPv
    /*00000154*/ B           _ZNKSt7__cxx1112regex_traitsIcE5valueEci.constprop.656_x140
    /*00000158*/ WORD_0158: .word 0x00000130
    /*0000015c*/ WORD_015c: .word 0x00000000
    /*00000160*/ WORD_0160: .word 0x00000000
    /*00000164*/ WORD_0164: .word 0x00000000
    /*00000168*/ WORD_0168: .word 0x00000000
    /*0000016c*/ WORD_016c: .word 0x00000000
    /*00000170*/ WORD_0170: .word 0x00000000
FUNC_END _ZNKSt7__cxx1112regex_traitsIcE5valueEci.constprop.656


@ - - - - - - - - - - - - - - - - - - - - - - - - - - - - - 
@ .ARM.extab.text._ZNKSt7__cxx1112regex_traitsIcE5valueEci.constprop.656
@ Size: 0x1f
@ - - - - - - - - - - - - - - - - - - - - - - - - - - - - - 

@ - - - - - - - - - - - - - - - - - - - - - - - - - - - - - 
@ .text._ZNKSt8__detail16_RegexTranslatorINSt7__cxx1112regex_traitsIcEELb0ELb1EE17_M_transform_implEcSt17integral_constantIbLb1EE.isra.633
@ Size: 0x170
@ - - - - - - - - - - - - - - - - - - - - - - - - - - - - - 

FUNC_BEGIN _ZNKSt8__detail16_RegexTranslatorINSt7__cxx1112regex_traitsIcEELb0ELb1EE17_M_transform_implEcSt17integral_constantIbLb1EE.isra.633
    /*00000000*/ MOV         IP, #16384                  @ 0x4000 
    /*00000004*/ PUSH        {R4, R5, R6, R7, R8, R9, SL, LR} 
    /*00000008*/ SUB         IP, SP, IP 
    /*0000000c*/ STR         R0, [IP, #4008]             @ 0xfa8 
    /*00000010*/ LDR         R3, WORD_0168               @ LDR         R3, [PC, #336]              @ 0x0000000000000168 
    /*00000014*/ MOV         R4, R1 
    /*00000018*/ LDR         R1, WORD_016c               @ LDR         R1, [PC, #332]              @ 0x000000000000016c 
    /*0000001c*/ SUB         SP, SP, #56                 @ 0x38 
    /*00000020*/ ADD         R3, PC, R3 
    /*00000024*/ MOV         R7, R0 
    /*00000028*/ ADD         R6, SP, #12 
    /*0000002c*/ ADD         R0, SP, #4 
    /*00000030*/ LDR         R8, [R3, R1] 
    /*00000034*/ MOV         R1, #1 
    /*00000038*/ STR         R6, [SP, #4] 
    /*0000003c*/ LDR         IP, [R8] 
    /*00000040*/ STR         IP, [SP, #52]               @ 0x34 
    /*00000044*/ BL          _ZNSt7__cxx1112basic_stringIcSt11char_traitsIcESaIcEE12_M_constructEjc
    /*00000048*/ LDR         R0, [R4] 
    /*0000004c*/ LDR         SL, [SP, #4] 
    /*00000050*/ LDR         R4, [SP, #8] 
    /*00000054*/ BL          _ZSt9use_facetINSt7__cxx117collateIcEEERKT_RKSt6locale
    /*00000058*/ STR         R4, [SP] 
    /*0000005c*/ CMP         R4, #15 
    /*00000060*/ ADD         R5, SP, #36                 @ 0x24 
    /*00000064*/ MOV         R9, R0 
    /*00000068*/ STR         R5, [SP, #28] 
    /*0000006c*/ ADD         R0, SP, #28 
    /*00000070*/ BHI         _ZNKSt8__detail16_RegexTranslatorINSt7__cxx1112regex_traitsIcEELb0ELb1EE17_M_transform_implEcSt17integral_constantIbLb1EE.isra.633_xf4
    /*00000074*/ CMP         R4, #1 
    /*00000078*/ BEQ         _ZNKSt8__detail16_RegexTranslatorINSt7__cxx1112regex_traitsIcEELb0ELb1EE17_M_transform_implEcSt17integral_constantIbLb1EE.isra.633_x124
    /*0000007c*/ CMP         R4, #0 
    /*00000080*/ MOVEQ       R2, R5 
    /*00000084*/ BNE         _ZNKSt8__detail16_RegexTranslatorINSt7__cxx1112regex_traitsIcEELb0ELb1EE17_M_transform_implEcSt17integral_constantIbLb1EE.isra.633_x134
    _ZNKSt8__detail16_RegexTranslatorINSt7__cxx1112regex_traitsIcEELb0ELb1EE17_M_transform_implEcSt17integral_constantIbLb1EE.isra.633_x88:
    /*00000088*/ STR         R4, [SP, #32] 
    /*0000008c*/ MOV         R3, #0 
    /*00000090*/ STRB        R3, [R2, R4] 
    /*00000094*/ MOV         R1, R9 
    /*00000098*/ LDR         R3, [SP, #28] 
    /*0000009c*/ MOV         R0, R7 
    /*000000a0*/ LDR         LR, [SP, #32] 
    /*000000a4*/ LDR         IP, [R9] 
    /*000000a8*/ MOV         R2, R3 
    /*000000ac*/ ADD         R3, R3, LR 
    /*000000b0*/ LDR         R4, [IP, #12] 
    /*000000b4*/ BLX         R4 
    /*000000b8*/ LDR         R0, [SP, #28] 
    /*000000bc*/ CMP         R0, R5 
    /*000000c0*/ BEQ         _ZNKSt8__detail16_RegexTranslatorINSt7__cxx1112regex_traitsIcEELb0ELb1EE17_M_transform_implEcSt17integral_constantIbLb1EE.isra.633_xc8
    /*000000c4*/ BL          _ZdlPv
    _ZNKSt8__detail16_RegexTranslatorINSt7__cxx1112regex_traitsIcEELb0ELb1EE17_M_transform_implEcSt17integral_constantIbLb1EE.isra.633_xc8:
    /*000000c8*/ LDR         R0, [SP, #4] 
    /*000000cc*/ CMP         R0, R6 
    /*000000d0*/ BEQ         _ZNKSt8__detail16_RegexTranslatorINSt7__cxx1112regex_traitsIcEELb0ELb1EE17_M_transform_implEcSt17integral_constantIbLb1EE.isra.633_xd8
    /*000000d4*/ BL          _ZdlPv
    _ZNKSt8__detail16_RegexTranslatorINSt7__cxx1112regex_traitsIcEELb0ELb1EE17_M_transform_implEcSt17integral_constantIbLb1EE.isra.633_xd8:
    /*000000d8*/ LDR         R2, [SP, #52]               @ 0x34 
    /*000000dc*/ MOV         R0, R7 
    /*000000e0*/ LDR         R3, [R8] 
    /*000000e4*/ CMP         R2, R3 
    /*000000e8*/ BNE         _ZNKSt8__detail16_RegexTranslatorINSt7__cxx1112regex_traitsIcEELb0ELb1EE17_M_transform_implEcSt17integral_constantIbLb1EE.isra.633_x13c
    /*000000ec*/ ADD         SP, SP, #56                 @ 0x38 
    /*000000f0*/ POP         {R4, R5, R6, R7, R8, R9, SL, PC} 
    _ZNKSt8__detail16_RegexTranslatorINSt7__cxx1112regex_traitsIcEELb0ELb1EE17_M_transform_implEcSt17integral_constantIbLb1EE.isra.633_xf4:
    /*000000f4*/ MOV         R2, #0 
    /*000000f8*/ MOV         R1, SP 
    /*000000fc*/ BL          _ZNSt7__cxx1112basic_stringIcSt11char_traitsIcESaIcEE9_M_createERjj
    /*00000100*/ LDR         R3, [SP] 
    /*00000104*/ STR         R0, [SP, #28] 
    /*00000108*/ STR         R3, [SP, #36]               @ 0x24 
    _ZNKSt8__detail16_RegexTranslatorINSt7__cxx1112regex_traitsIcEELb0ELb1EE17_M_transform_implEcSt17integral_constantIbLb1EE.isra.633_x10c:
    /*0000010c*/ MOV         R2, R4 
    /*00000110*/ MOV         R1, SL 
    /*00000114*/ BL          memcpy
    /*00000118*/ LDR         R4, [SP] 
    /*0000011c*/ LDR         R2, [SP, #28] 
    /*00000120*/ B           _ZNKSt8__detail16_RegexTranslatorINSt7__cxx1112regex_traitsIcEELb0ELb1EE17_M_transform_implEcSt17integral_constantIbLb1EE.isra.633_x88
    _ZNKSt8__detail16_RegexTranslatorINSt7__cxx1112regex_traitsIcEELb0ELb1EE17_M_transform_implEcSt17integral_constantIbLb1EE.isra.633_x124:
    /*00000124*/ LDRB        R3, [SL] 
    /*00000128*/ MOV         R2, R5 
    /*0000012c*/ STRB        R3, [SP, #36]               @ 0x24 
    /*00000130*/ B           _ZNKSt8__detail16_RegexTranslatorINSt7__cxx1112regex_traitsIcEELb0ELb1EE17_M_transform_implEcSt17integral_constantIbLb1EE.isra.633_x88
    _ZNKSt8__detail16_RegexTranslatorINSt7__cxx1112regex_traitsIcEELb0ELb1EE17_M_transform_implEcSt17integral_constantIbLb1EE.isra.633_x134:
    /*00000134*/ MOV         R0, R5 
    /*00000138*/ B           _ZNKSt8__detail16_RegexTranslatorINSt7__cxx1112regex_traitsIcEELb0ELb1EE17_M_transform_implEcSt17integral_constantIbLb1EE.isra.633_x10c
    _ZNKSt8__detail16_RegexTranslatorINSt7__cxx1112regex_traitsIcEELb0ELb1EE17_M_transform_implEcSt17integral_constantIbLb1EE.isra.633_x13c:
    /*0000013c*/ BL          __stack_chk_fail
    _ZNKSt8__detail16_RegexTranslatorINSt7__cxx1112regex_traitsIcEELb0ELb1EE17_M_transform_implEcSt17integral_constantIbLb1EE.isra.633_x140:
    /*00000140*/ LDR         R0, [SP, #4] 
    /*00000144*/ CMP         R0, R6 
    /*00000148*/ BEQ         _ZNKSt8__detail16_RegexTranslatorINSt7__cxx1112regex_traitsIcEELb0ELb1EE17_M_transform_implEcSt17integral_constantIbLb1EE.isra.633_x150
    /*0000014c*/ BL          _ZdlPv
    _ZNKSt8__detail16_RegexTranslatorINSt7__cxx1112regex_traitsIcEELb0ELb1EE17_M_transform_implEcSt17integral_constantIbLb1EE.isra.633_x150:
    /*00000150*/ BL          __cxa_end_cleanup
    /*00000154*/ LDR         R0, [SP, #28] 
    /*00000158*/ CMP         R0, R5 
    /*0000015c*/ BEQ         _ZNKSt8__detail16_RegexTranslatorINSt7__cxx1112regex_traitsIcEELb0ELb1EE17_M_transform_implEcSt17integral_constantIbLb1EE.isra.633_x140
    /*00000160*/ BL          _ZdlPv
    /*00000164*/ B           _ZNKSt8__detail16_RegexTranslatorINSt7__cxx1112regex_traitsIcEELb0ELb1EE17_M_transform_implEcSt17integral_constantIbLb1EE.isra.633_x140
    /*00000168*/ WORD_0168: .word 0x00000140
    /*0000016c*/ WORD_016c: .word 0x00000000
FUNC_END _ZNKSt8__detail16_RegexTranslatorINSt7__cxx1112regex_traitsIcEELb0ELb1EE17_M_transform_implEcSt17integral_constantIbLb1EE.isra.633


@ - - - - - - - - - - - - - - - - - - - - - - - - - - - - - 
@ .ARM.extab.text._ZNKSt8__detail16_RegexTranslatorINSt7__cxx1112regex_traitsIcEELb0ELb1EE17_M_transform_implEcSt17integral_constantIbLb1EE.isra.633
@ Size: 0x26
@ - - - - - - - - - - - - - - - - - - - - - - - - - - - - - 

@ - - - - - - - - - - - - - - - - - - - - - - - - - - - - - 
@ .text._ZNKSt8__detail16_RegexTranslatorINSt7__cxx1112regex_traitsIcEELb1ELb1EE17_M_transform_implEcSt17integral_constantIbLb1EE.isra.635
@ Size: 0x190
@ - - - - - - - - - - - - - - - - - - - - - - - - - - - - - 

FUNC_BEGIN _ZNKSt8__detail16_RegexTranslatorINSt7__cxx1112regex_traitsIcEELb1ELb1EE17_M_transform_implEcSt17integral_constantIbLb1EE.isra.635
    /*00000000*/ MOV         IP, #16384                  @ 0x4000 
    /*00000004*/ PUSH        {R4, R5, R6, R7, R8, R9, SL, LR} 
    /*00000008*/ SUB         IP, SP, IP 
    /*0000000c*/ STR         R0, [IP, #4008]             @ 0xfa8 
    /*00000010*/ LDR         R3, WORD_0188               @ LDR         R3, [PC, #368]              @ 0x0000000000000188 
    /*00000014*/ SUB         SP, SP, #56                 @ 0x38 
    /*00000018*/ LDR         IP, WORD_018c               @ LDR         IP, [PC, #364]              @ 0x000000000000018c 
    /*0000001c*/ MOV         R7, R0 
    /*00000020*/ ADD         R3, PC, R3 
    /*00000024*/ MOV         R4, R1 
    /*00000028*/ LDR         R0, [R1] 
    /*0000002c*/ MOV         R5, R2 
    /*00000030*/ LDR         R8, [R3, IP] 
    /*00000034*/ ADD         R6, SP, #12 
    /*00000038*/ LDR         R3, [R8] 
    /*0000003c*/ STR         R3, [SP, #52]               @ 0x34 
    /*00000040*/ BL          _ZSt9use_facetISt5ctypeIcEERKT_RKSt6locale
    /*00000044*/ LDR         R3, [R0] 
    /*00000048*/ MOV         R1, R5 
    /*0000004c*/ LDR         R3, [R3, #16] 
    /*00000050*/ BLX         R3 
    /*00000054*/ STR         R6, [SP, #4] 
    /*00000058*/ MOV         R2, R0 
    /*0000005c*/ MOV         R1, #1 
    /*00000060*/ ADD         R0, SP, #4 
    /*00000064*/ BL          _ZNSt7__cxx1112basic_stringIcSt11char_traitsIcESaIcEE12_M_constructEjc
    /*00000068*/ LDR         R0, [R4] 
    /*0000006c*/ LDR         SL, [SP, #4] 
    /*00000070*/ LDR         R4, [SP, #8] 
    /*00000074*/ BL          _ZSt9use_facetINSt7__cxx117collateIcEEERKT_RKSt6locale
    /*00000078*/ STR         R4, [SP] 
    /*0000007c*/ CMP         R4, #15 
    /*00000080*/ ADD         R5, SP, #36                 @ 0x24 
    /*00000084*/ MOV         R9, R0 
    /*00000088*/ STR         R5, [SP, #28] 
    /*0000008c*/ ADD         R0, SP, #28 
    /*00000090*/ BHI         _ZNKSt8__detail16_RegexTranslatorINSt7__cxx1112regex_traitsIcEELb1ELb1EE17_M_transform_implEcSt17integral_constantIbLb1EE.isra.635_x114
    /*00000094*/ CMP         R4, #1 
    /*00000098*/ BEQ         _ZNKSt8__detail16_RegexTranslatorINSt7__cxx1112regex_traitsIcEELb1ELb1EE17_M_transform_implEcSt17integral_constantIbLb1EE.isra.635_x144
    /*0000009c*/ CMP         R4, #0 
    /*000000a0*/ MOVEQ       R2, R5 
    /*000000a4*/ BNE         _ZNKSt8__detail16_RegexTranslatorINSt7__cxx1112regex_traitsIcEELb1ELb1EE17_M_transform_implEcSt17integral_constantIbLb1EE.isra.635_x154
    _ZNKSt8__detail16_RegexTranslatorINSt7__cxx1112regex_traitsIcEELb1ELb1EE17_M_transform_implEcSt17integral_constantIbLb1EE.isra.635_xa8:
    /*000000a8*/ STR         R4, [SP, #32] 
    /*000000ac*/ MOV         R3, #0 
    /*000000b0*/ STRB        R3, [R2, R4] 
    /*000000b4*/ MOV         R1, R9 
    /*000000b8*/ LDR         R3, [SP, #28] 
    /*000000bc*/ MOV         R0, R7 
    /*000000c0*/ LDR         LR, [SP, #32] 
    /*000000c4*/ LDR         IP, [R9] 
    /*000000c8*/ MOV         R2, R3 
    /*000000cc*/ ADD         R3, R3, LR 
    /*000000d0*/ LDR         R4, [IP, #12] 
    /*000000d4*/ BLX         R4 
    /*000000d8*/ LDR         R0, [SP, #28] 
    /*000000dc*/ CMP         R0, R5 
    /*000000e0*/ BEQ         _ZNKSt8__detail16_RegexTranslatorINSt7__cxx1112regex_traitsIcEELb1ELb1EE17_M_transform_implEcSt17integral_constantIbLb1EE.isra.635_xe8
    /*000000e4*/ BL          _ZdlPv
    _ZNKSt8__detail16_RegexTranslatorINSt7__cxx1112regex_traitsIcEELb1ELb1EE17_M_transform_implEcSt17integral_constantIbLb1EE.isra.635_xe8:
    /*000000e8*/ LDR         R0, [SP, #4] 
    /*000000ec*/ CMP         R0, R6 
    /*000000f0*/ BEQ         _ZNKSt8__detail16_RegexTranslatorINSt7__cxx1112regex_traitsIcEELb1ELb1EE17_M_transform_implEcSt17integral_constantIbLb1EE.isra.635_xf8
    /*000000f4*/ BL          _ZdlPv
    _ZNKSt8__detail16_RegexTranslatorINSt7__cxx1112regex_traitsIcEELb1ELb1EE17_M_transform_implEcSt17integral_constantIbLb1EE.isra.635_xf8:
    /*000000f8*/ LDR         R2, [SP, #52]               @ 0x34 
    /*000000fc*/ MOV         R0, R7 
    /*00000100*/ LDR         R3, [R8] 
    /*00000104*/ CMP         R2, R3 
    /*00000108*/ BNE         _ZNKSt8__detail16_RegexTranslatorINSt7__cxx1112regex_traitsIcEELb1ELb1EE17_M_transform_implEcSt17integral_constantIbLb1EE.isra.635_x15c
    /*0000010c*/ ADD         SP, SP, #56                 @ 0x38 
    /*00000110*/ POP         {R4, R5, R6, R7, R8, R9, SL, PC} 
    _ZNKSt8__detail16_RegexTranslatorINSt7__cxx1112regex_traitsIcEELb1ELb1EE17_M_transform_implEcSt17integral_constantIbLb1EE.isra.635_x114:
    /*00000114*/ MOV         R2, #0 
    /*00000118*/ MOV         R1, SP 
    /*0000011c*/ BL          _ZNSt7__cxx1112basic_stringIcSt11char_traitsIcESaIcEE9_M_createERjj
    /*00000120*/ LDR         R3, [SP] 
    /*00000124*/ STR         R0, [SP, #28] 
    /*00000128*/ STR         R3, [SP, #36]               @ 0x24 
    _ZNKSt8__detail16_RegexTranslatorINSt7__cxx1112regex_traitsIcEELb1ELb1EE17_M_transform_implEcSt17integral_constantIbLb1EE.isra.635_x12c:
    /*0000012c*/ MOV         R2, R4 
    /*00000130*/ MOV         R1, SL 
    /*00000134*/ BL          memcpy
    /*00000138*/ LDR         R4, [SP] 
    /*0000013c*/ LDR         R2, [SP, #28] 
    /*00000140*/ B           _ZNKSt8__detail16_RegexTranslatorINSt7__cxx1112regex_traitsIcEELb1ELb1EE17_M_transform_implEcSt17integral_constantIbLb1EE.isra.635_xa8
    _ZNKSt8__detail16_RegexTranslatorINSt7__cxx1112regex_traitsIcEELb1ELb1EE17_M_transform_implEcSt17integral_constantIbLb1EE.isra.635_x144:
    /*00000144*/ LDRB        R3, [SL] 
    /*00000148*/ MOV         R2, R5 
    /*0000014c*/ STRB        R3, [SP, #36]               @ 0x24 
    /*00000150*/ B           _ZNKSt8__detail16_RegexTranslatorINSt7__cxx1112regex_traitsIcEELb1ELb1EE17_M_transform_implEcSt17integral_constantIbLb1EE.isra.635_xa8
    _ZNKSt8__detail16_RegexTranslatorINSt7__cxx1112regex_traitsIcEELb1ELb1EE17_M_transform_implEcSt17integral_constantIbLb1EE.isra.635_x154:
    /*00000154*/ MOV         R0, R5 
    /*00000158*/ B           _ZNKSt8__detail16_RegexTranslatorINSt7__cxx1112regex_traitsIcEELb1ELb1EE17_M_transform_implEcSt17integral_constantIbLb1EE.isra.635_x12c
    _ZNKSt8__detail16_RegexTranslatorINSt7__cxx1112regex_traitsIcEELb1ELb1EE17_M_transform_implEcSt17integral_constantIbLb1EE.isra.635_x15c:
    /*0000015c*/ BL          __stack_chk_fail
    _ZNKSt8__detail16_RegexTranslatorINSt7__cxx1112regex_traitsIcEELb1ELb1EE17_M_transform_implEcSt17integral_constantIbLb1EE.isra.635_x160:
    /*00000160*/ LDR         R0, [SP, #4] 
    /*00000164*/ CMP         R0, R6 
    /*00000168*/ BEQ         _ZNKSt8__detail16_RegexTranslatorINSt7__cxx1112regex_traitsIcEELb1ELb1EE17_M_transform_implEcSt17integral_constantIbLb1EE.isra.635_x170
    /*0000016c*/ BL          _ZdlPv
    _ZNKSt8__detail16_RegexTranslatorINSt7__cxx1112regex_traitsIcEELb1ELb1EE17_M_transform_implEcSt17integral_constantIbLb1EE.isra.635_x170:
    /*00000170*/ BL          __cxa_end_cleanup
    /*00000174*/ LDR         R0, [SP, #28] 
    /*00000178*/ CMP         R0, R5 
    /*0000017c*/ BEQ         _ZNKSt8__detail16_RegexTranslatorINSt7__cxx1112regex_traitsIcEELb1ELb1EE17_M_transform_implEcSt17integral_constantIbLb1EE.isra.635_x160
    /*00000180*/ BL          _ZdlPv
    /*00000184*/ B           _ZNKSt8__detail16_RegexTranslatorINSt7__cxx1112regex_traitsIcEELb1ELb1EE17_M_transform_implEcSt17integral_constantIbLb1EE.isra.635_x160
    /*00000188*/ WORD_0188: .word 0x00000160
    /*0000018c*/ WORD_018c: .word 0x00000000
FUNC_END _ZNKSt8__detail16_RegexTranslatorINSt7__cxx1112regex_traitsIcEELb1ELb1EE17_M_transform_implEcSt17integral_constantIbLb1EE.isra.635


@ - - - - - - - - - - - - - - - - - - - - - - - - - - - - - 
@ .ARM.extab.text._ZNKSt8__detail16_RegexTranslatorINSt7__cxx1112regex_traitsIcEELb1ELb1EE17_M_transform_implEcSt17integral_constantIbLb1EE.isra.635
@ Size: 0x26
@ - - - - - - - - - - - - - - - - - - - - - - - - - - - - - 

@ - - - - - - - - - - - - - - - - - - - - - - - - - - - - - 
@ .text._ZNSt17_Function_handlerIFbcENSt8__detail11_AnyMatcherINSt7__cxx1112regex_traitsIcEELb0ELb1ELb0EEEE9_M_invokeERKSt9_Any_dataOc
@ Size: 0xc0
@ - - - - - - - - - - - - - - - - - - - - - - - - - - - - - 

FUNC_BEGIN _ZNSt17_Function_handlerIFbcENSt8__detail11_AnyMatcherINSt7__cxx1112regex_traitsIcEELb0ELb1ELb0EEEE9_M_invokeERKSt9_Any_dataOc
    /*00000000*/ MOV         IP, #16384                  @ 0x4000 
    /*00000004*/ PUSH        {R4, R5, R6, R7, R8, LR} 
    /*00000008*/ SUB         IP, SP, IP 
    /*0000000c*/ STR         R0, [IP, #4072]             @ 0xfe8 
    /*00000010*/ LDR         R4, WORD_00b4               @ LDR         R4, [PC, #156]              @ 0x00000000000000b4 
    /*00000014*/ MOV         R6, R0 
    /*00000018*/ LDR         R3, WORD_00b8               @ LDR         R3, [PC, #152]              @ 0x00000000000000b8 
    /*0000001c*/ ADD         R4, PC, R4 
    /*00000020*/ LDRB        R7, [R1] 
    /*00000024*/ LDR         R5, [R4, R3] 
    /*00000028*/ LDRB        R3, [R5] 
    /*0000002c*/ DMB         ISH 
    /*00000030*/ TST         R3, #1 
    /*00000034*/ BNE         _ZNSt17_Function_handlerIFbcENSt8__detail11_AnyMatcherINSt7__cxx1112regex_traitsIcEELb0ELb1ELb0EEEE9_M_invokeERKSt9_Any_dataOc_x48
    /*00000038*/ MOV         R0, R5 
    /*0000003c*/ BL          __cxa_guard_acquire
    /*00000040*/ CMP         R0, #0 
    /*00000044*/ BNE         _ZNSt17_Function_handlerIFbcENSt8__detail11_AnyMatcherINSt7__cxx1112regex_traitsIcEELb0ELb1ELb0EEEE9_M_invokeERKSt9_Any_dataOc_x78
    _ZNSt17_Function_handlerIFbcENSt8__detail11_AnyMatcherINSt7__cxx1112regex_traitsIcEELb0ELb1ELb0EEEE9_M_invokeERKSt9_Any_dataOc_x48:
    /*00000048*/ LDR         R3, WORD_00bc               @ LDR         R3, [PC, #108]              @ 0x00000000000000bc 
    /*0000004c*/ LDR         R4, [R4, R3] 
    _ZNSt17_Function_handlerIFbcENSt8__detail11_AnyMatcherINSt7__cxx1112regex_traitsIcEELb0ELb1ELb0EEEE9_M_invokeERKSt9_Any_dataOc_x50:
    /*00000050*/ LDR         R0, [R6] 
    /*00000054*/ BL          _ZSt9use_facetISt5ctypeIcEERKT_RKSt6locale
    /*00000058*/ LDR         R3, [R0] 
    /*0000005c*/ MOV         R1, R7 
    /*00000060*/ LDR         R3, [R3, #16] 
    /*00000064*/ BLX         R3 
    /*00000068*/ LDRB        R3, [R4] 
    /*0000006c*/ SUBS        R0, R3, R0 
    /*00000070*/ MOVNE       R0, #1 
    /*00000074*/ POP         {R4, R5, R6, R7, R8, PC} 
    _ZNSt17_Function_handlerIFbcENSt8__detail11_AnyMatcherINSt7__cxx1112regex_traitsIcEELb0ELb1ELb0EEEE9_M_invokeERKSt9_Any_dataOc_x78:
    /*00000078*/ LDR         R0, [R6] 
    /*0000007c*/ BL          _ZSt9use_facetISt5ctypeIcEERKT_RKSt6locale
    /*00000080*/ LDR         R3, [R0] 
    /*00000084*/ MOV         R1, #0 
    /*00000088*/ LDR         R3, [R3, #16] 
    /*0000008c*/ BLX         R3 
    /*00000090*/ LDR         R3, WORD_00bc               @ LDR         R3, [PC, #36]               @ 0x00000000000000bc 
    /*00000094*/ LDR         R4, [R4, R3] 
    /*00000098*/ STRB        R0, [R4] 
    /*0000009c*/ MOV         R0, R5 
    /*000000a0*/ BL          __cxa_guard_release
    /*000000a4*/ B           _ZNSt17_Function_handlerIFbcENSt8__detail11_AnyMatcherINSt7__cxx1112regex_traitsIcEELb0ELb1ELb0EEEE9_M_invokeERKSt9_Any_dataOc_x50
    /*000000a8*/ MOV         R0, R5 
    /*000000ac*/ BL          __cxa_guard_abort
    /*000000b0*/ BL          __cxa_end_cleanup
    /*000000b4*/ WORD_00b4: .word 0x00000090
    /*000000b8*/ WORD_00b8: .word 0x00000000
    /*000000bc*/ WORD_00bc: .word 0x00000000
FUNC_END _ZNSt17_Function_handlerIFbcENSt8__detail11_AnyMatcherINSt7__cxx1112regex_traitsIcEELb0ELb1ELb0EEEE9_M_invokeERKSt9_Any_dataOc


@ - - - - - - - - - - - - - - - - - - - - - - - - - - - - - 
@ .ARM.extab.text._ZNSt17_Function_handlerIFbcENSt8__detail11_AnyMatcherINSt7__cxx1112regex_traitsIcEELb0ELb1ELb0EEEE9_M_invokeERKSt9_Any_dataOc
@ Size: 0x1a
@ - - - - - - - - - - - - - - - - - - - - - - - - - - - - - 

@ - - - - - - - - - - - - - - - - - - - - - - - - - - - - - 
@ .text._ZNSt17_Function_handlerIFbcENSt8__detail11_AnyMatcherINSt7__cxx1112regex_traitsIcEELb0ELb1ELb1EEEE9_M_invokeERKSt9_Any_dataOc
@ Size: 0xc0
@ - - - - - - - - - - - - - - - - - - - - - - - - - - - - - 

FUNC_BEGIN _ZNSt17_Function_handlerIFbcENSt8__detail11_AnyMatcherINSt7__cxx1112regex_traitsIcEELb0ELb1ELb1EEEE9_M_invokeERKSt9_Any_dataOc
    /*00000000*/ MOV         IP, #16384                  @ 0x4000 
    /*00000004*/ PUSH        {R4, R5, R6, R7, R8, LR} 
    /*00000008*/ SUB         IP, SP, IP 
    /*0000000c*/ STR         R0, [IP, #4072]             @ 0xfe8 
    /*00000010*/ LDR         R4, WORD_00b4               @ LDR         R4, [PC, #156]              @ 0x00000000000000b4 
    /*00000014*/ MOV         R6, R0 
    /*00000018*/ LDR         R3, WORD_00b8               @ LDR         R3, [PC, #152]              @ 0x00000000000000b8 
    /*0000001c*/ ADD         R4, PC, R4 
    /*00000020*/ LDRB        R7, [R1] 
    /*00000024*/ LDR         R5, [R4, R3] 
    /*00000028*/ LDRB        R3, [R5] 
    /*0000002c*/ DMB         ISH 
    /*00000030*/ TST         R3, #1 
    /*00000034*/ BNE         _ZNSt17_Function_handlerIFbcENSt8__detail11_AnyMatcherINSt7__cxx1112regex_traitsIcEELb0ELb1ELb1EEEE9_M_invokeERKSt9_Any_dataOc_x48
    /*00000038*/ MOV         R0, R5 
    /*0000003c*/ BL          __cxa_guard_acquire
    /*00000040*/ CMP         R0, #0 
    /*00000044*/ BNE         _ZNSt17_Function_handlerIFbcENSt8__detail11_AnyMatcherINSt7__cxx1112regex_traitsIcEELb0ELb1ELb1EEEE9_M_invokeERKSt9_Any_dataOc_x78
    _ZNSt17_Function_handlerIFbcENSt8__detail11_AnyMatcherINSt7__cxx1112regex_traitsIcEELb0ELb1ELb1EEEE9_M_invokeERKSt9_Any_dataOc_x48:
    /*00000048*/ LDR         R3, WORD_00bc               @ LDR         R3, [PC, #108]              @ 0x00000000000000bc 
    /*0000004c*/ LDR         R4, [R4, R3] 
    _ZNSt17_Function_handlerIFbcENSt8__detail11_AnyMatcherINSt7__cxx1112regex_traitsIcEELb0ELb1ELb1EEEE9_M_invokeERKSt9_Any_dataOc_x50:
    /*00000050*/ LDR         R0, [R6] 
    /*00000054*/ BL          _ZSt9use_facetISt5ctypeIcEERKT_RKSt6locale
    /*00000058*/ LDR         R3, [R0] 
    /*0000005c*/ MOV         R1, R7 
    /*00000060*/ LDR         R3, [R3, #16] 
    /*00000064*/ BLX         R3 
    /*00000068*/ LDRB        R3, [R4] 
    /*0000006c*/ SUBS        R0, R3, R0 
    /*00000070*/ MOVNE       R0, #1 
    /*00000074*/ POP         {R4, R5, R6, R7, R8, PC} 
    _ZNSt17_Function_handlerIFbcENSt8__detail11_AnyMatcherINSt7__cxx1112regex_traitsIcEELb0ELb1ELb1EEEE9_M_invokeERKSt9_Any_dataOc_x78:
    /*00000078*/ LDR         R0, [R6] 
    /*0000007c*/ BL          _ZSt9use_facetISt5ctypeIcEERKT_RKSt6locale
    /*00000080*/ LDR         R3, [R0] 
    /*00000084*/ MOV         R1, #0 
    /*00000088*/ LDR         R3, [R3, #16] 
    /*0000008c*/ BLX         R3 
    /*00000090*/ LDR         R3, WORD_00bc               @ LDR         R3, [PC, #36]               @ 0x00000000000000bc 
    /*00000094*/ LDR         R4, [R4, R3] 
    /*00000098*/ STRB        R0, [R4] 
    /*0000009c*/ MOV         R0, R5 
    /*000000a0*/ BL          __cxa_guard_release
    /*000000a4*/ B           _ZNSt17_Function_handlerIFbcENSt8__detail11_AnyMatcherINSt7__cxx1112regex_traitsIcEELb0ELb1ELb1EEEE9_M_invokeERKSt9_Any_dataOc_x50
    /*000000a8*/ MOV         R0, R5 
    /*000000ac*/ BL          __cxa_guard_abort
    /*000000b0*/ BL          __cxa_end_cleanup
    /*000000b4*/ WORD_00b4: .word 0x00000090
    /*000000b8*/ WORD_00b8: .word 0x00000000
    /*000000bc*/ WORD_00bc: .word 0x00000000
FUNC_END _ZNSt17_Function_handlerIFbcENSt8__detail11_AnyMatcherINSt7__cxx1112regex_traitsIcEELb0ELb1ELb1EEEE9_M_invokeERKSt9_Any_dataOc


@ - - - - - - - - - - - - - - - - - - - - - - - - - - - - - 
@ .ARM.extab.text._ZNSt17_Function_handlerIFbcENSt8__detail11_AnyMatcherINSt7__cxx1112regex_traitsIcEELb0ELb1ELb1EEEE9_M_invokeERKSt9_Any_dataOc
@ Size: 0x1a
@ - - - - - - - - - - - - - - - - - - - - - - - - - - - - - 

@ - - - - - - - - - - - - - - - - - - - - - - - - - - - - - 
@ .text._ZNSt23_Sp_counted_ptr_inplaceINSt8__detail4_NFAINSt7__cxx1112regex_traitsIcEEEESaIS5_ELN9__gnu_cxx12_Lock_policyE2EE10_M_disposeEv
@ Size: 0xa4
@ - - - - - - - - - - - - - - - - - - - - - - - - - - - - - 

FUNC_BEGIN _ZNSt23_Sp_counted_ptr_inplaceINSt8__detail4_NFAINSt7__cxx1112regex_traitsIcEEEESaIS5_ELN9__gnu_cxx12_Lock_policyE2EE10_M_disposeEv
    /*00000000*/ MOV         IP, #16384                  @ 0x4000 
    /*00000004*/ PUSH        {R4, R5, R6, R7, R8, LR} 
    /*00000008*/ SUB         IP, SP, IP 
    /*0000000c*/ STR         R0, [IP, #4072]             @ 0xfe8 
    /*00000010*/ MOV         R7, R0 
    /*00000014*/ ADD         R0, R0, #52                 @ 0x34 
    /*00000018*/ BL          _ZNSt6localeD1Ev
    /*0000001c*/ LDR         R4, [R7, #40]               @ 0x28 
    /*00000020*/ LDR         R6, [R7, #44]               @ 0x2c 
    /*00000024*/ CMP         R4, R6 
    /*00000028*/ BEQ         _ZNSt23_Sp_counted_ptr_inplaceINSt8__detail4_NFAINSt7__cxx1112regex_traitsIcEEEESaIS5_ELN9__gnu_cxx12_Lock_policyE2EE10_M_disposeEv_x80
    /*0000002c*/ ADD         R5, R4, #8 
    /*00000030*/ B           _ZNSt23_Sp_counted_ptr_inplaceINSt8__detail4_NFAINSt7__cxx1112regex_traitsIcEEEESaIS5_ELN9__gnu_cxx12_Lock_policyE2EE10_M_disposeEv_x44
    _ZNSt23_Sp_counted_ptr_inplaceINSt8__detail4_NFAINSt7__cxx1112regex_traitsIcEEEESaIS5_ELN9__gnu_cxx12_Lock_policyE2EE10_M_disposeEv_x34:
    /*00000034*/ ADD         R4, R4, #24 
    /*00000038*/ ADD         R5, R5, #24 
    /*0000003c*/ CMP         R6, R4 
    /*00000040*/ BEQ         _ZNSt23_Sp_counted_ptr_inplaceINSt8__detail4_NFAINSt7__cxx1112regex_traitsIcEEEESaIS5_ELN9__gnu_cxx12_Lock_policyE2EE10_M_disposeEv_x7c
    _ZNSt23_Sp_counted_ptr_inplaceINSt8__detail4_NFAINSt7__cxx1112regex_traitsIcEEEESaIS5_ELN9__gnu_cxx12_Lock_policyE2EE10_M_disposeEv_x44:
    /*00000044*/ LDR         R3, [R5, #-8] 
    /*00000048*/ CMP         R3, #11 
    /*0000004c*/ BNE         _ZNSt23_Sp_counted_ptr_inplaceINSt8__detail4_NFAINSt7__cxx1112regex_traitsIcEEEESaIS5_ELN9__gnu_cxx12_Lock_policyE2EE10_M_disposeEv_x34
    /*00000050*/ LDR         R3, [R4, #16] 
    /*00000054*/ CMP         R3, #0 
    /*00000058*/ BEQ         _ZNSt23_Sp_counted_ptr_inplaceINSt8__detail4_NFAINSt7__cxx1112regex_traitsIcEEEESaIS5_ELN9__gnu_cxx12_Lock_policyE2EE10_M_disposeEv_x34
    /*0000005c*/ MOV         R1, R5 
    /*00000060*/ MOV         R0, R5 
    /*00000064*/ MOV         R2, #3 
    /*00000068*/ ADD         R4, R4, #24 
    /*0000006c*/ ADD         R5, R5, #24 
    /*00000070*/ BLX         R3 
    /*00000074*/ CMP         R6, R4 
    /*00000078*/ BNE         _ZNSt23_Sp_counted_ptr_inplaceINSt8__detail4_NFAINSt7__cxx1112regex_traitsIcEEEESaIS5_ELN9__gnu_cxx12_Lock_policyE2EE10_M_disposeEv_x44
    _ZNSt23_Sp_counted_ptr_inplaceINSt8__detail4_NFAINSt7__cxx1112regex_traitsIcEEEESaIS5_ELN9__gnu_cxx12_Lock_policyE2EE10_M_disposeEv_x7c:
    /*0000007c*/ LDR         R6, [R7, #40]               @ 0x28 
    _ZNSt23_Sp_counted_ptr_inplaceINSt8__detail4_NFAINSt7__cxx1112regex_traitsIcEEEESaIS5_ELN9__gnu_cxx12_Lock_policyE2EE10_M_disposeEv_x80:
    /*00000080*/ CMP         R6, #0 
    /*00000084*/ BEQ         _ZNSt23_Sp_counted_ptr_inplaceINSt8__detail4_NFAINSt7__cxx1112regex_traitsIcEEEESaIS5_ELN9__gnu_cxx12_Lock_policyE2EE10_M_disposeEv_x90
    /*00000088*/ MOV         R0, R6 
    /*0000008c*/ BL          _ZdlPv
    _ZNSt23_Sp_counted_ptr_inplaceINSt8__detail4_NFAINSt7__cxx1112regex_traitsIcEEEESaIS5_ELN9__gnu_cxx12_Lock_policyE2EE10_M_disposeEv_x90:
    /*00000090*/ LDR         R0, [R7, #12] 
    /*00000094*/ CMP         R0, #0 
    /*00000098*/ POPEQ       {R4, R5, R6, R7, R8, PC} 
    /*0000009c*/ POP         {R4, R5, R6, R7, R8, LR} 
    _ZNSt23_Sp_counted_ptr_inplaceINSt8__detail4_NFAINSt7__cxx1112regex_traitsIcEEEESaIS5_ELN9__gnu_cxx12_Lock_policyE2EE10_M_disposeEv_xa0:
    /*000000a0*/ B           _ZNSt23_Sp_counted_ptr_inplaceINSt8__detail4_NFAINSt7__cxx1112regex_traitsIcEEEESaIS5_ELN9__gnu_cxx12_Lock_policyE2EE10_M_disposeEv_xa0@ _ZdlPv [R_ARM_JUMP24: +0x0] 
FUNC_END _ZNSt23_Sp_counted_ptr_inplaceINSt8__detail4_NFAINSt7__cxx1112regex_traitsIcEEEESaIS5_ELN9__gnu_cxx12_Lock_policyE2EE10_M_disposeEv


@ - - - - - - - - - - - - - - - - - - - - - - - - - - - - - 
@ .ARM.extab.text._ZNSt23_Sp_counted_ptr_inplaceINSt8__detail4_NFAINSt7__cxx1112regex_traitsIcEEEESaIS5_ELN9__gnu_cxx12_Lock_policyE2EE10_M_disposeEv
@ Size: 0xc
@ - - - - - - - - - - - - - - - - - - - - - - - - - - - - - 

@ - - - - - - - - - - - - - - - - - - - - - - - - - - - - - 
@ .text._ZSt19__throw_regex_errorNSt15regex_constants10error_typeEPKc
@ Size: 0x7c
@ - - - - - - - - - - - - - - - - - - - - - - - - - - - - - 

FUNC_BEGIN _ZSt19__throw_regex_errorNSt15regex_constants10error_typeEPKc
    /*00000000*/ MOV         IP, #16384                  @ 0x4000 
    /*00000004*/ PUSH        {R4, R5, R6, R7, R8, LR} 
    /*00000008*/ SUB         IP, SP, IP 
    /*0000000c*/ STR         R0, [IP, #4072]             @ 0xfe8 
    /*00000010*/ LDR         R4, WORD_006c               @ LDR         R4, [PC, #84]               @ 0x000000000000006c 
    /*00000014*/ MOV         R7, R1 
    /*00000018*/ MOV         R6, R0 
    /*0000001c*/ MOV         R0, #12 
    /*00000020*/ ADD         R4, PC, R4 
    /*00000024*/ BL          __cxa_allocate_exception
    /*00000028*/ MOV         R1, R7 
    /*0000002c*/ MOV         R5, R0 
    /*00000030*/ BL          _ZNSt13runtime_errorC2EPKc
    /*00000034*/ LDR         R3, WORD_0070               @ LDR         R3, [PC, #52]               @ 0x0000000000000070 
    /*00000038*/ MOV         R0, R5 
    /*0000003c*/ LDR         R2, WORD_0074               @ LDR         R2, [PC, #48]               @ 0x0000000000000074 
    /*00000040*/ LDR         R1, [R4, R3] 
    /*00000044*/ LDR         R3, WORD_0078               @ LDR         R3, [PC, #44]               @ 0x0000000000000078 
    /*00000048*/ STR         R6, [R5, #8] 
    /*0000004c*/ ADD         R1, R1, #8 
    /*00000050*/ STR         R1, [R5] 
    /*00000054*/ LDR         R2, [R4, R2] 
    /*00000058*/ LDR         R1, [R4, R3] 
    /*0000005c*/ BL          __cxa_throw
    /*00000060*/ MOV         R0, R5 
    /*00000064*/ BL          __cxa_free_exception
    /*00000068*/ BL          __cxa_end_cleanup
    /*0000006c*/ WORD_006c: .word 0x00000044
    /*00000070*/ WORD_0070: .word 0x00000000
    /*00000074*/ WORD_0074: .word 0x00000000
    /*00000078*/ WORD_0078: .word 0x00000000
FUNC_END _ZSt19__throw_regex_errorNSt15regex_constants10error_typeEPKc


@ - - - - - - - - - - - - - - - - - - - - - - - - - - - - - 
@ .ARM.extab.text._ZSt19__throw_regex_errorNSt15regex_constants10error_typeEPKc
@ Size: 0x14
@ - - - - - - - - - - - - - - - - - - - - - - - - - - - - - 

@ - - - - - - - - - - - - - - - - - - - - - - - - - - - - - 
@ .text._ZNSt8__detail8_ScannerIcE18_M_eat_escape_ecmaEv
@ Size: 0x360
@ - - - - - - - - - - - - - - - - - - - - - - - - - - - - - 

FUNC_BEGIN _ZNSt8__detail8_ScannerIcE18_M_eat_escape_ecmaEv
    /*00000000*/ MOV         IP, #16384                  @ 0x4000 
    /*00000004*/ PUSH        {R4, R5, R6, R7, LR} 
    /*00000008*/ SUB         IP, SP, IP 
    /*0000000c*/ STR         R0, [IP, #4064]             @ 0xfe0 
    /*00000010*/ LDR         R3, [R0, #148]              @ 0x94 
    /*00000014*/ SUB         SP, SP, #12 
    /*00000018*/ LDR         R2, [R0, #152]              @ 0x98 
    /*0000001c*/ LDR         R1, WORD_034c               @ LDR         R1, [PC, #808]              @ 0x000000000000034c 
    /*00000020*/ CMP         R3, R2 
    /*00000024*/ ADD         R1, PC, R1 
    /*00000028*/ BEQ         _ZNSt8__detail8_ScannerIcE18_M_eat_escape_ecmaEv_x32c
    /*0000002c*/ MOV         R4, R0 
    /*00000030*/ ADD         R2, R3, #1 
    /*00000034*/ LDR         R0, [R0, #156]              @ 0x9c 
    /*00000038*/ STR         R2, [R4, #148]              @ 0x94 
    /*0000003c*/ LDRB        R5, [R3] 
    /*00000040*/ ADD         R6, R0, R5 
    /*00000044*/ LDRB        R2, [R6, #285]              @ 0x11d 
    /*00000048*/ CMP         R2, #0 
    /*0000004c*/ BEQ         _ZNSt8__detail8_ScannerIcE18_M_eat_escape_ecmaEv_x1c4
    _ZNSt8__detail8_ScannerIcE18_M_eat_escape_ecmaEv_x50:
    /*00000050*/ LDR         R1, [R4, #136]              @ 0x88 
    /*00000054*/ LDRB        R3, [R1] 
    /*00000058*/ CMP         R3, #0 
    /*0000005c*/ BEQ         _ZNSt8__detail8_ScannerIcE18_M_eat_escape_ecmaEv_x80
    /*00000060*/ CMP         R2, R3 
    /*00000064*/ BNE         _ZNSt8__detail8_ScannerIcE18_M_eat_escape_ecmaEv_x74
    /*00000068*/ B           _ZNSt8__detail8_ScannerIcE18_M_eat_escape_ecmaEv_x134
    _ZNSt8__detail8_ScannerIcE18_M_eat_escape_ecmaEv_x6c:
    /*0000006c*/ CMP         R3, R2 
    /*00000070*/ BEQ         _ZNSt8__detail8_ScannerIcE18_M_eat_escape_ecmaEv_x134
    _ZNSt8__detail8_ScannerIcE18_M_eat_escape_ecmaEv_x74:
    /*00000074*/ LDRB        R3, [R1, #2]! 
    /*00000078*/ CMP         R3, #0 
    /*0000007c*/ BNE         _ZNSt8__detail8_ScannerIcE18_M_eat_escape_ecmaEv_x6c
    _ZNSt8__detail8_ScannerIcE18_M_eat_escape_ecmaEv_x80:
    /*00000080*/ CMP         R5, #98                     @ 0x62 
    /*00000084*/ BEQ         _ZNSt8__detail8_ScannerIcE18_M_eat_escape_ecmaEv_x148
    /*00000088*/ CMP         R5, #66                     @ 0x42 
    /*0000008c*/ BEQ         _ZNSt8__detail8_ScannerIcE18_M_eat_escape_ecmaEv_x24c
    /*00000090*/ AND         R3, R5, #223                @ 0xdf 
    /*00000094*/ CMP         R3, #68                     @ 0x44 
    /*00000098*/ BEQ         _ZNSt8__detail8_ScannerIcE18_M_eat_escape_ecmaEv_x19c
    /*0000009c*/ AND         R3, R5, #219                @ 0xdb 
    /*000000a0*/ CMP         R3, #83                     @ 0x53 
    /*000000a4*/ BEQ         _ZNSt8__detail8_ScannerIcE18_M_eat_escape_ecmaEv_x19c
    /*000000a8*/ CMP         R5, #99                     @ 0x63 
    /*000000ac*/ BEQ         _ZNSt8__detail8_ScannerIcE18_M_eat_escape_ecmaEv_x210
    /*000000b0*/ CMP         R5, #117                    @ 0x75 
    /*000000b4*/ CMPNE       R5, #120                    @ 0x78 
    /*000000b8*/ MOVEQ       R0, #1 
    /*000000bc*/ MOVNE       R0, #0 
    /*000000c0*/ BEQ         _ZNSt8__detail8_ScannerIcE18_M_eat_escape_ecmaEv_x2a0
    /*000000c4*/ LDR         R2, [R4, #156]              @ 0x9c 
    /*000000c8*/ LSL         R3, R5, #1 
    /*000000cc*/ LDR         R2, [R2, #24] 
    /*000000d0*/ LDRH        R3, [R2, R3] 
    /*000000d4*/ LDR         R2, [R4, #164]              @ 0xa4 
    /*000000d8*/ ANDS        R1, R3, #2048               @ 0x800 
    /*000000dc*/ BEQ         _ZNSt8__detail8_ScannerIcE18_M_eat_escape_ecmaEv_x260
    /*000000e0*/ STR         R5, [SP] 
    /*000000e4*/ ADD         R6, R4, #160                @ 0xa0 
    /*000000e8*/ MOV         R1, R0 
    /*000000ec*/ MOV         R3, #1 
    /*000000f0*/ MOV         R0, R6 
    /*000000f4*/ BL          _ZNSt7__cxx1112basic_stringIcSt11char_traitsIcESaIcEE14_M_replace_auxEjjjc
    /*000000f8*/ LDR         R3, [R4, #148]              @ 0x94 
    /*000000fc*/ LDR         R2, [R4, #152]              @ 0x98 
    /*00000100*/ CMP         R3, R2 
    /*00000104*/ BEQ         _ZNSt8__detail8_ScannerIcE18_M_eat_escape_ecmaEv_x124
    _ZNSt8__detail8_ScannerIcE18_M_eat_escape_ecmaEv_x108:
    /*00000108*/ LDR         R1, [R4, #156]              @ 0x9c 
    /*0000010c*/ LDRB        R2, [R3] 
    /*00000110*/ LDR         R1, [R1, #24] 
    /*00000114*/ LSL         R2, R2, #1 
    /*00000118*/ LDRH        R2, [R1, R2] 
    /*0000011c*/ TST         R2, #2048                   @ 0x800 
    /*00000120*/ BNE         _ZNSt8__detail8_ScannerIcE18_M_eat_escape_ecmaEv_x278
    _ZNSt8__detail8_ScannerIcE18_M_eat_escape_ecmaEv_x124:
    /*00000124*/ MOV         R3, #4 
    /*00000128*/ STR         R3, [R4, #132]              @ 0x84 
    /*0000012c*/ ADD         SP, SP, #12 
    /*00000130*/ POP         {R4, R5, R6, R7, PC} 
    _ZNSt8__detail8_ScannerIcE18_M_eat_escape_ecmaEv_x134:
    /*00000134*/ CMP         R5, #98                     @ 0x62 
    /*00000138*/ BNE         _ZNSt8__detail8_ScannerIcE18_M_eat_escape_ecmaEv_x174
    /*0000013c*/ LDR         R3, [R4, #124]              @ 0x7c 
    /*00000140*/ CMP         R3, #2 
    /*00000144*/ BEQ         _ZNSt8__detail8_ScannerIcE18_M_eat_escape_ecmaEv_x174
    _ZNSt8__detail8_ScannerIcE18_M_eat_escape_ecmaEv_x148:
    /*00000148*/ LDR         R2, [R4, #164]              @ 0xa4 
    /*0000014c*/ MOV         R3, #24 
    /*00000150*/ STR         R3, [R4, #132]              @ 0x84 
    /*00000154*/ MOV         R3, #112                    @ 0x70 
    _ZNSt8__detail8_ScannerIcE18_M_eat_escape_ecmaEv_x158:
    /*00000158*/ STR         R3, [SP] 
    /*0000015c*/ ADD         R0, R4, #160                @ 0xa0 
    /*00000160*/ MOV         R3, #1 
    /*00000164*/ MOV         R1, #0 
    /*00000168*/ BL          _ZNSt7__cxx1112basic_stringIcSt11char_traitsIcESaIcEE14_M_replace_auxEjjjc
    _ZNSt8__detail8_ScannerIcE18_M_eat_escape_ecmaEv_x16c:
    /*0000016c*/ ADD         SP, SP, #12 
    /*00000170*/ POP         {R4, R5, R6, R7, PC} 
    _ZNSt8__detail8_ScannerIcE18_M_eat_escape_ecmaEv_x174:
    /*00000174*/ LDR         R2, [R4, #164]              @ 0xa4 
    /*00000178*/ MOV         R3, #1 
    /*0000017c*/ STR         R3, [R4, #132]              @ 0x84 
    /*00000180*/ ADD         R0, R4, #160                @ 0xa0 
    /*00000184*/ LDRB        R1, [R1, #1] 
    /*00000188*/ STR         R1, [SP] 
    /*0000018c*/ MOV         R1, #0 
    /*00000190*/ BL          _ZNSt7__cxx1112basic_stringIcSt11char_traitsIcESaIcEE14_M_replace_auxEjjjc
    /*00000194*/ ADD         SP, SP, #12 
    /*00000198*/ POP         {R4, R5, R6, R7, PC} 
    _ZNSt8__detail8_ScannerIcE18_M_eat_escape_ecmaEv_x19c:
    /*0000019c*/ LDR         R2, [R4, #164]              @ 0xa4 
    /*000001a0*/ MOV         R3, #14 
    /*000001a4*/ STR         R5, [SP] 
    /*000001a8*/ ADD         R0, R4, #160                @ 0xa0 
    /*000001ac*/ STR         R3, [R4, #132]              @ 0x84 
    /*000001b0*/ MOV         R1, #0 
    /*000001b4*/ MOV         R3, #1 
    /*000001b8*/ BL          _ZNSt7__cxx1112basic_stringIcSt11char_traitsIcESaIcEE14_M_replace_auxEjjjc
    /*000001bc*/ ADD         SP, SP, #12 
    /*000001c0*/ POP         {R4, R5, R6, R7, PC} 
    _ZNSt8__detail8_ScannerIcE18_M_eat_escape_ecmaEv_x1c4:
    /*000001c4*/ LDR         IP, [R0] 
    /*000001c8*/ LDR         R3, WORD_0350               @ LDR         R3, [PC, #384]              @ 0x0000000000000350 
    /*000001cc*/ LDR         R7, [IP, #32] 
    /*000001d0*/ LDR         R3, [R1, R3] 
    /*000001d4*/ CMP         R7, R3 
    /*000001d8*/ MOVEQ       R2, R5 
    /*000001dc*/ BNE         _ZNSt8__detail8_ScannerIcE18_M_eat_escape_ecmaEv_x200
    _ZNSt8__detail8_ScannerIcE18_M_eat_escape_ecmaEv_x1e0:
    /*000001e0*/ CMP         R2, #0 
    /*000001e4*/ STRBNE      R2, [R6, #285]              @ 0x11d 
    /*000001e8*/ BNE         _ZNSt8__detail8_ScannerIcE18_M_eat_escape_ecmaEv_x50
    /*000001ec*/ LDR         R1, [R4, #136]              @ 0x88 
    /*000001f0*/ LDRB        R3, [R1] 
    /*000001f4*/ CMP         R3, #0 
    /*000001f8*/ BNE         _ZNSt8__detail8_ScannerIcE18_M_eat_escape_ecmaEv_x74
    /*000001fc*/ B           _ZNSt8__detail8_ScannerIcE18_M_eat_escape_ecmaEv_x80
    _ZNSt8__detail8_ScannerIcE18_M_eat_escape_ecmaEv_x200:
    /*00000200*/ MOV         R1, R5 
    /*00000204*/ BLX         R7 
    /*00000208*/ MOV         R2, R0 
    /*0000020c*/ B           _ZNSt8__detail8_ScannerIcE18_M_eat_escape_ecmaEv_x1e0
    _ZNSt8__detail8_ScannerIcE18_M_eat_escape_ecmaEv_x210:
    /*00000210*/ LDR         R1, [R4, #148]              @ 0x94 
    /*00000214*/ LDR         R3, [R4, #152]              @ 0x98 
    /*00000218*/ CMP         R1, R3 
    /*0000021c*/ BEQ         _ZNSt8__detail8_ScannerIcE18_M_eat_escape_ecmaEv_x33c
    /*00000220*/ LDR         R2, [R4, #164]              @ 0xa4 
    /*00000224*/ MOV         R3, #1 
    /*00000228*/ ADD         R0, R1, R3 
    /*0000022c*/ STR         R0, [R4, #148]              @ 0x94 
    /*00000230*/ ADD         R0, R4, #160                @ 0xa0 
    /*00000234*/ STR         R3, [R4, #132]              @ 0x84 
    /*00000238*/ LDRB        R1, [R1] 
    /*0000023c*/ STR         R1, [SP] 
    /*00000240*/ MOV         R1, #0 
    /*00000244*/ BL          _ZNSt7__cxx1112basic_stringIcSt11char_traitsIcESaIcEE14_M_replace_auxEjjjc
    /*00000248*/ B           _ZNSt8__detail8_ScannerIcE18_M_eat_escape_ecmaEv_x16c
    _ZNSt8__detail8_ScannerIcE18_M_eat_escape_ecmaEv_x24c:
    /*0000024c*/ LDR         R2, [R4, #164]              @ 0xa4 
    /*00000250*/ MOV         R3, #24 
    /*00000254*/ STR         R3, [R4, #132]              @ 0x84 
    /*00000258*/ MOV         R3, #110                    @ 0x6e 
    /*0000025c*/ B           _ZNSt8__detail8_ScannerIcE18_M_eat_escape_ecmaEv_x158
    _ZNSt8__detail8_ScannerIcE18_M_eat_escape_ecmaEv_x260:
    /*00000260*/ STR         R5, [SP] 
    /*00000264*/ MOV         R3, #1 
    /*00000268*/ STR         R3, [R4, #132]              @ 0x84 
    /*0000026c*/ ADD         R0, R4, #160                @ 0xa0 
    /*00000270*/ BL          _ZNSt7__cxx1112basic_stringIcSt11char_traitsIcESaIcEE14_M_replace_auxEjjjc
    /*00000274*/ B           _ZNSt8__detail8_ScannerIcE18_M_eat_escape_ecmaEv_x16c
    _ZNSt8__detail8_ScannerIcE18_M_eat_escape_ecmaEv_x278:
    /*00000278*/ ADD         R2, R3, #1 
    /*0000027c*/ MOV         R0, R6 
    /*00000280*/ STR         R2, [R4, #148]              @ 0x94 
    /*00000284*/ LDRB        R1, [R3] 
    /*00000288*/ BL          _ZNSt7__cxx1112basic_stringIcSt11char_traitsIcESaIcEE9push_backEc
    /*0000028c*/ LDR         R3, [R4, #148]              @ 0x94 
    /*00000290*/ LDR         R2, [R4, #152]              @ 0x98 
    /*00000294*/ CMP         R3, R2 
    /*00000298*/ BNE         _ZNSt8__detail8_ScannerIcE18_M_eat_escape_ecmaEv_x108
    /*0000029c*/ B           _ZNSt8__detail8_ScannerIcE18_M_eat_escape_ecmaEv_x124
    _ZNSt8__detail8_ScannerIcE18_M_eat_escape_ecmaEv_x2a0:
    /*000002a0*/ ADD         R6, R4, #160                @ 0xa0 
    /*000002a4*/ MVN         R2, #0 
    /*000002a8*/ MOV         R0, R6 
    /*000002ac*/ MOV         R1, #0 
    /*000002b0*/ BL          _ZNSt7__cxx1112basic_stringIcSt11char_traitsIcESaIcEE5eraseEjj
    /*000002b4*/ CMP         R5, #120                    @ 0x78 
    /*000002b8*/ MOV         R5, #0 
    /*000002bc*/ MOVEQ       R7, #2 
    /*000002c0*/ MOVNE       R7, #4 
    _ZNSt8__detail8_ScannerIcE18_M_eat_escape_ecmaEv_x2c4:
    /*000002c4*/ LDR         R3, [R4, #148]              @ 0x94 
    /*000002c8*/ LDR         R2, [R4, #152]              @ 0x98 
    /*000002cc*/ CMP         R3, R2 
    /*000002d0*/ BEQ         _ZNSt8__detail8_ScannerIcE18_M_eat_escape_ecmaEv_x2f0
    /*000002d4*/ LDR         R1, [R4, #156]              @ 0x9c 
    /*000002d8*/ LDRB        R2, [R3] 
    /*000002dc*/ LDR         R1, [R1, #24] 
    /*000002e0*/ LSL         R2, R2, #1 
    /*000002e4*/ LDRH        R2, [R1, R2] 
    /*000002e8*/ TST         R2, #4096                   @ 0x1000 
    /*000002ec*/ BNE         _ZNSt8__detail8_ScannerIcE18_M_eat_escape_ecmaEv_x300
    _ZNSt8__detail8_ScannerIcE18_M_eat_escape_ecmaEv_x2f0:
    /*000002f0*/ LDR         R1, WORD_0354               @ LDR         R1, [PC, #92]               @ 0x0000000000000354 
    /*000002f4*/ MOV         R0, #2 
    /*000002f8*/ ADD         R1, PC, R1 
    /*000002fc*/ BL          _ZSt19__throw_regex_errorNSt15regex_constants10error_typeEPKc
    _ZNSt8__detail8_ScannerIcE18_M_eat_escape_ecmaEv_x300:
    /*00000300*/ ADD         R2, R3, #1 
    /*00000304*/ ADD         R5, R5, #1 
    /*00000308*/ STR         R2, [R4, #148]              @ 0x94 
    /*0000030c*/ MOV         R0, R6 
    /*00000310*/ LDRB        R1, [R3] 
    /*00000314*/ BL          _ZNSt7__cxx1112basic_stringIcSt11char_traitsIcESaIcEE9push_backEc
    /*00000318*/ CMP         R7, R5 
    /*0000031c*/ BNE         _ZNSt8__detail8_ScannerIcE18_M_eat_escape_ecmaEv_x2c4
    /*00000320*/ MOV         R3, #3 
    /*00000324*/ STR         R3, [R4, #132]              @ 0x84 
    /*00000328*/ B           _ZNSt8__detail8_ScannerIcE18_M_eat_escape_ecmaEv_x16c
    _ZNSt8__detail8_ScannerIcE18_M_eat_escape_ecmaEv_x32c:
    /*0000032c*/ LDR         R1, WORD_0358               @ LDR         R1, [PC, #36]               @ 0x0000000000000358 
    /*00000330*/ MOV         R0, #2 
    /*00000334*/ ADD         R1, PC, R1 
    /*00000338*/ BL          _ZSt19__throw_regex_errorNSt15regex_constants10error_typeEPKc
    _ZNSt8__detail8_ScannerIcE18_M_eat_escape_ecmaEv_x33c:
    /*0000033c*/ LDR         R1, WORD_035c               @ LDR         R1, [PC, #24]               @ 0x000000000000035c 
    /*00000340*/ MOV         R0, #2 
    /*00000344*/ ADD         R1, PC, R1 
    /*00000348*/ BL          _ZSt19__throw_regex_errorNSt15regex_constants10error_typeEPKc
    /*0000034c*/ WORD_034c: .word 0x00000320
    /*00000350*/ WORD_0350: .word 0x00000000
    /*00000354*/ WORD_0354: .word 0x00000054
    /*00000358*/ WORD_0358: .word 0x0000001c
    /*0000035c*/ WORD_035c: .word 0x00000010
FUNC_END _ZNSt8__detail8_ScannerIcE18_M_eat_escape_ecmaEv


@ - - - - - - - - - - - - - - - - - - - - - - - - - - - - - 
@ .text._ZN10hirtparser9GroupItemD2Ev
@ Size: 0x174
@ - - - - - - - - - - - - - - - - - - - - - - - - - - - - - 

FUNC_BEGIN _ZN10hirtparser9GroupItemD2Ev
    /*00000000*/ MOV         IP, #16384                  @ 0x4000 
    /*00000004*/ PUSH        {R4, R5, R6, R7, R8, R9, SL, LR} 
    /*00000008*/ SUB         IP, SP, IP 
    /*0000000c*/ STR         R0, [IP, #4064]             @ 0xfe0 
    /*00000010*/ MOV         R6, R0 
    /*00000014*/ LDR         R0, [R0, #24] 
    /*00000018*/ ADD         R3, R6, #32 
    /*0000001c*/ CMP         R0, R3 
    /*00000020*/ BEQ         _ZN10hirtparser9GroupItemD2Ev_x28
    /*00000024*/ BL          _ZdlPv
    _ZN10hirtparser9GroupItemD2Ev_x28:
    /*00000028*/ LDR         R5, [R6, #12] 
    /*0000002c*/ LDR         R7, [R6, #16] 
    /*00000030*/ CMP         R5, R7 
    /*00000034*/ BEQ         _ZN10hirtparser9GroupItemD2Ev_xb4
    /*00000038*/ LDR         R8, WORD_0164               @ LDR         R8, [PC, #292]              @ 0x0000000000000164 
    /*0000003c*/ ADD         R4, R5, #28 
    /*00000040*/ LDR         R9, WORD_0168               @ LDR         R9, [PC, #288]              @ 0x0000000000000168 
    /*00000044*/ ADD         R8, PC, R8 
    /*00000048*/ ADD         R9, PC, R9 
    /*0000004c*/ ADD         R8, R8, #8 
    /*00000050*/ B           _ZN10hirtparser9GroupItemD2Ev_x88
    _ZN10hirtparser9GroupItemD2Ev_x54:
    /*00000054*/ LDR         R0, [R4, #-8] 
    /*00000058*/ STR         R8, [R4, #-28]              @ 0xffffffe4 
    /*0000005c*/ CMP         R0, R4 
    /*00000060*/ BEQ         _ZN10hirtparser9GroupItemD2Ev_x68
    /*00000064*/ BL          _ZdlPv
    _ZN10hirtparser9GroupItemD2Ev_x68:
    /*00000068*/ LDR         R0, [R4, #-24]              @ 0xffffffe8 
    /*0000006c*/ CMP         R0, #0 
    /*00000070*/ BEQ         _ZN10hirtparser9GroupItemD2Ev_x78
    /*00000074*/ BL          _ZdlPv
    _ZN10hirtparser9GroupItemD2Ev_x78:
    /*00000078*/ ADD         R5, R5, #68                 @ 0x44 
    /*0000007c*/ ADD         R4, R4, #68                 @ 0x44 
    /*00000080*/ CMP         R7, R5 
    /*00000084*/ BEQ         _ZN10hirtparser9GroupItemD2Ev_xb0
    _ZN10hirtparser9GroupItemD2Ev_x88:
    /*00000088*/ LDR         R3, [R4, #-28]              @ 0xffffffe4 
    /*0000008c*/ LDR         R3, [R3] 
    /*00000090*/ CMP         R3, R9 
    /*00000094*/ BEQ         _ZN10hirtparser9GroupItemD2Ev_x54
    /*00000098*/ MOV         R0, R5 
    /*0000009c*/ ADD         R5, R5, #68                 @ 0x44 
    /*000000a0*/ ADD         R4, R4, #68                 @ 0x44 
    /*000000a4*/ BLX         R3 
    /*000000a8*/ CMP         R7, R5 
    /*000000ac*/ BNE         _ZN10hirtparser9GroupItemD2Ev_x88
    _ZN10hirtparser9GroupItemD2Ev_xb0:
    /*000000b0*/ LDR         R7, [R6, #12] 
    _ZN10hirtparser9GroupItemD2Ev_xb4:
    /*000000b4*/ CMP         R7, #0 
    /*000000b8*/ BEQ         _ZN10hirtparser9GroupItemD2Ev_xc4
    /*000000bc*/ MOV         R0, R7 
    /*000000c0*/ BL          _ZdlPv
    _ZN10hirtparser9GroupItemD2Ev_xc4:
    /*000000c4*/ LDM         R6, {R5, R7} 
    /*000000c8*/ CMP         R5, R7 
    /*000000cc*/ BEQ         _ZN10hirtparser9GroupItemD2Ev_x14c
    /*000000d0*/ LDR         R8, WORD_016c               @ LDR         R8, [PC, #148]              @ 0x000000000000016c 
    /*000000d4*/ ADD         R4, R5, #28 
    /*000000d8*/ LDR         R9, WORD_0170               @ LDR         R9, [PC, #144]              @ 0x0000000000000170 
    /*000000dc*/ ADD         R8, PC, R8 
    /*000000e0*/ ADD         R9, PC, R9 
    /*000000e4*/ ADD         R8, R8, #8 
    /*000000e8*/ B           _ZN10hirtparser9GroupItemD2Ev_x120
    _ZN10hirtparser9GroupItemD2Ev_xec:
    /*000000ec*/ LDR         R0, [R4, #-8] 
    /*000000f0*/ STR         R8, [R4, #-28]              @ 0xffffffe4 
    /*000000f4*/ CMP         R4, R0 
    /*000000f8*/ BEQ         _ZN10hirtparser9GroupItemD2Ev_x100
    /*000000fc*/ BL          _ZdlPv
    _ZN10hirtparser9GroupItemD2Ev_x100:
    /*00000100*/ LDR         R0, [R4, #-24]              @ 0xffffffe8 
    /*00000104*/ CMP         R0, #0 
    /*00000108*/ BEQ         _ZN10hirtparser9GroupItemD2Ev_x110
    /*0000010c*/ BL          _ZdlPv
    _ZN10hirtparser9GroupItemD2Ev_x110:
    /*00000110*/ ADD         R5, R5, #68                 @ 0x44 
    /*00000114*/ ADD         R4, R4, #68                 @ 0x44 
    /*00000118*/ CMP         R7, R5 
    /*0000011c*/ BEQ         _ZN10hirtparser9GroupItemD2Ev_x148
    _ZN10hirtparser9GroupItemD2Ev_x120:
    /*00000120*/ LDR         R3, [R4, #-28]              @ 0xffffffe4 
    /*00000124*/ LDR         R3, [R3] 
    /*00000128*/ CMP         R3, R9 
    /*0000012c*/ BEQ         _ZN10hirtparser9GroupItemD2Ev_xec
    /*00000130*/ MOV         R0, R5 
    /*00000134*/ ADD         R5, R5, #68                 @ 0x44 
    /*00000138*/ ADD         R4, R4, #68                 @ 0x44 
    /*0000013c*/ BLX         R3 
    /*00000140*/ CMP         R7, R5 
    /*00000144*/ BNE         _ZN10hirtparser9GroupItemD2Ev_x120
    _ZN10hirtparser9GroupItemD2Ev_x148:
    /*00000148*/ LDR         R7, [R6] 
    _ZN10hirtparser9GroupItemD2Ev_x14c:
    /*0000014c*/ CMP         R7, #0 
    /*00000150*/ BEQ         _ZN10hirtparser9GroupItemD2Ev_x15c
    /*00000154*/ MOV         R0, R7 
    /*00000158*/ BL          _ZdlPv
    _ZN10hirtparser9GroupItemD2Ev_x15c:
    /*0000015c*/ MOV         R0, R6 
    /*00000160*/ POP         {R4, R5, R6, R7, R8, R9, SL, PC} 
    /*00000164*/ WORD_0164: .word 0x00000118
    /*00000168*/ WORD_0168: .word 0x00000118
    /*0000016c*/ WORD_016c: .word 0x00000088
    /*00000170*/ WORD_0170: .word 0x00000088
FUNC_END _ZN10hirtparser9GroupItemD2Ev


FUNC_BEGIN _ZN10hirtparser9GroupItemD1Ev
    /*00000000*/ MOV         IP, #16384                  @ 0x4000 
    /*00000004*/ PUSH        {R4, R5, R6, R7, R8, R9, SL, LR} 
    /*00000008*/ SUB         IP, SP, IP 
    /*0000000c*/ STR         R0, [IP, #4064]             @ 0xfe0 
    /*00000010*/ MOV         R6, R0 
    /*00000014*/ LDR         R0, [R0, #24] 
    /*00000018*/ ADD         R3, R6, #32 
    /*0000001c*/ CMP         R0, R3 
    /*00000020*/ BEQ         _ZN10hirtparser9GroupItemD1Ev_x28
    /*00000024*/ BL          _ZdlPv
    _ZN10hirtparser9GroupItemD1Ev_x28:
    /*00000028*/ LDR         R5, [R6, #12] 
    /*0000002c*/ LDR         R7, [R6, #16] 
    /*00000030*/ CMP         R5, R7 
    /*00000034*/ BEQ         _ZN10hirtparser9GroupItemD1Ev_xb4
    /*00000038*/ LDR         R8, WORD_0164               @ LDR         R8, [PC, #292]              @ 0x0000000000000164 
    /*0000003c*/ ADD         R4, R5, #28 
    /*00000040*/ LDR         R9, WORD_0168               @ LDR         R9, [PC, #288]              @ 0x0000000000000168 
    /*00000044*/ ADD         R8, PC, R8 
    /*00000048*/ ADD         R9, PC, R9 
    /*0000004c*/ ADD         R8, R8, #8 
    /*00000050*/ B           _ZN10hirtparser9GroupItemD1Ev_x88
    _ZN10hirtparser9GroupItemD1Ev_x54:
    /*00000054*/ LDR         R0, [R4, #-8] 
    /*00000058*/ STR         R8, [R4, #-28]              @ 0xffffffe4 
    /*0000005c*/ CMP         R0, R4 
    /*00000060*/ BEQ         _ZN10hirtparser9GroupItemD1Ev_x68
    /*00000064*/ BL          _ZdlPv
    _ZN10hirtparser9GroupItemD1Ev_x68:
    /*00000068*/ LDR         R0, [R4, #-24]              @ 0xffffffe8 
    /*0000006c*/ CMP         R0, #0 
    /*00000070*/ BEQ         _ZN10hirtparser9GroupItemD1Ev_x78
    /*00000074*/ BL          _ZdlPv
    _ZN10hirtparser9GroupItemD1Ev_x78:
    /*00000078*/ ADD         R5, R5, #68                 @ 0x44 
    /*0000007c*/ ADD         R4, R4, #68                 @ 0x44 
    /*00000080*/ CMP         R7, R5 
    /*00000084*/ BEQ         _ZN10hirtparser9GroupItemD1Ev_xb0
    _ZN10hirtparser9GroupItemD1Ev_x88:
    /*00000088*/ LDR         R3, [R4, #-28]              @ 0xffffffe4 
    /*0000008c*/ LDR         R3, [R3] 
    /*00000090*/ CMP         R3, R9 
    /*00000094*/ BEQ         _ZN10hirtparser9GroupItemD1Ev_x54
    /*00000098*/ MOV         R0, R5 
    /*0000009c*/ ADD         R5, R5, #68                 @ 0x44 
    /*000000a0*/ ADD         R4, R4, #68                 @ 0x44 
    /*000000a4*/ BLX         R3 
    /*000000a8*/ CMP         R7, R5 
    /*000000ac*/ BNE         _ZN10hirtparser9GroupItemD1Ev_x88
    _ZN10hirtparser9GroupItemD1Ev_xb0:
    /*000000b0*/ LDR         R7, [R6, #12] 
    _ZN10hirtparser9GroupItemD1Ev_xb4:
    /*000000b4*/ CMP         R7, #0 
    /*000000b8*/ BEQ         _ZN10hirtparser9GroupItemD1Ev_xc4
    /*000000bc*/ MOV         R0, R7 
    /*000000c0*/ BL          _ZdlPv
    _ZN10hirtparser9GroupItemD1Ev_xc4:
    /*000000c4*/ LDM         R6, {R5, R7} 
    /*000000c8*/ CMP         R5, R7 
    /*000000cc*/ BEQ         _ZN10hirtparser9GroupItemD1Ev_x14c
    /*000000d0*/ LDR         R8, WORD_016c               @ LDR         R8, [PC, #148]              @ 0x000000000000016c 
    /*000000d4*/ ADD         R4, R5, #28 
    /*000000d8*/ LDR         R9, WORD_0170               @ LDR         R9, [PC, #144]              @ 0x0000000000000170 
    /*000000dc*/ ADD         R8, PC, R8 
    /*000000e0*/ ADD         R9, PC, R9 
    /*000000e4*/ ADD         R8, R8, #8 
    /*000000e8*/ B           _ZN10hirtparser9GroupItemD1Ev_x120
    _ZN10hirtparser9GroupItemD1Ev_xec:
    /*000000ec*/ LDR         R0, [R4, #-8] 
    /*000000f0*/ STR         R8, [R4, #-28]              @ 0xffffffe4 
    /*000000f4*/ CMP         R4, R0 
    /*000000f8*/ BEQ         _ZN10hirtparser9GroupItemD1Ev_x100
    /*000000fc*/ BL          _ZdlPv
    _ZN10hirtparser9GroupItemD1Ev_x100:
    /*00000100*/ LDR         R0, [R4, #-24]              @ 0xffffffe8 
    /*00000104*/ CMP         R0, #0 
    /*00000108*/ BEQ         _ZN10hirtparser9GroupItemD1Ev_x110
    /*0000010c*/ BL          _ZdlPv
    _ZN10hirtparser9GroupItemD1Ev_x110:
    /*00000110*/ ADD         R5, R5, #68                 @ 0x44 
    /*00000114*/ ADD         R4, R4, #68                 @ 0x44 
    /*00000118*/ CMP         R7, R5 
    /*0000011c*/ BEQ         _ZN10hirtparser9GroupItemD1Ev_x148
    _ZN10hirtparser9GroupItemD1Ev_x120:
    /*00000120*/ LDR         R3, [R4, #-28]              @ 0xffffffe4 
    /*00000124*/ LDR         R3, [R3] 
    /*00000128*/ CMP         R3, R9 
    /*0000012c*/ BEQ         _ZN10hirtparser9GroupItemD1Ev_xec
    /*00000130*/ MOV         R0, R5 
    /*00000134*/ ADD         R5, R5, #68                 @ 0x44 
    /*00000138*/ ADD         R4, R4, #68                 @ 0x44 
    /*0000013c*/ BLX         R3 
    /*00000140*/ CMP         R7, R5 
    /*00000144*/ BNE         _ZN10hirtparser9GroupItemD1Ev_x120
    _ZN10hirtparser9GroupItemD1Ev_x148:
    /*00000148*/ LDR         R7, [R6] 
    _ZN10hirtparser9GroupItemD1Ev_x14c:
    /*0000014c*/ CMP         R7, #0 
    /*00000150*/ BEQ         _ZN10hirtparser9GroupItemD1Ev_x15c
    /*00000154*/ MOV         R0, R7 
    /*00000158*/ BL          _ZdlPv
    _ZN10hirtparser9GroupItemD1Ev_x15c:
    /*0000015c*/ MOV         R0, R6 
    /*00000160*/ POP         {R4, R5, R6, R7, R8, R9, SL, PC} 
    /*00000164*/ WORD_0164: .word 0x00000118
    /*00000168*/ WORD_0168: .word 0x00000118
    /*0000016c*/ WORD_016c: .word 0x00000088
    /*00000170*/ WORD_0170: .word 0x00000088
FUNC_END _ZN10hirtparser9GroupItemD1Ev


@ - - - - - - - - - - - - - - - - - - - - - - - - - - - - - 
@ .text._ZNK10hirtparser5Shape8dim_sizeEv
@ Size: 0x10
@ - - - - - - - - - - - - - - - - - - - - - - - - - - - - - 

FUNC_BEGIN _ZNK10hirtparser5Shape8dim_sizeEv
    /*00000000*/ LDM         R0, {R0, R3} 
    /*00000004*/ SUB         R0, R3, R0 
    /*00000008*/ ASR         R0, R0, #2 
    /*0000000c*/ BX          LR 
FUNC_END _ZNK10hirtparser5Shape8dim_sizeEv


@ - - - - - - - - - - - - - - - - - - - - - - - - - - - - - 
@ .text._ZNK10hirtparser5Shape3dimEi
@ Size: 0xc
@ - - - - - - - - - - - - - - - - - - - - - - - - - - - - - 

FUNC_BEGIN _ZNK10hirtparser5Shape3dimEi
    /*00000000*/ LDR         R3, [R0] 
    /*00000004*/ LDR         R0, [R3, R1, LSL #2] 
    /*00000008*/ BX          LR 
FUNC_END _ZNK10hirtparser5Shape3dimEi


@ - - - - - - - - - - - - - - - - - - - - - - - - - - - - - 
@ .text._ZNK10hirtparser4Blob4nameB5cxx11Ev
@ Size: 0x34
@ - - - - - - - - - - - - - - - - - - - - - - - - - - - - - 

FUNC_BEGIN _ZNK10hirtparser4Blob4nameB5cxx11Ev
    /*00000000*/ MOV         IP, #16384                  @ 0x4000 
    /*00000004*/ PUSH        {R4, LR} 
    /*00000008*/ SUB         IP, SP, IP 
    /*0000000c*/ STR         R0, [IP, #4088]             @ 0xff8 
    /*00000010*/ LDR         R2, [R1, #24] 
    /*00000014*/ ADD         R3, R0, #8 
    /*00000018*/ STR         R3, [R0] 
    /*0000001c*/ MOV         R4, R0 
    /*00000020*/ LDR         R1, [R1, #20] 
    /*00000024*/ ADD         R2, R1, R2 
    /*00000028*/ BL          _ZNSt7__cxx1112basic_stringIcSt11char_traitsIcESaIcEE12_M_constructIPcEEvT_S7_St20forward_iterator_tag.isra.120
    /*0000002c*/ MOV         R0, R4 
    /*00000030*/ POP         {R4, PC} 
FUNC_END _ZNK10hirtparser4Blob4nameB5cxx11Ev


@ - - - - - - - - - - - - - - - - - - - - - - - - - - - - - 
@ .text._ZNK10hirtparser4Blob9has_shapeEv
@ Size: 0x8
@ - - - - - - - - - - - - - - - - - - - - - - - - - - - - - 

FUNC_BEGIN _ZNK10hirtparser4Blob9has_shapeEv
    /*00000000*/ LDR         R0, [R0, #16] 
    /*00000004*/ BX          LR 
FUNC_END _ZNK10hirtparser4Blob9has_shapeEv


@ - - - - - - - - - - - - - - - - - - - - - - - - - - - - - 
@ .text._ZNK10hirtparser4Blob5shapeEv
@ Size: 0x8
@ - - - - - - - - - - - - - - - - - - - - - - - - - - - - - 

FUNC_BEGIN _ZNK10hirtparser4Blob5shapeEv
    /*00000000*/ ADD         R0, R0, #4 
    /*00000004*/ BX          LR 
FUNC_END _ZNK10hirtparser4Blob5shapeEv


@ - - - - - - - - - - - - - - - - - - - - - - - - - - - - - 
@ .text._ZNK10hirtparser4Blob8has_typeEv
@ Size: 0x8
@ - - - - - - - - - - - - - - - - - - - - - - - - - - - - - 

FUNC_BEGIN _ZNK10hirtparser4Blob8has_typeEv
    /*00000000*/ LDR         R0, [R0, #44]               @ 0x2c 
    /*00000004*/ BX          LR 
FUNC_END _ZNK10hirtparser4Blob8has_typeEv


@ - - - - - - - - - - - - - - - - - - - - - - - - - - - - - 
@ .text._ZNK10hirtparser4Blob4typeEv
@ Size: 0x8
@ - - - - - - - - - - - - - - - - - - - - - - - - - - - - - 

FUNC_BEGIN _ZNK10hirtparser4Blob4typeEv
    /*00000000*/ LDR         R0, [R0, #48]               @ 0x30 
    /*00000004*/ BX          LR 
FUNC_END _ZNK10hirtparser4Blob4typeEv


@ - - - - - - - - - - - - - - - - - - - - - - - - - - - - - 
@ .text._ZNK10hirtparser4Blob16has_frame_dependEv
@ Size: 0x8
@ - - - - - - - - - - - - - - - - - - - - - - - - - - - - - 

FUNC_BEGIN _ZNK10hirtparser4Blob16has_frame_dependEv
    /*00000000*/ LDR         R0, [R0, #52]               @ 0x34 
    /*00000004*/ BX          LR 
FUNC_END _ZNK10hirtparser4Blob16has_frame_dependEv


@ - - - - - - - - - - - - - - - - - - - - - - - - - - - - - 
@ .text._ZNK10hirtparser4Blob12frame_dependEv
@ Size: 0x8
@ - - - - - - - - - - - - - - - - - - - - - - - - - - - - - 

FUNC_BEGIN _ZNK10hirtparser4Blob12frame_dependEv
    /*00000000*/ LDR         R0, [R0, #56]               @ 0x38 
    /*00000004*/ BX          LR 
FUNC_END _ZNK10hirtparser4Blob12frame_dependEv


@ - - - - - - - - - - - - - - - - - - - - - - - - - - - - - 
@ .text._ZNK10hirtparser4Blob15has_report_flagEv
@ Size: 0x8
@ - - - - - - - - - - - - - - - - - - - - - - - - - - - - - 

FUNC_BEGIN _ZNK10hirtparser4Blob15has_report_flagEv
    /*00000000*/ LDR         R0, [R0, #60]               @ 0x3c 
    /*00000004*/ BX          LR 
FUNC_END _ZNK10hirtparser4Blob15has_report_flagEv


@ - - - - - - - - - - - - - - - - - - - - - - - - - - - - - 
@ .text._ZNK10hirtparser4Blob11report_flagEv
@ Size: 0x8
@ - - - - - - - - - - - - - - - - - - - - - - - - - - - - - 

FUNC_BEGIN _ZNK10hirtparser4Blob11report_flagEv
    /*00000000*/ LDR         R0, [R0, #64]               @ 0x40 
    /*00000004*/ BX          LR 
FUNC_END _ZNK10hirtparser4Blob11report_flagEv


@ - - - - - - - - - - - - - - - - - - - - - - - - - - - - - 
@ .text._ZNK10hirtparser9GroupItem4nameB5cxx11Ev
@ Size: 0x34
@ - - - - - - - - - - - - - - - - - - - - - - - - - - - - - 

FUNC_BEGIN _ZNK10hirtparser9GroupItem4nameB5cxx11Ev
    /*00000000*/ MOV         IP, #16384                  @ 0x4000 
    /*00000004*/ PUSH        {R4, LR} 
    /*00000008*/ SUB         IP, SP, IP 
    /*0000000c*/ STR         R0, [IP, #4088]             @ 0xff8 
    /*00000010*/ LDR         R2, [R1, #28] 
    /*00000014*/ ADD         R3, R0, #8 
    /*00000018*/ STR         R3, [R0] 
    /*0000001c*/ MOV         R4, R0 
    /*00000020*/ LDR         R1, [R1, #24] 
    /*00000024*/ ADD         R2, R1, R2 
    /*00000028*/ BL          _ZNSt7__cxx1112basic_stringIcSt11char_traitsIcESaIcEE12_M_constructIPcEEvT_S7_St20forward_iterator_tag.isra.120
    /*0000002c*/ MOV         R0, R4 
    /*00000030*/ POP         {R4, PC} 
FUNC_END _ZNK10hirtparser9GroupItem4nameB5cxx11Ev


@ - - - - - - - - - - - - - - - - - - - - - - - - - - - - - 
@ .text._ZNK10hirtparser9GroupItem8top_sizeEv
@ Size: 0x1c
@ - - - - - - - - - - - - - - - - - - - - - - - - - - - - - 

FUNC_BEGIN _ZNK10hirtparser9GroupItem8top_sizeEv
    /*00000000*/ LDM         R0, {R0, R3} 
    /*00000004*/ MOVW        R2, #61681                  @ 0xf0f1 
    /*00000008*/ SUB         R3, R3, R0 
    /*0000000c*/ MOVT        R2, #61680                  @ 0xf0f0 
    /*00000010*/ ASR         R3, R3, #2 
    /*00000014*/ MUL         R0, R2, R3 
    /*00000018*/ BX          LR 
FUNC_END _ZNK10hirtparser9GroupItem8top_sizeEv


@ - - - - - - - - - - - - - - - - - - - - - - - - - - - - - 
@ .text._ZNK10hirtparser9GroupItem3topEi
@ Size: 0x10
@ - - - - - - - - - - - - - - - - - - - - - - - - - - - - - 

FUNC_BEGIN _ZNK10hirtparser9GroupItem3topEi
    /*00000000*/ LDR         R3, [R0] 
    /*00000004*/ MOV         R0, #68                     @ 0x44 
    /*00000008*/ MLA         R0, R0, R1, R3 
    /*0000000c*/ BX          LR 
FUNC_END _ZNK10hirtparser9GroupItem3topEi


@ - - - - - - - - - - - - - - - - - - - - - - - - - - - - - 
@ .text._ZNK10hirtparser9GroupItem11bottom_sizeEv
@ Size: 0x20
@ - - - - - - - - - - - - - - - - - - - - - - - - - - - - - 

FUNC_BEGIN _ZNK10hirtparser9GroupItem11bottom_sizeEv
    /*00000000*/ LDR         R3, [R0, #16] 
    /*00000004*/ MOVW        R2, #61681                  @ 0xf0f1 
    /*00000008*/ LDR         R0, [R0, #12] 
    /*0000000c*/ MOVT        R2, #61680                  @ 0xf0f0 
    /*00000010*/ SUB         R3, R3, R0 
    /*00000014*/ ASR         R3, R3, #2 
    /*00000018*/ MUL         R0, R2, R3 
    /*0000001c*/ BX          LR 
FUNC_END _ZNK10hirtparser9GroupItem11bottom_sizeEv


@ - - - - - - - - - - - - - - - - - - - - - - - - - - - - - 
@ .text._ZNK10hirtparser9GroupItem6bottomEi
@ Size: 0x10
@ - - - - - - - - - - - - - - - - - - - - - - - - - - - - - 

FUNC_BEGIN _ZNK10hirtparser9GroupItem6bottomEi
    /*00000000*/ LDR         R3, [R0, #12] 
    /*00000004*/ MOV         R0, #68                     @ 0x44 
    /*00000008*/ MLA         R0, R0, R1, R3 
    /*0000000c*/ BX          LR 
FUNC_END _ZNK10hirtparser9GroupItem6bottomEi


@ - - - - - - - - - - - - - - - - - - - - - - - - - - - - - 
@ .text._ZNK10hirtparser15CustomOperation4nameB5cxx11Ev
@ Size: 0x34
@ - - - - - - - - - - - - - - - - - - - - - - - - - - - - - 

FUNC_BEGIN _ZNK10hirtparser15CustomOperation4nameB5cxx11Ev
    /*00000000*/ MOV         IP, #16384                  @ 0x4000 
    /*00000004*/ PUSH        {R4, LR} 
    /*00000008*/ SUB         IP, SP, IP 
    /*0000000c*/ STR         R0, [IP, #4088]             @ 0xff8 
    /*00000010*/ LDR         R2, [R1, #4] 
    /*00000014*/ ADD         R3, R0, #8 
    /*00000018*/ STR         R3, [R0] 
    /*0000001c*/ MOV         R4, R0 
    /*00000020*/ LDR         R1, [R1] 
    /*00000024*/ ADD         R2, R1, R2 
    /*00000028*/ BL          _ZNSt7__cxx1112basic_stringIcSt11char_traitsIcESaIcEE12_M_constructIPcEEvT_S7_St20forward_iterator_tag.isra.120
    /*0000002c*/ MOV         R0, R4 
    /*00000030*/ POP         {R4, PC} 
FUNC_END _ZNK10hirtparser15CustomOperation4nameB5cxx11Ev


@ - - - - - - - - - - - - - - - - - - - - - - - - - - - - - 
@ .text._ZNK10hirtparser5Model18has_hirt_batch_numEv
@ Size: 0x8
@ - - - - - - - - - - - - - - - - - - - - - - - - - - - - - 

FUNC_BEGIN _ZNK10hirtparser5Model18has_hirt_batch_numEv
    /*00000000*/ LDR         R0, [R0, #60]               @ 0x3c 
    /*00000004*/ BX          LR 
FUNC_END _ZNK10hirtparser5Model18has_hirt_batch_numEv


@ - - - - - - - - - - - - - - - - - - - - - - - - - - - - - 
@ .text._ZNK10hirtparser5Model14hirt_batch_numEv
@ Size: 0x8
@ - - - - - - - - - - - - - - - - - - - - - - - - - - - - - 

FUNC_BEGIN _ZNK10hirtparser5Model14hirt_batch_numEv
    /*00000000*/ LDR         R0, [R0, #64]               @ 0x40 
    /*00000004*/ BX          LR 
FUNC_END _ZNK10hirtparser5Model14hirt_batch_numEv


@ - - - - - - - - - - - - - - - - - - - - - - - - - - - - - 
@ .text._ZNK10hirtparser5Model9cops_sizeEv
@ Size: 0x20
@ - - - - - - - - - - - - - - - - - - - - - - - - - - - - - 

FUNC_BEGIN _ZNK10hirtparser5Model9cops_sizeEv
    /*00000000*/ LDR         R3, [R0, #52]               @ 0x34 
    /*00000004*/ MOVW        R2, #43691                  @ 0xaaab 
    /*00000008*/ LDR         R0, [R0, #48]               @ 0x30 
    /*0000000c*/ MOVT        R2, #43690                  @ 0xaaaa 
    /*00000010*/ SUB         R3, R3, R0 
    /*00000014*/ ASR         R3, R3, #3 
    /*00000018*/ MUL         R0, R2, R3 
    /*0000001c*/ BX          LR 
FUNC_END _ZNK10hirtparser5Model9cops_sizeEv


@ - - - - - - - - - - - - - - - - - - - - - - - - - - - - - 
@ .text._ZNK10hirtparser5Model4copsEi
@ Size: 0x10
@ - - - - - - - - - - - - - - - - - - - - - - - - - - - - - 

FUNC_BEGIN _ZNK10hirtparser5Model4copsEi
    /*00000000*/ LDR         R3, [R0, #48]               @ 0x30 
    /*00000004*/ MOV         R0, #24 
    /*00000008*/ MLA         R0, R0, R1, R3 
    /*0000000c*/ BX          LR 
FUNC_END _ZNK10hirtparser5Model4copsEi


@ - - - - - - - - - - - - - - - - - - - - - - - - - - - - - 
@ .text._ZNK10hirtparser16ModelGroupConfig4nameB5cxx11Ev
@ Size: 0x34
@ - - - - - - - - - - - - - - - - - - - - - - - - - - - - - 

FUNC_BEGIN _ZNK10hirtparser16ModelGroupConfig4nameB5cxx11Ev
    /*00000000*/ MOV         IP, #16384                  @ 0x4000 
    /*00000004*/ PUSH        {R4, LR} 
    /*00000008*/ SUB         IP, SP, IP 
    /*0000000c*/ STR         R0, [IP, #4088]             @ 0xff8 
    /*00000010*/ LDR         R2, [R1, #40]               @ 0x28 
    /*00000014*/ ADD         R3, R0, #8 
    /*00000018*/ STR         R3, [R0] 
    /*0000001c*/ MOV         R4, R0 
    /*00000020*/ LDR         R1, [R1, #36]               @ 0x24 
    /*00000024*/ ADD         R2, R1, R2 
    /*00000028*/ BL          _ZNSt7__cxx1112basic_stringIcSt11char_traitsIcESaIcEE12_M_constructIPcEEvT_S7_St20forward_iterator_tag.isra.120
    /*0000002c*/ MOV         R0, R4 
    /*00000030*/ POP         {R4, PC} 
FUNC_END _ZNK10hirtparser16ModelGroupConfig4nameB5cxx11Ev


@ - - - - - - - - - - - - - - - - - - - - - - - - - - - - - 
@ .text._ZNK10hirtparser16ModelGroupConfig10model_sizeEv
@ Size: 0x1c
@ - - - - - - - - - - - - - - - - - - - - - - - - - - - - - 

FUNC_BEGIN _ZNK10hirtparser16ModelGroupConfig10model_sizeEv
    /*00000000*/ LDM         R0, {R0, R3} 
    /*00000004*/ MOVW        R2, #61681                  @ 0xf0f1 
    /*00000008*/ SUB         R3, R3, R0 
    /*0000000c*/ MOVT        R2, #61680                  @ 0xf0f0 
    /*00000010*/ ASR         R3, R3, #2 
    /*00000014*/ MUL         R0, R2, R3 
    /*00000018*/ BX          LR 
FUNC_END _ZNK10hirtparser16ModelGroupConfig10model_sizeEv


@ - - - - - - - - - - - - - - - - - - - - - - - - - - - - - 
@ .text._ZNK10hirtparser16ModelGroupConfig5modelEi
@ Size: 0x10
@ - - - - - - - - - - - - - - - - - - - - - - - - - - - - - 

FUNC_BEGIN _ZNK10hirtparser16ModelGroupConfig5modelEi
    /*00000000*/ LDR         R3, [R0] 
    /*00000004*/ MOV         R0, #68                     @ 0x44 
    /*00000008*/ MLA         R0, R0, R1, R3 
    /*0000000c*/ BX          LR 
FUNC_END _ZNK10hirtparser16ModelGroupConfig5modelEi


@ - - - - - - - - - - - - - - - - - - - - - - - - - - - - - 
@ .text._ZNK10hirtparser16ModelGroupConfig14connector_sizeEv
@ Size: 0x20
@ - - - - - - - - - - - - - - - - - - - - - - - - - - - - - 

FUNC_BEGIN _ZNK10hirtparser16ModelGroupConfig14connector_sizeEv
    /*00000000*/ LDR         R3, [R0, #16] 
    /*00000004*/ MOVW        R2, #43691                  @ 0xaaab 
    /*00000008*/ LDR         R0, [R0, #12] 
    /*0000000c*/ MOVT        R2, #43690                  @ 0xaaaa 
    /*00000010*/ SUB         R3, R3, R0 
    /*00000014*/ ASR         R3, R3, #4 
    /*00000018*/ MUL         R0, R2, R3 
    /*0000001c*/ BX          LR 
FUNC_END _ZNK10hirtparser16ModelGroupConfig14connector_sizeEv


@ - - - - - - - - - - - - - - - - - - - - - - - - - - - - - 
@ .text._ZNK10hirtparser16ModelGroupConfig9connectorEi
@ Size: 0x10
@ - - - - - - - - - - - - - - - - - - - - - - - - - - - - - 

FUNC_BEGIN _ZNK10hirtparser16ModelGroupConfig9connectorEi
    /*00000000*/ LDR         R3, [R0, #12] 
    /*00000004*/ MOV         R0, #48                     @ 0x30 
    /*00000008*/ MLA         R0, R0, R1, R3 
    /*0000000c*/ BX          LR 
FUNC_END _ZNK10hirtparser16ModelGroupConfig9connectorEi


@ - - - - - - - - - - - - - - - - - - - - - - - - - - - - - 
@ .text._ZNK10hirtparser16ModelGroupConfig10input_sizeEv
@ Size: 0x20
@ - - - - - - - - - - - - - - - - - - - - - - - - - - - - - 

FUNC_BEGIN _ZNK10hirtparser16ModelGroupConfig10input_sizeEv
    /*00000000*/ LDR         R3, [R0, #28] 
    /*00000004*/ MOVW        R2, #61681                  @ 0xf0f1 
    /*00000008*/ LDR         R0, [R0, #24] 
    /*0000000c*/ MOVT        R2, #61680                  @ 0xf0f0 
    /*00000010*/ SUB         R3, R3, R0 
    /*00000014*/ ASR         R3, R3, #2 
    /*00000018*/ MUL         R0, R2, R3 
    /*0000001c*/ BX          LR 
FUNC_END _ZNK10hirtparser16ModelGroupConfig10input_sizeEv


@ - - - - - - - - - - - - - - - - - - - - - - - - - - - - - 
@ .text._ZNK10hirtparser16ModelGroupConfig5inputEi
@ Size: 0x10
@ - - - - - - - - - - - - - - - - - - - - - - - - - - - - - 

FUNC_BEGIN _ZNK10hirtparser16ModelGroupConfig5inputEi
    /*00000000*/ LDR         R3, [R0, #24] 
    /*00000004*/ MOV         R0, #68                     @ 0x44 
    /*00000008*/ MLA         R0, R0, R1, R3 
    /*0000000c*/ BX          LR 
FUNC_END _ZNK10hirtparser16ModelGroupConfig5inputEi


@ - - - - - - - - - - - - - - - - - - - - - - - - - - - - - 
@ .text._ZNK10hirtparser16ModelGroupConfig8priorityEv
@ Size: 0x8
@ - - - - - - - - - - - - - - - - - - - - - - - - - - - - - 

FUNC_BEGIN _ZNK10hirtparser16ModelGroupConfig8priorityEv
    /*00000000*/ LDR         R0, [R0, #60]               @ 0x3c 
    /*00000004*/ BX          LR 
FUNC_END _ZNK10hirtparser16ModelGroupConfig8priorityEv


@ - - - - - - - - - - - - - - - - - - - - - - - - - - - - - 
@ .text._ZNK10hirtparser16ModelGroupConfig18max_tmpbuf_size_mbEv
@ Size: 0x8
@ - - - - - - - - - - - - - - - - - - - - - - - - - - - - - 

FUNC_BEGIN _ZNK10hirtparser16ModelGroupConfig18max_tmpbuf_size_mbEv
    /*00000000*/ LDR         R0, [R0, #64]               @ 0x40 
    /*00000004*/ BX          LR 
FUNC_END _ZNK10hirtparser16ModelGroupConfig18max_tmpbuf_size_mbEv


@ - - - - - - - - - - - - - - - - - - - - - - - - - - - - - 
@ .text._ZNK10hirtparser16ModelGroupConfig10align_sizeEv
@ Size: 0x8
@ - - - - - - - - - - - - - - - - - - - - - - - - - - - - - 

FUNC_BEGIN _ZNK10hirtparser16ModelGroupConfig10align_sizeEv
    /*00000000*/ LDR         R0, [R0, #68]               @ 0x44 
    /*00000004*/ BX          LR 
FUNC_END _ZNK10hirtparser16ModelGroupConfig10align_sizeEv


@ - - - - - - - - - - - - - - - - - - - - - - - - - - - - - 
@ .text._ZNSt6vectorIN10hirtparser4BlobESaIS1_EED2Ev
@ Size: 0xbc
@ - - - - - - - - - - - - - - - - - - - - - - - - - - - - - 

FUNC_BEGIN _ZNSt6vectorIN10hirtparser4BlobESaIS1_EED2Ev
    /*00000000*/ MOV         IP, #16384                  @ 0x4000 
    /*00000004*/ PUSH        {R4, R5, R6, R7, R8, R9, SL, LR} 
    /*00000008*/ SUB         IP, SP, IP 
    /*0000000c*/ STR         R0, [IP, #4064]             @ 0xfe0 
    /*00000010*/ LDM         R0, {R5, R6} 
    /*00000014*/ MOV         R9, R0 
    /*00000018*/ CMP         R5, R6 
    /*0000001c*/ BEQ         _ZNSt6vectorIN10hirtparser4BlobESaIS1_EED2Ev_x9c
    /*00000020*/ LDR         R7, WORD_00b4               @ LDR         R7, [PC, #140]              @ 0x00000000000000b4 
    /*00000024*/ ADD         R4, R5, #28 
    /*00000028*/ LDR         R8, WORD_00b8               @ LDR         R8, [PC, #136]              @ 0x00000000000000b8 
    /*0000002c*/ ADD         R7, PC, R7 
    /*00000030*/ ADD         R8, PC, R8 
    /*00000034*/ ADD         R7, R7, #8 
    /*00000038*/ B           _ZNSt6vectorIN10hirtparser4BlobESaIS1_EED2Ev_x70
    _ZNSt6vectorIN10hirtparser4BlobESaIS1_EED2Ev_x3c:
    /*0000003c*/ LDR         R0, [R4, #-8] 
    /*00000040*/ STR         R7, [R4, #-28]              @ 0xffffffe4 
    /*00000044*/ CMP         R0, R4 
    /*00000048*/ BEQ         _ZNSt6vectorIN10hirtparser4BlobESaIS1_EED2Ev_x50
    /*0000004c*/ BL          _ZdlPv
    _ZNSt6vectorIN10hirtparser4BlobESaIS1_EED2Ev_x50:
    /*00000050*/ LDR         R0, [R4, #-24]              @ 0xffffffe8 
    /*00000054*/ CMP         R0, #0 
    /*00000058*/ BEQ         _ZNSt6vectorIN10hirtparser4BlobESaIS1_EED2Ev_x60
    /*0000005c*/ BL          _ZdlPv
    _ZNSt6vectorIN10hirtparser4BlobESaIS1_EED2Ev_x60:
    /*00000060*/ ADD         R5, R5, #68                 @ 0x44 
    /*00000064*/ ADD         R4, R4, #68                 @ 0x44 
    /*00000068*/ CMP         R6, R5 
    /*0000006c*/ BEQ         _ZNSt6vectorIN10hirtparser4BlobESaIS1_EED2Ev_x98
    _ZNSt6vectorIN10hirtparser4BlobESaIS1_EED2Ev_x70:
    /*00000070*/ LDR         R3, [R4, #-28]              @ 0xffffffe4 
    /*00000074*/ LDR         R3, [R3] 
    /*00000078*/ CMP         R3, R8 
    /*0000007c*/ BEQ         _ZNSt6vectorIN10hirtparser4BlobESaIS1_EED2Ev_x3c
    /*00000080*/ MOV         R0, R5 
    /*00000084*/ ADD         R5, R5, #68                 @ 0x44 
    /*00000088*/ ADD         R4, R4, #68                 @ 0x44 
    /*0000008c*/ BLX         R3 
    /*00000090*/ CMP         R6, R5 
    /*00000094*/ BNE         _ZNSt6vectorIN10hirtparser4BlobESaIS1_EED2Ev_x70
    _ZNSt6vectorIN10hirtparser4BlobESaIS1_EED2Ev_x98:
    /*00000098*/ LDR         R6, [R9] 
    _ZNSt6vectorIN10hirtparser4BlobESaIS1_EED2Ev_x9c:
    /*0000009c*/ CMP         R6, #0 
    /*000000a0*/ BEQ         _ZNSt6vectorIN10hirtparser4BlobESaIS1_EED2Ev_xac
    /*000000a4*/ MOV         R0, R6 
    /*000000a8*/ BL          _ZdlPv
    _ZNSt6vectorIN10hirtparser4BlobESaIS1_EED2Ev_xac:
    /*000000ac*/ MOV         R0, R9 
    /*000000b0*/ POP         {R4, R5, R6, R7, R8, R9, SL, PC} 
    /*000000b4*/ WORD_00b4: .word 0x00000080
    /*000000b8*/ WORD_00b8: .word 0x00000080
FUNC_END _ZNSt6vectorIN10hirtparser4BlobESaIS1_EED2Ev


FUNC_BEGIN _ZNSt6vectorIN10hirtparser4BlobESaIS1_EED1Ev
    /*00000000*/ MOV         IP, #16384                  @ 0x4000 
    /*00000004*/ PUSH        {R4, R5, R6, R7, R8, R9, SL, LR} 
    /*00000008*/ SUB         IP, SP, IP 
    /*0000000c*/ STR         R0, [IP, #4064]             @ 0xfe0 
    /*00000010*/ LDM         R0, {R5, R6} 
    /*00000014*/ MOV         R9, R0 
    /*00000018*/ CMP         R5, R6 
    /*0000001c*/ BEQ         _ZNSt6vectorIN10hirtparser4BlobESaIS1_EED1Ev_x9c
    /*00000020*/ LDR         R7, WORD_00b4               @ LDR         R7, [PC, #140]              @ 0x00000000000000b4 
    /*00000024*/ ADD         R4, R5, #28 
    /*00000028*/ LDR         R8, WORD_00b8               @ LDR         R8, [PC, #136]              @ 0x00000000000000b8 
    /*0000002c*/ ADD         R7, PC, R7 
    /*00000030*/ ADD         R8, PC, R8 
    /*00000034*/ ADD         R7, R7, #8 
    /*00000038*/ B           _ZNSt6vectorIN10hirtparser4BlobESaIS1_EED1Ev_x70
    _ZNSt6vectorIN10hirtparser4BlobESaIS1_EED1Ev_x3c:
    /*0000003c*/ LDR         R0, [R4, #-8] 
    /*00000040*/ STR         R7, [R4, #-28]              @ 0xffffffe4 
    /*00000044*/ CMP         R0, R4 
    /*00000048*/ BEQ         _ZNSt6vectorIN10hirtparser4BlobESaIS1_EED1Ev_x50
    /*0000004c*/ BL          _ZdlPv
    _ZNSt6vectorIN10hirtparser4BlobESaIS1_EED1Ev_x50:
    /*00000050*/ LDR         R0, [R4, #-24]              @ 0xffffffe8 
    /*00000054*/ CMP         R0, #0 
    /*00000058*/ BEQ         _ZNSt6vectorIN10hirtparser4BlobESaIS1_EED1Ev_x60
    /*0000005c*/ BL          _ZdlPv
    _ZNSt6vectorIN10hirtparser4BlobESaIS1_EED1Ev_x60:
    /*00000060*/ ADD         R5, R5, #68                 @ 0x44 
    /*00000064*/ ADD         R4, R4, #68                 @ 0x44 
    /*00000068*/ CMP         R6, R5 
    /*0000006c*/ BEQ         _ZNSt6vectorIN10hirtparser4BlobESaIS1_EED1Ev_x98
    _ZNSt6vectorIN10hirtparser4BlobESaIS1_EED1Ev_x70:
    /*00000070*/ LDR         R3, [R4, #-28]              @ 0xffffffe4 
    /*00000074*/ LDR         R3, [R3] 
    /*00000078*/ CMP         R3, R8 
    /*0000007c*/ BEQ         _ZNSt6vectorIN10hirtparser4BlobESaIS1_EED1Ev_x3c
    /*00000080*/ MOV         R0, R5 
    /*00000084*/ ADD         R5, R5, #68                 @ 0x44 
    /*00000088*/ ADD         R4, R4, #68                 @ 0x44 
    /*0000008c*/ BLX         R3 
    /*00000090*/ CMP         R6, R5 
    /*00000094*/ BNE         _ZNSt6vectorIN10hirtparser4BlobESaIS1_EED1Ev_x70
    _ZNSt6vectorIN10hirtparser4BlobESaIS1_EED1Ev_x98:
    /*00000098*/ LDR         R6, [R9] 
    _ZNSt6vectorIN10hirtparser4BlobESaIS1_EED1Ev_x9c:
    /*0000009c*/ CMP         R6, #0 
    /*000000a0*/ BEQ         _ZNSt6vectorIN10hirtparser4BlobESaIS1_EED1Ev_xac
    /*000000a4*/ MOV         R0, R6 
    /*000000a8*/ BL          _ZdlPv
    _ZNSt6vectorIN10hirtparser4BlobESaIS1_EED1Ev_xac:
    /*000000ac*/ MOV         R0, R9 
    /*000000b0*/ POP         {R4, R5, R6, R7, R8, R9, SL, PC} 
    /*000000b4*/ WORD_00b4: .word 0x00000080
    /*000000b8*/ WORD_00b8: .word 0x00000080
FUNC_END _ZNSt6vectorIN10hirtparser4BlobESaIS1_EED1Ev


@ - - - - - - - - - - - - - - - - - - - - - - - - - - - - - 
@ .text._ZNSt6vectorIN10hirtparser15CustomOperationESaIS1_EED2Ev
@ Size: 0x60
@ - - - - - - - - - - - - - - - - - - - - - - - - - - - - - 

FUNC_BEGIN _ZNSt6vectorIN10hirtparser15CustomOperationESaIS1_EED2Ev
    /*00000000*/ MOV         IP, #16384                  @ 0x4000 
    /*00000004*/ PUSH        {R4, R5, R6, R7, R8, LR} 
    /*00000008*/ SUB         IP, SP, IP 
    /*0000000c*/ STR         R0, [IP, #4072]             @ 0xfe8 
    /*00000010*/ LDM         R0, {R5, R6} 
    /*00000014*/ MOV         R7, R0 
    /*00000018*/ CMP         R5, R6 
    /*0000001c*/ BEQ         _ZNSt6vectorIN10hirtparser15CustomOperationESaIS1_EED2Ev_x48
    /*00000020*/ ADD         R4, R5, #8 
    _ZNSt6vectorIN10hirtparser15CustomOperationESaIS1_EED2Ev_x24:
    /*00000024*/ LDR         R0, [R4, #-8] 
    /*00000028*/ ADD         R5, R5, #24 
    /*0000002c*/ CMP         R0, R4 
    /*00000030*/ ADD         R4, R4, #24 
    /*00000034*/ BEQ         _ZNSt6vectorIN10hirtparser15CustomOperationESaIS1_EED2Ev_x3c
    /*00000038*/ BL          _ZdlPv
    _ZNSt6vectorIN10hirtparser15CustomOperationESaIS1_EED2Ev_x3c:
    /*0000003c*/ CMP         R6, R5 
    /*00000040*/ BNE         _ZNSt6vectorIN10hirtparser15CustomOperationESaIS1_EED2Ev_x24
    /*00000044*/ LDR         R6, [R7] 
    _ZNSt6vectorIN10hirtparser15CustomOperationESaIS1_EED2Ev_x48:
    /*00000048*/ CMP         R6, #0 
    /*0000004c*/ BEQ         _ZNSt6vectorIN10hirtparser15CustomOperationESaIS1_EED2Ev_x58
    /*00000050*/ MOV         R0, R6 
    /*00000054*/ BL          _ZdlPv
    _ZNSt6vectorIN10hirtparser15CustomOperationESaIS1_EED2Ev_x58:
    /*00000058*/ MOV         R0, R7 
    /*0000005c*/ POP         {R4, R5, R6, R7, R8, PC} 
FUNC_END _ZNSt6vectorIN10hirtparser15CustomOperationESaIS1_EED2Ev


FUNC_BEGIN _ZNSt6vectorIN10hirtparser15CustomOperationESaIS1_EED1Ev
    /*00000000*/ MOV         IP, #16384                  @ 0x4000 
    /*00000004*/ PUSH        {R4, R5, R6, R7, R8, LR} 
    /*00000008*/ SUB         IP, SP, IP 
    /*0000000c*/ STR         R0, [IP, #4072]             @ 0xfe8 
    /*00000010*/ LDM         R0, {R5, R6} 
    /*00000014*/ MOV         R7, R0 
    /*00000018*/ CMP         R5, R6 
    /*0000001c*/ BEQ         _ZNSt6vectorIN10hirtparser15CustomOperationESaIS1_EED1Ev_x48
    /*00000020*/ ADD         R4, R5, #8 
    _ZNSt6vectorIN10hirtparser15CustomOperationESaIS1_EED1Ev_x24:
    /*00000024*/ LDR         R0, [R4, #-8] 
    /*00000028*/ ADD         R5, R5, #24 
    /*0000002c*/ CMP         R0, R4 
    /*00000030*/ ADD         R4, R4, #24 
    /*00000034*/ BEQ         _ZNSt6vectorIN10hirtparser15CustomOperationESaIS1_EED1Ev_x3c
    /*00000038*/ BL          _ZdlPv
    _ZNSt6vectorIN10hirtparser15CustomOperationESaIS1_EED1Ev_x3c:
    /*0000003c*/ CMP         R6, R5 
    /*00000040*/ BNE         _ZNSt6vectorIN10hirtparser15CustomOperationESaIS1_EED1Ev_x24
    /*00000044*/ LDR         R6, [R7] 
    _ZNSt6vectorIN10hirtparser15CustomOperationESaIS1_EED1Ev_x48:
    /*00000048*/ CMP         R6, #0 
    /*0000004c*/ BEQ         _ZNSt6vectorIN10hirtparser15CustomOperationESaIS1_EED1Ev_x58
    /*00000050*/ MOV         R0, R6 
    /*00000054*/ BL          _ZdlPv
    _ZNSt6vectorIN10hirtparser15CustomOperationESaIS1_EED1Ev_x58:
    /*00000058*/ MOV         R0, R7 
    /*0000005c*/ POP         {R4, R5, R6, R7, R8, PC} 
FUNC_END _ZNSt6vectorIN10hirtparser15CustomOperationESaIS1_EED1Ev


@ - - - - - - - - - - - - - - - - - - - - - - - - - - - - - 
@ .text._ZNSt7__cxx1111basic_regexIcNS_12regex_traitsIcEEED2Ev
@ Size: 0xf8
@ - - - - - - - - - - - - - - - - - - - - - - - - - - - - - 

FUNC_BEGIN _ZNSt7__cxx1111basic_regexIcNS_12regex_traitsIcEEED2Ev
    /*00000000*/ MOV         IP, #16384                  @ 0x4000 
    /*00000004*/ PUSH        {R4, R5, R6, LR} 
    /*00000008*/ SUB         IP, SP, IP 
    /*0000000c*/ STR         R0, [IP, #4080]             @ 0xff0 
    /*00000010*/ LDR         R5, [R0, #12] 
    /*00000014*/ MOV         R4, R0 
    /*00000018*/ LDR         R3, WORD_00f0               @ LDR         R3, [PC, #208]              @ 0x00000000000000f0 
    /*0000001c*/ CMP         R5, #0 
    /*00000020*/ ADD         R3, PC, R3 
    /*00000024*/ BEQ         _ZNSt7__cxx1111basic_regexIcNS_12regex_traitsIcEEED2Ev_x60
    /*00000028*/ LDR         R2, WORD_00f4               @ LDR         R2, [PC, #196]              @ 0x00000000000000f4 
    /*0000002c*/ LDR         R3, [R3, R2] 
    /*00000030*/ CMP         R3, #0 
    /*00000034*/ BEQ         _ZNSt7__cxx1111basic_regexIcNS_12regex_traitsIcEEED2Ev_x70
    /*00000038*/ ADD         R3, R5, #4 
    /*0000003c*/ DMB         ISH 
    _ZNSt7__cxx1111basic_regexIcNS_12regex_traitsIcEEED2Ev_x40:
    /*00000040*/ LDREX       R2, [R3] 
    /*00000044*/ SUB         R1, R2, #1 
    /*00000048*/ STREX       R0, R1, [R3] 
    /*0000004c*/ CMP         R0, #0 
    /*00000050*/ BNE         _ZNSt7__cxx1111basic_regexIcNS_12regex_traitsIcEEED2Ev_x40
    /*00000054*/ CMP         R2, #1 
    /*00000058*/ DMB         ISH 
    /*0000005c*/ BEQ         _ZNSt7__cxx1111basic_regexIcNS_12regex_traitsIcEEED2Ev_xa4
    _ZNSt7__cxx1111basic_regexIcNS_12regex_traitsIcEEED2Ev_x60:
    /*00000060*/ ADD         R0, R4, #4 
    /*00000064*/ BL          _ZNSt6localeD1Ev
    /*00000068*/ MOV         R0, R4 
    /*0000006c*/ POP         {R4, R5, R6, PC} 
    _ZNSt7__cxx1111basic_regexIcNS_12regex_traitsIcEEED2Ev_x70:
    /*00000070*/ LDR         R3, [R5, #4] 
    /*00000074*/ CMP         R3, #1 
    /*00000078*/ SUB         R3, R3, #1 
    /*0000007c*/ STR         R3, [R5, #4] 
    /*00000080*/ BNE         _ZNSt7__cxx1111basic_regexIcNS_12regex_traitsIcEEED2Ev_x60
    /*00000084*/ LDR         R3, [R5] 
    /*00000088*/ MOV         R0, R5 
    /*0000008c*/ LDR         R3, [R3, #8] 
    /*00000090*/ BLX         R3 
    /*00000094*/ LDR         R2, [R5, #8] 
    /*00000098*/ SUB         R3, R2, #1 
    /*0000009c*/ STR         R3, [R5, #8] 
    /*000000a0*/ B           _ZNSt7__cxx1111basic_regexIcNS_12regex_traitsIcEEED2Ev_xd4
    _ZNSt7__cxx1111basic_regexIcNS_12regex_traitsIcEEED2Ev_xa4:
    /*000000a4*/ LDR         R3, [R5] 
    /*000000a8*/ MOV         R0, R5 
    /*000000ac*/ LDR         R3, [R3, #8] 
    /*000000b0*/ BLX         R3 
    /*000000b4*/ DMB         ISH 
    /*000000b8*/ ADD         R3, R5, #8 
    _ZNSt7__cxx1111basic_regexIcNS_12regex_traitsIcEEED2Ev_xbc:
    /*000000bc*/ LDREX       R2, [R3] 
    /*000000c0*/ SUB         R1, R2, #1 
    /*000000c4*/ STREX       R0, R1, [R3] 
    /*000000c8*/ CMP         R0, #0 
    /*000000cc*/ BNE         _ZNSt7__cxx1111basic_regexIcNS_12regex_traitsIcEEED2Ev_xbc
    /*000000d0*/ DMB         ISH 
    _ZNSt7__cxx1111basic_regexIcNS_12regex_traitsIcEEED2Ev_xd4:
    /*000000d4*/ CMP         R2, #1 
    /*000000d8*/ BNE         _ZNSt7__cxx1111basic_regexIcNS_12regex_traitsIcEEED2Ev_x60
    /*000000dc*/ LDR         R3, [R5] 
    /*000000e0*/ MOV         R0, R5 
    /*000000e4*/ LDR         R3, [R3, #12] 
    /*000000e8*/ BLX         R3 
    /*000000ec*/ B           _ZNSt7__cxx1111basic_regexIcNS_12regex_traitsIcEEED2Ev_x60
    /*000000f0*/ WORD_00f0: .word 0x000000c8
    /*000000f4*/ WORD_00f4: .word 0x00000000
FUNC_END _ZNSt7__cxx1111basic_regexIcNS_12regex_traitsIcEEED2Ev


FUNC_BEGIN _ZNSt7__cxx1111basic_regexIcNS_12regex_traitsIcEEED1Ev
    /*00000000*/ MOV         IP, #16384                  @ 0x4000 
    /*00000004*/ PUSH        {R4, R5, R6, LR} 
    /*00000008*/ SUB         IP, SP, IP 
    /*0000000c*/ STR         R0, [IP, #4080]             @ 0xff0 
    /*00000010*/ LDR         R5, [R0, #12] 
    /*00000014*/ MOV         R4, R0 
    /*00000018*/ LDR         R3, WORD_00f0               @ LDR         R3, [PC, #208]              @ 0x00000000000000f0 
    /*0000001c*/ CMP         R5, #0 
    /*00000020*/ ADD         R3, PC, R3 
    /*00000024*/ BEQ         _ZNSt7__cxx1111basic_regexIcNS_12regex_traitsIcEEED1Ev_x60
    /*00000028*/ LDR         R2, WORD_00f4               @ LDR         R2, [PC, #196]              @ 0x00000000000000f4 
    /*0000002c*/ LDR         R3, [R3, R2] 
    /*00000030*/ CMP         R3, #0 
    /*00000034*/ BEQ         _ZNSt7__cxx1111basic_regexIcNS_12regex_traitsIcEEED1Ev_x70
    /*00000038*/ ADD         R3, R5, #4 
    /*0000003c*/ DMB         ISH 
    _ZNSt7__cxx1111basic_regexIcNS_12regex_traitsIcEEED1Ev_x40:
    /*00000040*/ LDREX       R2, [R3] 
    /*00000044*/ SUB         R1, R2, #1 
    /*00000048*/ STREX       R0, R1, [R3] 
    /*0000004c*/ CMP         R0, #0 
    /*00000050*/ BNE         _ZNSt7__cxx1111basic_regexIcNS_12regex_traitsIcEEED1Ev_x40
    /*00000054*/ CMP         R2, #1 
    /*00000058*/ DMB         ISH 
    /*0000005c*/ BEQ         _ZNSt7__cxx1111basic_regexIcNS_12regex_traitsIcEEED1Ev_xa4
    _ZNSt7__cxx1111basic_regexIcNS_12regex_traitsIcEEED1Ev_x60:
    /*00000060*/ ADD         R0, R4, #4 
    /*00000064*/ BL          _ZNSt6localeD1Ev
    /*00000068*/ MOV         R0, R4 
    /*0000006c*/ POP         {R4, R5, R6, PC} 
    _ZNSt7__cxx1111basic_regexIcNS_12regex_traitsIcEEED1Ev_x70:
    /*00000070*/ LDR         R3, [R5, #4] 
    /*00000074*/ CMP         R3, #1 
    /*00000078*/ SUB         R3, R3, #1 
    /*0000007c*/ STR         R3, [R5, #4] 
    /*00000080*/ BNE         _ZNSt7__cxx1111basic_regexIcNS_12regex_traitsIcEEED1Ev_x60
    /*00000084*/ LDR         R3, [R5] 
    /*00000088*/ MOV         R0, R5 
    /*0000008c*/ LDR         R3, [R3, #8] 
    /*00000090*/ BLX         R3 
    /*00000094*/ LDR         R2, [R5, #8] 
    /*00000098*/ SUB         R3, R2, #1 
    /*0000009c*/ STR         R3, [R5, #8] 
    /*000000a0*/ B           _ZNSt7__cxx1111basic_regexIcNS_12regex_traitsIcEEED1Ev_xd4
    _ZNSt7__cxx1111basic_regexIcNS_12regex_traitsIcEEED1Ev_xa4:
    /*000000a4*/ LDR         R3, [R5] 
    /*000000a8*/ MOV         R0, R5 
    /*000000ac*/ LDR         R3, [R3, #8] 
    /*000000b0*/ BLX         R3 
    /*000000b4*/ DMB         ISH 
    /*000000b8*/ ADD         R3, R5, #8 
    _ZNSt7__cxx1111basic_regexIcNS_12regex_traitsIcEEED1Ev_xbc:
    /*000000bc*/ LDREX       R2, [R3] 
    /*000000c0*/ SUB         R1, R2, #1 
    /*000000c4*/ STREX       R0, R1, [R3] 
    /*000000c8*/ CMP         R0, #0 
    /*000000cc*/ BNE         _ZNSt7__cxx1111basic_regexIcNS_12regex_traitsIcEEED1Ev_xbc
    /*000000d0*/ DMB         ISH 
    _ZNSt7__cxx1111basic_regexIcNS_12regex_traitsIcEEED1Ev_xd4:
    /*000000d4*/ CMP         R2, #1 
    /*000000d8*/ BNE         _ZNSt7__cxx1111basic_regexIcNS_12regex_traitsIcEEED1Ev_x60
    /*000000dc*/ LDR         R3, [R5] 
    /*000000e0*/ MOV         R0, R5 
    /*000000e4*/ LDR         R3, [R3, #12] 
    /*000000e8*/ BLX         R3 
    /*000000ec*/ B           _ZNSt7__cxx1111basic_regexIcNS_12regex_traitsIcEEED1Ev_x60
    /*000000f0*/ WORD_00f0: .word 0x000000c8
    /*000000f4*/ WORD_00f4: .word 0x00000000
FUNC_END _ZNSt7__cxx1111basic_regexIcNS_12regex_traitsIcEEED1Ev


@ - - - - - - - - - - - - - - - - - - - - - - - - - - - - - 
@ .text._ZNSt8_Rb_treeINSt7__cxx1112basic_stringIcSt11char_traitsIcESaIcEEESt4pairIKS5_N10hirtparser8DataTypeEESt10_Select1stISA_ESt4lessIS5_ESaISA_EE8_M_eraseEPSt13_Rb_tree_nodeISA_E
@ Size: 0x234
@ - - - - - - - - - - - - - - - - - - - - - - - - - - - - - 

FUNC_BEGIN _ZNSt8_Rb_treeINSt7__cxx1112basic_stringIcSt11char_traitsIcESaIcEEESt4pairIKS5_N10hirtparser8DataTypeEESt10_Select1stISA_ESt4lessIS5_ESaISA_EE8_M_eraseEPSt13_Rb_tree_nodeISA_E
    /*00000000*/ MOV         IP, #16384                  @ 0x4000 
    /*00000004*/ PUSH        {R4, R5, R6, R7, R8, R9, SL, FP, LR} 
    /*00000008*/ SUB         IP, SP, IP 
    /*0000000c*/ STR         R0, [IP, #4040]             @ 0xfc8 
    /*00000010*/ SUB         SP, SP, #20 
    /*00000014*/ SUBS        R3, R1, #0 
    /*00000018*/ STR         R3, [SP, #12] 
    /*0000001c*/ BEQ         _ZNSt8_Rb_treeINSt7__cxx1112basic_stringIcSt11char_traitsIcESaIcEEESt4pairIKS5_N10hirtparser8DataTypeEESt10_Select1stISA_ESt4lessIS5_ESaISA_EE8_M_eraseEPSt13_Rb_tree_nodeISA_E_x22c
    /*00000020*/ MOV         R5, R0 
    _ZNSt8_Rb_treeINSt7__cxx1112basic_stringIcSt11char_traitsIcESaIcEEESt4pairIKS5_N10hirtparser8DataTypeEESt10_Select1stISA_ESt4lessIS5_ESaISA_EE8_M_eraseEPSt13_Rb_tree_nodeISA_E_x24:
    /*00000024*/ LDR         R3, [R3, #12] 
    /*00000028*/ CMP         R3, #0 
    /*0000002c*/ STRNE       R3, [SP, #8] 
    /*00000030*/ BEQ         _ZNSt8_Rb_treeINSt7__cxx1112basic_stringIcSt11char_traitsIcESaIcEEESt4pairIKS5_N10hirtparser8DataTypeEESt10_Select1stISA_ESt4lessIS5_ESaISA_EE8_M_eraseEPSt13_Rb_tree_nodeISA_E_x1f8
    _ZNSt8_Rb_treeINSt7__cxx1112basic_stringIcSt11char_traitsIcESaIcEEESt4pairIKS5_N10hirtparser8DataTypeEESt10_Select1stISA_ESt4lessIS5_ESaISA_EE8_M_eraseEPSt13_Rb_tree_nodeISA_E_x34:
    /*00000034*/ LDR         R8, [R3, #12] 
    /*00000038*/ CMP         R8, #0 
    /*0000003c*/ STRNE       R8, [SP, #4] 
    /*00000040*/ MOVNE       R3, R8 
    /*00000044*/ BEQ         _ZNSt8_Rb_treeINSt7__cxx1112basic_stringIcSt11char_traitsIcESaIcEEESt4pairIKS5_N10hirtparser8DataTypeEESt10_Select1stISA_ESt4lessIS5_ESaISA_EE8_M_eraseEPSt13_Rb_tree_nodeISA_E_x1c4
    _ZNSt8_Rb_treeINSt7__cxx1112basic_stringIcSt11char_traitsIcESaIcEEESt4pairIKS5_N10hirtparser8DataTypeEESt10_Select1stISA_ESt4lessIS5_ESaISA_EE8_M_eraseEPSt13_Rb_tree_nodeISA_E_x48:
    /*00000048*/ LDR         R9, [R3, #12] 
    /*0000004c*/ CMP         R9, #0 
    /*00000050*/ BEQ         _ZNSt8_Rb_treeINSt7__cxx1112basic_stringIcSt11char_traitsIcESaIcEEESt4pairIKS5_N10hirtparser8DataTypeEESt10_Select1stISA_ESt4lessIS5_ESaISA_EE8_M_eraseEPSt13_Rb_tree_nodeISA_E_x190
    _ZNSt8_Rb_treeINSt7__cxx1112basic_stringIcSt11char_traitsIcESaIcEEESt4pairIKS5_N10hirtparser8DataTypeEESt10_Select1stISA_ESt4lessIS5_ESaISA_EE8_M_eraseEPSt13_Rb_tree_nodeISA_E_x54:
    /*00000054*/ LDR         SL, [R9, #12] 
    /*00000058*/ CMP         SL, #0 
    /*0000005c*/ BEQ         _ZNSt8_Rb_treeINSt7__cxx1112basic_stringIcSt11char_traitsIcESaIcEEESt4pairIKS5_N10hirtparser8DataTypeEESt10_Select1stISA_ESt4lessIS5_ESaISA_EE8_M_eraseEPSt13_Rb_tree_nodeISA_E_x168
    _ZNSt8_Rb_treeINSt7__cxx1112basic_stringIcSt11char_traitsIcESaIcEEESt4pairIKS5_N10hirtparser8DataTypeEESt10_Select1stISA_ESt4lessIS5_ESaISA_EE8_M_eraseEPSt13_Rb_tree_nodeISA_E_x60:
    /*00000060*/ LDR         FP, [SL, #12] 
    /*00000064*/ CMP         FP, #0 
    /*00000068*/ BEQ         _ZNSt8_Rb_treeINSt7__cxx1112basic_stringIcSt11char_traitsIcESaIcEEESt4pairIKS5_N10hirtparser8DataTypeEESt10_Select1stISA_ESt4lessIS5_ESaISA_EE8_M_eraseEPSt13_Rb_tree_nodeISA_E_x140
    _ZNSt8_Rb_treeINSt7__cxx1112basic_stringIcSt11char_traitsIcESaIcEEESt4pairIKS5_N10hirtparser8DataTypeEESt10_Select1stISA_ESt4lessIS5_ESaISA_EE8_M_eraseEPSt13_Rb_tree_nodeISA_E_x6c:
    /*0000006c*/ LDR         R7, [FP, #12] 
    /*00000070*/ CMP         R7, #0 
    /*00000074*/ BEQ         _ZNSt8_Rb_treeINSt7__cxx1112basic_stringIcSt11char_traitsIcESaIcEEESt4pairIKS5_N10hirtparser8DataTypeEESt10_Select1stISA_ESt4lessIS5_ESaISA_EE8_M_eraseEPSt13_Rb_tree_nodeISA_E_x118
    _ZNSt8_Rb_treeINSt7__cxx1112basic_stringIcSt11char_traitsIcESaIcEEESt4pairIKS5_N10hirtparser8DataTypeEESt10_Select1stISA_ESt4lessIS5_ESaISA_EE8_M_eraseEPSt13_Rb_tree_nodeISA_E_x78:
    /*00000078*/ LDR         R6, [R7, #12] 
    /*0000007c*/ CMP         R6, #0 
    /*00000080*/ BEQ         _ZNSt8_Rb_treeINSt7__cxx1112basic_stringIcSt11char_traitsIcESaIcEEESt4pairIKS5_N10hirtparser8DataTypeEESt10_Select1stISA_ESt4lessIS5_ESaISA_EE8_M_eraseEPSt13_Rb_tree_nodeISA_E_xf0
    _ZNSt8_Rb_treeINSt7__cxx1112basic_stringIcSt11char_traitsIcESaIcEEESt4pairIKS5_N10hirtparser8DataTypeEESt10_Select1stISA_ESt4lessIS5_ESaISA_EE8_M_eraseEPSt13_Rb_tree_nodeISA_E_x84:
    /*00000084*/ LDR         R3, [R6, #12] 
    /*00000088*/ CMP         R3, #0 
    /*0000008c*/ MOVNE       R8, R3 
    /*00000090*/ BEQ         _ZNSt8_Rb_treeINSt7__cxx1112basic_stringIcSt11char_traitsIcESaIcEEESt4pairIKS5_N10hirtparser8DataTypeEESt10_Select1stISA_ESt4lessIS5_ESaISA_EE8_M_eraseEPSt13_Rb_tree_nodeISA_E_xc8
    _ZNSt8_Rb_treeINSt7__cxx1112basic_stringIcSt11char_traitsIcESaIcEEESt4pairIKS5_N10hirtparser8DataTypeEESt10_Select1stISA_ESt4lessIS5_ESaISA_EE8_M_eraseEPSt13_Rb_tree_nodeISA_E_x94:
    /*00000094*/ LDR         R1, [R8, #12] 
    /*00000098*/ MOV         R0, R5 
    /*0000009c*/ BL          _ZNSt8_Rb_treeINSt7__cxx1112basic_stringIcSt11char_traitsIcESaIcEEESt4pairIKS5_N10hirtparser8DataTypeEESt10_Select1stISA_ESt4lessIS5_ESaISA_EE8_M_eraseEPSt13_Rb_tree_nodeISA_E
    /*000000a0*/ LDR         R0, [R8, #16] 
    /*000000a4*/ ADD         R2, R8, #24 
    /*000000a8*/ LDR         R4, [R8, #8] 
    /*000000ac*/ CMP         R0, R2 
    /*000000b0*/ BEQ         _ZNSt8_Rb_treeINSt7__cxx1112basic_stringIcSt11char_traitsIcESaIcEEESt4pairIKS5_N10hirtparser8DataTypeEESt10_Select1stISA_ESt4lessIS5_ESaISA_EE8_M_eraseEPSt13_Rb_tree_nodeISA_E_xb8
    /*000000b4*/ BL          _ZdlPv
    _ZNSt8_Rb_treeINSt7__cxx1112basic_stringIcSt11char_traitsIcESaIcEEESt4pairIKS5_N10hirtparser8DataTypeEESt10_Select1stISA_ESt4lessIS5_ESaISA_EE8_M_eraseEPSt13_Rb_tree_nodeISA_E_xb8:
    /*000000b8*/ MOV         R0, R8 
    /*000000bc*/ BL          _ZdlPv
    /*000000c0*/ SUBS        R8, R4, #0 
    /*000000c4*/ BNE         _ZNSt8_Rb_treeINSt7__cxx1112basic_stringIcSt11char_traitsIcESaIcEEESt4pairIKS5_N10hirtparser8DataTypeEESt10_Select1stISA_ESt4lessIS5_ESaISA_EE8_M_eraseEPSt13_Rb_tree_nodeISA_E_x94
    _ZNSt8_Rb_treeINSt7__cxx1112basic_stringIcSt11char_traitsIcESaIcEEESt4pairIKS5_N10hirtparser8DataTypeEESt10_Select1stISA_ESt4lessIS5_ESaISA_EE8_M_eraseEPSt13_Rb_tree_nodeISA_E_xc8:
    /*000000c8*/ LDR         R0, [R6, #16] 
    /*000000cc*/ ADD         R3, R6, #24 
    /*000000d0*/ LDR         R4, [R6, #8] 
    /*000000d4*/ CMP         R0, R3 
    /*000000d8*/ BEQ         _ZNSt8_Rb_treeINSt7__cxx1112basic_stringIcSt11char_traitsIcESaIcEEESt4pairIKS5_N10hirtparser8DataTypeEESt10_Select1stISA_ESt4lessIS5_ESaISA_EE8_M_eraseEPSt13_Rb_tree_nodeISA_E_xe0
    /*000000dc*/ BL          _ZdlPv
    _ZNSt8_Rb_treeINSt7__cxx1112basic_stringIcSt11char_traitsIcESaIcEEESt4pairIKS5_N10hirtparser8DataTypeEESt10_Select1stISA_ESt4lessIS5_ESaISA_EE8_M_eraseEPSt13_Rb_tree_nodeISA_E_xe0:
    /*000000e0*/ MOV         R0, R6 
    /*000000e4*/ BL          _ZdlPv
    /*000000e8*/ SUBS        R6, R4, #0 
    /*000000ec*/ BNE         _ZNSt8_Rb_treeINSt7__cxx1112basic_stringIcSt11char_traitsIcESaIcEEESt4pairIKS5_N10hirtparser8DataTypeEESt10_Select1stISA_ESt4lessIS5_ESaISA_EE8_M_eraseEPSt13_Rb_tree_nodeISA_E_x84
    _ZNSt8_Rb_treeINSt7__cxx1112basic_stringIcSt11char_traitsIcESaIcEEESt4pairIKS5_N10hirtparser8DataTypeEESt10_Select1stISA_ESt4lessIS5_ESaISA_EE8_M_eraseEPSt13_Rb_tree_nodeISA_E_xf0:
    /*000000f0*/ LDR         R0, [R7, #16] 
    /*000000f4*/ ADD         R3, R7, #24 
    /*000000f8*/ LDR         R4, [R7, #8] 
    /*000000fc*/ CMP         R0, R3 
    /*00000100*/ BEQ         _ZNSt8_Rb_treeINSt7__cxx1112basic_stringIcSt11char_traitsIcESaIcEEESt4pairIKS5_N10hirtparser8DataTypeEESt10_Select1stISA_ESt4lessIS5_ESaISA_EE8_M_eraseEPSt13_Rb_tree_nodeISA_E_x108
    /*00000104*/ BL          _ZdlPv
    _ZNSt8_Rb_treeINSt7__cxx1112basic_stringIcSt11char_traitsIcESaIcEEESt4pairIKS5_N10hirtparser8DataTypeEESt10_Select1stISA_ESt4lessIS5_ESaISA_EE8_M_eraseEPSt13_Rb_tree_nodeISA_E_x108:
    /*00000108*/ MOV         R0, R7 
    /*0000010c*/ BL          _ZdlPv
    /*00000110*/ SUBS        R7, R4, #0 
    /*00000114*/ BNE         _ZNSt8_Rb_treeINSt7__cxx1112basic_stringIcSt11char_traitsIcESaIcEEESt4pairIKS5_N10hirtparser8DataTypeEESt10_Select1stISA_ESt4lessIS5_ESaISA_EE8_M_eraseEPSt13_Rb_tree_nodeISA_E_x78
    _ZNSt8_Rb_treeINSt7__cxx1112basic_stringIcSt11char_traitsIcESaIcEEESt4pairIKS5_N10hirtparser8DataTypeEESt10_Select1stISA_ESt4lessIS5_ESaISA_EE8_M_eraseEPSt13_Rb_tree_nodeISA_E_x118:
    /*00000118*/ LDR         R0, [FP, #16] 
    /*0000011c*/ ADD         R3, FP, #24 
    /*00000120*/ LDR         R4, [FP, #8] 
    /*00000124*/ CMP         R0, R3 
    /*00000128*/ BEQ         _ZNSt8_Rb_treeINSt7__cxx1112basic_stringIcSt11char_traitsIcESaIcEEESt4pairIKS5_N10hirtparser8DataTypeEESt10_Select1stISA_ESt4lessIS5_ESaISA_EE8_M_eraseEPSt13_Rb_tree_nodeISA_E_x130
    /*0000012c*/ BL          _ZdlPv
    _ZNSt8_Rb_treeINSt7__cxx1112basic_stringIcSt11char_traitsIcESaIcEEESt4pairIKS5_N10hirtparser8DataTypeEESt10_Select1stISA_ESt4lessIS5_ESaISA_EE8_M_eraseEPSt13_Rb_tree_nodeISA_E_x130:
    /*00000130*/ MOV         R0, FP 
    /*00000134*/ BL          _ZdlPv
    /*00000138*/ SUBS        FP, R4, #0 
    /*0000013c*/ BNE         _ZNSt8_Rb_treeINSt7__cxx1112basic_stringIcSt11char_traitsIcESaIcEEESt4pairIKS5_N10hirtparser8DataTypeEESt10_Select1stISA_ESt4lessIS5_ESaISA_EE8_M_eraseEPSt13_Rb_tree_nodeISA_E_x6c
    _ZNSt8_Rb_treeINSt7__cxx1112basic_stringIcSt11char_traitsIcESaIcEEESt4pairIKS5_N10hirtparser8DataTypeEESt10_Select1stISA_ESt4lessIS5_ESaISA_EE8_M_eraseEPSt13_Rb_tree_nodeISA_E_x140:
    /*00000140*/ LDR         R0, [SL, #16] 
    /*00000144*/ ADD         R3, SL, #24 
    /*00000148*/ LDR         R4, [SL, #8] 
    /*0000014c*/ CMP         R0, R3 
    /*00000150*/ BEQ         _ZNSt8_Rb_treeINSt7__cxx1112basic_stringIcSt11char_traitsIcESaIcEEESt4pairIKS5_N10hirtparser8DataTypeEESt10_Select1stISA_ESt4lessIS5_ESaISA_EE8_M_eraseEPSt13_Rb_tree_nodeISA_E_x158
    /*00000154*/ BL          _ZdlPv
    _ZNSt8_Rb_treeINSt7__cxx1112basic_stringIcSt11char_traitsIcESaIcEEESt4pairIKS5_N10hirtparser8DataTypeEESt10_Select1stISA_ESt4lessIS5_ESaISA_EE8_M_eraseEPSt13_Rb_tree_nodeISA_E_x158:
    /*00000158*/ MOV         R0, SL 
    /*0000015c*/ BL          _ZdlPv
    /*00000160*/ SUBS        SL, R4, #0 
    /*00000164*/ BNE         _ZNSt8_Rb_treeINSt7__cxx1112basic_stringIcSt11char_traitsIcESaIcEEESt4pairIKS5_N10hirtparser8DataTypeEESt10_Select1stISA_ESt4lessIS5_ESaISA_EE8_M_eraseEPSt13_Rb_tree_nodeISA_E_x60
    _ZNSt8_Rb_treeINSt7__cxx1112basic_stringIcSt11char_traitsIcESaIcEEESt4pairIKS5_N10hirtparser8DataTypeEESt10_Select1stISA_ESt4lessIS5_ESaISA_EE8_M_eraseEPSt13_Rb_tree_nodeISA_E_x168:
    /*00000168*/ LDR         R0, [R9, #16] 
    /*0000016c*/ ADD         R3, R9, #24 
    /*00000170*/ LDR         R4, [R9, #8] 
    /*00000174*/ CMP         R0, R3 
    /*00000178*/ BEQ         _ZNSt8_Rb_treeINSt7__cxx1112basic_stringIcSt11char_traitsIcESaIcEEESt4pairIKS5_N10hirtparser8DataTypeEESt10_Select1stISA_ESt4lessIS5_ESaISA_EE8_M_eraseEPSt13_Rb_tree_nodeISA_E_x180
    /*0000017c*/ BL          _ZdlPv
    _ZNSt8_Rb_treeINSt7__cxx1112basic_stringIcSt11char_traitsIcESaIcEEESt4pairIKS5_N10hirtparser8DataTypeEESt10_Select1stISA_ESt4lessIS5_ESaISA_EE8_M_eraseEPSt13_Rb_tree_nodeISA_E_x180:
    /*00000180*/ MOV         R0, R9 
    /*00000184*/ BL          _ZdlPv
    /*00000188*/ SUBS        R9, R4, #0 
    /*0000018c*/ BNE         _ZNSt8_Rb_treeINSt7__cxx1112basic_stringIcSt11char_traitsIcESaIcEEESt4pairIKS5_N10hirtparser8DataTypeEESt10_Select1stISA_ESt4lessIS5_ESaISA_EE8_M_eraseEPSt13_Rb_tree_nodeISA_E_x54
    _ZNSt8_Rb_treeINSt7__cxx1112basic_stringIcSt11char_traitsIcESaIcEEESt4pairIKS5_N10hirtparser8DataTypeEESt10_Select1stISA_ESt4lessIS5_ESaISA_EE8_M_eraseEPSt13_Rb_tree_nodeISA_E_x190:
    /*00000190*/ LDR         R2, [SP, #4] 
    /*00000194*/ LDR         R0, [R2, #16] 
    /*00000198*/ ADD         R3, R2, #24 
    /*0000019c*/ LDR         R4, [R2, #8] 
    /*000001a0*/ CMP         R0, R3 
    /*000001a4*/ MOVEQ       R0, R2 
    /*000001a8*/ BEQ         _ZNSt8_Rb_treeINSt7__cxx1112basic_stringIcSt11char_traitsIcESaIcEEESt4pairIKS5_N10hirtparser8DataTypeEESt10_Select1stISA_ESt4lessIS5_ESaISA_EE8_M_eraseEPSt13_Rb_tree_nodeISA_E_x1b4
    /*000001ac*/ BL          _ZdlPv
    /*000001b0*/ LDR         R0, [SP, #4] 
    _ZNSt8_Rb_treeINSt7__cxx1112basic_stringIcSt11char_traitsIcESaIcEEESt4pairIKS5_N10hirtparser8DataTypeEESt10_Select1stISA_ESt4lessIS5_ESaISA_EE8_M_eraseEPSt13_Rb_tree_nodeISA_E_x1b4:
    /*000001b4*/ BL          _ZdlPv
    /*000001b8*/ SUBS        R3, R4, #0 
    /*000001bc*/ STR         R3, [SP, #4] 
    /*000001c0*/ BNE         _ZNSt8_Rb_treeINSt7__cxx1112basic_stringIcSt11char_traitsIcESaIcEEESt4pairIKS5_N10hirtparser8DataTypeEESt10_Select1stISA_ESt4lessIS5_ESaISA_EE8_M_eraseEPSt13_Rb_tree_nodeISA_E_x48
    _ZNSt8_Rb_treeINSt7__cxx1112basic_stringIcSt11char_traitsIcESaIcEEESt4pairIKS5_N10hirtparser8DataTypeEESt10_Select1stISA_ESt4lessIS5_ESaISA_EE8_M_eraseEPSt13_Rb_tree_nodeISA_E_x1c4:
    /*000001c4*/ LDR         R2, [SP, #8] 
    /*000001c8*/ LDR         R0, [R2, #16] 
    /*000001cc*/ ADD         R3, R2, #24 
    /*000001d0*/ LDR         R4, [R2, #8] 
    /*000001d4*/ CMP         R0, R3 
    /*000001d8*/ MOVEQ       R0, R2 
    /*000001dc*/ BEQ         _ZNSt8_Rb_treeINSt7__cxx1112basic_stringIcSt11char_traitsIcESaIcEEESt4pairIKS5_N10hirtparser8DataTypeEESt10_Select1stISA_ESt4lessIS5_ESaISA_EE8_M_eraseEPSt13_Rb_tree_nodeISA_E_x1e8
    /*000001e0*/ BL          _ZdlPv
    /*000001e4*/ LDR         R0, [SP, #8] 
    _ZNSt8_Rb_treeINSt7__cxx1112basic_stringIcSt11char_traitsIcESaIcEEESt4pairIKS5_N10hirtparser8DataTypeEESt10_Select1stISA_ESt4lessIS5_ESaISA_EE8_M_eraseEPSt13_Rb_tree_nodeISA_E_x1e8:
    /*000001e8*/ BL          _ZdlPv
    /*000001ec*/ SUBS        R3, R4, #0 
    /*000001f0*/ STR         R3, [SP, #8] 
    /*000001f4*/ BNE         _ZNSt8_Rb_treeINSt7__cxx1112basic_stringIcSt11char_traitsIcESaIcEEESt4pairIKS5_N10hirtparser8DataTypeEESt10_Select1stISA_ESt4lessIS5_ESaISA_EE8_M_eraseEPSt13_Rb_tree_nodeISA_E_x34
    _ZNSt8_Rb_treeINSt7__cxx1112basic_stringIcSt11char_traitsIcESaIcEEESt4pairIKS5_N10hirtparser8DataTypeEESt10_Select1stISA_ESt4lessIS5_ESaISA_EE8_M_eraseEPSt13_Rb_tree_nodeISA_E_x1f8:
    /*000001f8*/ LDR         R2, [SP, #12] 
    /*000001fc*/ LDR         R0, [R2, #16] 
    /*00000200*/ ADD         R3, R2, #24 
    /*00000204*/ LDR         R4, [R2, #8] 
    /*00000208*/ CMP         R0, R3 
    /*0000020c*/ MOVEQ       R0, R2 
    /*00000210*/ BEQ         _ZNSt8_Rb_treeINSt7__cxx1112basic_stringIcSt11char_traitsIcESaIcEEESt4pairIKS5_N10hirtparser8DataTypeEESt10_Select1stISA_ESt4lessIS5_ESaISA_EE8_M_eraseEPSt13_Rb_tree_nodeISA_E_x21c
    /*00000214*/ BL          _ZdlPv
    /*00000218*/ LDR         R0, [SP, #12] 
    _ZNSt8_Rb_treeINSt7__cxx1112basic_stringIcSt11char_traitsIcESaIcEEESt4pairIKS5_N10hirtparser8DataTypeEESt10_Select1stISA_ESt4lessIS5_ESaISA_EE8_M_eraseEPSt13_Rb_tree_nodeISA_E_x21c:
    /*0000021c*/ BL          _ZdlPv
    /*00000220*/ SUBS        R3, R4, #0 
    /*00000224*/ STR         R3, [SP, #12] 
    /*00000228*/ BNE         _ZNSt8_Rb_treeINSt7__cxx1112basic_stringIcSt11char_traitsIcESaIcEEESt4pairIKS5_N10hirtparser8DataTypeEESt10_Select1stISA_ESt4lessIS5_ESaISA_EE8_M_eraseEPSt13_Rb_tree_nodeISA_E_x24
    _ZNSt8_Rb_treeINSt7__cxx1112basic_stringIcSt11char_traitsIcESaIcEEESt4pairIKS5_N10hirtparser8DataTypeEESt10_Select1stISA_ESt4lessIS5_ESaISA_EE8_M_eraseEPSt13_Rb_tree_nodeISA_E_x22c:
    /*0000022c*/ ADD         SP, SP, #20 
    /*00000230*/ POP         {R4, R5, R6, R7, R8, R9, SL, FP, PC} 
FUNC_END _ZNSt8_Rb_treeINSt7__cxx1112basic_stringIcSt11char_traitsIcESaIcEEESt4pairIKS5_N10hirtparser8DataTypeEESt10_Select1stISA_ESt4lessIS5_ESaISA_EE8_M_eraseEPSt13_Rb_tree_nodeISA_E


@ - - - - - - - - - - - - - - - - - - - - - - - - - - - - - 
@ .text._ZNSt3mapINSt7__cxx1112basic_stringIcSt11char_traitsIcESaIcEEEN10hirtparser8DataTypeESt4lessIS5_ESaISt4pairIKS5_S7_EEED2Ev
@ Size: 0x5c
@ - - - - - - - - - - - - - - - - - - - - - - - - - - - - - 

FUNC_BEGIN _ZNSt3mapINSt7__cxx1112basic_stringIcSt11char_traitsIcESaIcEEEN10hirtparser8DataTypeESt4lessIS5_ESaISt4pairIKS5_S7_EEED2Ev
    /*00000000*/ MOV         IP, #16384                  @ 0x4000 
    /*00000004*/ PUSH        {R4, R5, R6, LR} 
    /*00000008*/ SUB         IP, SP, IP 
    /*0000000c*/ STR         R0, [IP, #4080]             @ 0xff0 
    /*00000010*/ LDR         R4, [R0, #8] 
    /*00000014*/ MOV         R6, R0 
    /*00000018*/ CMP         R4, #0 
    /*0000001c*/ BEQ         _ZNSt3mapINSt7__cxx1112basic_stringIcSt11char_traitsIcESaIcEEEN10hirtparser8DataTypeESt4lessIS5_ESaISt4pairIKS5_S7_EEED2Ev_x54
    _ZNSt3mapINSt7__cxx1112basic_stringIcSt11char_traitsIcESaIcEEEN10hirtparser8DataTypeESt4lessIS5_ESaISt4pairIKS5_S7_EEED2Ev_x20:
    /*00000020*/ LDR         R1, [R4, #12] 
    /*00000024*/ MOV         R0, R6 
    /*00000028*/ BL          _ZNSt8_Rb_treeINSt7__cxx1112basic_stringIcSt11char_traitsIcESaIcEEESt4pairIKS5_N10hirtparser8DataTypeEESt10_Select1stISA_ESt4lessIS5_ESaISA_EE8_M_eraseEPSt13_Rb_tree_nodeISA_E
    /*0000002c*/ LDR         R0, [R4, #16] 
    /*00000030*/ ADD         R3, R4, #24 
    /*00000034*/ LDR         R5, [R4, #8] 
    /*00000038*/ CMP         R0, R3 
    /*0000003c*/ BEQ         _ZNSt3mapINSt7__cxx1112basic_stringIcSt11char_traitsIcESaIcEEEN10hirtparser8DataTypeESt4lessIS5_ESaISt4pairIKS5_S7_EEED2Ev_x44
    /*00000040*/ BL          _ZdlPv
    _ZNSt3mapINSt7__cxx1112basic_stringIcSt11char_traitsIcESaIcEEEN10hirtparser8DataTypeESt4lessIS5_ESaISt4pairIKS5_S7_EEED2Ev_x44:
    /*00000044*/ MOV         R0, R4 
    /*00000048*/ BL          _ZdlPv
    /*0000004c*/ SUBS        R4, R5, #0 
    /*00000050*/ BNE         _ZNSt3mapINSt7__cxx1112basic_stringIcSt11char_traitsIcESaIcEEEN10hirtparser8DataTypeESt4lessIS5_ESaISt4pairIKS5_S7_EEED2Ev_x20
    _ZNSt3mapINSt7__cxx1112basic_stringIcSt11char_traitsIcESaIcEEEN10hirtparser8DataTypeESt4lessIS5_ESaISt4pairIKS5_S7_EEED2Ev_x54:
    /*00000054*/ MOV         R0, R6 
    /*00000058*/ POP         {R4, R5, R6, PC} 
FUNC_END _ZNSt3mapINSt7__cxx1112basic_stringIcSt11char_traitsIcESaIcEEEN10hirtparser8DataTypeESt4lessIS5_ESaISt4pairIKS5_S7_EEED2Ev


FUNC_BEGIN _ZNSt3mapINSt7__cxx1112basic_stringIcSt11char_traitsIcESaIcEEEN10hirtparser8DataTypeESt4lessIS5_ESaISt4pairIKS5_S7_EEED1Ev
    /*00000000*/ MOV         IP, #16384                  @ 0x4000 
    /*00000004*/ PUSH        {R4, R5, R6, LR} 
    /*00000008*/ SUB         IP, SP, IP 
    /*0000000c*/ STR         R0, [IP, #4080]             @ 0xff0 
    /*00000010*/ LDR         R4, [R0, #8] 
    /*00000014*/ MOV         R6, R0 
    /*00000018*/ CMP         R4, #0 
    /*0000001c*/ BEQ         _ZNSt3mapINSt7__cxx1112basic_stringIcSt11char_traitsIcESaIcEEEN10hirtparser8DataTypeESt4lessIS5_ESaISt4pairIKS5_S7_EEED1Ev_x54
    _ZNSt3mapINSt7__cxx1112basic_stringIcSt11char_traitsIcESaIcEEEN10hirtparser8DataTypeESt4lessIS5_ESaISt4pairIKS5_S7_EEED1Ev_x20:
    /*00000020*/ LDR         R1, [R4, #12] 
    /*00000024*/ MOV         R0, R6 
    /*00000028*/ BL          _ZNSt8_Rb_treeINSt7__cxx1112basic_stringIcSt11char_traitsIcESaIcEEESt4pairIKS5_N10hirtparser8DataTypeEESt10_Select1stISA_ESt4lessIS5_ESaISA_EE8_M_eraseEPSt13_Rb_tree_nodeISA_E
    /*0000002c*/ LDR         R0, [R4, #16] 
    /*00000030*/ ADD         R3, R4, #24 
    /*00000034*/ LDR         R5, [R4, #8] 
    /*00000038*/ CMP         R0, R3 
    /*0000003c*/ BEQ         _ZNSt3mapINSt7__cxx1112basic_stringIcSt11char_traitsIcESaIcEEEN10hirtparser8DataTypeESt4lessIS5_ESaISt4pairIKS5_S7_EEED1Ev_x44
    /*00000040*/ BL          _ZdlPv
    _ZNSt3mapINSt7__cxx1112basic_stringIcSt11char_traitsIcESaIcEEEN10hirtparser8DataTypeESt4lessIS5_ESaISt4pairIKS5_S7_EEED1Ev_x44:
    /*00000044*/ MOV         R0, R4 
    /*00000048*/ BL          _ZdlPv
    /*0000004c*/ SUBS        R4, R5, #0 
    /*00000050*/ BNE         _ZNSt3mapINSt7__cxx1112basic_stringIcSt11char_traitsIcESaIcEEEN10hirtparser8DataTypeESt4lessIS5_ESaISt4pairIKS5_S7_EEED1Ev_x20
    _ZNSt3mapINSt7__cxx1112basic_stringIcSt11char_traitsIcESaIcEEEN10hirtparser8DataTypeESt4lessIS5_ESaISt4pairIKS5_S7_EEED1Ev_x54:
    /*00000054*/ MOV         R0, R6 
    /*00000058*/ POP         {R4, R5, R6, PC} 
FUNC_END _ZNSt3mapINSt7__cxx1112basic_stringIcSt11char_traitsIcESaIcEEEN10hirtparser8DataTypeESt4lessIS5_ESaISt4pairIKS5_S7_EEED1Ev


@ - - - - - - - - - - - - - - - - - - - - - - - - - - - - - 
@ .text._ZNSt6vectorIN10hirtparser4BlobESaIS1_EE19_M_emplace_back_auxIJRKS1_EEEvDpOT_
@ Size: 0x464
@ - - - - - - - - - - - - - - - - - - - - - - - - - - - - - 

FUNC_BEGIN _ZNSt6vectorIN10hirtparser4BlobESaIS1_EE19_M_emplace_back_auxIJRKS1_EEEvDpOT_
    /*00000000*/ MOV         IP, #16384                  @ 0x4000 
    /*00000004*/ PUSH        {R4, R5, R6, R7, R8, R9, SL, FP, LR} 
    /*00000008*/ SUB         IP, SP, IP 
    /*0000000c*/ STR         R0, [IP, #4048]             @ 0xfd0 
    /*00000010*/ LDM         R0, {R5, R9} 
    /*00000014*/ MOVW        R3, #61681                  @ 0xf0f1 
    /*00000018*/ MOV         R6, R1 
    /*0000001c*/ SUB         R2, R9, R5 
    /*00000020*/ SUB         SP, SP, #12 
    /*00000024*/ MOVT        R3, #61680                  @ 0xf0f0 
    /*00000028*/ MOV         FP, R0 
    /*0000002c*/ ASR         R1, R2, #2 
    /*00000030*/ MUL         R3, R3, R1 
    /*00000034*/ CMP         R3, #0 
    /*00000038*/ BEQ         _ZNSt6vectorIN10hirtparser4BlobESaIS1_EE19_M_emplace_back_auxIJRKS1_EEEvDpOT__x324
    /*0000003c*/ LSL         R1, R3, #1 
    /*00000040*/ CMP         R3, R1 
    /*00000044*/ BLS         _ZNSt6vectorIN10hirtparser4BlobESaIS1_EE19_M_emplace_back_auxIJRKS1_EEEvDpOT__x3f4
    _ZNSt6vectorIN10hirtparser4BlobESaIS1_EE19_M_emplace_back_auxIJRKS1_EEEvDpOT__x48:
    /*00000048*/ MVN         R3, #51                     @ 0x33 
    /*0000004c*/ STR         R3, [SP, #4] 
    /*00000050*/ MOV         R0, R3 
    _ZNSt6vectorIN10hirtparser4BlobESaIS1_EE19_M_emplace_back_auxIJRKS1_EEEvDpOT__x54:
    /*00000054*/ BL          _Znwj
    /*00000058*/ LDM         FP, {R5, R9} 
    /*0000005c*/ STR         R0, [SP] 
    /*00000060*/ MOV         IP, R0 
    /*00000064*/ SUB         R2, R9, R5 
    _ZNSt6vectorIN10hirtparser4BlobESaIS1_EE19_M_emplace_back_auxIJRKS1_EEEvDpOT__x68:
    /*00000068*/ ADDS        R4, IP, R2 
    /*0000006c*/ BEQ         _ZNSt6vectorIN10hirtparser4BlobESaIS1_EE19_M_emplace_back_auxIJRKS1_EEEvDpOT__x15c
    /*00000070*/ LDR         R1, [R6, #4] 
    /*00000074*/ MOV         R0, #0 
    /*00000078*/ LDR         R5, [R6, #8] 
    /*0000007c*/ LDR         R3, WORD_0454               @ LDR         R3, [PC, #976]              @ 0x0000000000000454 
    /*00000080*/ SUB         R5, R5, R1 
    /*00000084*/ ADD         R3, PC, R3 
    /*00000088*/ ADD         R3, R3, #8 
    /*0000008c*/ STR         R3, [IP, R2] 
    /*00000090*/ ASRS        R3, R5, #2 
    /*00000094*/ STR         R0, [R4, #4] 
    /*00000098*/ MOVEQ       R8, R5 
    /*0000009c*/ STR         R0, [R4, #8] 
    /*000000a0*/ MOVEQ       R7, R3 
    /*000000a4*/ STR         R0, [R4, #12] 
    /*000000a8*/ BEQ         _ZNSt6vectorIN10hirtparser4BlobESaIS1_EE19_M_emplace_back_auxIJRKS1_EEEvDpOT__xd0
    /*000000ac*/ CMN         R3, #-1073741823            @ 0xc0000001 
    /*000000b0*/ BHI         _ZNSt6vectorIN10hirtparser4BlobESaIS1_EE19_M_emplace_back_auxIJRKS1_EEEvDpOT__x3b0
    /*000000b4*/ MOV         R0, R5 
    /*000000b8*/ BL          _Znwj
    /*000000bc*/ LDMIB       R6, {R1, R3} 
    /*000000c0*/ MOV         R7, R0 
    /*000000c4*/ SUB         R3, R3, R1 
    /*000000c8*/ MOV         R8, R3 
    /*000000cc*/ ASR         R3, R3, #2 
    _ZNSt6vectorIN10hirtparser4BlobESaIS1_EE19_M_emplace_back_auxIJRKS1_EEEvDpOT__xd0:
    /*000000d0*/ ADD         R5, R7, R5 
    /*000000d4*/ CMP         R3, #0 
    /*000000d8*/ STR         R5, [R4, #12] 
    /*000000dc*/ STR         R7, [R4, #4] 
    /*000000e0*/ STR         R7, [R4, #8] 
    /*000000e4*/ BEQ         _ZNSt6vectorIN10hirtparser4BlobESaIS1_EE19_M_emplace_back_auxIJRKS1_EEEvDpOT__xf4
    /*000000e8*/ MOV         R2, R8 
    /*000000ec*/ MOV         R0, R7 
    /*000000f0*/ BL          memmove
    _ZNSt6vectorIN10hirtparser4BlobESaIS1_EE19_M_emplace_back_auxIJRKS1_EEEvDpOT__xf4:
    /*000000f4*/ LDR         R2, [R6, #16] 
    /*000000f8*/ ADD         R1, R4, #28 
    /*000000fc*/ LDR         R3, [R6, #20] 
    /*00000100*/ ADD         R0, R4, #20 
    /*00000104*/ STR         R2, [R4, #16] 
    /*00000108*/ LDR         R2, [R6, #24] 
    /*0000010c*/ ADD         R7, R7, R8 
    /*00000110*/ STR         R1, [R4, #20] 
    /*00000114*/ MOV         R1, R3 
    /*00000118*/ STR         R7, [R4, #8] 
    /*0000011c*/ ADD         R2, R3, R2 
    /*00000120*/ BL          _ZNSt7__cxx1112basic_stringIcSt11char_traitsIcESaIcEE12_M_constructIPcEEvT_S7_St20forward_iterator_tag.isra.120
    /*00000124*/ LDR         IP, [R6, #44]               @ 0x2c 
    /*00000128*/ ADD         R3, R6, #60                 @ 0x3c 
    /*0000012c*/ LDR         R0, [R6, #48]               @ 0x30 
    /*00000130*/ VLD1.32     {D16}, [R3] 
    /*00000134*/ LDR         R1, [R6, #52]               @ 0x34 
    /*00000138*/ ADD         R3, R4, #60                 @ 0x3c 
    /*0000013c*/ LDR         R2, [R6, #56]               @ 0x38 
    /*00000140*/ STR         IP, [R4, #44]               @ 0x2c 
    /*00000144*/ STR         R0, [R4, #48]               @ 0x30 
    /*00000148*/ STR         R1, [R4, #52]               @ 0x34 
    /*0000014c*/ STR         R2, [R4, #56]               @ 0x38 
    /*00000150*/ VST1.32     {D16}, [R3] 
    /*00000154*/ LDR         R5, [FP] 
    /*00000158*/ LDR         R9, [FP, #4] 
    _ZNSt6vectorIN10hirtparser4BlobESaIS1_EE19_M_emplace_back_auxIJRKS1_EEEvDpOT__x15c:
    /*0000015c*/ CMP         R5, R9 
    /*00000160*/ BEQ         _ZNSt6vectorIN10hirtparser4BlobESaIS1_EE19_M_emplace_back_auxIJRKS1_EEEvDpOT__x334
    /*00000164*/ LDR         SL, WORD_0458               @ LDR         SL, [PC, #748]              @ 0x0000000000000458 
    /*00000168*/ MOV         R8, #0 
    /*0000016c*/ LDR         R3, [SP] 
    /*00000170*/ ADD         SL, PC, SL 
    /*00000174*/ ADD         R4, R3, #28 
    /*00000178*/ MOV         R7, R3 
    /*0000017c*/ ADD         SL, SL, #8 
    /*00000180*/ B           _ZNSt6vectorIN10hirtparser4BlobESaIS1_EE19_M_emplace_back_auxIJRKS1_EEEvDpOT__x188
    _ZNSt6vectorIN10hirtparser4BlobESaIS1_EE19_M_emplace_back_auxIJRKS1_EEEvDpOT__x184:
    /*00000184*/ MOV         R7, R3 
    _ZNSt6vectorIN10hirtparser4BlobESaIS1_EE19_M_emplace_back_auxIJRKS1_EEEvDpOT__x188:
    /*00000188*/ CMP         R7, #0 
    /*0000018c*/ BEQ         _ZNSt6vectorIN10hirtparser4BlobESaIS1_EE19_M_emplace_back_auxIJRKS1_EEEvDpOT__x250
    /*00000190*/ LDMIB       R5, {R3, R6} 
    /*00000194*/ STR         SL, [R4, #-28]              @ 0xffffffe4 
    /*00000198*/ SUB         R6, R6, R3 
    /*0000019c*/ STR         R8, [R4, #-24]              @ 0xffffffe8 
    /*000001a0*/ ASRS        R3, R6, #2 
    /*000001a4*/ STR         R8, [R4, #-20]              @ 0xffffffec 
    /*000001a8*/ STR         R8, [R4, #-16] 
    /*000001ac*/ BEQ         _ZNSt6vectorIN10hirtparser4BlobESaIS1_EE19_M_emplace_back_auxIJRKS1_EEEvDpOT__x1c4
    /*000001b0*/ CMN         R3, #-1073741823            @ 0xc0000001 
    /*000001b4*/ BHI         _ZNSt6vectorIN10hirtparser4BlobESaIS1_EE19_M_emplace_back_auxIJRKS1_EEEvDpOT__x340
    /*000001b8*/ MOV         R0, R6 
    /*000001bc*/ BL          _Znwj
    /*000001c0*/ MOV         R3, R0 
    _ZNSt6vectorIN10hirtparser4BlobESaIS1_EE19_M_emplace_back_auxIJRKS1_EEEvDpOT__x1c4:
    /*000001c4*/ ADD         R6, R3, R6 
    /*000001c8*/ STR         R6, [R4, #-16] 
    /*000001cc*/ STR         R3, [R4, #-24]              @ 0xffffffe8 
    /*000001d0*/ STR         R3, [R4, #-20]              @ 0xffffffec 
    /*000001d4*/ LDMIB       R5, {R1, R6} 
    /*000001d8*/ SUB         R6, R6, R1 
    /*000001dc*/ LSRS        R2, R6, #2 
    /*000001e0*/ BEQ         _ZNSt6vectorIN10hirtparser4BlobESaIS1_EE19_M_emplace_back_auxIJRKS1_EEEvDpOT__x1f4
    /*000001e4*/ MOV         R0, R3 
    /*000001e8*/ MOV         R2, R6 
    /*000001ec*/ BL          memmove
    /*000001f0*/ MOV         R3, R0 
    _ZNSt6vectorIN10hirtparser4BlobESaIS1_EE19_M_emplace_back_auxIJRKS1_EEEvDpOT__x1f4:
    /*000001f4*/ LDR         R1, [R5, #16] 
    /*000001f8*/ ADD         R0, R7, #20 
    /*000001fc*/ LDR         IP, [R5, #24] 
    /*00000200*/ STR         R4, [R4, #-8] 
    /*00000204*/ LDR         R2, [R5, #20] 
    /*00000208*/ ADD         R3, R3, R6 
    /*0000020c*/ STR         R1, [R4, #-12] 
    /*00000210*/ MOV         R1, R2 
    /*00000214*/ STR         R3, [R4, #-20]              @ 0xffffffec 
    /*00000218*/ ADD         R2, R2, IP 
    /*0000021c*/ BL          _ZNSt7__cxx1112basic_stringIcSt11char_traitsIcESaIcEE12_M_constructIPcEEvT_S7_St20forward_iterator_tag.isra.120
    /*00000220*/ LDR         R3, [R5, #44]               @ 0x2c 
    /*00000224*/ LDR         R1, [R5, #48]               @ 0x30 
    /*00000228*/ STR         R3, [R4, #16] 
    /*0000022c*/ LDR         R3, [R5, #52]               @ 0x34 
    /*00000230*/ LDR         R2, [R5, #56]               @ 0x38 
    /*00000234*/ STR         R3, [R4, #24] 
    /*00000238*/ LDR         R3, [R5, #60]               @ 0x3c 
    /*0000023c*/ STR         R1, [R4, #20] 
    /*00000240*/ STR         R3, [R4, #32] 
    /*00000244*/ LDR         R3, [R5, #64]               @ 0x40 
    /*00000248*/ STR         R2, [R4, #28] 
    /*0000024c*/ STR         R3, [R4, #36]               @ 0x24 
    _ZNSt6vectorIN10hirtparser4BlobESaIS1_EE19_M_emplace_back_auxIJRKS1_EEEvDpOT__x250:
    /*00000250*/ ADD         R5, R5, #68                 @ 0x44 
    /*00000254*/ ADD         R4, R4, #68                 @ 0x44 
    /*00000258*/ CMP         R9, R5 
    /*0000025c*/ ADD         R3, R7, #68                 @ 0x44 
    /*00000260*/ BNE         _ZNSt6vectorIN10hirtparser4BlobESaIS1_EE19_M_emplace_back_auxIJRKS1_EEEvDpOT__x184
    /*00000264*/ LDR         R8, [FP] 
    /*00000268*/ ADD         R7, R7, #136                @ 0x88 
    /*0000026c*/ LDR         R9, [FP, #4] 
    /*00000270*/ CMP         R8, R9 
    /*00000274*/ BEQ         _ZNSt6vectorIN10hirtparser4BlobESaIS1_EE19_M_emplace_back_auxIJRKS1_EEEvDpOT__x2f4
    /*00000278*/ LDR         R5, WORD_045c               @ LDR         R5, [PC, #476]              @ 0x000000000000045c 
    /*0000027c*/ ADD         R4, R8, #28 
    /*00000280*/ LDR         R6, WORD_0460               @ LDR         R6, [PC, #472]              @ 0x0000000000000460 
    /*00000284*/ ADD         R5, PC, R5 
    /*00000288*/ ADD         R6, PC, R6 
    /*0000028c*/ ADD         R5, R5, #8 
    /*00000290*/ B           _ZNSt6vectorIN10hirtparser4BlobESaIS1_EE19_M_emplace_back_auxIJRKS1_EEEvDpOT__x2c8
    _ZNSt6vectorIN10hirtparser4BlobESaIS1_EE19_M_emplace_back_auxIJRKS1_EEEvDpOT__x294:
    /*00000294*/ LDR         R0, [R4, #-8] 
    /*00000298*/ STR         R5, [R4, #-28]              @ 0xffffffe4 
    /*0000029c*/ CMP         R4, R0 
    /*000002a0*/ BEQ         _ZNSt6vectorIN10hirtparser4BlobESaIS1_EE19_M_emplace_back_auxIJRKS1_EEEvDpOT__x2a8
    /*000002a4*/ BL          _ZdlPv
    _ZNSt6vectorIN10hirtparser4BlobESaIS1_EE19_M_emplace_back_auxIJRKS1_EEEvDpOT__x2a8:
    /*000002a8*/ LDR         R0, [R4, #-24]              @ 0xffffffe8 
    /*000002ac*/ CMP         R0, #0 
    /*000002b0*/ BEQ         _ZNSt6vectorIN10hirtparser4BlobESaIS1_EE19_M_emplace_back_auxIJRKS1_EEEvDpOT__x2b8
    /*000002b4*/ BL          _ZdlPv
    _ZNSt6vectorIN10hirtparser4BlobESaIS1_EE19_M_emplace_back_auxIJRKS1_EEEvDpOT__x2b8:
    /*000002b8*/ ADD         R8, R8, #68                 @ 0x44 
    /*000002bc*/ ADD         R4, R4, #68                 @ 0x44 
    /*000002c0*/ CMP         R9, R8 
    /*000002c4*/ BEQ         _ZNSt6vectorIN10hirtparser4BlobESaIS1_EE19_M_emplace_back_auxIJRKS1_EEEvDpOT__x2f0
    _ZNSt6vectorIN10hirtparser4BlobESaIS1_EE19_M_emplace_back_auxIJRKS1_EEEvDpOT__x2c8:
    /*000002c8*/ LDR         R3, [R4, #-28]              @ 0xffffffe4 
    /*000002cc*/ LDR         R3, [R3] 
    /*000002d0*/ CMP         R3, R6 
    /*000002d4*/ BEQ         _ZNSt6vectorIN10hirtparser4BlobESaIS1_EE19_M_emplace_back_auxIJRKS1_EEEvDpOT__x294
    /*000002d8*/ MOV         R0, R8 
    /*000002dc*/ ADD         R8, R8, #68                 @ 0x44 
    /*000002e0*/ ADD         R4, R4, #68                 @ 0x44 
    /*000002e4*/ BLX         R3 
    /*000002e8*/ CMP         R9, R8 
    /*000002ec*/ BNE         _ZNSt6vectorIN10hirtparser4BlobESaIS1_EE19_M_emplace_back_auxIJRKS1_EEEvDpOT__x2c8
    _ZNSt6vectorIN10hirtparser4BlobESaIS1_EE19_M_emplace_back_auxIJRKS1_EEEvDpOT__x2f0:
    /*000002f0*/ LDR         R9, [FP] 
    _ZNSt6vectorIN10hirtparser4BlobESaIS1_EE19_M_emplace_back_auxIJRKS1_EEEvDpOT__x2f4:
    /*000002f4*/ CMP         R9, #0 
    /*000002f8*/ BEQ         _ZNSt6vectorIN10hirtparser4BlobESaIS1_EE19_M_emplace_back_auxIJRKS1_EEEvDpOT__x304
    /*000002fc*/ MOV         R0, R9 
    /*00000300*/ BL          _ZdlPv
    _ZNSt6vectorIN10hirtparser4BlobESaIS1_EE19_M_emplace_back_auxIJRKS1_EEEvDpOT__x304:
    /*00000304*/ LDR         R2, [SP] 
    /*00000308*/ LDR         R1, [SP, #4] 
    /*0000030c*/ ADD         R3, R2, R1 
    /*00000310*/ STR         R3, [FP, #8] 
    /*00000314*/ MOV         R3, R2 
    /*00000318*/ STM         FP, {R3, R7} 
    /*0000031c*/ ADD         SP, SP, #12 
    /*00000320*/ POP         {R4, R5, R6, R7, R8, R9, SL, FP, PC} 
    _ZNSt6vectorIN10hirtparser4BlobESaIS1_EE19_M_emplace_back_auxIJRKS1_EEEvDpOT__x324:
    /*00000324*/ MOV         R3, #68                     @ 0x44 
    /*00000328*/ STR         R3, [SP, #4] 
    /*0000032c*/ MOV         R0, R3 
    /*00000330*/ B           _ZNSt6vectorIN10hirtparser4BlobESaIS1_EE19_M_emplace_back_auxIJRKS1_EEEvDpOT__x54
    _ZNSt6vectorIN10hirtparser4BlobESaIS1_EE19_M_emplace_back_auxIJRKS1_EEEvDpOT__x334:
    /*00000334*/ LDR         R3, [SP] 
    /*00000338*/ ADD         R7, R3, #68                 @ 0x44 
    /*0000033c*/ B           _ZNSt6vectorIN10hirtparser4BlobESaIS1_EE19_M_emplace_back_auxIJRKS1_EEEvDpOT__x2f4
    _ZNSt6vectorIN10hirtparser4BlobESaIS1_EE19_M_emplace_back_auxIJRKS1_EEEvDpOT__x340:
    /*00000340*/ BL          _ZSt17__throw_bad_allocv
    _ZNSt6vectorIN10hirtparser4BlobESaIS1_EE19_M_emplace_back_auxIJRKS1_EEEvDpOT__x344:
    /*00000344*/ BL          __cxa_begin_catch
    /*00000348*/ LDR         R3, [SP] 
    /*0000034c*/ CMP         R3, R7 
    /*00000350*/ MOVNE       R4, R3 
    /*00000354*/ BEQ         _ZNSt6vectorIN10hirtparser4BlobESaIS1_EE19_M_emplace_back_auxIJRKS1_EEEvDpOT__x374
    _ZNSt6vectorIN10hirtparser4BlobESaIS1_EE19_M_emplace_back_auxIJRKS1_EEEvDpOT__x358:
    /*00000358*/ LDR         R3, [R4] 
    /*0000035c*/ MOV         R0, R4 
    /*00000360*/ ADD         R4, R4, #68                 @ 0x44 
    /*00000364*/ LDR         R3, [R3] 
    /*00000368*/ BLX         R3 
    /*0000036c*/ CMP         R4, R7 
    /*00000370*/ BNE         _ZNSt6vectorIN10hirtparser4BlobESaIS1_EE19_M_emplace_back_auxIJRKS1_EEEvDpOT__x358
    _ZNSt6vectorIN10hirtparser4BlobESaIS1_EE19_M_emplace_back_auxIJRKS1_EEEvDpOT__x374:
    /*00000374*/ BL          __cxa_rethrow
    /*00000378*/ LDR         R3, [R4, #4] 
    /*0000037c*/ MOV         R4, R0 
    /*00000380*/ CMP         R3, #0 
    /*00000384*/ BEQ         _ZNSt6vectorIN10hirtparser4BlobESaIS1_EE19_M_emplace_back_auxIJRKS1_EEEvDpOT__x390
    /*00000388*/ MOV         R0, R3 
    /*0000038c*/ BL          _ZdlPv
    _ZNSt6vectorIN10hirtparser4BlobESaIS1_EE19_M_emplace_back_auxIJRKS1_EEEvDpOT__x390:
    /*00000390*/ MOV         R0, R4 
    _ZNSt6vectorIN10hirtparser4BlobESaIS1_EE19_M_emplace_back_auxIJRKS1_EEEvDpOT__x394:
    /*00000394*/ BL          __cxa_begin_catch
    /*00000398*/ LDR         R3, [SP] 
    /*0000039c*/ CMP         R3, #0 
    /*000003a0*/ BEQ         _ZNSt6vectorIN10hirtparser4BlobESaIS1_EE19_M_emplace_back_auxIJRKS1_EEEvDpOT__x3cc
    _ZNSt6vectorIN10hirtparser4BlobESaIS1_EE19_M_emplace_back_auxIJRKS1_EEEvDpOT__x3a4:
    /*000003a4*/ LDR         R0, [SP] 
    /*000003a8*/ BL          _ZdlPv
    _ZNSt6vectorIN10hirtparser4BlobESaIS1_EE19_M_emplace_back_auxIJRKS1_EEEvDpOT__x3ac:
    /*000003ac*/ BL          __cxa_rethrow
    _ZNSt6vectorIN10hirtparser4BlobESaIS1_EE19_M_emplace_back_auxIJRKS1_EEEvDpOT__x3b0:
    /*000003b0*/ BL          _ZSt17__throw_bad_allocv
    /*000003b4*/ BL          __cxa_end_catch
    /*000003b8*/ BL          __cxa_end_cleanup
    /*000003bc*/ MOV         R4, R0 
    /*000003c0*/ BL          __cxa_end_catch
    /*000003c4*/ MOV         R0, R4 
    /*000003c8*/ BL          __cxa_begin_catch
    _ZNSt6vectorIN10hirtparser4BlobESaIS1_EE19_M_emplace_back_auxIJRKS1_EEEvDpOT__x3cc:
    /*000003cc*/ LDM         FP, {R2, R3} 
    /*000003d0*/ LDR         R4, [SP] 
    /*000003d4*/ SUB         R3, R3, R2 
    /*000003d8*/ ADD         R0, R4, R3 
    /*000003dc*/ LDR         R3, [R4, R3] 
    /*000003e0*/ LDR         R3, [R3] 
    /*000003e4*/ BLX         R3 
    /*000003e8*/ CMP         R4, #0 
    /*000003ec*/ BNE         _ZNSt6vectorIN10hirtparser4BlobESaIS1_EE19_M_emplace_back_auxIJRKS1_EEEvDpOT__x3a4
    /*000003f0*/ B           _ZNSt6vectorIN10hirtparser4BlobESaIS1_EE19_M_emplace_back_auxIJRKS1_EEEvDpOT__x3ac
    _ZNSt6vectorIN10hirtparser4BlobESaIS1_EE19_M_emplace_back_auxIJRKS1_EEEvDpOT__x3f4:
    /*000003f4*/ MOVW        R3, #50115                  @ 0xc3c3 
    /*000003f8*/ MOVT        R3, #963                    @ 0x3c3 
    /*000003fc*/ CMP         R1, R3 
    /*00000400*/ BHI         _ZNSt6vectorIN10hirtparser4BlobESaIS1_EE19_M_emplace_back_auxIJRKS1_EEEvDpOT__x48
    /*00000404*/ CMP         R1, #0 
    /*00000408*/ MOVEQ       R3, R1 
    /*0000040c*/ STREQ       R3, [SP, #4] 
    /*00000410*/ MOVEQ       IP, R3 
    /*00000414*/ STREQ       R3, [SP] 
    /*00000418*/ BEQ         _ZNSt6vectorIN10hirtparser4BlobESaIS1_EE19_M_emplace_back_auxIJRKS1_EEEvDpOT__x68
    /*0000041c*/ MOV         R3, #68                     @ 0x44 
    /*00000420*/ MUL         R3, R3, R1 
    /*00000424*/ STR         R3, [SP, #4] 
    /*00000428*/ MOV         R0, R3 
    /*0000042c*/ B           _ZNSt6vectorIN10hirtparser4BlobESaIS1_EE19_M_emplace_back_auxIJRKS1_EEEvDpOT__x54
    /*00000430*/ LDR         R3, [R7, #4] 
    /*00000434*/ MOV         R4, R0 
    /*00000438*/ CMP         R3, #0 
    /*0000043c*/ BEQ         _ZNSt6vectorIN10hirtparser4BlobESaIS1_EE19_M_emplace_back_auxIJRKS1_EEEvDpOT__x448
    /*00000440*/ MOV         R0, R3 
    /*00000444*/ BL          _ZdlPv
    _ZNSt6vectorIN10hirtparser4BlobESaIS1_EE19_M_emplace_back_auxIJRKS1_EEEvDpOT__x448:
    /*00000448*/ MOV         R0, R4 
    /*0000044c*/ B           _ZNSt6vectorIN10hirtparser4BlobESaIS1_EE19_M_emplace_back_auxIJRKS1_EEEvDpOT__x344
    /*00000450*/ B           _ZNSt6vectorIN10hirtparser4BlobESaIS1_EE19_M_emplace_back_auxIJRKS1_EEEvDpOT__x394
    /*00000454*/ WORD_0454: .word 0x000003c8
    /*00000458*/ WORD_0458: .word 0x000002e0
    /*0000045c*/ WORD_045c: .word 0x000001d0
    /*00000460*/ WORD_0460: .word 0x000001d0
FUNC_END _ZNSt6vectorIN10hirtparser4BlobESaIS1_EE19_M_emplace_back_auxIJRKS1_EEEvDpOT_


@ - - - - - - - - - - - - - - - - - - - - - - - - - - - - - 
@ .ARM.extab.text._ZNSt6vectorIN10hirtparser4BlobESaIS1_EE19_M_emplace_back_auxIJRKS1_EEEvDpOT_
@ Size: 0x50
@ - - - - - - - - - - - - - - - - - - - - - - - - - - - - - 

@ - - - - - - - - - - - - - - - - - - - - - - - - - - - - - 
@ .text._ZNSt6vectorIN10hirtparser15CustomOperationESaIS1_EE19_M_emplace_back_auxIJRKS1_EEEvDpOT_
@ Size: 0x1e4
@ - - - - - - - - - - - - - - - - - - - - - - - - - - - - - 

FUNC_BEGIN _ZNSt6vectorIN10hirtparser15CustomOperationESaIS1_EE19_M_emplace_back_auxIJRKS1_EEEvDpOT_
    /*00000000*/ MOV         IP, #16384                  @ 0x4000 
    /*00000004*/ PUSH        {R4, R5, R6, R7, R8, R9, SL, LR} 
    /*00000008*/ SUB         IP, SP, IP 
    /*0000000c*/ STR         R0, [IP, #4064]             @ 0xfe0 
    /*00000010*/ LDM         R0, {R3, R6} 
    /*00000014*/ MOVW        R2, #43691                  @ 0xaaab 
    /*00000018*/ MOV         R4, R1 
    /*0000001c*/ SUB         IP, R6, R3 
    /*00000020*/ MOV         R7, R0 
    /*00000024*/ MOVT        R2, #43690                  @ 0xaaaa 
    /*00000028*/ ASR         R1, IP, #3 
    /*0000002c*/ MUL         R2, R2, R1 
    /*00000030*/ CMP         R2, #0 
    /*00000034*/ BEQ         _ZNSt6vectorIN10hirtparser15CustomOperationESaIS1_EE19_M_emplace_back_auxIJRKS1_EEEvDpOT__x14c
    /*00000038*/ LSL         R9, R2, #1 
    /*0000003c*/ CMP         R2, R9 
    /*00000040*/ BLS         _ZNSt6vectorIN10hirtparser15CustomOperationESaIS1_EE19_M_emplace_back_auxIJRKS1_EEEvDpOT__x180
    _ZNSt6vectorIN10hirtparser15CustomOperationESaIS1_EE19_M_emplace_back_auxIJRKS1_EEEvDpOT__x44:
    /*00000044*/ MVN         R9, #15 
    _ZNSt6vectorIN10hirtparser15CustomOperationESaIS1_EE19_M_emplace_back_auxIJRKS1_EEEvDpOT__x48:
    /*00000048*/ MOV         R0, R9 
    /*0000004c*/ BL          _Znwj
    /*00000050*/ LDM         R7, {R3, R6} 
    /*00000054*/ MOV         R8, R0 
    /*00000058*/ SUB         IP, R6, R3 
    _ZNSt6vectorIN10hirtparser15CustomOperationESaIS1_EE19_M_emplace_back_auxIJRKS1_EEEvDpOT__x5c:
    /*0000005c*/ ADDS        R0, R8, IP 
    /*00000060*/ BEQ         _ZNSt6vectorIN10hirtparser15CustomOperationESaIS1_EE19_M_emplace_back_auxIJRKS1_EEEvDpOT__x84
    /*00000064*/ LDR         R3, [R4] 
    /*00000068*/ ADD         R1, R0, #8 
    /*0000006c*/ LDR         R2, [R4, #4] 
    /*00000070*/ STR         R1, [R8, IP] 
    /*00000074*/ MOV         R1, R3 
    /*00000078*/ ADD         R2, R3, R2 
    /*0000007c*/ BL          _ZNSt7__cxx1112basic_stringIcSt11char_traitsIcESaIcEE12_M_constructIPcEEvT_S7_St20forward_iterator_tag.isra.120
    /*00000080*/ LDM         R7, {R3, R6} 
    _ZNSt6vectorIN10hirtparser15CustomOperationESaIS1_EE19_M_emplace_back_auxIJRKS1_EEEvDpOT__x84:
    /*00000084*/ CMP         R3, R6 
    /*00000088*/ BEQ         _ZNSt6vectorIN10hirtparser15CustomOperationESaIS1_EE19_M_emplace_back_auxIJRKS1_EEEvDpOT__x178
    /*0000008c*/ ADD         R3, R3, #8 
    /*00000090*/ ADD         R1, R8, #8 
    /*00000094*/ MOV         R0, R8 
    /*00000098*/ MOV         IP, #0 
    /*0000009c*/ B           _ZNSt6vectorIN10hirtparser15CustomOperationESaIS1_EE19_M_emplace_back_auxIJRKS1_EEEvDpOT__xa4
    _ZNSt6vectorIN10hirtparser15CustomOperationESaIS1_EE19_M_emplace_back_auxIJRKS1_EEEvDpOT__xa0:
    /*000000a0*/ MOV         R0, R2 
    _ZNSt6vectorIN10hirtparser15CustomOperationESaIS1_EE19_M_emplace_back_auxIJRKS1_EEEvDpOT__xa4:
    /*000000a4*/ CMP         R0, #0 
    /*000000a8*/ BEQ         _ZNSt6vectorIN10hirtparser15CustomOperationESaIS1_EE19_M_emplace_back_auxIJRKS1_EEEvDpOT__xd8
    /*000000ac*/ STR         R1, [R1, #-8] 
    /*000000b0*/ LDR         R2, [R3, #-8] 
    /*000000b4*/ CMP         R3, R2 
    /*000000b8*/ STRNE       R2, [R1, #-8] 
    /*000000bc*/ LDRNE       R2, [R3] 
    /*000000c0*/ STRNE       R2, [R1] 
    /*000000c4*/ BEQ         _ZNSt6vectorIN10hirtparser15CustomOperationESaIS1_EE19_M_emplace_back_auxIJRKS1_EEEvDpOT__x154
    _ZNSt6vectorIN10hirtparser15CustomOperationESaIS1_EE19_M_emplace_back_auxIJRKS1_EEEvDpOT__xc8:
    /*000000c8*/ LDR         R2, [R3, #-4] 
    /*000000cc*/ STR         R2, [R1, #-4] 
    /*000000d0*/ STMDB       R3, {R3, IP} 
    /*000000d4*/ STRB        IP, [R3] 
    _ZNSt6vectorIN10hirtparser15CustomOperationESaIS1_EE19_M_emplace_back_auxIJRKS1_EEEvDpOT__xd8:
    /*000000d8*/ ADD         R2, R3, #16 
    /*000000dc*/ ADD         R1, R1, #24 
    /*000000e0*/ CMP         R6, R2 
    /*000000e4*/ ADD         R3, R3, #24 
    /*000000e8*/ ADD         R2, R0, #24 
    /*000000ec*/ BNE         _ZNSt6vectorIN10hirtparser15CustomOperationESaIS1_EE19_M_emplace_back_auxIJRKS1_EEEvDpOT__xa0
    /*000000f0*/ LDR         R5, [R7] 
    /*000000f4*/ ADD         SL, R0, #48                 @ 0x30 
    /*000000f8*/ LDR         R6, [R7, #4] 
    /*000000fc*/ CMP         R5, R6 
    /*00000100*/ BEQ         _ZNSt6vectorIN10hirtparser15CustomOperationESaIS1_EE19_M_emplace_back_auxIJRKS1_EEEvDpOT__x12c
    /*00000104*/ ADD         R4, R5, #8 
    _ZNSt6vectorIN10hirtparser15CustomOperationESaIS1_EE19_M_emplace_back_auxIJRKS1_EEEvDpOT__x108:
    /*00000108*/ LDR         R0, [R4, #-8] 
    /*0000010c*/ CMP         R0, R4 
    /*00000110*/ BEQ         _ZNSt6vectorIN10hirtparser15CustomOperationESaIS1_EE19_M_emplace_back_auxIJRKS1_EEEvDpOT__x118
    /*00000114*/ BL          _ZdlPv
    _ZNSt6vectorIN10hirtparser15CustomOperationESaIS1_EE19_M_emplace_back_auxIJRKS1_EEEvDpOT__x118:
    /*00000118*/ ADD         R5, R5, #24 
    /*0000011c*/ ADD         R4, R4, #24 
    /*00000120*/ CMP         R6, R5 
    /*00000124*/ BNE         _ZNSt6vectorIN10hirtparser15CustomOperationESaIS1_EE19_M_emplace_back_auxIJRKS1_EEEvDpOT__x108
    /*00000128*/ LDR         R6, [R7] 
    _ZNSt6vectorIN10hirtparser15CustomOperationESaIS1_EE19_M_emplace_back_auxIJRKS1_EEEvDpOT__x12c:
    /*0000012c*/ CMP         R6, #0 
    /*00000130*/ BEQ         _ZNSt6vectorIN10hirtparser15CustomOperationESaIS1_EE19_M_emplace_back_auxIJRKS1_EEEvDpOT__x13c
    /*00000134*/ MOV         R0, R6 
    /*00000138*/ BL          _ZdlPv
    _ZNSt6vectorIN10hirtparser15CustomOperationESaIS1_EE19_M_emplace_back_auxIJRKS1_EEEvDpOT__x13c:
    /*0000013c*/ ADD         R9, R8, R9 
    /*00000140*/ STR         R9, [R7, #8] 
    /*00000144*/ STM         R7, {R8, SL} 
    /*00000148*/ POP         {R4, R5, R6, R7, R8, R9, SL, PC} 
    _ZNSt6vectorIN10hirtparser15CustomOperationESaIS1_EE19_M_emplace_back_auxIJRKS1_EEEvDpOT__x14c:
    /*0000014c*/ MOV         R9, #24 
    /*00000150*/ B           _ZNSt6vectorIN10hirtparser15CustomOperationESaIS1_EE19_M_emplace_back_auxIJRKS1_EEEvDpOT__x48
    _ZNSt6vectorIN10hirtparser15CustomOperationESaIS1_EE19_M_emplace_back_auxIJRKS1_EEEvDpOT__x154:
    /*00000154*/ LDR         R5, [R3] 
    /*00000158*/ LDR         R4, [R3, #4] 
    /*0000015c*/ LDR         LR, [R3, #8] 
    /*00000160*/ LDR         R2, [R3, #12] 
    /*00000164*/ STR         R5, [R1] 
    /*00000168*/ STR         R4, [R1, #4] 
    /*0000016c*/ STR         LR, [R1, #8] 
    /*00000170*/ STR         R2, [R1, #12] 
    /*00000174*/ B           _ZNSt6vectorIN10hirtparser15CustomOperationESaIS1_EE19_M_emplace_back_auxIJRKS1_EEEvDpOT__xc8
    _ZNSt6vectorIN10hirtparser15CustomOperationESaIS1_EE19_M_emplace_back_auxIJRKS1_EEEvDpOT__x178:
    /*00000178*/ ADD         SL, R8, #24 
    /*0000017c*/ B           _ZNSt6vectorIN10hirtparser15CustomOperationESaIS1_EE19_M_emplace_back_auxIJRKS1_EEEvDpOT__x12c
    _ZNSt6vectorIN10hirtparser15CustomOperationESaIS1_EE19_M_emplace_back_auxIJRKS1_EEEvDpOT__x180:
    /*00000180*/ MOVW        R2, #43690                  @ 0xaaaa 
    /*00000184*/ MOVT        R2, #2730                   @ 0xaaa 
    /*00000188*/ CMP         R9, R2 
    /*0000018c*/ BHI         _ZNSt6vectorIN10hirtparser15CustomOperationESaIS1_EE19_M_emplace_back_auxIJRKS1_EEEvDpOT__x44
    /*00000190*/ CMP         R9, #0 
    /*00000194*/ MOVNE       R3, #24 
    /*00000198*/ MULNE       R9, R3, R9 
    /*0000019c*/ BNE         _ZNSt6vectorIN10hirtparser15CustomOperationESaIS1_EE19_M_emplace_back_auxIJRKS1_EEEvDpOT__x48
    /*000001a0*/ MOV         R8, R9 
    /*000001a4*/ B           _ZNSt6vectorIN10hirtparser15CustomOperationESaIS1_EE19_M_emplace_back_auxIJRKS1_EEEvDpOT__x5c
    /*000001a8*/ BL          __cxa_begin_catch
    /*000001ac*/ CMP         R8, #0 
    /*000001b0*/ BEQ         _ZNSt6vectorIN10hirtparser15CustomOperationESaIS1_EE19_M_emplace_back_auxIJRKS1_EEEvDpOT__x1c0
    /*000001b4*/ MOV         R0, R8 
    /*000001b8*/ BL          _ZdlPv
    _ZNSt6vectorIN10hirtparser15CustomOperationESaIS1_EE19_M_emplace_back_auxIJRKS1_EEEvDpOT__x1bc:
    /*000001bc*/ BL          __cxa_rethrow
    _ZNSt6vectorIN10hirtparser15CustomOperationESaIS1_EE19_M_emplace_back_auxIJRKS1_EEEvDpOT__x1c0:
    /*000001c0*/ LDM         R7, {R2, R3} 
    /*000001c4*/ SUB         R3, R3, R2 
    /*000001c8*/ LDR         R0, [R3], #8 
    /*000001cc*/ CMP         R0, R3 
    /*000001d0*/ BEQ         _ZNSt6vectorIN10hirtparser15CustomOperationESaIS1_EE19_M_emplace_back_auxIJRKS1_EEEvDpOT__x1bc
    /*000001d4*/ BL          _ZdlPv
    /*000001d8*/ B           _ZNSt6vectorIN10hirtparser15CustomOperationESaIS1_EE19_M_emplace_back_auxIJRKS1_EEEvDpOT__x1bc
    /*000001dc*/ BL          __cxa_end_catch
    /*000001e0*/ BL          __cxa_end_cleanup
FUNC_END _ZNSt6vectorIN10hirtparser15CustomOperationESaIS1_EE19_M_emplace_back_auxIJRKS1_EEEvDpOT_


@ - - - - - - - - - - - - - - - - - - - - - - - - - - - - - 
@ .ARM.extab.text._ZNSt6vectorIN10hirtparser15CustomOperationESaIS1_EE19_M_emplace_back_auxIJRKS1_EEEvDpOT_
@ Size: 0x28
@ - - - - - - - - - - - - - - - - - - - - - - - - - - - - - 

@ - - - - - - - - - - - - - - - - - - - - - - - - - - - - - 
@ .text._ZNSt16_Sp_counted_baseILN9__gnu_cxx12_Lock_policyE2EE10_M_releaseEv
@ Size: 0xd4
@ - - - - - - - - - - - - - - - - - - - - - - - - - - - - - 

FUNC_BEGIN _ZNSt16_Sp_counted_baseILN9__gnu_cxx12_Lock_policyE2EE10_M_releaseEv
    /*00000000*/ MOV         IP, #16384                  @ 0x4000 
    /*00000004*/ PUSH        {R4, R5, R6, LR} 
    /*00000008*/ SUB         IP, SP, IP 
    /*0000000c*/ STR         R0, [IP, #4080]             @ 0xff0 
    /*00000010*/ LDR         R3, WORD_00cc               @ LDR         R3, [PC, #180]              @ 0x00000000000000cc 
    /*00000014*/ MOV         R4, R0 
    /*00000018*/ LDR         R2, WORD_00d0               @ LDR         R2, [PC, #176]              @ 0x00000000000000d0 
    /*0000001c*/ ADD         R3, PC, R3 
    /*00000020*/ LDR         R3, [R3, R2] 
    /*00000024*/ CMP         R3, #0 
    /*00000028*/ BEQ         _ZNSt16_Sp_counted_baseILN9__gnu_cxx12_Lock_policyE2EE10_M_releaseEv_x9c
    /*0000002c*/ ADD         R3, R0, #4 
    /*00000030*/ DMB         ISH 
    _ZNSt16_Sp_counted_baseILN9__gnu_cxx12_Lock_policyE2EE10_M_releaseEv_x34:
    /*00000034*/ LDREX       R2, [R3] 
    /*00000038*/ SUB         R1, R2, #1 
    /*0000003c*/ STREX       IP, R1, [R3] 
    /*00000040*/ CMP         IP, #0 
    /*00000044*/ BNE         _ZNSt16_Sp_counted_baseILN9__gnu_cxx12_Lock_policyE2EE10_M_releaseEv_x34
    /*00000048*/ CMP         R2, #1 
    /*0000004c*/ DMB         ISH 
    /*00000050*/ POPNE       {R4, R5, R6, PC} 
    /*00000054*/ MOV         R5, R4 
    /*00000058*/ LDR         R3, [R5], #8 
    /*0000005c*/ LDR         R3, [R3, #8] 
    /*00000060*/ BLX         R3 
    /*00000064*/ DMB         ISH 
    _ZNSt16_Sp_counted_baseILN9__gnu_cxx12_Lock_policyE2EE10_M_releaseEv_x68:
    /*00000068*/ LDREX       R3, [R5] 
    /*0000006c*/ SUB         R2, R3, #1 
    /*00000070*/ STREX       R1, R2, [R5] 
    /*00000074*/ CMP         R1, #0 
    /*00000078*/ BNE         _ZNSt16_Sp_counted_baseILN9__gnu_cxx12_Lock_policyE2EE10_M_releaseEv_x68
    /*0000007c*/ DMB         ISH 
    _ZNSt16_Sp_counted_baseILN9__gnu_cxx12_Lock_policyE2EE10_M_releaseEv_x80:
    /*00000080*/ CMP         R3, #1 
    /*00000084*/ POPNE       {R4, R5, R6, PC} 
    /*00000088*/ LDR         R3, [R4] 
    /*0000008c*/ MOV         R0, R4 
    /*00000090*/ POP         {R4, R5, R6, LR} 
    /*00000094*/ LDR         R3, [R3, #12] 
    /*00000098*/ BX          R3 
    _ZNSt16_Sp_counted_baseILN9__gnu_cxx12_Lock_policyE2EE10_M_releaseEv_x9c:
    /*0000009c*/ LDR         R3, [R0, #4] 
    /*000000a0*/ CMP         R3, #1 
    /*000000a4*/ SUB         R3, R3, #1 
    /*000000a8*/ STR         R3, [R0, #4] 
    /*000000ac*/ POPNE       {R4, R5, R6, PC} 
    /*000000b0*/ LDR         R3, [R0] 
    /*000000b4*/ LDR         R3, [R3, #8] 
    /*000000b8*/ BLX         R3 
    /*000000bc*/ LDR         R3, [R4, #8] 
    /*000000c0*/ SUB         R2, R3, #1 
    /*000000c4*/ STR         R2, [R4, #8] 
    /*000000c8*/ B           _ZNSt16_Sp_counted_baseILN9__gnu_cxx12_Lock_policyE2EE10_M_releaseEv_x80
    /*000000cc*/ WORD_00cc: .word 0x000000a8
    /*000000d0*/ WORD_00d0: .word 0x00000000
FUNC_END _ZNSt16_Sp_counted_baseILN9__gnu_cxx12_Lock_policyE2EE10_M_releaseEv


@ - - - - - - - - - - - - - - - - - - - - - - - - - - - - - 
@ .text._ZNSt8__detail9_ExecutorIN9__gnu_cxx17__normal_iteratorIPKcNSt7__cxx1112basic_stringIcSt11char_traitsIcESaIcEEEEESaINS5_9sub_matchISB_EEENS5_12regex_traitsIcEELb0EED2Ev
@ Size: 0x8c
@ - - - - - - - - - - - - - - - - - - - - - - - - - - - - - 

FUNC_BEGIN _ZNSt8__detail9_ExecutorIN9__gnu_cxx17__normal_iteratorIPKcNSt7__cxx1112basic_stringIcSt11char_traitsIcESaIcEEEEESaINS5_9sub_matchISB_EEENS5_12regex_traitsIcEELb0EED2Ev
    /*00000000*/ MOV         IP, #16384                  @ 0x4000 
    /*00000004*/ PUSH        {R4, R5, R6, LR} 
    /*00000008*/ SUB         IP, SP, IP 
    /*0000000c*/ STR         R0, [IP, #4080]             @ 0xff0 
    /*00000010*/ MOV         R6, R0 
    /*00000014*/ LDR         R0, [R0, #60]               @ 0x3c 
    /*00000018*/ CMP         R0, #0 
    /*0000001c*/ BEQ         _ZNSt8__detail9_ExecutorIN9__gnu_cxx17__normal_iteratorIPKcNSt7__cxx1112basic_stringIcSt11char_traitsIcESaIcEEEEESaINS5_9sub_matchISB_EEENS5_12regex_traitsIcEELb0EED2Ev_x24
    /*00000020*/ BL          _ZdaPv
    _ZNSt8__detail9_ExecutorIN9__gnu_cxx17__normal_iteratorIPKcNSt7__cxx1112basic_stringIcSt11char_traitsIcESaIcEEEEESaINS5_9sub_matchISB_EEENS5_12regex_traitsIcEELb0EED2Ev_x24:
    /*00000024*/ LDR         R4, [R6, #48]               @ 0x30 
    /*00000028*/ LDR         R5, [R6, #52]               @ 0x34 
    /*0000002c*/ CMP         R4, R5 
    /*00000030*/ BEQ         _ZNSt8__detail9_ExecutorIN9__gnu_cxx17__normal_iteratorIPKcNSt7__cxx1112basic_stringIcSt11char_traitsIcESaIcEEEEESaINS5_9sub_matchISB_EEENS5_12regex_traitsIcEELb0EED2Ev_x54
    _ZNSt8__detail9_ExecutorIN9__gnu_cxx17__normal_iteratorIPKcNSt7__cxx1112basic_stringIcSt11char_traitsIcESaIcEEEEESaINS5_9sub_matchISB_EEENS5_12regex_traitsIcEELb0EED2Ev_x34:
    /*00000034*/ LDR         R0, [R4, #4] 
    /*00000038*/ ADD         R4, R4, #16 
    /*0000003c*/ CMP         R0, #0 
    /*00000040*/ BEQ         _ZNSt8__detail9_ExecutorIN9__gnu_cxx17__normal_iteratorIPKcNSt7__cxx1112basic_stringIcSt11char_traitsIcESaIcEEEEESaINS5_9sub_matchISB_EEENS5_12regex_traitsIcEELb0EED2Ev_x48
    /*00000044*/ BL          _ZdlPv
    _ZNSt8__detail9_ExecutorIN9__gnu_cxx17__normal_iteratorIPKcNSt7__cxx1112basic_stringIcSt11char_traitsIcESaIcEEEEESaINS5_9sub_matchISB_EEENS5_12regex_traitsIcEELb0EED2Ev_x48:
    /*00000048*/ CMP         R5, R4 
    /*0000004c*/ BNE         _ZNSt8__detail9_ExecutorIN9__gnu_cxx17__normal_iteratorIPKcNSt7__cxx1112basic_stringIcSt11char_traitsIcESaIcEEEEESaINS5_9sub_matchISB_EEENS5_12regex_traitsIcEELb0EED2Ev_x34
    /*00000050*/ LDR         R5, [R6, #48]               @ 0x30 
    _ZNSt8__detail9_ExecutorIN9__gnu_cxx17__normal_iteratorIPKcNSt7__cxx1112basic_stringIcSt11char_traitsIcESaIcEEEEESaINS5_9sub_matchISB_EEENS5_12regex_traitsIcEELb0EED2Ev_x54:
    /*00000054*/ CMP         R5, #0 
    /*00000058*/ BEQ         _ZNSt8__detail9_ExecutorIN9__gnu_cxx17__normal_iteratorIPKcNSt7__cxx1112basic_stringIcSt11char_traitsIcESaIcEEEEESaINS5_9sub_matchISB_EEENS5_12regex_traitsIcEELb0EED2Ev_x64
    /*0000005c*/ MOV         R0, R5 
    /*00000060*/ BL          _ZdlPv
    _ZNSt8__detail9_ExecutorIN9__gnu_cxx17__normal_iteratorIPKcNSt7__cxx1112basic_stringIcSt11char_traitsIcESaIcEEEEESaINS5_9sub_matchISB_EEENS5_12regex_traitsIcEELb0EED2Ev_x64:
    /*00000064*/ LDR         R0, [R6, #36]               @ 0x24 
    /*00000068*/ CMP         R0, #0 
    /*0000006c*/ BEQ         _ZNSt8__detail9_ExecutorIN9__gnu_cxx17__normal_iteratorIPKcNSt7__cxx1112basic_stringIcSt11char_traitsIcESaIcEEEEESaINS5_9sub_matchISB_EEENS5_12regex_traitsIcEELb0EED2Ev_x74
    /*00000070*/ BL          _ZdlPv
    _ZNSt8__detail9_ExecutorIN9__gnu_cxx17__normal_iteratorIPKcNSt7__cxx1112basic_stringIcSt11char_traitsIcESaIcEEEEESaINS5_9sub_matchISB_EEENS5_12regex_traitsIcEELb0EED2Ev_x74:
    /*00000074*/ LDR         R0, [R6] 
    /*00000078*/ CMP         R0, #0 
    /*0000007c*/ BEQ         _ZNSt8__detail9_ExecutorIN9__gnu_cxx17__normal_iteratorIPKcNSt7__cxx1112basic_stringIcSt11char_traitsIcESaIcEEEEESaINS5_9sub_matchISB_EEENS5_12regex_traitsIcEELb0EED2Ev_x84
    /*00000080*/ BL          _ZdlPv
    _ZNSt8__detail9_ExecutorIN9__gnu_cxx17__normal_iteratorIPKcNSt7__cxx1112basic_stringIcSt11char_traitsIcESaIcEEEEESaINS5_9sub_matchISB_EEENS5_12regex_traitsIcEELb0EED2Ev_x84:
    /*00000084*/ MOV         R0, R6 
    /*00000088*/ POP         {R4, R5, R6, PC} 
FUNC_END _ZNSt8__detail9_ExecutorIN9__gnu_cxx17__normal_iteratorIPKcNSt7__cxx1112basic_stringIcSt11char_traitsIcESaIcEEEEESaINS5_9sub_matchISB_EEENS5_12regex_traitsIcEELb0EED2Ev


FUNC_BEGIN _ZNSt8__detail9_ExecutorIN9__gnu_cxx17__normal_iteratorIPKcNSt7__cxx1112basic_stringIcSt11char_traitsIcESaIcEEEEESaINS5_9sub_matchISB_EEENS5_12regex_traitsIcEELb0EED1Ev
    /*00000000*/ MOV         IP, #16384                  @ 0x4000 
    /*00000004*/ PUSH        {R4, R5, R6, LR} 
    /*00000008*/ SUB         IP, SP, IP 
    /*0000000c*/ STR         R0, [IP, #4080]             @ 0xff0 
    /*00000010*/ MOV         R6, R0 
    /*00000014*/ LDR         R0, [R0, #60]               @ 0x3c 
    /*00000018*/ CMP         R0, #0 
    /*0000001c*/ BEQ         _ZNSt8__detail9_ExecutorIN9__gnu_cxx17__normal_iteratorIPKcNSt7__cxx1112basic_stringIcSt11char_traitsIcESaIcEEEEESaINS5_9sub_matchISB_EEENS5_12regex_traitsIcEELb0EED1Ev_x24
    /*00000020*/ BL          _ZdaPv
    _ZNSt8__detail9_ExecutorIN9__gnu_cxx17__normal_iteratorIPKcNSt7__cxx1112basic_stringIcSt11char_traitsIcESaIcEEEEESaINS5_9sub_matchISB_EEENS5_12regex_traitsIcEELb0EED1Ev_x24:
    /*00000024*/ LDR         R4, [R6, #48]               @ 0x30 
    /*00000028*/ LDR         R5, [R6, #52]               @ 0x34 
    /*0000002c*/ CMP         R4, R5 
    /*00000030*/ BEQ         _ZNSt8__detail9_ExecutorIN9__gnu_cxx17__normal_iteratorIPKcNSt7__cxx1112basic_stringIcSt11char_traitsIcESaIcEEEEESaINS5_9sub_matchISB_EEENS5_12regex_traitsIcEELb0EED1Ev_x54
    _ZNSt8__detail9_ExecutorIN9__gnu_cxx17__normal_iteratorIPKcNSt7__cxx1112basic_stringIcSt11char_traitsIcESaIcEEEEESaINS5_9sub_matchISB_EEENS5_12regex_traitsIcEELb0EED1Ev_x34:
    /*00000034*/ LDR         R0, [R4, #4] 
    /*00000038*/ ADD         R4, R4, #16 
    /*0000003c*/ CMP         R0, #0 
    /*00000040*/ BEQ         _ZNSt8__detail9_ExecutorIN9__gnu_cxx17__normal_iteratorIPKcNSt7__cxx1112basic_stringIcSt11char_traitsIcESaIcEEEEESaINS5_9sub_matchISB_EEENS5_12regex_traitsIcEELb0EED1Ev_x48
    /*00000044*/ BL          _ZdlPv
    _ZNSt8__detail9_ExecutorIN9__gnu_cxx17__normal_iteratorIPKcNSt7__cxx1112basic_stringIcSt11char_traitsIcESaIcEEEEESaINS5_9sub_matchISB_EEENS5_12regex_traitsIcEELb0EED1Ev_x48:
    /*00000048*/ CMP         R5, R4 
    /*0000004c*/ BNE         _ZNSt8__detail9_ExecutorIN9__gnu_cxx17__normal_iteratorIPKcNSt7__cxx1112basic_stringIcSt11char_traitsIcESaIcEEEEESaINS5_9sub_matchISB_EEENS5_12regex_traitsIcEELb0EED1Ev_x34
    /*00000050*/ LDR         R5, [R6, #48]               @ 0x30 
    _ZNSt8__detail9_ExecutorIN9__gnu_cxx17__normal_iteratorIPKcNSt7__cxx1112basic_stringIcSt11char_traitsIcESaIcEEEEESaINS5_9sub_matchISB_EEENS5_12regex_traitsIcEELb0EED1Ev_x54:
    /*00000054*/ CMP         R5, #0 
    /*00000058*/ BEQ         _ZNSt8__detail9_ExecutorIN9__gnu_cxx17__normal_iteratorIPKcNSt7__cxx1112basic_stringIcSt11char_traitsIcESaIcEEEEESaINS5_9sub_matchISB_EEENS5_12regex_traitsIcEELb0EED1Ev_x64
    /*0000005c*/ MOV         R0, R5 
    /*00000060*/ BL          _ZdlPv
    _ZNSt8__detail9_ExecutorIN9__gnu_cxx17__normal_iteratorIPKcNSt7__cxx1112basic_stringIcSt11char_traitsIcESaIcEEEEESaINS5_9sub_matchISB_EEENS5_12regex_traitsIcEELb0EED1Ev_x64:
    /*00000064*/ LDR         R0, [R6, #36]               @ 0x24 
    /*00000068*/ CMP         R0, #0 
    /*0000006c*/ BEQ         _ZNSt8__detail9_ExecutorIN9__gnu_cxx17__normal_iteratorIPKcNSt7__cxx1112basic_stringIcSt11char_traitsIcESaIcEEEEESaINS5_9sub_matchISB_EEENS5_12regex_traitsIcEELb0EED1Ev_x74
    /*00000070*/ BL          _ZdlPv
    _ZNSt8__detail9_ExecutorIN9__gnu_cxx17__normal_iteratorIPKcNSt7__cxx1112basic_stringIcSt11char_traitsIcESaIcEEEEESaINS5_9sub_matchISB_EEENS5_12regex_traitsIcEELb0EED1Ev_x74:
    /*00000074*/ LDR         R0, [R6] 
    /*00000078*/ CMP         R0, #0 
    /*0000007c*/ BEQ         _ZNSt8__detail9_ExecutorIN9__gnu_cxx17__normal_iteratorIPKcNSt7__cxx1112basic_stringIcSt11char_traitsIcESaIcEEEEESaINS5_9sub_matchISB_EEENS5_12regex_traitsIcEELb0EED1Ev_x84
    /*00000080*/ BL          _ZdlPv
    _ZNSt8__detail9_ExecutorIN9__gnu_cxx17__normal_iteratorIPKcNSt7__cxx1112basic_stringIcSt11char_traitsIcESaIcEEEEESaINS5_9sub_matchISB_EEENS5_12regex_traitsIcEELb0EED1Ev_x84:
    /*00000084*/ MOV         R0, R6 
    /*00000088*/ POP         {R4, R5, R6, PC} 
FUNC_END _ZNSt8__detail9_ExecutorIN9__gnu_cxx17__normal_iteratorIPKcNSt7__cxx1112basic_stringIcSt11char_traitsIcESaIcEEEEESaINS5_9sub_matchISB_EEENS5_12regex_traitsIcEELb0EED1Ev


@ - - - - - - - - - - - - - - - - - - - - - - - - - - - - - 
@ .text._ZNSt8__detail9_ExecutorIN9__gnu_cxx17__normal_iteratorIPKcNSt7__cxx1112basic_stringIcSt11char_traitsIcESaIcEEEEESaINS5_9sub_matchISB_EEENS5_12regex_traitsIcEELb1EED2Ev
@ Size: 0x3c
@ - - - - - - - - - - - - - - - - - - - - - - - - - - - - - 

FUNC_BEGIN _ZNSt8__detail9_ExecutorIN9__gnu_cxx17__normal_iteratorIPKcNSt7__cxx1112basic_stringIcSt11char_traitsIcESaIcEEEEESaINS5_9sub_matchISB_EEENS5_12regex_traitsIcEELb1EED2Ev
    /*00000000*/ MOV         IP, #16384                  @ 0x4000 
    /*00000004*/ PUSH        {R4, LR} 
    /*00000008*/ SUB         IP, SP, IP 
    /*0000000c*/ STR         R0, [IP, #4088]             @ 0xff8 
    /*00000010*/ MOV         R4, R0 
    /*00000014*/ LDR         R0, [R0, #36]               @ 0x24 
    /*00000018*/ CMP         R0, #0 
    /*0000001c*/ BEQ         _ZNSt8__detail9_ExecutorIN9__gnu_cxx17__normal_iteratorIPKcNSt7__cxx1112basic_stringIcSt11char_traitsIcESaIcEEEEESaINS5_9sub_matchISB_EEENS5_12regex_traitsIcEELb1EED2Ev_x24
    /*00000020*/ BL          _ZdlPv
    _ZNSt8__detail9_ExecutorIN9__gnu_cxx17__normal_iteratorIPKcNSt7__cxx1112basic_stringIcSt11char_traitsIcESaIcEEEEESaINS5_9sub_matchISB_EEENS5_12regex_traitsIcEELb1EED2Ev_x24:
    /*00000024*/ LDR         R0, [R4] 
    /*00000028*/ CMP         R0, #0 
    /*0000002c*/ BEQ         _ZNSt8__detail9_ExecutorIN9__gnu_cxx17__normal_iteratorIPKcNSt7__cxx1112basic_stringIcSt11char_traitsIcESaIcEEEEESaINS5_9sub_matchISB_EEENS5_12regex_traitsIcEELb1EED2Ev_x34
    /*00000030*/ BL          _ZdlPv
    _ZNSt8__detail9_ExecutorIN9__gnu_cxx17__normal_iteratorIPKcNSt7__cxx1112basic_stringIcSt11char_traitsIcESaIcEEEEESaINS5_9sub_matchISB_EEENS5_12regex_traitsIcEELb1EED2Ev_x34:
    /*00000034*/ MOV         R0, R4 
    /*00000038*/ POP         {R4, PC} 
FUNC_END _ZNSt8__detail9_ExecutorIN9__gnu_cxx17__normal_iteratorIPKcNSt7__cxx1112basic_stringIcSt11char_traitsIcESaIcEEEEESaINS5_9sub_matchISB_EEENS5_12regex_traitsIcEELb1EED2Ev


FUNC_BEGIN _ZNSt8__detail9_ExecutorIN9__gnu_cxx17__normal_iteratorIPKcNSt7__cxx1112basic_stringIcSt11char_traitsIcESaIcEEEEESaINS5_9sub_matchISB_EEENS5_12regex_traitsIcEELb1EED1Ev
    /*00000000*/ MOV         IP, #16384                  @ 0x4000 
    /*00000004*/ PUSH        {R4, LR} 
    /*00000008*/ SUB         IP, SP, IP 
    /*0000000c*/ STR         R0, [IP, #4088]             @ 0xff8 
    /*00000010*/ MOV         R4, R0 
    /*00000014*/ LDR         R0, [R0, #36]               @ 0x24 
    /*00000018*/ CMP         R0, #0 
    /*0000001c*/ BEQ         _ZNSt8__detail9_ExecutorIN9__gnu_cxx17__normal_iteratorIPKcNSt7__cxx1112basic_stringIcSt11char_traitsIcESaIcEEEEESaINS5_9sub_matchISB_EEENS5_12regex_traitsIcEELb1EED1Ev_x24
    /*00000020*/ BL          _ZdlPv
    _ZNSt8__detail9_ExecutorIN9__gnu_cxx17__normal_iteratorIPKcNSt7__cxx1112basic_stringIcSt11char_traitsIcESaIcEEEEESaINS5_9sub_matchISB_EEENS5_12regex_traitsIcEELb1EED1Ev_x24:
    /*00000024*/ LDR         R0, [R4] 
    /*00000028*/ CMP         R0, #0 
    /*0000002c*/ BEQ         _ZNSt8__detail9_ExecutorIN9__gnu_cxx17__normal_iteratorIPKcNSt7__cxx1112basic_stringIcSt11char_traitsIcESaIcEEEEESaINS5_9sub_matchISB_EEENS5_12regex_traitsIcEELb1EED1Ev_x34
    /*00000030*/ BL          _ZdlPv
    _ZNSt8__detail9_ExecutorIN9__gnu_cxx17__normal_iteratorIPKcNSt7__cxx1112basic_stringIcSt11char_traitsIcESaIcEEEEESaINS5_9sub_matchISB_EEENS5_12regex_traitsIcEELb1EED1Ev_x34:
    /*00000034*/ MOV         R0, R4 
    /*00000038*/ POP         {R4, PC} 
FUNC_END _ZNSt8__detail9_ExecutorIN9__gnu_cxx17__normal_iteratorIPKcNSt7__cxx1112basic_stringIcSt11char_traitsIcESaIcEEEEESaINS5_9sub_matchISB_EEENS5_12regex_traitsIcEELb1EED1Ev


@ - - - - - - - - - - - - - - - - - - - - - - - - - - - - - 
@ .text._ZNSt6vectorIiSaIiEE19_M_emplace_back_auxIJiEEEvDpOT_
@ Size: 0xd4
@ - - - - - - - - - - - - - - - - - - - - - - - - - - - - - 

FUNC_BEGIN _ZNSt6vectorIiSaIiEE19_M_emplace_back_auxIJiEEEvDpOT_
    /*00000000*/ MOV         IP, #16384                  @ 0x4000 
    /*00000004*/ PUSH        {R4, R5, R6, R7, R8, R9, SL, LR} 
    /*00000008*/ SUB         IP, SP, IP 
    /*0000000c*/ STR         R0, [IP, #4064]             @ 0xfe0 
    /*00000010*/ LDM         R0, {R2, R3} 
    /*00000014*/ MOV         R6, R0 
    /*00000018*/ MOV         R9, R1 
    /*0000001c*/ SUB         R3, R3, R2 
    /*00000020*/ ASRS        R3, R3, #2 
    /*00000024*/ BEQ         _ZNSt6vectorIiSaIiEE19_M_emplace_back_auxIJiEEEvDpOT__x3c
    /*00000028*/ LSL         R5, R3, #1 
    /*0000002c*/ CMP         R3, R5 
    /*00000030*/ BLS         _ZNSt6vectorIiSaIiEE19_M_emplace_back_auxIJiEEEvDpOT__xb8
    _ZNSt6vectorIiSaIiEE19_M_emplace_back_auxIJiEEEvDpOT__x34:
    /*00000034*/ MVN         R5, #3 
    /*00000038*/ B           _ZNSt6vectorIiSaIiEE19_M_emplace_back_auxIJiEEEvDpOT__x40
    _ZNSt6vectorIiSaIiEE19_M_emplace_back_auxIJiEEEvDpOT__x3c:
    /*0000003c*/ MOV         R5, #4 
    _ZNSt6vectorIiSaIiEE19_M_emplace_back_auxIJiEEEvDpOT__x40:
    /*00000040*/ MOV         R0, R5 
    /*00000044*/ BL          _Znwj
    /*00000048*/ MOV         R7, R0 
    _ZNSt6vectorIiSaIiEE19_M_emplace_back_auxIJiEEEvDpOT__x4c:
    /*0000004c*/ LDR         R8, [R6] 
    /*00000050*/ LDR         R4, [R6, #4] 
    /*00000054*/ LDR         R2, [R9] 
    /*00000058*/ SUB         R4, R4, R8 
    /*0000005c*/ CMN         R7, R4 
    /*00000060*/ ASR         R3, R4, #2 
    /*00000064*/ STRNE       R2, [R7, R4] 
    /*00000068*/ CMP         R3, #0 
    /*0000006c*/ BNE         _ZNSt6vectorIiSaIiEE19_M_emplace_back_auxIJiEEEvDpOT__x9c
    /*00000070*/ CMP         R8, #0 
    /*00000074*/ ADD         R4, R4, #4 
    /*00000078*/ ADD         R4, R7, R4 
    /*0000007c*/ BEQ         _ZNSt6vectorIiSaIiEE19_M_emplace_back_auxIJiEEEvDpOT__x88
    _ZNSt6vectorIiSaIiEE19_M_emplace_back_auxIJiEEEvDpOT__x80:
    /*00000080*/ MOV         R0, R8 
    /*00000084*/ BL          _ZdlPv
    _ZNSt6vectorIiSaIiEE19_M_emplace_back_auxIJiEEEvDpOT__x88:
    /*00000088*/ ADD         R5, R7, R5 
    /*0000008c*/ STR         R5, [R6, #8] 
    /*00000090*/ STR         R7, [R6] 
    /*00000094*/ STR         R4, [R6, #4] 
    /*00000098*/ POP         {R4, R5, R6, R7, R8, R9, SL, PC} 
    _ZNSt6vectorIiSaIiEE19_M_emplace_back_auxIJiEEEvDpOT__x9c:
    /*0000009c*/ MOV         R2, R4 
    /*000000a0*/ MOV         R1, R8 
    /*000000a4*/ MOV         R0, R7 
    /*000000a8*/ ADD         R4, R4, #4 
    /*000000ac*/ ADD         R4, R7, R4 
    /*000000b0*/ BL          memmove
    /*000000b4*/ B           _ZNSt6vectorIiSaIiEE19_M_emplace_back_auxIJiEEEvDpOT__x80
    _ZNSt6vectorIiSaIiEE19_M_emplace_back_auxIJiEEEvDpOT__xb8:
    /*000000b8*/ CMN         R5, #-1073741823            @ 0xc0000001 
    /*000000bc*/ BHI         _ZNSt6vectorIiSaIiEE19_M_emplace_back_auxIJiEEEvDpOT__x34
    /*000000c0*/ CMP         R5, #0 
    /*000000c4*/ LSLNE       R5, R3, #3 
    /*000000c8*/ BNE         _ZNSt6vectorIiSaIiEE19_M_emplace_back_auxIJiEEEvDpOT__x40
    /*000000cc*/ MOV         R7, R5 
    /*000000d0*/ B           _ZNSt6vectorIiSaIiEE19_M_emplace_back_auxIJiEEEvDpOT__x4c
FUNC_END _ZNSt6vectorIiSaIiEE19_M_emplace_back_auxIJiEEEvDpOT_


@ - - - - - - - - - - - - - - - - - - - - - - - - - - - - - 
@ .text._ZNKSt7__cxx1114regex_iteratorIN9__gnu_cxx17__normal_iteratorIPKcNS_12basic_stringIcSt11char_traitsIcESaIcEEEEEcNS_12regex_traitsIcEEEeqERKSD_
@ Size: 0x248
@ - - - - - - - - - - - - - - - - - - - - - - - - - - - - - 

FUNC_BEGIN _ZNKSt7__cxx1114regex_iteratorIN9__gnu_cxx17__normal_iteratorIPKcNS_12basic_stringIcSt11char_traitsIcESaIcEEEEEcNS_12regex_traitsIcEEEeqERKSD_
    /*00000000*/ MOV         IP, #16384                  @ 0x4000 
    /*00000004*/ PUSH        {R4, R5, R6, R7, R8, LR} 
    /*00000008*/ SUB         IP, SP, IP 
    /*0000000c*/ STR         R0, [IP, #4016]             @ 0xfb0 
    /*00000010*/ LDR         R3, WORD_0240               @ LDR         R3, [PC, #552]              @ 0x0000000000000240 
    /*00000014*/ SUB         SP, SP, #56                 @ 0x38 
    /*00000018*/ LDR         R2, WORD_0244               @ LDR         R2, [PC, #548]              @ 0x0000000000000244 
    /*0000001c*/ ADD         R3, PC, R3 
    /*00000020*/ LDR         IP, [R0, #16] 
    /*00000024*/ LDR         R4, [R3, R2] 
    /*00000028*/ LDR         LR, [R0, #20] 
    /*0000002c*/ LDR         R3, [R4] 
    /*00000030*/ CMP         LR, IP 
    /*00000034*/ STR         R3, [SP, #52]               @ 0x34 
    /*00000038*/ BEQ         _ZNKSt7__cxx1114regex_iteratorIN9__gnu_cxx17__normal_iteratorIPKcNS_12basic_stringIcSt11char_traitsIcESaIcEEEEEcNS_12regex_traitsIcEEEeqERKSD__x84
    /*0000003c*/ SUB         R3, LR, IP 
    /*00000040*/ MOVW        R2, #43691                  @ 0xaaab 
    /*00000044*/ MOVT        R2, #43690                  @ 0xaaaa 
    /*00000048*/ ASR         R3, R3, #2 
    /*0000004c*/ MUL         R3, R2, R3 
    /*00000050*/ SUBS        R3, R3, #3 
    /*00000054*/ BEQ         _ZNKSt7__cxx1114regex_iteratorIN9__gnu_cxx17__normal_iteratorIPKcNS_12basic_stringIcSt11char_traitsIcESaIcEEEEEcNS_12regex_traitsIcEEEeqERKSD__x84
    /*00000058*/ LDR         R5, [R0] 
    /*0000005c*/ LDR         R2, [R1] 
    /*00000060*/ CMP         R5, R2 
    /*00000064*/ BEQ         _ZNKSt7__cxx1114regex_iteratorIN9__gnu_cxx17__normal_iteratorIPKcNS_12basic_stringIcSt11char_traitsIcESaIcEEEEEcNS_12regex_traitsIcEEEeqERKSD__xc4
    _ZNKSt7__cxx1114regex_iteratorIN9__gnu_cxx17__normal_iteratorIPKcNS_12basic_stringIcSt11char_traitsIcESaIcEEEEEcNS_12regex_traitsIcEEEeqERKSD__x68:
    /*00000068*/ MOV         R0, #0 
    _ZNKSt7__cxx1114regex_iteratorIN9__gnu_cxx17__normal_iteratorIPKcNS_12basic_stringIcSt11char_traitsIcESaIcEEEEEcNS_12regex_traitsIcEEEeqERKSD__x6c:
    /*0000006c*/ LDR         R2, [SP, #52]               @ 0x34 
    /*00000070*/ LDR         R3, [R4] 
    /*00000074*/ CMP         R2, R3 
    /*00000078*/ BNE         _ZNKSt7__cxx1114regex_iteratorIN9__gnu_cxx17__normal_iteratorIPKcNS_12basic_stringIcSt11char_traitsIcESaIcEEEEEcNS_12regex_traitsIcEEEeqERKSD__x228
    /*0000007c*/ ADD         SP, SP, #56                 @ 0x38 
    /*00000080*/ POP         {R4, R5, R6, R7, R8, PC} 
    _ZNKSt7__cxx1114regex_iteratorIN9__gnu_cxx17__normal_iteratorIPKcNS_12basic_stringIcSt11char_traitsIcESaIcEEEEEcNS_12regex_traitsIcEEEeqERKSD__x84:
    /*00000084*/ LDR         R2, [R1, #16] 
    /*00000088*/ LDR         R3, [R1, #20] 
    /*0000008c*/ CMP         R2, R3 
    /*00000090*/ BEQ         _ZNKSt7__cxx1114regex_iteratorIN9__gnu_cxx17__normal_iteratorIPKcNS_12basic_stringIcSt11char_traitsIcESaIcEEEEEcNS_12regex_traitsIcEEEeqERKSD__x1b4
    /*00000094*/ SUB         R3, R3, R2 
    /*00000098*/ MOVW        R2, #43691                  @ 0xaaab 
    /*0000009c*/ MOVT        R2, #43690                  @ 0xaaaa 
    /*000000a0*/ ASR         R3, R3, #2 
    /*000000a4*/ MUL         R3, R2, R3 
    /*000000a8*/ CMP         R3, #3 
    /*000000ac*/ BEQ         _ZNKSt7__cxx1114regex_iteratorIN9__gnu_cxx17__normal_iteratorIPKcNS_12basic_stringIcSt11char_traitsIcESaIcEEEEEcNS_12regex_traitsIcEEEeqERKSD__x1b4
    /*000000b0*/ LDR         R5, [R0] 
    /*000000b4*/ MOV         R3, #0 
    /*000000b8*/ LDR         R2, [R1] 
    /*000000bc*/ CMP         R5, R2 
    /*000000c0*/ BNE         _ZNKSt7__cxx1114regex_iteratorIN9__gnu_cxx17__normal_iteratorIPKcNS_12basic_stringIcSt11char_traitsIcESaIcEEEEEcNS_12regex_traitsIcEEEeqERKSD__x68
    _ZNKSt7__cxx1114regex_iteratorIN9__gnu_cxx17__normal_iteratorIPKcNS_12basic_stringIcSt11char_traitsIcESaIcEEEEEcNS_12regex_traitsIcEEEeqERKSD__xc4:
    /*000000c4*/ LDR         R5, [R0, #4] 
    /*000000c8*/ LDR         R2, [R1, #4] 
    /*000000cc*/ CMP         R5, R2 
    /*000000d0*/ BNE         _ZNKSt7__cxx1114regex_iteratorIN9__gnu_cxx17__normal_iteratorIPKcNS_12basic_stringIcSt11char_traitsIcESaIcEEEEEcNS_12regex_traitsIcEEEeqERKSD__x68
    /*000000d4*/ LDR         R5, [R0, #8] 
    /*000000d8*/ LDR         R2, [R1, #8] 
    /*000000dc*/ CMP         R5, R2 
    /*000000e0*/ BNE         _ZNKSt7__cxx1114regex_iteratorIN9__gnu_cxx17__normal_iteratorIPKcNS_12basic_stringIcSt11char_traitsIcESaIcEEEEEcNS_12regex_traitsIcEEEeqERKSD__x68
    /*000000e4*/ LDR         R0, [R0, #12] 
    /*000000e8*/ LDR         R2, [R1, #12] 
    /*000000ec*/ CMP         R0, R2 
    /*000000f0*/ BNE         _ZNKSt7__cxx1114regex_iteratorIN9__gnu_cxx17__normal_iteratorIPKcNS_12basic_stringIcSt11char_traitsIcESaIcEEEEEcNS_12regex_traitsIcEEEeqERKSD__x68
    /*000000f4*/ CMP         R3, #0 
    /*000000f8*/ BNE         _ZNKSt7__cxx1114regex_iteratorIN9__gnu_cxx17__normal_iteratorIPKcNS_12basic_stringIcSt11char_traitsIcESaIcEEEEEcNS_12regex_traitsIcEEEeqERKSD__x11c
    /*000000fc*/ SUB         R3, LR, IP 
    /*00000100*/ MOVW        R2, #43691                  @ 0xaaab 
    /*00000104*/ MOVT        R2, #43690                  @ 0xaaaa 
    /*00000108*/ MOV         R0, #12 
    /*0000010c*/ ASR         R3, R3, #2 
    /*00000110*/ MUL         R3, R2, R3 
    /*00000114*/ SUB         R3, R3, #3 
    /*00000118*/ MLA         IP, R0, R3, IP 
    _ZNKSt7__cxx1114regex_iteratorIN9__gnu_cxx17__normal_iteratorIPKcNS_12basic_stringIcSt11char_traitsIcESaIcEEEEEcNS_12regex_traitsIcEEEeqERKSD__x11c:
    /*0000011c*/ LDR         R3, [R1, #20] 
    /*00000120*/ LDR         R0, [R1, #16] 
    /*00000124*/ CMP         R0, R3 
    /*00000128*/ MOVEQ       R3, #0 
    /*0000012c*/ BEQ         _ZNKSt7__cxx1114regex_iteratorIN9__gnu_cxx17__normal_iteratorIPKcNS_12basic_stringIcSt11char_traitsIcESaIcEEEEEcNS_12regex_traitsIcEEEeqERKSD__x1bc
    /*00000130*/ SUB         R2, R3, R0 
    /*00000134*/ MOVW        R3, #43691                  @ 0xaaab 
    /*00000138*/ MOVT        R3, #43690                  @ 0xaaaa 
    /*0000013c*/ ASR         R2, R2, #2 
    /*00000140*/ MUL         R3, R3, R2 
    /*00000144*/ CMP         R3, #3 
    /*00000148*/ MOVNE       R5, R0 
    /*0000014c*/ BEQ         _ZNKSt7__cxx1114regex_iteratorIN9__gnu_cxx17__normal_iteratorIPKcNS_12basic_stringIcSt11char_traitsIcESaIcEEEEEcNS_12regex_traitsIcEEEeqERKSD__x1bc
    _ZNKSt7__cxx1114regex_iteratorIN9__gnu_cxx17__normal_iteratorIPKcNS_12basic_stringIcSt11char_traitsIcESaIcEEEEEcNS_12regex_traitsIcEEEeqERKSD__x150:
    /*00000150*/ LDRB        R3, [IP, #8] 
    /*00000154*/ CMP         R3, #0 
    /*00000158*/ BNE         _ZNKSt7__cxx1114regex_iteratorIN9__gnu_cxx17__normal_iteratorIPKcNS_12basic_stringIcSt11char_traitsIcESaIcEEEEEcNS_12regex_traitsIcEEEeqERKSD__x20c
    /*0000015c*/ STR         R3, [SP, #32] 
    /*00000160*/ ADD         R6, SP, #36                 @ 0x24 
    /*00000164*/ STRB        R3, [SP, #36]               @ 0x24 
    /*00000168*/ STR         R6, [SP, #28] 
    _ZNKSt7__cxx1114regex_iteratorIN9__gnu_cxx17__normal_iteratorIPKcNS_12basic_stringIcSt11char_traitsIcESaIcEEEEEcNS_12regex_traitsIcEEEeqERKSD__x16c:
    /*0000016c*/ LDRB        R3, [R5, #8] 
    /*00000170*/ CMP         R3, #0 
    /*00000174*/ BNE         _ZNKSt7__cxx1114regex_iteratorIN9__gnu_cxx17__normal_iteratorIPKcNS_12basic_stringIcSt11char_traitsIcESaIcEEEEEcNS_12regex_traitsIcEEEeqERKSD__x1cc
    /*00000178*/ STR         R3, [SP, #8] 
    /*0000017c*/ ADD         R1, SP, #4 
    /*00000180*/ STRB        R3, [SP, #12] 
    /*00000184*/ ADD         R0, SP, #28 
    /*00000188*/ ADD         R3, SP, #12 
    /*0000018c*/ STR         R3, [SP, #4] 
    /*00000190*/ BL          _ZNKSt7__cxx1112basic_stringIcSt11char_traitsIcESaIcEE7compareERKS4_
    /*00000194*/ MOV         R5, R0 
    _ZNKSt7__cxx1114regex_iteratorIN9__gnu_cxx17__normal_iteratorIPKcNS_12basic_stringIcSt11char_traitsIcESaIcEEEEEcNS_12regex_traitsIcEEEeqERKSD__x198:
    /*00000198*/ LDR         R0, [SP, #28] 
    /*0000019c*/ CMP         R0, R6 
    /*000001a0*/ BEQ         _ZNKSt7__cxx1114regex_iteratorIN9__gnu_cxx17__normal_iteratorIPKcNS_12basic_stringIcSt11char_traitsIcESaIcEEEEEcNS_12regex_traitsIcEEEeqERKSD__x1a8
    /*000001a4*/ BL          _ZdlPv
    _ZNKSt7__cxx1114regex_iteratorIN9__gnu_cxx17__normal_iteratorIPKcNS_12basic_stringIcSt11char_traitsIcESaIcEEEEEcNS_12regex_traitsIcEEEeqERKSD__x1a8:
    /*000001a8*/ CLZ         R0, R5 
    /*000001ac*/ LSR         R0, R0, #5 
    /*000001b0*/ B           _ZNKSt7__cxx1114regex_iteratorIN9__gnu_cxx17__normal_iteratorIPKcNS_12basic_stringIcSt11char_traitsIcESaIcEEEEEcNS_12regex_traitsIcEEEeqERKSD__x6c
    _ZNKSt7__cxx1114regex_iteratorIN9__gnu_cxx17__normal_iteratorIPKcNS_12basic_stringIcSt11char_traitsIcESaIcEEEEEcNS_12regex_traitsIcEEEeqERKSD__x1b4:
    /*000001b4*/ MOV         R0, #1 
    /*000001b8*/ B           _ZNKSt7__cxx1114regex_iteratorIN9__gnu_cxx17__normal_iteratorIPKcNS_12basic_stringIcSt11char_traitsIcESaIcEEEEEcNS_12regex_traitsIcEEEeqERKSD__x6c
    _ZNKSt7__cxx1114regex_iteratorIN9__gnu_cxx17__normal_iteratorIPKcNS_12basic_stringIcSt11char_traitsIcESaIcEEEEEcNS_12regex_traitsIcEEEeqERKSD__x1bc:
    /*000001bc*/ SUB         R3, R3, #3 
    /*000001c0*/ MOV         R5, #12 
    /*000001c4*/ MLA         R5, R5, R3, R0 
    /*000001c8*/ B           _ZNKSt7__cxx1114regex_iteratorIN9__gnu_cxx17__normal_iteratorIPKcNS_12basic_stringIcSt11char_traitsIcESaIcEEEEEcNS_12regex_traitsIcEEEeqERKSD__x150
    _ZNKSt7__cxx1114regex_iteratorIN9__gnu_cxx17__normal_iteratorIPKcNS_12basic_stringIcSt11char_traitsIcESaIcEEEEEcNS_12regex_traitsIcEEEeqERKSD__x1cc:
    /*000001cc*/ LDR         R1, [R5] 
    /*000001d0*/ ADD         R8, SP, #4 
    /*000001d4*/ LDR         R2, [R5, #4] 
    /*000001d8*/ ADD         R7, SP, #12 
    /*000001dc*/ STR         R7, [SP, #4] 
    /*000001e0*/ MOV         R0, R8 
    /*000001e4*/ BL          _ZNSt7__cxx1112basic_stringIcSt11char_traitsIcESaIcEE12_M_constructIN9__gnu_cxx17__normal_iteratorIPKcS4_EEEEvT_SB_St20forward_iterator_tag.isra.139
    /*000001e8*/ MOV         R1, R8 
    /*000001ec*/ ADD         R0, SP, #28 
    /*000001f0*/ BL          _ZNKSt7__cxx1112basic_stringIcSt11char_traitsIcESaIcEE7compareERKS4_
    /*000001f4*/ MOV         R5, R0 
    /*000001f8*/ LDR         R0, [SP, #4] 
    /*000001fc*/ CMP         R0, R7 
    /*00000200*/ BEQ         _ZNKSt7__cxx1114regex_iteratorIN9__gnu_cxx17__normal_iteratorIPKcNS_12basic_stringIcSt11char_traitsIcESaIcEEEEEcNS_12regex_traitsIcEEEeqERKSD__x198
    /*00000204*/ BL          _ZdlPv
    /*00000208*/ B           _ZNKSt7__cxx1114regex_iteratorIN9__gnu_cxx17__normal_iteratorIPKcNS_12basic_stringIcSt11char_traitsIcESaIcEEEEEcNS_12regex_traitsIcEEEeqERKSD__x198
    _ZNKSt7__cxx1114regex_iteratorIN9__gnu_cxx17__normal_iteratorIPKcNS_12basic_stringIcSt11char_traitsIcESaIcEEEEEcNS_12regex_traitsIcEEEeqERKSD__x20c:
    /*0000020c*/ LDR         R1, [IP] 
    /*00000210*/ ADD         R6, SP, #36                 @ 0x24 
    /*00000214*/ LDR         R2, [IP, #4] 
    /*00000218*/ ADD         R0, SP, #28 
    /*0000021c*/ STR         R6, [SP, #28] 
    /*00000220*/ BL          _ZNSt7__cxx1112basic_stringIcSt11char_traitsIcESaIcEE12_M_constructIN9__gnu_cxx17__normal_iteratorIPKcS4_EEEEvT_SB_St20forward_iterator_tag.isra.139
    /*00000224*/ B           _ZNKSt7__cxx1114regex_iteratorIN9__gnu_cxx17__normal_iteratorIPKcNS_12basic_stringIcSt11char_traitsIcESaIcEEEEEcNS_12regex_traitsIcEEEeqERKSD__x16c
    _ZNKSt7__cxx1114regex_iteratorIN9__gnu_cxx17__normal_iteratorIPKcNS_12basic_stringIcSt11char_traitsIcESaIcEEEEEcNS_12regex_traitsIcEEEeqERKSD__x228:
    /*00000228*/ BL          __stack_chk_fail
    /*0000022c*/ LDR         R0, [SP, #28] 
    /*00000230*/ CMP         R0, R6 
    /*00000234*/ BEQ         _ZNKSt7__cxx1114regex_iteratorIN9__gnu_cxx17__normal_iteratorIPKcNS_12basic_stringIcSt11char_traitsIcESaIcEEEEEcNS_12regex_traitsIcEEEeqERKSD__x23c
    /*00000238*/ BL          _ZdlPv
    _ZNKSt7__cxx1114regex_iteratorIN9__gnu_cxx17__normal_iteratorIPKcNS_12basic_stringIcSt11char_traitsIcESaIcEEEEEcNS_12regex_traitsIcEEEeqERKSD__x23c:
    /*0000023c*/ BL          __cxa_end_cleanup
    /*00000240*/ WORD_0240: .word 0x0000021c
    /*00000244*/ WORD_0244: .word 0x00000000
FUNC_END _ZNKSt7__cxx1114regex_iteratorIN9__gnu_cxx17__normal_iteratorIPKcNS_12basic_stringIcSt11char_traitsIcESaIcEEEEEcNS_12regex_traitsIcEEEeqERKSD_


@ - - - - - - - - - - - - - - - - - - - - - - - - - - - - - 
@ .ARM.extab.text._ZNKSt7__cxx1114regex_iteratorIN9__gnu_cxx17__normal_iteratorIPKcNS_12basic_stringIcSt11char_traitsIcESaIcEEEEEcNS_12regex_traitsIcEEEeqERKSD_
@ Size: 0x17
@ - - - - - - - - - - - - - - - - - - - - - - - - - - - - - 

@ - - - - - - - - - - - - - - - - - - - - - - - - - - - - - 
@ .text._ZZNKSt7__cxx1113match_resultsIN9__gnu_cxx17__normal_iteratorIPKcNS_12basic_stringIcSt11char_traitsIcESaIcEEEEESaINS_9sub_matchISA_EEEE6formatISt20back_insert_iteratorIS9_EEET_SI_S4_S4_NSt15regex_constants15match_flag_typeEENKUljE_clEj
@ Size: 0xfc
@ - - - - - - - - - - - - - - - - - - - - - - - - - - - - - 

FUNC_BEGIN _ZZNKSt7__cxx1113match_resultsIN9__gnu_cxx17__normal_iteratorIPKcNS_12basic_stringIcSt11char_traitsIcESaIcEEEEESaINS_9sub_matchISA_EEEE6formatISt20back_insert_iteratorIS9_EEET_SI_S4_S4_NSt15regex_constants15match_flag_typeEENKUljE_clEj
    /*00000000*/ LDR         R2, [R0] 
    /*00000004*/ LDR         R3, [R2] 
    /*00000008*/ LDR         R2, [R2, #4] 
    /*0000000c*/ CMP         R3, R2 
    /*00000010*/ BEQ         _ZZNKSt7__cxx1113match_resultsIN9__gnu_cxx17__normal_iteratorIPKcNS_12basic_stringIcSt11char_traitsIcESaIcEEEEESaINS_9sub_matchISA_EEEE6formatISt20back_insert_iteratorIS9_EEET_SI_S4_S4_NSt15regex_constants15match_flag_typeEENKUljE_clEj_xec
    /*00000014*/ SUB         IP, R2, R3 
    /*00000018*/ MOVW        R2, #43691                  @ 0xaaab 
    /*0000001c*/ MOVT        R2, #43690                  @ 0xaaaa 
    /*00000020*/ ASR         IP, IP, #2 
    /*00000024*/ MUL         R2, R2, IP 
    /*00000028*/ SUB         R2, R2, #3 
    /*0000002c*/ CMP         R1, R2 
    /*00000030*/ BCS         _ZZNKSt7__cxx1113match_resultsIN9__gnu_cxx17__normal_iteratorIPKcNS_12basic_stringIcSt11char_traitsIcESaIcEEEEESaINS_9sub_matchISA_EEEE6formatISt20back_insert_iteratorIS9_EEET_SI_S4_S4_NSt15regex_constants15match_flag_typeEENKUljE_clEj_xf0
    /*00000034*/ MOV         R2, #12 
    /*00000038*/ MLA         R3, R2, R1, R3 
    _ZZNKSt7__cxx1113match_resultsIN9__gnu_cxx17__normal_iteratorIPKcNS_12basic_stringIcSt11char_traitsIcESaIcEEEEESaINS_9sub_matchISA_EEEE6formatISt20back_insert_iteratorIS9_EEET_SI_S4_S4_NSt15regex_constants15match_flag_typeEENKUljE_clEj_x3c:
    /*0000003c*/ LDRB        R2, [R3, #8] 
    /*00000040*/ CMP         R2, #0 
    /*00000044*/ BXEQ        LR 
    /*00000048*/ MOV         IP, #16384                  @ 0x4000 
    /*0000004c*/ PUSH        {R4, R5, R6, R7, R8, R9, SL, FP, LR} 
    /*00000050*/ SUB         IP, SP, IP 
    /*00000054*/ STR         R0, [IP, #4040]             @ 0xfc8 
    /*00000058*/ LDM         R3, {R7, R9} 
    /*0000005c*/ LDR         R3, [R0, #4] 
    /*00000060*/ SUB         SP, SP, #20 
    /*00000064*/ STR         R3, [SP, #12] 
    /*00000068*/ MOV         R2, R3 
    /*0000006c*/ SUB         R3, R9, R7 
    /*00000070*/ LDR         R4, [R2] 
    /*00000074*/ CMP         R3, #0 
    /*00000078*/ MOVGT       SL, #0 
    /*0000007c*/ ADDGT       FP, R4, #8 
    /*00000080*/ BLE         _ZZNKSt7__cxx1113match_resultsIN9__gnu_cxx17__normal_iteratorIPKcNS_12basic_stringIcSt11char_traitsIcESaIcEEEEESaINS_9sub_matchISA_EEEE6formatISt20back_insert_iteratorIS9_EEET_SI_S4_S4_NSt15regex_constants15match_flag_typeEENKUljE_clEj_xdc
    _ZZNKSt7__cxx1113match_resultsIN9__gnu_cxx17__normal_iteratorIPKcNS_12basic_stringIcSt11char_traitsIcESaIcEEEEESaINS_9sub_matchISA_EEEE6formatISt20back_insert_iteratorIS9_EEET_SI_S4_S4_NSt15regex_constants15match_flag_typeEENKUljE_clEj_x84:
    /*00000084*/ LDM         R4, {R3, R6} 
    /*00000088*/ LDRB        R8, [R7], #1 
    /*0000008c*/ CMP         R3, FP 
    /*00000090*/ ADD         R5, R6, #1 
    /*00000094*/ MOVEQ       R2, #15 
    /*00000098*/ LDRNE       R2, [R4, #8] 
    /*0000009c*/ CMP         R5, R2 
    /*000000a0*/ BLS         _ZZNKSt7__cxx1113match_resultsIN9__gnu_cxx17__normal_iteratorIPKcNS_12basic_stringIcSt11char_traitsIcESaIcEEEEESaINS_9sub_matchISA_EEEE6formatISt20back_insert_iteratorIS9_EEET_SI_S4_S4_NSt15regex_constants15match_flag_typeEENKUljE_clEj_xc4
    /*000000a4*/ MOV         R3, #1 
    /*000000a8*/ MOV         R1, R6 
    /*000000ac*/ STR         R3, [SP] 
    /*000000b0*/ MOV         R3, #0 
    /*000000b4*/ MOV         R2, R3 
    /*000000b8*/ MOV         R0, R4 
    /*000000bc*/ BL          _ZNSt7__cxx1112basic_stringIcSt11char_traitsIcESaIcEE9_M_mutateEjjPKcj
    /*000000c0*/ LDR         R3, [R4] 
    _ZZNKSt7__cxx1113match_resultsIN9__gnu_cxx17__normal_iteratorIPKcNS_12basic_stringIcSt11char_traitsIcESaIcEEEEESaINS_9sub_matchISA_EEEE6formatISt20back_insert_iteratorIS9_EEET_SI_S4_S4_NSt15regex_constants15match_flag_typeEENKUljE_clEj_xc4:
    /*000000c4*/ STRB        R8, [R3, R6] 
    /*000000c8*/ CMP         R9, R7 
    /*000000cc*/ LDR         R3, [R4] 
    /*000000d0*/ STR         R5, [R4, #4] 
    /*000000d4*/ STRB        SL, [R3, R5] 
    /*000000d8*/ BNE         _ZZNKSt7__cxx1113match_resultsIN9__gnu_cxx17__normal_iteratorIPKcNS_12basic_stringIcSt11char_traitsIcESaIcEEEEESaINS_9sub_matchISA_EEEE6formatISt20back_insert_iteratorIS9_EEET_SI_S4_S4_NSt15regex_constants15match_flag_typeEENKUljE_clEj_x84
    _ZZNKSt7__cxx1113match_resultsIN9__gnu_cxx17__normal_iteratorIPKcNS_12basic_stringIcSt11char_traitsIcESaIcEEEEESaINS_9sub_matchISA_EEEE6formatISt20back_insert_iteratorIS9_EEET_SI_S4_S4_NSt15regex_constants15match_flag_typeEENKUljE_clEj_xdc:
    /*000000dc*/ LDR         R3, [SP, #12] 
    /*000000e0*/ STR         R4, [R3] 
    /*000000e4*/ ADD         SP, SP, #20 
    /*000000e8*/ POP         {R4, R5, R6, R7, R8, R9, SL, FP, PC} 
    _ZZNKSt7__cxx1113match_resultsIN9__gnu_cxx17__normal_iteratorIPKcNS_12basic_stringIcSt11char_traitsIcESaIcEEEEESaINS_9sub_matchISA_EEEE6formatISt20back_insert_iteratorIS9_EEET_SI_S4_S4_NSt15regex_constants15match_flag_typeEENKUljE_clEj_xec:
    /*000000ec*/ MVN         R2, #2 
    _ZZNKSt7__cxx1113match_resultsIN9__gnu_cxx17__normal_iteratorIPKcNS_12basic_stringIcSt11char_traitsIcESaIcEEEEESaINS_9sub_matchISA_EEEE6formatISt20back_insert_iteratorIS9_EEET_SI_S4_S4_NSt15regex_constants15match_flag_typeEENKUljE_clEj_xf0:
    /*000000f0*/ MOV         R1, #12 
    /*000000f4*/ MLA         R3, R1, R2, R3 
    /*000000f8*/ B           _ZZNKSt7__cxx1113match_resultsIN9__gnu_cxx17__normal_iteratorIPKcNS_12basic_stringIcSt11char_traitsIcESaIcEEEEESaINS_9sub_matchISA_EEEE6formatISt20back_insert_iteratorIS9_EEET_SI_S4_S4_NSt15regex_constants15match_flag_typeEENKUljE_clEj_x3c
FUNC_END _ZZNKSt7__cxx1113match_resultsIN9__gnu_cxx17__normal_iteratorIPKcNS_12basic_stringIcSt11char_traitsIcESaIcEEEEESaINS_9sub_matchISA_EEEE6formatISt20back_insert_iteratorIS9_EEET_SI_S4_S4_NSt15regex_constants15match_flag_typeEENKUljE_clEj


@ - - - - - - - - - - - - - - - - - - - - - - - - - - - - - 
@ .text._ZNKSt7__cxx1113match_resultsIN9__gnu_cxx17__normal_iteratorIPKcNS_12basic_stringIcSt11char_traitsIcESaIcEEEEESaINS_9sub_matchISA_EEEE6formatISt20back_insert_iteratorIS9_EEET_SI_S4_S4_NSt15regex_constants15match_flag_typeE
@ Size: 0x554
@ - - - - - - - - - - - - - - - - - - - - - - - - - - - - - 

FUNC_BEGIN _ZNKSt7__cxx1113match_resultsIN9__gnu_cxx17__normal_iteratorIPKcNS_12basic_stringIcSt11char_traitsIcESaIcEEEEESaINS_9sub_matchISA_EEEE6formatISt20back_insert_iteratorIS9_EEET_SI_S4_S4_NSt15regex_constants15match_flag_typeE
    /*00000000*/ MOV         IP, #16384                  @ 0x4000 
    /*00000004*/ PUSH        {R4, R5, R6, R7, R8, R9, SL, FP, LR} 
    /*00000008*/ SUB         IP, SP, IP 
    /*0000000c*/ STR         R0, [IP, #4000]             @ 0xfa0 
    /*00000010*/ SUB         SP, SP, #60                 @ 0x3c 
    /*00000014*/ MOV         R7, R0 
    /*00000018*/ MOV         R6, R2 
    /*0000001c*/ STR         R1, [SP, #36]               @ 0x24 
    /*00000020*/ ADD         R1, SP, #44                 @ 0x2c 
    /*00000024*/ STR         R1, [SP, #32] 
    /*00000028*/ MOV         R5, R1 
    /*0000002c*/ STR         R0, [SP, #24] 
    /*00000030*/ ADD         R1, SP, #48                 @ 0x30 
    /*00000034*/ STR         R1, [SP, #20] 
    /*00000038*/ MOV         R4, R1 
    /*0000003c*/ STR         R3, [SP, #8] 
    /*00000040*/ MOV         R0, R5 
    /*00000044*/ LDR         SL, [SP, #96]               @ 0x60 
    /*00000048*/ BL          _ZNSt6localeC1Ev
    /*0000004c*/ MOV         R1, R5 
    /*00000050*/ MOV         R0, R4 
    /*00000054*/ BL          _ZNSt6localeC1ERKS_
    /*00000058*/ MOV         R0, R4 
    /*0000005c*/ BL          _ZSt9use_facetISt5ctypeIcEERKT_RKSt6locale
    /*00000060*/ STR         R0, [SP, #16] 
    /*00000064*/ MOV         R0, R4 
    /*00000068*/ BL          _ZNSt6localeD1Ev
    /*0000006c*/ STR         R7, [SP, #48]               @ 0x30 
    /*00000070*/ ANDS        SL, SL, #256                @ 0x100 
    /*00000074*/ ADD         R3, SP, #36                 @ 0x24 
    /*00000078*/ STR         R3, [SP, #52]               @ 0x34 
    /*0000007c*/ BNE         _ZNKSt7__cxx1113match_resultsIN9__gnu_cxx17__normal_iteratorIPKcNS_12basic_stringIcSt11char_traitsIcESaIcEEEEESaINS_9sub_matchISA_EEEE6formatISt20back_insert_iteratorIS9_EEET_SI_S4_S4_NSt15regex_constants15match_flag_typeE_x198
    /*00000080*/ LDR         R4, [SP, #36]               @ 0x24 
    /*00000084*/ MOVW        R3, #43691                  @ 0xaaab 
    /*00000088*/ MOVT        R3, #43690                  @ 0xaaaa 
    /*0000008c*/ STR         R3, [SP, #28] 
    _ZNKSt7__cxx1113match_resultsIN9__gnu_cxx17__normal_iteratorIPKcNS_12basic_stringIcSt11char_traitsIcESaIcEEEEESaINS_9sub_matchISA_EEEE6formatISt20back_insert_iteratorIS9_EEET_SI_S4_S4_NSt15regex_constants15match_flag_typeE_x90:
    /*00000090*/ LDR         R3, [SP, #8] 
    /*00000094*/ SUB         R0, R3, R6 
    /*00000098*/ ASR         R1, R0, #2 
    /*0000009c*/ CMP         R1, #0 
    /*000000a0*/ BLE         _ZNKSt7__cxx1113match_resultsIN9__gnu_cxx17__normal_iteratorIPKcNS_12basic_stringIcSt11char_traitsIcESaIcEEEEESaINS_9sub_matchISA_EEEE6formatISt20back_insert_iteratorIS9_EEET_SI_S4_S4_NSt15regex_constants15match_flag_typeE_x530
    /*000000a4*/ LDRB        R3, [R6] 
    /*000000a8*/ CMP         R3, #36                     @ 0x24 
    /*000000ac*/ BEQ         _ZNKSt7__cxx1113match_resultsIN9__gnu_cxx17__normal_iteratorIPKcNS_12basic_stringIcSt11char_traitsIcESaIcEEEEESaINS_9sub_matchISA_EEEE6formatISt20back_insert_iteratorIS9_EEET_SI_S4_S4_NSt15regex_constants15match_flag_typeE_x27c
    /*000000b0*/ LDRB        R3, [R6, #1] 
    /*000000b4*/ CMP         R3, #36                     @ 0x24 
    /*000000b8*/ ADDEQ       R7, R6, #1 
    /*000000bc*/ BEQ         _ZNKSt7__cxx1113match_resultsIN9__gnu_cxx17__normal_iteratorIPKcNS_12basic_stringIcSt11char_traitsIcESaIcEEEEESaINS_9sub_matchISA_EEEE6formatISt20back_insert_iteratorIS9_EEET_SI_S4_S4_NSt15regex_constants15match_flag_typeE_x200
    /*000000c0*/ LDRB        R3, [R6, #2] 
    /*000000c4*/ CMP         R3, #36                     @ 0x24 
    /*000000c8*/ ADDEQ       R7, R6, #2 
    /*000000cc*/ BEQ         _ZNKSt7__cxx1113match_resultsIN9__gnu_cxx17__normal_iteratorIPKcNS_12basic_stringIcSt11char_traitsIcESaIcEEEEESaINS_9sub_matchISA_EEEE6formatISt20back_insert_iteratorIS9_EEET_SI_S4_S4_NSt15regex_constants15match_flag_typeE_x200
    /*000000d0*/ LDRB        R3, [R6, #3] 
    /*000000d4*/ CMP         R3, #36                     @ 0x24 
    /*000000d8*/ ADDEQ       R7, R6, #3 
    /*000000dc*/ BEQ         _ZNKSt7__cxx1113match_resultsIN9__gnu_cxx17__normal_iteratorIPKcNS_12basic_stringIcSt11char_traitsIcESaIcEEEEESaINS_9sub_matchISA_EEEE6formatISt20back_insert_iteratorIS9_EEET_SI_S4_S4_NSt15regex_constants15match_flag_typeE_x200
    /*000000e0*/ ADD         R1, R6, R1, LSL #2 
    /*000000e4*/ MOV         R3, R6 
    /*000000e8*/ B           _ZNKSt7__cxx1113match_resultsIN9__gnu_cxx17__normal_iteratorIPKcNS_12basic_stringIcSt11char_traitsIcESaIcEEEEESaINS_9sub_matchISA_EEEE6formatISt20back_insert_iteratorIS9_EEET_SI_S4_S4_NSt15regex_constants15match_flag_typeE_x120
    _ZNKSt7__cxx1113match_resultsIN9__gnu_cxx17__normal_iteratorIPKcNS_12basic_stringIcSt11char_traitsIcESaIcEEEEESaINS_9sub_matchISA_EEEE6formatISt20back_insert_iteratorIS9_EEET_SI_S4_S4_NSt15regex_constants15match_flag_typeE_xec:
    /*000000ec*/ LDRB        R2, [R3, #4] 
    /*000000f0*/ CMP         R2, #36                     @ 0x24 
    /*000000f4*/ BEQ         _ZNKSt7__cxx1113match_resultsIN9__gnu_cxx17__normal_iteratorIPKcNS_12basic_stringIcSt11char_traitsIcESaIcEEEEESaINS_9sub_matchISA_EEEE6formatISt20back_insert_iteratorIS9_EEET_SI_S4_S4_NSt15regex_constants15match_flag_typeE_x200
    /*000000f8*/ LDRB        R2, [R7, #1] 
    /*000000fc*/ CMP         R2, #36                     @ 0x24 
    /*00000100*/ BEQ         _ZNKSt7__cxx1113match_resultsIN9__gnu_cxx17__normal_iteratorIPKcNS_12basic_stringIcSt11char_traitsIcESaIcEEEEESaINS_9sub_matchISA_EEEE6formatISt20back_insert_iteratorIS9_EEET_SI_S4_S4_NSt15regex_constants15match_flag_typeE_x1fc
    /*00000104*/ LDRB        R2, [R7, #2] 
    /*00000108*/ CMP         R2, #36                     @ 0x24 
    /*0000010c*/ BEQ         _ZNKSt7__cxx1113match_resultsIN9__gnu_cxx17__normal_iteratorIPKcNS_12basic_stringIcSt11char_traitsIcESaIcEEEEESaINS_9sub_matchISA_EEEE6formatISt20back_insert_iteratorIS9_EEET_SI_S4_S4_NSt15regex_constants15match_flag_typeE_x45c
    /*00000110*/ LDRB        R2, [R7, #3] 
    /*00000114*/ CMP         R2, #36                     @ 0x24 
    /*00000118*/ BEQ         _ZNKSt7__cxx1113match_resultsIN9__gnu_cxx17__normal_iteratorIPKcNS_12basic_stringIcSt11char_traitsIcESaIcEEEEESaINS_9sub_matchISA_EEEE6formatISt20back_insert_iteratorIS9_EEET_SI_S4_S4_NSt15regex_constants15match_flag_typeE_x464
    /*0000011c*/ MOV         R3, R7 
    _ZNKSt7__cxx1113match_resultsIN9__gnu_cxx17__normal_iteratorIPKcNS_12basic_stringIcSt11char_traitsIcESaIcEEEEESaINS_9sub_matchISA_EEEE6formatISt20back_insert_iteratorIS9_EEET_SI_S4_S4_NSt15regex_constants15match_flag_typeE_x120:
    /*00000120*/ ADD         R7, R3, #4 
    /*00000124*/ CMP         R1, R7 
    /*00000128*/ BNE         _ZNKSt7__cxx1113match_resultsIN9__gnu_cxx17__normal_iteratorIPKcNS_12basic_stringIcSt11char_traitsIcESaIcEEEEESaINS_9sub_matchISA_EEEE6formatISt20back_insert_iteratorIS9_EEET_SI_S4_S4_NSt15regex_constants15match_flag_typeE_xec
    /*0000012c*/ LDR         R3, [SP, #8] 
    /*00000130*/ SUB         R3, R3, R1 
    _ZNKSt7__cxx1113match_resultsIN9__gnu_cxx17__normal_iteratorIPKcNS_12basic_stringIcSt11char_traitsIcESaIcEEEEESaINS_9sub_matchISA_EEEE6formatISt20back_insert_iteratorIS9_EEET_SI_S4_S4_NSt15regex_constants15match_flag_typeE_x134:
    /*00000134*/ CMP         R3, #2 
    /*00000138*/ BEQ         _ZNKSt7__cxx1113match_resultsIN9__gnu_cxx17__normal_iteratorIPKcNS_12basic_stringIcSt11char_traitsIcESaIcEEEEESaINS_9sub_matchISA_EEEE6formatISt20back_insert_iteratorIS9_EEET_SI_S4_S4_NSt15regex_constants15match_flag_typeE_x4fc
    /*0000013c*/ CMP         R3, #3 
    /*00000140*/ BEQ         _ZNKSt7__cxx1113match_resultsIN9__gnu_cxx17__normal_iteratorIPKcNS_12basic_stringIcSt11char_traitsIcESaIcEEEEESaINS_9sub_matchISA_EEEE6formatISt20back_insert_iteratorIS9_EEET_SI_S4_S4_NSt15regex_constants15match_flag_typeE_x4ec
    /*00000144*/ CMP         R3, #1 
    /*00000148*/ BEQ         _ZNKSt7__cxx1113match_resultsIN9__gnu_cxx17__normal_iteratorIPKcNS_12basic_stringIcSt11char_traitsIcESaIcEEEEESaINS_9sub_matchISA_EEEE6formatISt20back_insert_iteratorIS9_EEET_SI_S4_S4_NSt15regex_constants15match_flag_typeE_x50c
    _ZNKSt7__cxx1113match_resultsIN9__gnu_cxx17__normal_iteratorIPKcNS_12basic_stringIcSt11char_traitsIcESaIcEEEEESaINS_9sub_matchISA_EEEE6formatISt20back_insert_iteratorIS9_EEET_SI_S4_S4_NSt15regex_constants15match_flag_typeE_x14c:
    /*0000014c*/ CMP         R0, #0 
    /*00000150*/ BLE         _ZNKSt7__cxx1113match_resultsIN9__gnu_cxx17__normal_iteratorIPKcNS_12basic_stringIcSt11char_traitsIcESaIcEEEEESaINS_9sub_matchISA_EEEE6formatISt20back_insert_iteratorIS9_EEET_SI_S4_S4_NSt15regex_constants15match_flag_typeE_x16c
    _ZNKSt7__cxx1113match_resultsIN9__gnu_cxx17__normal_iteratorIPKcNS_12basic_stringIcSt11char_traitsIcESaIcEEEEESaINS_9sub_matchISA_EEEE6formatISt20back_insert_iteratorIS9_EEET_SI_S4_S4_NSt15regex_constants15match_flag_typeE_x154:
    /*00000154*/ LDRB        R1, [R6], #1 
    /*00000158*/ MOV         R0, R4 
    /*0000015c*/ BL          _ZNSt7__cxx1112basic_stringIcSt11char_traitsIcESaIcEE9push_backEc
    /*00000160*/ LDR         R3, [SP, #8] 
    /*00000164*/ CMP         R3, R6 
    /*00000168*/ BNE         _ZNKSt7__cxx1113match_resultsIN9__gnu_cxx17__normal_iteratorIPKcNS_12basic_stringIcSt11char_traitsIcESaIcEEEEESaINS_9sub_matchISA_EEEE6formatISt20back_insert_iteratorIS9_EEET_SI_S4_S4_NSt15regex_constants15match_flag_typeE_x154
    _ZNKSt7__cxx1113match_resultsIN9__gnu_cxx17__normal_iteratorIPKcNS_12basic_stringIcSt11char_traitsIcESaIcEEEEESaINS_9sub_matchISA_EEEE6formatISt20back_insert_iteratorIS9_EEET_SI_S4_S4_NSt15regex_constants15match_flag_typeE_x16c:
    /*0000016c*/ STR         R4, [SP, #36]               @ 0x24 
    _ZNKSt7__cxx1113match_resultsIN9__gnu_cxx17__normal_iteratorIPKcNS_12basic_stringIcSt11char_traitsIcESaIcEEEEESaINS_9sub_matchISA_EEEE6formatISt20back_insert_iteratorIS9_EEET_SI_S4_S4_NSt15regex_constants15match_flag_typeE_x170:
    /*00000170*/ LDR         R4, [SP, #36]               @ 0x24 
    /*00000174*/ LDR         R0, [SP, #32] 
    /*00000178*/ BL          _ZNSt6localeD1Ev
    /*0000017c*/ MOV         R0, R4 
    /*00000180*/ ADD         SP, SP, #60                 @ 0x3c 
    /*00000184*/ POP         {R4, R5, R6, R7, R8, R9, SL, FP, PC} 
    _ZNKSt7__cxx1113match_resultsIN9__gnu_cxx17__normal_iteratorIPKcNS_12basic_stringIcSt11char_traitsIcESaIcEEEEESaINS_9sub_matchISA_EEEE6formatISt20back_insert_iteratorIS9_EEET_SI_S4_S4_NSt15regex_constants15match_flag_typeE_x188:
    /*00000188*/ LDR         R0, [SP, #36]               @ 0x24 
    /*0000018c*/ MOV         R1, #92                     @ 0x5c 
    /*00000190*/ BL          _ZNSt7__cxx1112basic_stringIcSt11char_traitsIcESaIcEE9push_backEc
    /*00000194*/ MOV         R6, R4 
    _ZNKSt7__cxx1113match_resultsIN9__gnu_cxx17__normal_iteratorIPKcNS_12basic_stringIcSt11char_traitsIcESaIcEEEEESaINS_9sub_matchISA_EEEE6formatISt20back_insert_iteratorIS9_EEET_SI_S4_S4_NSt15regex_constants15match_flag_typeE_x198:
    /*00000198*/ LDR         R3, [SP, #8] 
    /*0000019c*/ CMP         R6, R3 
    /*000001a0*/ BEQ         _ZNKSt7__cxx1113match_resultsIN9__gnu_cxx17__normal_iteratorIPKcNS_12basic_stringIcSt11char_traitsIcESaIcEEEEESaINS_9sub_matchISA_EEEE6formatISt20back_insert_iteratorIS9_EEET_SI_S4_S4_NSt15regex_constants15match_flag_typeE_x170
    /*000001a4*/ LDRB        R1, [R6] 
    /*000001a8*/ CMP         R1, #38                     @ 0x26 
    /*000001ac*/ BEQ         _ZNKSt7__cxx1113match_resultsIN9__gnu_cxx17__normal_iteratorIPKcNS_12basic_stringIcSt11char_traitsIcESaIcEEEEESaINS_9sub_matchISA_EEEE6formatISt20back_insert_iteratorIS9_EEET_SI_S4_S4_NSt15regex_constants15match_flag_typeE_x4d8
    /*000001b0*/ CMP         R1, #92                     @ 0x5c 
    /*000001b4*/ BNE         _ZNKSt7__cxx1113match_resultsIN9__gnu_cxx17__normal_iteratorIPKcNS_12basic_stringIcSt11char_traitsIcESaIcEEEEESaINS_9sub_matchISA_EEEE6formatISt20back_insert_iteratorIS9_EEET_SI_S4_S4_NSt15regex_constants15match_flag_typeE_x36c
    /*000001b8*/ LDR         R3, [SP, #8] 
    /*000001bc*/ ADD         R4, R6, #1 
    /*000001c0*/ CMP         R3, R4 
    /*000001c4*/ BEQ         _ZNKSt7__cxx1113match_resultsIN9__gnu_cxx17__normal_iteratorIPKcNS_12basic_stringIcSt11char_traitsIcESaIcEEEEESaINS_9sub_matchISA_EEEE6formatISt20back_insert_iteratorIS9_EEET_SI_S4_S4_NSt15regex_constants15match_flag_typeE_x188
    /*000001c8*/ LDR         R3, [SP, #16] 
    /*000001cc*/ LDRB        R0, [R6, #1] 
    /*000001d0*/ LDR         R2, [R3, #24] 
    /*000001d4*/ LSL         R3, R0, #1 
    /*000001d8*/ LDRH        R3, [R2, R3] 
    /*000001dc*/ TST         R3, #2048                   @ 0x800 
    /*000001e0*/ BEQ         _ZNKSt7__cxx1113match_resultsIN9__gnu_cxx17__normal_iteratorIPKcNS_12basic_stringIcSt11char_traitsIcESaIcEEEEESaINS_9sub_matchISA_EEEE6formatISt20back_insert_iteratorIS9_EEET_SI_S4_S4_NSt15regex_constants15match_flag_typeE_x188
    /*000001e4*/ ADD         R6, R6, #2 
    /*000001e8*/ BL          _ZNKSt7__cxx1112regex_traitsIcE5valueEci.constprop.656
    /*000001ec*/ MOV         R1, R0 
    /*000001f0*/ LDR         R0, [SP, #20] 
    /*000001f4*/ BL          _ZZNKSt7__cxx1113match_resultsIN9__gnu_cxx17__normal_iteratorIPKcNS_12basic_stringIcSt11char_traitsIcESaIcEEEEESaINS_9sub_matchISA_EEEE6formatISt20back_insert_iteratorIS9_EEET_SI_S4_S4_NSt15regex_constants15match_flag_typeEENKUljE_clEj
    /*000001f8*/ B           _ZNKSt7__cxx1113match_resultsIN9__gnu_cxx17__normal_iteratorIPKcNS_12basic_stringIcSt11char_traitsIcESaIcEEEEESaINS_9sub_matchISA_EEEE6formatISt20back_insert_iteratorIS9_EEET_SI_S4_S4_NSt15regex_constants15match_flag_typeE_x198
    _ZNKSt7__cxx1113match_resultsIN9__gnu_cxx17__normal_iteratorIPKcNS_12basic_stringIcSt11char_traitsIcESaIcEEEEESaINS_9sub_matchISA_EEEE6formatISt20back_insert_iteratorIS9_EEET_SI_S4_S4_NSt15regex_constants15match_flag_typeE_x1fc:
    /*000001fc*/ ADD         R7, R3, #5 
    _ZNKSt7__cxx1113match_resultsIN9__gnu_cxx17__normal_iteratorIPKcNS_12basic_stringIcSt11char_traitsIcESaIcEEEEESaINS_9sub_matchISA_EEEE6formatISt20back_insert_iteratorIS9_EEET_SI_S4_S4_NSt15regex_constants15match_flag_typeE_x200:
    /*00000200*/ LDR         R3, [SP, #8] 
    /*00000204*/ CMP         R3, R7 
    /*00000208*/ BEQ         _ZNKSt7__cxx1113match_resultsIN9__gnu_cxx17__normal_iteratorIPKcNS_12basic_stringIcSt11char_traitsIcESaIcEEEEESaINS_9sub_matchISA_EEEE6formatISt20back_insert_iteratorIS9_EEET_SI_S4_S4_NSt15regex_constants15match_flag_typeE_x14c
    /*0000020c*/ SUB         R3, R7, R6 
    /*00000210*/ CMP         R3, #0 
    /*00000214*/ BLE         _ZNKSt7__cxx1113match_resultsIN9__gnu_cxx17__normal_iteratorIPKcNS_12basic_stringIcSt11char_traitsIcESaIcEEEEESaINS_9sub_matchISA_EEEE6formatISt20back_insert_iteratorIS9_EEET_SI_S4_S4_NSt15regex_constants15match_flag_typeE_x28c
    /*00000218*/ ADD         FP, R4, #8 
    /*0000021c*/ B           _ZNKSt7__cxx1113match_resultsIN9__gnu_cxx17__normal_iteratorIPKcNS_12basic_stringIcSt11char_traitsIcESaIcEEEEESaINS_9sub_matchISA_EEEE6formatISt20back_insert_iteratorIS9_EEET_SI_S4_S4_NSt15regex_constants15match_flag_typeE_x238
    _ZNKSt7__cxx1113match_resultsIN9__gnu_cxx17__normal_iteratorIPKcNS_12basic_stringIcSt11char_traitsIcESaIcEEEEESaINS_9sub_matchISA_EEEE6formatISt20back_insert_iteratorIS9_EEET_SI_S4_S4_NSt15regex_constants15match_flag_typeE_x220:
    /*00000220*/ STRB        R9, [R3, R8] 
    /*00000224*/ CMP         R7, R6 
    /*00000228*/ LDR         R3, [R4] 
    /*0000022c*/ STR         R5, [R4, #4] 
    /*00000230*/ STRB        SL, [R3, R5] 
    /*00000234*/ BEQ         _ZNKSt7__cxx1113match_resultsIN9__gnu_cxx17__normal_iteratorIPKcNS_12basic_stringIcSt11char_traitsIcESaIcEEEEESaINS_9sub_matchISA_EEEE6formatISt20back_insert_iteratorIS9_EEET_SI_S4_S4_NSt15regex_constants15match_flag_typeE_x28c
    _ZNKSt7__cxx1113match_resultsIN9__gnu_cxx17__normal_iteratorIPKcNS_12basic_stringIcSt11char_traitsIcESaIcEEEEESaINS_9sub_matchISA_EEEE6formatISt20back_insert_iteratorIS9_EEET_SI_S4_S4_NSt15regex_constants15match_flag_typeE_x238:
    /*00000238*/ LDM         R4, {R3, R8} 
    /*0000023c*/ LDRB        R9, [R6], #1 
    /*00000240*/ CMP         R3, FP 
    /*00000244*/ ADD         R5, R8, #1 
    /*00000248*/ MOVEQ       R2, #15 
    /*0000024c*/ LDRNE       R2, [R4, #8] 
    /*00000250*/ CMP         R5, R2 
    /*00000254*/ BLS         _ZNKSt7__cxx1113match_resultsIN9__gnu_cxx17__normal_iteratorIPKcNS_12basic_stringIcSt11char_traitsIcESaIcEEEEESaINS_9sub_matchISA_EEEE6formatISt20back_insert_iteratorIS9_EEET_SI_S4_S4_NSt15regex_constants15match_flag_typeE_x220
    /*00000258*/ MOV         R3, #1 
    /*0000025c*/ MOV         R1, R8 
    /*00000260*/ STR         R3, [SP] 
    /*00000264*/ MOV         R3, #0 
    /*00000268*/ MOV         R2, R3 
    /*0000026c*/ MOV         R0, R4 
    /*00000270*/ BL          _ZNSt7__cxx1112basic_stringIcSt11char_traitsIcESaIcEE9_M_mutateEjjPKcj
    /*00000274*/ LDR         R3, [R4] 
    /*00000278*/ B           _ZNKSt7__cxx1113match_resultsIN9__gnu_cxx17__normal_iteratorIPKcNS_12basic_stringIcSt11char_traitsIcESaIcEEEEESaINS_9sub_matchISA_EEEE6formatISt20back_insert_iteratorIS9_EEET_SI_S4_S4_NSt15regex_constants15match_flag_typeE_x220
    _ZNKSt7__cxx1113match_resultsIN9__gnu_cxx17__normal_iteratorIPKcNS_12basic_stringIcSt11char_traitsIcESaIcEEEEESaINS_9sub_matchISA_EEEE6formatISt20back_insert_iteratorIS9_EEET_SI_S4_S4_NSt15regex_constants15match_flag_typeE_x27c:
    /*0000027c*/ LDR         R3, [SP, #8] 
    /*00000280*/ CMP         R6, R3 
    /*00000284*/ BEQ         _ZNKSt7__cxx1113match_resultsIN9__gnu_cxx17__normal_iteratorIPKcNS_12basic_stringIcSt11char_traitsIcESaIcEEEEESaINS_9sub_matchISA_EEEE6formatISt20back_insert_iteratorIS9_EEET_SI_S4_S4_NSt15regex_constants15match_flag_typeE_x154
    /*00000288*/ MOV         R7, R6 
    _ZNKSt7__cxx1113match_resultsIN9__gnu_cxx17__normal_iteratorIPKcNS_12basic_stringIcSt11char_traitsIcESaIcEEEEESaINS_9sub_matchISA_EEEE6formatISt20back_insert_iteratorIS9_EEET_SI_S4_S4_NSt15regex_constants15match_flag_typeE_x28c:
    /*0000028c*/ LDR         R3, [SP, #8] 
    /*00000290*/ ADD         R6, R7, #1 
    /*00000294*/ STR         R4, [SP, #36]               @ 0x24 
    /*00000298*/ CMP         R3, R6 
    /*0000029c*/ BEQ         _ZNKSt7__cxx1113match_resultsIN9__gnu_cxx17__normal_iteratorIPKcNS_12basic_stringIcSt11char_traitsIcESaIcEEEEESaINS_9sub_matchISA_EEEE6formatISt20back_insert_iteratorIS9_EEET_SI_S4_S4_NSt15regex_constants15match_flag_typeE_x520
    /*000002a0*/ LDRB        R1, [R7, #1] 
    /*000002a4*/ CMP         R1, #36                     @ 0x24 
    /*000002a8*/ BEQ         _ZNKSt7__cxx1113match_resultsIN9__gnu_cxx17__normal_iteratorIPKcNS_12basic_stringIcSt11char_traitsIcESaIcEEEEESaINS_9sub_matchISA_EEEE6formatISt20back_insert_iteratorIS9_EEET_SI_S4_S4_NSt15regex_constants15match_flag_typeE_x37c
    /*000002ac*/ CMP         R1, #38                     @ 0x26 
    /*000002b0*/ BEQ         _ZNKSt7__cxx1113match_resultsIN9__gnu_cxx17__normal_iteratorIPKcNS_12basic_stringIcSt11char_traitsIcESaIcEEEEESaINS_9sub_matchISA_EEEE6formatISt20back_insert_iteratorIS9_EEET_SI_S4_S4_NSt15regex_constants15match_flag_typeE_x448
    /*000002b4*/ CMP         R1, #96                     @ 0x60 
    /*000002b8*/ BEQ         _ZNKSt7__cxx1113match_resultsIN9__gnu_cxx17__normal_iteratorIPKcNS_12basic_stringIcSt11char_traitsIcESaIcEEEEESaINS_9sub_matchISA_EEEE6formatISt20back_insert_iteratorIS9_EEET_SI_S4_S4_NSt15regex_constants15match_flag_typeE_x38c
    /*000002bc*/ CMP         R1, #39                     @ 0x27 
    /*000002c0*/ BEQ         _ZNKSt7__cxx1113match_resultsIN9__gnu_cxx17__normal_iteratorIPKcNS_12basic_stringIcSt11char_traitsIcESaIcEEEEESaINS_9sub_matchISA_EEEE6formatISt20back_insert_iteratorIS9_EEET_SI_S4_S4_NSt15regex_constants15match_flag_typeE_x46c
    /*000002c4*/ LDR         R2, [SP, #16] 
    /*000002c8*/ LSL         R3, R1, #1 
    /*000002cc*/ LDR         R2, [R2, #24] 
    /*000002d0*/ LDRH        R3, [R2, R3] 
    /*000002d4*/ TST         R3, #2048                   @ 0x800 
    /*000002d8*/ BEQ         _ZNKSt7__cxx1113match_resultsIN9__gnu_cxx17__normal_iteratorIPKcNS_12basic_stringIcSt11char_traitsIcESaIcEEEEESaINS_9sub_matchISA_EEEE6formatISt20back_insert_iteratorIS9_EEET_SI_S4_S4_NSt15regex_constants15match_flag_typeE_x520
    /*000002dc*/ MOV         R0, R1 
    /*000002e0*/ BL          _ZNKSt7__cxx1112regex_traitsIcE5valueEci.constprop.656
    /*000002e4*/ LDR         R3, [SP, #8] 
    /*000002e8*/ ADD         R6, R7, #2 
    /*000002ec*/ MOV         R4, R0 
    /*000002f0*/ CMP         R3, R6 
    /*000002f4*/ BEQ         _ZNKSt7__cxx1113match_resultsIN9__gnu_cxx17__normal_iteratorIPKcNS_12basic_stringIcSt11char_traitsIcESaIcEEEEESaINS_9sub_matchISA_EEEE6formatISt20back_insert_iteratorIS9_EEET_SI_S4_S4_NSt15regex_constants15match_flag_typeE_x324
    /*000002f8*/ LDR         R3, [SP, #16] 
    /*000002fc*/ LDRB        R0, [R7, #2] 
    /*00000300*/ LDR         R2, [R3, #24] 
    /*00000304*/ LSL         R3, R0, #1 
    /*00000308*/ LDRH        R3, [R2, R3] 
    /*0000030c*/ TST         R3, #2048                   @ 0x800 
    /*00000310*/ BEQ         _ZNKSt7__cxx1113match_resultsIN9__gnu_cxx17__normal_iteratorIPKcNS_12basic_stringIcSt11char_traitsIcESaIcEEEEESaINS_9sub_matchISA_EEEE6formatISt20back_insert_iteratorIS9_EEET_SI_S4_S4_NSt15regex_constants15match_flag_typeE_x324
    /*00000314*/ BL          _ZNKSt7__cxx1112regex_traitsIcE5valueEci.constprop.656
    /*00000318*/ MOV         R3, #10 
    /*0000031c*/ ADD         R6, R7, #3 
    /*00000320*/ MLA         R4, R3, R4, R0 
    _ZNKSt7__cxx1113match_resultsIN9__gnu_cxx17__normal_iteratorIPKcNS_12basic_stringIcSt11char_traitsIcESaIcEEEEESaINS_9sub_matchISA_EEEE6formatISt20back_insert_iteratorIS9_EEET_SI_S4_S4_NSt15regex_constants15match_flag_typeE_x324:
    /*00000324*/ CMP         R4, #0 
    /*00000328*/ BLT         _ZNKSt7__cxx1113match_resultsIN9__gnu_cxx17__normal_iteratorIPKcNS_12basic_stringIcSt11char_traitsIcESaIcEEEEESaINS_9sub_matchISA_EEEE6formatISt20back_insert_iteratorIS9_EEET_SI_S4_S4_NSt15regex_constants15match_flag_typeE_x364
    /*0000032c*/ LDR         R3, [SP, #24] 
    /*00000330*/ LDM         R3, {R2, R3} 
    /*00000334*/ CMP         R2, R3 
    /*00000338*/ BEQ         _ZNKSt7__cxx1113match_resultsIN9__gnu_cxx17__normal_iteratorIPKcNS_12basic_stringIcSt11char_traitsIcESaIcEEEEESaINS_9sub_matchISA_EEEE6formatISt20back_insert_iteratorIS9_EEET_SI_S4_S4_NSt15regex_constants15match_flag_typeE_x364
    /*0000033c*/ SUB         R3, R3, R2 
    /*00000340*/ LDR         R2, [SP, #28] 
    /*00000344*/ ASR         R3, R3, #2 
    /*00000348*/ MUL         R3, R2, R3 
    /*0000034c*/ SUB         R3, R3, #3 
    /*00000350*/ CMP         R4, R3 
    /*00000354*/ BCS         _ZNKSt7__cxx1113match_resultsIN9__gnu_cxx17__normal_iteratorIPKcNS_12basic_stringIcSt11char_traitsIcESaIcEEEEESaINS_9sub_matchISA_EEEE6formatISt20back_insert_iteratorIS9_EEET_SI_S4_S4_NSt15regex_constants15match_flag_typeE_x364
    /*00000358*/ LDR         R0, [SP, #20] 
    /*0000035c*/ MOV         R1, R4 
    /*00000360*/ BL          _ZZNKSt7__cxx1113match_resultsIN9__gnu_cxx17__normal_iteratorIPKcNS_12basic_stringIcSt11char_traitsIcESaIcEEEEESaINS_9sub_matchISA_EEEE6formatISt20back_insert_iteratorIS9_EEET_SI_S4_S4_NSt15regex_constants15match_flag_typeEENKUljE_clEj
    _ZNKSt7__cxx1113match_resultsIN9__gnu_cxx17__normal_iteratorIPKcNS_12basic_stringIcSt11char_traitsIcESaIcEEEEESaINS_9sub_matchISA_EEEE6formatISt20back_insert_iteratorIS9_EEET_SI_S4_S4_NSt15regex_constants15match_flag_typeE_x364:
    /*00000364*/ LDR         R4, [SP, #36]               @ 0x24 
    /*00000368*/ B           _ZNKSt7__cxx1113match_resultsIN9__gnu_cxx17__normal_iteratorIPKcNS_12basic_stringIcSt11char_traitsIcESaIcEEEEESaINS_9sub_matchISA_EEEE6formatISt20back_insert_iteratorIS9_EEET_SI_S4_S4_NSt15regex_constants15match_flag_typeE_x90
    _ZNKSt7__cxx1113match_resultsIN9__gnu_cxx17__normal_iteratorIPKcNS_12basic_stringIcSt11char_traitsIcESaIcEEEEESaINS_9sub_matchISA_EEEE6formatISt20back_insert_iteratorIS9_EEET_SI_S4_S4_NSt15regex_constants15match_flag_typeE_x36c:
    /*0000036c*/ LDR         R0, [SP, #36]               @ 0x24 
    /*00000370*/ ADD         R6, R6, #1 
    /*00000374*/ BL          _ZNSt7__cxx1112basic_stringIcSt11char_traitsIcESaIcEE9push_backEc
    /*00000378*/ B           _ZNKSt7__cxx1113match_resultsIN9__gnu_cxx17__normal_iteratorIPKcNS_12basic_stringIcSt11char_traitsIcESaIcEEEEESaINS_9sub_matchISA_EEEE6formatISt20back_insert_iteratorIS9_EEET_SI_S4_S4_NSt15regex_constants15match_flag_typeE_x198
    _ZNKSt7__cxx1113match_resultsIN9__gnu_cxx17__normal_iteratorIPKcNS_12basic_stringIcSt11char_traitsIcESaIcEEEEESaINS_9sub_matchISA_EEEE6formatISt20back_insert_iteratorIS9_EEET_SI_S4_S4_NSt15regex_constants15match_flag_typeE_x37c:
    /*0000037c*/ MOV         R0, R4 
    /*00000380*/ ADD         R6, R7, #2 
    /*00000384*/ BL          _ZNSt7__cxx1112basic_stringIcSt11char_traitsIcESaIcEE9push_backEc
    /*00000388*/ B           _ZNKSt7__cxx1113match_resultsIN9__gnu_cxx17__normal_iteratorIPKcNS_12basic_stringIcSt11char_traitsIcESaIcEEEEESaINS_9sub_matchISA_EEEE6formatISt20back_insert_iteratorIS9_EEET_SI_S4_S4_NSt15regex_constants15match_flag_typeE_x364
    _ZNKSt7__cxx1113match_resultsIN9__gnu_cxx17__normal_iteratorIPKcNS_12basic_stringIcSt11char_traitsIcESaIcEEEEESaINS_9sub_matchISA_EEEE6formatISt20back_insert_iteratorIS9_EEET_SI_S4_S4_NSt15regex_constants15match_flag_typeE_x38c:
    /*0000038c*/ LDR         R3, [SP, #24] 
    /*00000390*/ MOV         R2, #12 
    /*00000394*/ LDR         R0, [SP, #28] 
    /*00000398*/ ADD         R6, R7, #2 
    /*0000039c*/ LDR         R1, [R3] 
    /*000003a0*/ LDR         R3, [R3, #4] 
    /*000003a4*/ SUB         R3, R3, R1 
    /*000003a8*/ ASR         R3, R3, #2 
    /*000003ac*/ MUL         R3, R0, R3 
    /*000003b0*/ SUB         R3, R3, #2 
    /*000003b4*/ MUL         R3, R2, R3 
    /*000003b8*/ ADD         R2, R1, R3 
    /*000003bc*/ LDRB        R0, [R2, #8] 
    /*000003c0*/ CMP         R0, #0 
    /*000003c4*/ BEQ         _ZNKSt7__cxx1113match_resultsIN9__gnu_cxx17__normal_iteratorIPKcNS_12basic_stringIcSt11char_traitsIcESaIcEEEEESaINS_9sub_matchISA_EEEE6formatISt20back_insert_iteratorIS9_EEET_SI_S4_S4_NSt15regex_constants15match_flag_typeE_x90
    /*000003c8*/ LDR         R8, [R1, R3] 
    /*000003cc*/ LDR         FP, [R2, #4] 
    /*000003d0*/ SUB         R3, FP, R8 
    /*000003d4*/ CMP         R3, #0 
    /*000003d8*/ BLE         _ZNKSt7__cxx1113match_resultsIN9__gnu_cxx17__normal_iteratorIPKcNS_12basic_stringIcSt11char_traitsIcESaIcEEEEESaINS_9sub_matchISA_EEEE6formatISt20back_insert_iteratorIS9_EEET_SI_S4_S4_NSt15regex_constants15match_flag_typeE_x4d0
    /*000003dc*/ ADD         R3, R4, #8 
    /*000003e0*/ STR         R3, [SP, #12] 
    /*000003e4*/ B           _ZNKSt7__cxx1113match_resultsIN9__gnu_cxx17__normal_iteratorIPKcNS_12basic_stringIcSt11char_traitsIcESaIcEEEEESaINS_9sub_matchISA_EEEE6formatISt20back_insert_iteratorIS9_EEET_SI_S4_S4_NSt15regex_constants15match_flag_typeE_x400
    _ZNKSt7__cxx1113match_resultsIN9__gnu_cxx17__normal_iteratorIPKcNS_12basic_stringIcSt11char_traitsIcESaIcEEEEESaINS_9sub_matchISA_EEEE6formatISt20back_insert_iteratorIS9_EEET_SI_S4_S4_NSt15regex_constants15match_flag_typeE_x3e8:
    /*000003e8*/ STRB        R9, [R3, R7] 
    /*000003ec*/ CMP         FP, R8 
    /*000003f0*/ LDR         R3, [R4] 
    /*000003f4*/ STR         R5, [R4, #4] 
    /*000003f8*/ STRB        SL, [R3, R5] 
    /*000003fc*/ BEQ         _ZNKSt7__cxx1113match_resultsIN9__gnu_cxx17__normal_iteratorIPKcNS_12basic_stringIcSt11char_traitsIcESaIcEEEEESaINS_9sub_matchISA_EEEE6formatISt20back_insert_iteratorIS9_EEET_SI_S4_S4_NSt15regex_constants15match_flag_typeE_x4d0
    _ZNKSt7__cxx1113match_resultsIN9__gnu_cxx17__normal_iteratorIPKcNS_12basic_stringIcSt11char_traitsIcESaIcEEEEESaINS_9sub_matchISA_EEEE6formatISt20back_insert_iteratorIS9_EEET_SI_S4_S4_NSt15regex_constants15match_flag_typeE_x400:
    /*00000400*/ LDR         R2, [SP, #12] 
    /*00000404*/ LDM         R4, {R3, R7} 
    /*00000408*/ LDRB        R9, [R8], #1 
    /*0000040c*/ CMP         R3, R2 
    /*00000410*/ ADD         R5, R7, #1 
    /*00000414*/ MOVEQ       R2, #15 
    /*00000418*/ LDRNE       R2, [R4, #8] 
    /*0000041c*/ CMP         R5, R2 
    /*00000420*/ BLS         _ZNKSt7__cxx1113match_resultsIN9__gnu_cxx17__normal_iteratorIPKcNS_12basic_stringIcSt11char_traitsIcESaIcEEEEESaINS_9sub_matchISA_EEEE6formatISt20back_insert_iteratorIS9_EEET_SI_S4_S4_NSt15regex_constants15match_flag_typeE_x3e8
    /*00000424*/ MOV         R3, #1 
    /*00000428*/ MOV         R1, R7 
    /*0000042c*/ STR         R3, [SP] 
    /*00000430*/ MOV         R3, #0 
    /*00000434*/ MOV         R2, R3 
    /*00000438*/ MOV         R0, R4 
    /*0000043c*/ BL          _ZNSt7__cxx1112basic_stringIcSt11char_traitsIcESaIcEE9_M_mutateEjjPKcj
    /*00000440*/ LDR         R3, [R4] 
    /*00000444*/ B           _ZNKSt7__cxx1113match_resultsIN9__gnu_cxx17__normal_iteratorIPKcNS_12basic_stringIcSt11char_traitsIcESaIcEEEEESaINS_9sub_matchISA_EEEE6formatISt20back_insert_iteratorIS9_EEET_SI_S4_S4_NSt15regex_constants15match_flag_typeE_x3e8
    _ZNKSt7__cxx1113match_resultsIN9__gnu_cxx17__normal_iteratorIPKcNS_12basic_stringIcSt11char_traitsIcESaIcEEEEESaINS_9sub_matchISA_EEEE6formatISt20back_insert_iteratorIS9_EEET_SI_S4_S4_NSt15regex_constants15match_flag_typeE_x448:
    /*00000448*/ LDR         R0, [SP, #20] 
    /*0000044c*/ MOV         R1, #0 
    /*00000450*/ ADD         R6, R7, #2 
    /*00000454*/ BL          _ZZNKSt7__cxx1113match_resultsIN9__gnu_cxx17__normal_iteratorIPKcNS_12basic_stringIcSt11char_traitsIcESaIcEEEEESaINS_9sub_matchISA_EEEE6formatISt20back_insert_iteratorIS9_EEET_SI_S4_S4_NSt15regex_constants15match_flag_typeEENKUljE_clEj
    /*00000458*/ B           _ZNKSt7__cxx1113match_resultsIN9__gnu_cxx17__normal_iteratorIPKcNS_12basic_stringIcSt11char_traitsIcESaIcEEEEESaINS_9sub_matchISA_EEEE6formatISt20back_insert_iteratorIS9_EEET_SI_S4_S4_NSt15regex_constants15match_flag_typeE_x364
    _ZNKSt7__cxx1113match_resultsIN9__gnu_cxx17__normal_iteratorIPKcNS_12basic_stringIcSt11char_traitsIcESaIcEEEEESaINS_9sub_matchISA_EEEE6formatISt20back_insert_iteratorIS9_EEET_SI_S4_S4_NSt15regex_constants15match_flag_typeE_x45c:
    /*0000045c*/ ADD         R7, R3, #6 
    /*00000460*/ B           _ZNKSt7__cxx1113match_resultsIN9__gnu_cxx17__normal_iteratorIPKcNS_12basic_stringIcSt11char_traitsIcESaIcEEEEESaINS_9sub_matchISA_EEEE6formatISt20back_insert_iteratorIS9_EEET_SI_S4_S4_NSt15regex_constants15match_flag_typeE_x200
    _ZNKSt7__cxx1113match_resultsIN9__gnu_cxx17__normal_iteratorIPKcNS_12basic_stringIcSt11char_traitsIcESaIcEEEEESaINS_9sub_matchISA_EEEE6formatISt20back_insert_iteratorIS9_EEET_SI_S4_S4_NSt15regex_constants15match_flag_typeE_x464:
    /*00000464*/ ADD         R7, R3, #7 
    /*00000468*/ B           _ZNKSt7__cxx1113match_resultsIN9__gnu_cxx17__normal_iteratorIPKcNS_12basic_stringIcSt11char_traitsIcESaIcEEEEESaINS_9sub_matchISA_EEEE6formatISt20back_insert_iteratorIS9_EEET_SI_S4_S4_NSt15regex_constants15match_flag_typeE_x200
    _ZNKSt7__cxx1113match_resultsIN9__gnu_cxx17__normal_iteratorIPKcNS_12basic_stringIcSt11char_traitsIcESaIcEEEEESaINS_9sub_matchISA_EEEE6formatISt20back_insert_iteratorIS9_EEET_SI_S4_S4_NSt15regex_constants15match_flag_typeE_x46c:
    /*0000046c*/ LDR         R3, [SP, #24] 
    /*00000470*/ MOV         R2, #12 
    /*00000474*/ LDR         R0, [SP, #28] 
    /*00000478*/ ADD         R6, R7, #2 
    /*0000047c*/ LDR         R1, [R3] 
    /*00000480*/ LDR         R3, [R3, #4] 
    /*00000484*/ SUB         R3, R3, R1 
    /*00000488*/ ASR         R3, R3, #2 
    /*0000048c*/ MUL         R3, R0, R3 
    /*00000490*/ SUB         R3, R3, #1 
    /*00000494*/ MUL         R3, R2, R3 
    /*00000498*/ ADD         R2, R1, R3 
    /*0000049c*/ LDRB        R0, [R2, #8] 
    /*000004a0*/ CMP         R0, #0 
    /*000004a4*/ BEQ         _ZNKSt7__cxx1113match_resultsIN9__gnu_cxx17__normal_iteratorIPKcNS_12basic_stringIcSt11char_traitsIcESaIcEEEEESaINS_9sub_matchISA_EEEE6formatISt20back_insert_iteratorIS9_EEET_SI_S4_S4_NSt15regex_constants15match_flag_typeE_x90
    /*000004a8*/ LDR         R5, [R1, R3] 
    /*000004ac*/ LDR         R7, [R2, #4] 
    /*000004b0*/ SUB         R3, R7, R5 
    /*000004b4*/ CMP         R3, #0 
    /*000004b8*/ BLE         _ZNKSt7__cxx1113match_resultsIN9__gnu_cxx17__normal_iteratorIPKcNS_12basic_stringIcSt11char_traitsIcESaIcEEEEESaINS_9sub_matchISA_EEEE6formatISt20back_insert_iteratorIS9_EEET_SI_S4_S4_NSt15regex_constants15match_flag_typeE_x4d0
    _ZNKSt7__cxx1113match_resultsIN9__gnu_cxx17__normal_iteratorIPKcNS_12basic_stringIcSt11char_traitsIcESaIcEEEEESaINS_9sub_matchISA_EEEE6formatISt20back_insert_iteratorIS9_EEET_SI_S4_S4_NSt15regex_constants15match_flag_typeE_x4bc:
    /*000004bc*/ LDRB        R1, [R5], #1 
    /*000004c0*/ MOV         R0, R4 
    /*000004c4*/ BL          _ZNSt7__cxx1112basic_stringIcSt11char_traitsIcESaIcEE9push_backEc
    /*000004c8*/ CMP         R5, R7 
    /*000004cc*/ BNE         _ZNKSt7__cxx1113match_resultsIN9__gnu_cxx17__normal_iteratorIPKcNS_12basic_stringIcSt11char_traitsIcESaIcEEEEESaINS_9sub_matchISA_EEEE6formatISt20back_insert_iteratorIS9_EEET_SI_S4_S4_NSt15regex_constants15match_flag_typeE_x4bc
    _ZNKSt7__cxx1113match_resultsIN9__gnu_cxx17__normal_iteratorIPKcNS_12basic_stringIcSt11char_traitsIcESaIcEEEEESaINS_9sub_matchISA_EEEE6formatISt20back_insert_iteratorIS9_EEET_SI_S4_S4_NSt15regex_constants15match_flag_typeE_x4d0:
    /*000004d0*/ STR         R4, [SP, #36]               @ 0x24 
    /*000004d4*/ B           _ZNKSt7__cxx1113match_resultsIN9__gnu_cxx17__normal_iteratorIPKcNS_12basic_stringIcSt11char_traitsIcESaIcEEEEESaINS_9sub_matchISA_EEEE6formatISt20back_insert_iteratorIS9_EEET_SI_S4_S4_NSt15regex_constants15match_flag_typeE_x90
    _ZNKSt7__cxx1113match_resultsIN9__gnu_cxx17__normal_iteratorIPKcNS_12basic_stringIcSt11char_traitsIcESaIcEEEEESaINS_9sub_matchISA_EEEE6formatISt20back_insert_iteratorIS9_EEET_SI_S4_S4_NSt15regex_constants15match_flag_typeE_x4d8:
    /*000004d8*/ LDR         R0, [SP, #20] 
    /*000004dc*/ MOV         R1, #0 
    /*000004e0*/ BL          _ZZNKSt7__cxx1113match_resultsIN9__gnu_cxx17__normal_iteratorIPKcNS_12basic_stringIcSt11char_traitsIcESaIcEEEEESaINS_9sub_matchISA_EEEE6formatISt20back_insert_iteratorIS9_EEET_SI_S4_S4_NSt15regex_constants15match_flag_typeEENKUljE_clEj
    /*000004e4*/ ADD         R6, R6, #1 
    /*000004e8*/ B           _ZNKSt7__cxx1113match_resultsIN9__gnu_cxx17__normal_iteratorIPKcNS_12basic_stringIcSt11char_traitsIcESaIcEEEEESaINS_9sub_matchISA_EEEE6formatISt20back_insert_iteratorIS9_EEET_SI_S4_S4_NSt15regex_constants15match_flag_typeE_x198
    _ZNKSt7__cxx1113match_resultsIN9__gnu_cxx17__normal_iteratorIPKcNS_12basic_stringIcSt11char_traitsIcESaIcEEEEESaINS_9sub_matchISA_EEEE6formatISt20back_insert_iteratorIS9_EEET_SI_S4_S4_NSt15regex_constants15match_flag_typeE_x4ec:
    /*000004ec*/ LDRB        R3, [R1] 
    /*000004f0*/ CMP         R3, #36                     @ 0x24 
    /*000004f4*/ BEQ         _ZNKSt7__cxx1113match_resultsIN9__gnu_cxx17__normal_iteratorIPKcNS_12basic_stringIcSt11char_traitsIcESaIcEEEEESaINS_9sub_matchISA_EEEE6formatISt20back_insert_iteratorIS9_EEET_SI_S4_S4_NSt15regex_constants15match_flag_typeE_x518
    /*000004f8*/ ADD         R1, R1, #1 
    _ZNKSt7__cxx1113match_resultsIN9__gnu_cxx17__normal_iteratorIPKcNS_12basic_stringIcSt11char_traitsIcESaIcEEEEESaINS_9sub_matchISA_EEEE6formatISt20back_insert_iteratorIS9_EEET_SI_S4_S4_NSt15regex_constants15match_flag_typeE_x4fc:
    /*000004fc*/ LDRB        R3, [R1] 
    /*00000500*/ CMP         R3, #36                     @ 0x24 
    /*00000504*/ BEQ         _ZNKSt7__cxx1113match_resultsIN9__gnu_cxx17__normal_iteratorIPKcNS_12basic_stringIcSt11char_traitsIcESaIcEEEEESaINS_9sub_matchISA_EEEE6formatISt20back_insert_iteratorIS9_EEET_SI_S4_S4_NSt15regex_constants15match_flag_typeE_x518
    /*00000508*/ ADD         R1, R1, #1 
    _ZNKSt7__cxx1113match_resultsIN9__gnu_cxx17__normal_iteratorIPKcNS_12basic_stringIcSt11char_traitsIcESaIcEEEEESaINS_9sub_matchISA_EEEE6formatISt20back_insert_iteratorIS9_EEET_SI_S4_S4_NSt15regex_constants15match_flag_typeE_x50c:
    /*0000050c*/ LDRB        R3, [R1] 
    /*00000510*/ CMP         R3, #36                     @ 0x24 
    /*00000514*/ BNE         _ZNKSt7__cxx1113match_resultsIN9__gnu_cxx17__normal_iteratorIPKcNS_12basic_stringIcSt11char_traitsIcESaIcEEEEESaINS_9sub_matchISA_EEEE6formatISt20back_insert_iteratorIS9_EEET_SI_S4_S4_NSt15regex_constants15match_flag_typeE_x14c
    _ZNKSt7__cxx1113match_resultsIN9__gnu_cxx17__normal_iteratorIPKcNS_12basic_stringIcSt11char_traitsIcESaIcEEEEESaINS_9sub_matchISA_EEEE6formatISt20back_insert_iteratorIS9_EEET_SI_S4_S4_NSt15regex_constants15match_flag_typeE_x518:
    /*00000518*/ MOV         R7, R1 
    /*0000051c*/ B           _ZNKSt7__cxx1113match_resultsIN9__gnu_cxx17__normal_iteratorIPKcNS_12basic_stringIcSt11char_traitsIcESaIcEEEEESaINS_9sub_matchISA_EEEE6formatISt20back_insert_iteratorIS9_EEET_SI_S4_S4_NSt15regex_constants15match_flag_typeE_x200
    _ZNKSt7__cxx1113match_resultsIN9__gnu_cxx17__normal_iteratorIPKcNS_12basic_stringIcSt11char_traitsIcESaIcEEEEESaINS_9sub_matchISA_EEEE6formatISt20back_insert_iteratorIS9_EEET_SI_S4_S4_NSt15regex_constants15match_flag_typeE_x520:
    /*00000520*/ MOV         R0, R4 
    /*00000524*/ MOV         R1, #36                     @ 0x24 
    /*00000528*/ BL          _ZNSt7__cxx1112basic_stringIcSt11char_traitsIcESaIcEE9push_backEc
    /*0000052c*/ B           _ZNKSt7__cxx1113match_resultsIN9__gnu_cxx17__normal_iteratorIPKcNS_12basic_stringIcSt11char_traitsIcESaIcEEEEESaINS_9sub_matchISA_EEEE6formatISt20back_insert_iteratorIS9_EEET_SI_S4_S4_NSt15regex_constants15match_flag_typeE_x364
    _ZNKSt7__cxx1113match_resultsIN9__gnu_cxx17__normal_iteratorIPKcNS_12basic_stringIcSt11char_traitsIcESaIcEEEEESaINS_9sub_matchISA_EEEE6formatISt20back_insert_iteratorIS9_EEET_SI_S4_S4_NSt15regex_constants15match_flag_typeE_x530:
    /*00000530*/ MOV         R3, R0 
    /*00000534*/ MOV         R1, R6 
    /*00000538*/ B           _ZNKSt7__cxx1113match_resultsIN9__gnu_cxx17__normal_iteratorIPKcNS_12basic_stringIcSt11char_traitsIcESaIcEEEEESaINS_9sub_matchISA_EEEE6formatISt20back_insert_iteratorIS9_EEET_SI_S4_S4_NSt15regex_constants15match_flag_typeE_x134
    /*0000053c*/ LDR         R0, [SP, #20] 
    /*00000540*/ BL          _ZNSt6localeD1Ev
    _ZNKSt7__cxx1113match_resultsIN9__gnu_cxx17__normal_iteratorIPKcNS_12basic_stringIcSt11char_traitsIcESaIcEEEEESaINS_9sub_matchISA_EEEE6formatISt20back_insert_iteratorIS9_EEET_SI_S4_S4_NSt15regex_constants15match_flag_typeE_x544:
    /*00000544*/ LDR         R0, [SP, #32] 
    /*00000548*/ BL          _ZNSt6localeD1Ev
    /*0000054c*/ BL          __cxa_end_cleanup
    /*00000550*/ B           _ZNKSt7__cxx1113match_resultsIN9__gnu_cxx17__normal_iteratorIPKcNS_12basic_stringIcSt11char_traitsIcESaIcEEEEESaINS_9sub_matchISA_EEEE6formatISt20back_insert_iteratorIS9_EEET_SI_S4_S4_NSt15regex_constants15match_flag_typeE_x544
FUNC_END _ZNKSt7__cxx1113match_resultsIN9__gnu_cxx17__normal_iteratorIPKcNS_12basic_stringIcSt11char_traitsIcESaIcEEEEESaINS_9sub_matchISA_EEEE6formatISt20back_insert_iteratorIS9_EEET_SI_S4_S4_NSt15regex_constants15match_flag_typeE


@ - - - - - - - - - - - - - - - - - - - - - - - - - - - - - 
@ .ARM.extab.text._ZNKSt7__cxx1113match_resultsIN9__gnu_cxx17__normal_iteratorIPKcNS_12basic_stringIcSt11char_traitsIcESaIcEEEEESaINS_9sub_matchISA_EEEE6formatISt20back_insert_iteratorIS9_EEET_SI_S4_S4_NSt15regex_constants15match_flag_typeE
@ Size: 0x1d
@ - - - - - - - - - - - - - - - - - - - - - - - - - - - - - 

@ - - - - - - - - - - - - - - - - - - - - - - - - - - - - - 
@ .text._ZN10hirtparser9GroupItemC2ERKS0_
@ Size: 0x450
@ - - - - - - - - - - - - - - - - - - - - - - - - - - - - - 

FUNC_BEGIN _ZN10hirtparser9GroupItemC2ERKS0_
    /*00000000*/ MOV         IP, #16384                  @ 0x4000 
    /*00000004*/ PUSH        {R4, R5, R6, R7, R8, R9, SL, FP, LR} 
    /*00000008*/ SUB         IP, SP, IP 
    /*0000000c*/ STR         R0, [IP, #4048]             @ 0xfd0 
    /*00000010*/ LDR         R4, [R1, #4] 
    /*00000014*/ SUB         SP, SP, #12 
    /*00000018*/ MOVW        R3, #61681                  @ 0xf0f1 
    /*0000001c*/ MOV         R2, #0 
    /*00000020*/ STR         R1, [SP] 
    /*00000024*/ MOV         R9, R0 
    /*00000028*/ LDR         R1, [R1] 
    /*0000002c*/ MOVT        R3, #61680                  @ 0xf0f0 
    /*00000030*/ SUB         R4, R4, R1 
    /*00000034*/ STR         R2, [R0] 
    /*00000038*/ ASR         R1, R4, #2 
    /*0000003c*/ MUL         R3, R3, R1 
    /*00000040*/ STR         R2, [R0, #4] 
    /*00000044*/ CMP         R3, R2 
    /*00000048*/ STR         R2, [R0, #8] 
    /*0000004c*/ STREQ       R3, [SP, #4] 
    /*00000050*/ BEQ         _ZN10hirtparser9GroupItemC2ERKS0__x74
    /*00000054*/ MOVW        R2, #50115                  @ 0xc3c3 
    /*00000058*/ MOVT        R2, #963                    @ 0x3c3 
    /*0000005c*/ CMP         R3, R2 
    /*00000060*/ BHI         _ZN10hirtparser9GroupItemC2ERKS0__x3cc
    /*00000064*/ MOV         R0, R4 
    /*00000068*/ BL          _Znwj
    /*0000006c*/ STR         R0, [SP, #4] 
    /*00000070*/ MOV         R3, R0 
    _ZN10hirtparser9GroupItemC2ERKS0__x74:
    /*00000074*/ LDR         R2, [SP] 
    /*00000078*/ ADD         R4, R3, R4 
    /*0000007c*/ STR         R4, [R9, #8] 
    /*00000080*/ STR         R3, [R9] 
    /*00000084*/ STR         R3, [R9, #4] 
    /*00000088*/ LDM         R2, {R5, SL} 
    /*0000008c*/ CMP         R5, SL 
    /*00000090*/ BEQ         _ZN10hirtparser9GroupItemC2ERKS0__x330
    /*00000094*/ LDR         FP, WORD_0448               @ LDR         FP, [PC, #940]              @ 0x0000000000000448 
    /*00000098*/ ADD         R4, R3, #28 
    /*0000009c*/ MOV         R7, R3 
    /*000000a0*/ MOV         R8, #0 
    /*000000a4*/ ADD         FP, PC, FP 
    /*000000a8*/ ADD         FP, FP, #8 
    _ZN10hirtparser9GroupItemC2ERKS0__xac:
    /*000000ac*/ CMP         R7, #0 
    /*000000b0*/ BEQ         _ZN10hirtparser9GroupItemC2ERKS0__x174
    /*000000b4*/ LDMIB       R5, {R3, R6} 
    /*000000b8*/ STR         FP, [R4, #-28]              @ 0xffffffe4 
    /*000000bc*/ SUB         R6, R6, R3 
    /*000000c0*/ STR         R8, [R4, #-24]              @ 0xffffffe8 
    /*000000c4*/ ASRS        R3, R6, #2 
    /*000000c8*/ STR         R8, [R4, #-20]              @ 0xffffffec 
    /*000000cc*/ STR         R8, [R4, #-16] 
    /*000000d0*/ BEQ         _ZN10hirtparser9GroupItemC2ERKS0__xe8
    /*000000d4*/ CMN         R3, #-1073741823            @ 0xc0000001 
    /*000000d8*/ BHI         _ZN10hirtparser9GroupItemC2ERKS0__x380
    /*000000dc*/ MOV         R0, R6 
    /*000000e0*/ BL          _Znwj
    /*000000e4*/ MOV         R3, R0 
    _ZN10hirtparser9GroupItemC2ERKS0__xe8:
    /*000000e8*/ ADD         R6, R3, R6 
    /*000000ec*/ STR         R6, [R4, #-16] 
    /*000000f0*/ STR         R3, [R4, #-24]              @ 0xffffffe8 
    /*000000f4*/ STR         R3, [R4, #-20]              @ 0xffffffec 
    /*000000f8*/ LDMIB       R5, {R1, R6} 
    /*000000fc*/ SUB         R6, R6, R1 
    /*00000100*/ LSRS        R2, R6, #2 
    /*00000104*/ BEQ         _ZN10hirtparser9GroupItemC2ERKS0__x118
    /*00000108*/ MOV         R0, R3 
    /*0000010c*/ MOV         R2, R6 
    /*00000110*/ BL          memmove
    /*00000114*/ MOV         R3, R0 
    _ZN10hirtparser9GroupItemC2ERKS0__x118:
    /*00000118*/ LDR         R1, [R5, #16] 
    /*0000011c*/ ADD         R0, R7, #20 
    /*00000120*/ LDR         IP, [R5, #24] 
    /*00000124*/ STR         R4, [R4, #-8] 
    /*00000128*/ LDR         R2, [R5, #20] 
    /*0000012c*/ ADD         R3, R3, R6 
    /*00000130*/ STR         R1, [R4, #-12] 
    /*00000134*/ MOV         R1, R2 
    /*00000138*/ STR         R3, [R4, #-20]              @ 0xffffffec 
    /*0000013c*/ ADD         R2, R2, IP 
    /*00000140*/ BL          _ZNSt7__cxx1112basic_stringIcSt11char_traitsIcESaIcEE12_M_constructIPcEEvT_S7_St20forward_iterator_tag.isra.120
    /*00000144*/ LDR         R3, [R5, #44]               @ 0x2c 
    /*00000148*/ LDR         R1, [R5, #48]               @ 0x30 
    /*0000014c*/ STR         R3, [R4, #16] 
    /*00000150*/ LDR         R3, [R5, #52]               @ 0x34 
    /*00000154*/ LDR         R2, [R5, #56]               @ 0x38 
    /*00000158*/ STR         R3, [R4, #24] 
    /*0000015c*/ LDR         R3, [R5, #60]               @ 0x3c 
    /*00000160*/ STR         R1, [R4, #20] 
    /*00000164*/ STR         R3, [R4, #32] 
    /*00000168*/ LDR         R3, [R5, #64]               @ 0x40 
    /*0000016c*/ STR         R2, [R4, #28] 
    /*00000170*/ STR         R3, [R4, #36]               @ 0x24 
    _ZN10hirtparser9GroupItemC2ERKS0__x174:
    /*00000174*/ ADD         R5, R5, #68                 @ 0x44 
    /*00000178*/ ADD         R7, R7, #68                 @ 0x44 
    /*0000017c*/ CMP         SL, R5 
    /*00000180*/ ADD         R4, R4, #68                 @ 0x44 
    /*00000184*/ BNE         _ZN10hirtparser9GroupItemC2ERKS0__xac
    /*00000188*/ LDR         R1, [SP] 
    _ZN10hirtparser9GroupItemC2ERKS0__x18c:
    /*0000018c*/ STR         R7, [R9, #4] 
    /*00000190*/ MOVW        R3, #61681                  @ 0xf0f1 
    /*00000194*/ LDR         R4, [R1, #16] 
    /*00000198*/ MOV         R2, #0 
    /*0000019c*/ LDR         R1, [R1, #12] 
    /*000001a0*/ MOVT        R3, #61680                  @ 0xf0f0 
    /*000001a4*/ SUB         R4, R4, R1 
    /*000001a8*/ STR         R2, [R9, #12] 
    /*000001ac*/ ASR         R1, R4, #2 
    /*000001b0*/ MUL         R3, R3, R1 
    /*000001b4*/ STR         R2, [R9, #16] 
    /*000001b8*/ CMP         R3, R2 
    /*000001bc*/ STR         R2, [R9, #20] 
    /*000001c0*/ STREQ       R3, [SP, #4] 
    /*000001c4*/ BEQ         _ZN10hirtparser9GroupItemC2ERKS0__x1e8
    /*000001c8*/ MOVW        R2, #50115                  @ 0xc3c3 
    /*000001cc*/ MOVT        R2, #963                    @ 0x3c3 
    /*000001d0*/ CMP         R3, R2 
    /*000001d4*/ BHI         _ZN10hirtparser9GroupItemC2ERKS0__x3f0
    /*000001d8*/ MOV         R0, R4 
    /*000001dc*/ BL          _Znwj
    /*000001e0*/ STR         R0, [SP, #4] 
    /*000001e4*/ MOV         R3, R0 
    _ZN10hirtparser9GroupItemC2ERKS0__x1e8:
    /*000001e8*/ LDR         R2, [SP] 
    /*000001ec*/ ADD         R4, R3, R4 
    /*000001f0*/ STR         R4, [R9, #20] 
    /*000001f4*/ STR         R3, [R9, #12] 
    /*000001f8*/ STR         R3, [R9, #16] 
    /*000001fc*/ LDR         R5, [R2, #12] 
    /*00000200*/ LDR         SL, [R2, #16] 
    /*00000204*/ CMP         R5, SL 
    /*00000208*/ BEQ         _ZN10hirtparser9GroupItemC2ERKS0__x33c
    /*0000020c*/ LDR         FP, WORD_044c               @ LDR         FP, [PC, #568]              @ 0x000000000000044c 
    /*00000210*/ ADD         R4, R3, #28 
    /*00000214*/ MOV         R7, R3 
    /*00000218*/ MOV         R8, #0 
    /*0000021c*/ ADD         FP, PC, FP 
    /*00000220*/ ADD         FP, FP, #8 
    _ZN10hirtparser9GroupItemC2ERKS0__x224:
    /*00000224*/ CMP         R7, #0 
    /*00000228*/ BEQ         _ZN10hirtparser9GroupItemC2ERKS0__x2ec
    /*0000022c*/ LDMIB       R5, {R3, R6} 
    /*00000230*/ STR         FP, [R4, #-28]              @ 0xffffffe4 
    /*00000234*/ SUB         R6, R6, R3 
    /*00000238*/ STR         R8, [R4, #-24]              @ 0xffffffe8 
    /*0000023c*/ ASRS        R3, R6, #2 
    /*00000240*/ STR         R8, [R4, #-20]              @ 0xffffffec 
    /*00000244*/ STR         R8, [R4, #-16] 
    /*00000248*/ BEQ         _ZN10hirtparser9GroupItemC2ERKS0__x260
    /*0000024c*/ CMN         R3, #-1073741823            @ 0xc0000001 
    /*00000250*/ BHI         _ZN10hirtparser9GroupItemC2ERKS0__x348
    /*00000254*/ MOV         R0, R6 
    /*00000258*/ BL          _Znwj
    /*0000025c*/ MOV         R3, R0 
    _ZN10hirtparser9GroupItemC2ERKS0__x260:
    /*00000260*/ ADD         R6, R3, R6 
    /*00000264*/ STR         R6, [R4, #-16] 
    /*00000268*/ STR         R3, [R4, #-24]              @ 0xffffffe8 
    /*0000026c*/ STR         R3, [R4, #-20]              @ 0xffffffec 
    /*00000270*/ LDMIB       R5, {R1, R6} 
    /*00000274*/ SUB         R6, R6, R1 
    /*00000278*/ LSRS        R2, R6, #2 
    /*0000027c*/ BEQ         _ZN10hirtparser9GroupItemC2ERKS0__x290
    /*00000280*/ MOV         R0, R3 
    /*00000284*/ MOV         R2, R6 
    /*00000288*/ BL          memmove
    /*0000028c*/ MOV         R3, R0 
    _ZN10hirtparser9GroupItemC2ERKS0__x290:
    /*00000290*/ LDR         R1, [R5, #16] 
    /*00000294*/ ADD         R0, R7, #20 
    /*00000298*/ LDR         IP, [R5, #24] 
    /*0000029c*/ STR         R4, [R4, #-8] 
    /*000002a0*/ LDR         R2, [R5, #20] 
    /*000002a4*/ ADD         R3, R3, R6 
    /*000002a8*/ STR         R1, [R4, #-12] 
    /*000002ac*/ MOV         R1, R2 
    /*000002b0*/ STR         R3, [R4, #-20]              @ 0xffffffec 
    /*000002b4*/ ADD         R2, R2, IP 
    /*000002b8*/ BL          _ZNSt7__cxx1112basic_stringIcSt11char_traitsIcESaIcEE12_M_constructIPcEEvT_S7_St20forward_iterator_tag.isra.120
    /*000002bc*/ LDR         R3, [R5, #44]               @ 0x2c 
    /*000002c0*/ LDR         R1, [R5, #48]               @ 0x30 
    /*000002c4*/ STR         R3, [R4, #16] 
    /*000002c8*/ LDR         R3, [R5, #52]               @ 0x34 
    /*000002cc*/ LDR         R2, [R5, #56]               @ 0x38 
    /*000002d0*/ STR         R3, [R4, #24] 
    /*000002d4*/ LDR         R3, [R5, #60]               @ 0x3c 
    /*000002d8*/ STR         R1, [R4, #20] 
    /*000002dc*/ STR         R3, [R4, #32] 
    /*000002e0*/ LDR         R3, [R5, #64]               @ 0x40 
    /*000002e4*/ STR         R2, [R4, #28] 
    /*000002e8*/ STR         R3, [R4, #36]               @ 0x24 
    _ZN10hirtparser9GroupItemC2ERKS0__x2ec:
    /*000002ec*/ ADD         R5, R5, #68                 @ 0x44 
    /*000002f0*/ ADD         R7, R7, #68                 @ 0x44 
    /*000002f4*/ CMP         SL, R5 
    /*000002f8*/ ADD         R4, R4, #68                 @ 0x44 
    /*000002fc*/ BNE         _ZN10hirtparser9GroupItemC2ERKS0__x224
    /*00000300*/ LDR         R1, [SP] 
    _ZN10hirtparser9GroupItemC2ERKS0__x304:
    /*00000304*/ LDR         R2, [R1, #28] 
    /*00000308*/ ADD         R3, R9, #32 
    /*0000030c*/ STR         R3, [R9, #24] 
    /*00000310*/ ADD         R0, R9, #24 
    /*00000314*/ LDR         R1, [R1, #24] 
    /*00000318*/ STR         R7, [R9, #16] 
    /*0000031c*/ ADD         R2, R1, R2 
    /*00000320*/ BL          _ZNSt7__cxx1112basic_stringIcSt11char_traitsIcESaIcEE12_M_constructIPcEEvT_S7_St20forward_iterator_tag.isra.120
    /*00000324*/ MOV         R0, R9 
    /*00000328*/ ADD         SP, SP, #12 
    /*0000032c*/ POP         {R4, R5, R6, R7, R8, R9, SL, FP, PC} 
    _ZN10hirtparser9GroupItemC2ERKS0__x330:
    /*00000330*/ MOV         R7, R3 
    /*00000334*/ MOV         R1, R2 
    /*00000338*/ B           _ZN10hirtparser9GroupItemC2ERKS0__x18c
    _ZN10hirtparser9GroupItemC2ERKS0__x33c:
    /*0000033c*/ MOV         R7, R3 
    /*00000340*/ MOV         R1, R2 
    /*00000344*/ B           _ZN10hirtparser9GroupItemC2ERKS0__x304
    _ZN10hirtparser9GroupItemC2ERKS0__x348:
    /*00000348*/ BL          _ZSt17__throw_bad_allocv
    _ZN10hirtparser9GroupItemC2ERKS0__x34c:
    /*0000034c*/ BL          __cxa_begin_catch
    /*00000350*/ LDR         R3, [SP, #4] 
    /*00000354*/ CMP         R3, R7 
    /*00000358*/ MOVNE       R4, R3 
    /*0000035c*/ BEQ         _ZN10hirtparser9GroupItemC2ERKS0__x37c
    _ZN10hirtparser9GroupItemC2ERKS0__x360:
    /*00000360*/ LDR         R3, [R4] 
    /*00000364*/ MOV         R0, R4 
    /*00000368*/ ADD         R4, R4, #68                 @ 0x44 
    /*0000036c*/ LDR         R3, [R3] 
    /*00000370*/ BLX         R3 
    /*00000374*/ CMP         R4, R7 
    /*00000378*/ BNE         _ZN10hirtparser9GroupItemC2ERKS0__x360
    _ZN10hirtparser9GroupItemC2ERKS0__x37c:
    /*0000037c*/ BL          __cxa_rethrow
    _ZN10hirtparser9GroupItemC2ERKS0__x380:
    /*00000380*/ BL          _ZSt17__throw_bad_allocv
    _ZN10hirtparser9GroupItemC2ERKS0__x384:
    /*00000384*/ BL          __cxa_begin_catch
    /*00000388*/ LDR         R3, [SP, #4] 
    /*0000038c*/ CMP         R3, R7 
    /*00000390*/ MOVNE       R4, R3 
    /*00000394*/ BEQ         _ZN10hirtparser9GroupItemC2ERKS0__x3b4
    _ZN10hirtparser9GroupItemC2ERKS0__x398:
    /*00000398*/ LDR         R3, [R4] 
    /*0000039c*/ MOV         R0, R4 
    /*000003a0*/ ADD         R4, R4, #68                 @ 0x44 
    /*000003a4*/ LDR         R3, [R3] 
    /*000003a8*/ BLX         R3 
    /*000003ac*/ CMP         R4, R7 
    /*000003b0*/ BNE         _ZN10hirtparser9GroupItemC2ERKS0__x398
    _ZN10hirtparser9GroupItemC2ERKS0__x3b4:
    /*000003b4*/ BL          __cxa_rethrow
    /*000003b8*/ ADD         R0, R9, #12 
    /*000003bc*/ BL          _ZNSt6vectorIN10hirtparser4BlobESaIS1_EED1Ev
    _ZN10hirtparser9GroupItemC2ERKS0__x3c0:
    /*000003c0*/ MOV         R0, R9 
    /*000003c4*/ BL          _ZNSt6vectorIN10hirtparser4BlobESaIS1_EED1Ev
    _ZN10hirtparser9GroupItemC2ERKS0__x3c8:
    /*000003c8*/ BL          __cxa_end_cleanup
    _ZN10hirtparser9GroupItemC2ERKS0__x3cc:
    /*000003cc*/ BL          _ZSt17__throw_bad_allocv
    /*000003d0*/ LDR         R3, [R7, #4] 
    /*000003d4*/ MOV         R4, R0 
    /*000003d8*/ CMP         R3, #0 
    /*000003dc*/ BEQ         _ZN10hirtparser9GroupItemC2ERKS0__x3e8
    /*000003e0*/ MOV         R0, R3 
    /*000003e4*/ BL          _ZdlPv
    _ZN10hirtparser9GroupItemC2ERKS0__x3e8:
    /*000003e8*/ MOV         R0, R4 
    /*000003ec*/ B           _ZN10hirtparser9GroupItemC2ERKS0__x34c
    _ZN10hirtparser9GroupItemC2ERKS0__x3f0:
    /*000003f0*/ BL          _ZSt17__throw_bad_allocv
    /*000003f4*/ B           _ZN10hirtparser9GroupItemC2ERKS0__x3c0
    /*000003f8*/ LDR         R3, [R7, #4] 
    /*000003fc*/ MOV         R4, R0 
    /*00000400*/ CMP         R3, #0 
    /*00000404*/ BEQ         _ZN10hirtparser9GroupItemC2ERKS0__x410
    /*00000408*/ MOV         R0, R3 
    /*0000040c*/ BL          _ZdlPv
    _ZN10hirtparser9GroupItemC2ERKS0__x410:
    /*00000410*/ MOV         R0, R4 
    /*00000414*/ B           _ZN10hirtparser9GroupItemC2ERKS0__x384
    /*00000418*/ BL          __cxa_end_catch
    /*0000041c*/ LDR         R0, [R9] 
    /*00000420*/ CMP         R0, #0 
    /*00000424*/ BEQ         _ZN10hirtparser9GroupItemC2ERKS0__x3c8
    /*00000428*/ BL          _ZdlPv
    /*0000042c*/ B           _ZN10hirtparser9GroupItemC2ERKS0__x3c8
    /*00000430*/ BL          __cxa_end_catch
    /*00000434*/ LDR         R0, [R9, #12] 
    /*00000438*/ CMP         R0, #0 
    /*0000043c*/ BEQ         _ZN10hirtparser9GroupItemC2ERKS0__x3c0
    /*00000440*/ BL          _ZdlPv
    /*00000444*/ B           _ZN10hirtparser9GroupItemC2ERKS0__x3c0
    /*00000448*/ WORD_0448: .word 0x0000039c
    /*0000044c*/ WORD_044c: .word 0x00000228
FUNC_END _ZN10hirtparser9GroupItemC2ERKS0_


FUNC_BEGIN _ZN10hirtparser9GroupItemC1ERKS0_
    /*00000000*/ MOV         IP, #16384                  @ 0x4000 
    /*00000004*/ PUSH        {R4, R5, R6, R7, R8, R9, SL, FP, LR} 
    /*00000008*/ SUB         IP, SP, IP 
    /*0000000c*/ STR         R0, [IP, #4048]             @ 0xfd0 
    /*00000010*/ LDR         R4, [R1, #4] 
    /*00000014*/ SUB         SP, SP, #12 
    /*00000018*/ MOVW        R3, #61681                  @ 0xf0f1 
    /*0000001c*/ MOV         R2, #0 
    /*00000020*/ STR         R1, [SP] 
    /*00000024*/ MOV         R9, R0 
    /*00000028*/ LDR         R1, [R1] 
    /*0000002c*/ MOVT        R3, #61680                  @ 0xf0f0 
    /*00000030*/ SUB         R4, R4, R1 
    /*00000034*/ STR         R2, [R0] 
    /*00000038*/ ASR         R1, R4, #2 
    /*0000003c*/ MUL         R3, R3, R1 
    /*00000040*/ STR         R2, [R0, #4] 
    /*00000044*/ CMP         R3, R2 
    /*00000048*/ STR         R2, [R0, #8] 
    /*0000004c*/ STREQ       R3, [SP, #4] 
    /*00000050*/ BEQ         _ZN10hirtparser9GroupItemC1ERKS0__x74
    /*00000054*/ MOVW        R2, #50115                  @ 0xc3c3 
    /*00000058*/ MOVT        R2, #963                    @ 0x3c3 
    /*0000005c*/ CMP         R3, R2 
    /*00000060*/ BHI         _ZN10hirtparser9GroupItemC1ERKS0__x3cc
    /*00000064*/ MOV         R0, R4 
    /*00000068*/ BL          _Znwj
    /*0000006c*/ STR         R0, [SP, #4] 
    /*00000070*/ MOV         R3, R0 
    _ZN10hirtparser9GroupItemC1ERKS0__x74:
    /*00000074*/ LDR         R2, [SP] 
    /*00000078*/ ADD         R4, R3, R4 
    /*0000007c*/ STR         R4, [R9, #8] 
    /*00000080*/ STR         R3, [R9] 
    /*00000084*/ STR         R3, [R9, #4] 
    /*00000088*/ LDM         R2, {R5, SL} 
    /*0000008c*/ CMP         R5, SL 
    /*00000090*/ BEQ         _ZN10hirtparser9GroupItemC1ERKS0__x330
    /*00000094*/ LDR         FP, WORD_0448               @ LDR         FP, [PC, #940]              @ 0x0000000000000448 
    /*00000098*/ ADD         R4, R3, #28 
    /*0000009c*/ MOV         R7, R3 
    /*000000a0*/ MOV         R8, #0 
    /*000000a4*/ ADD         FP, PC, FP 
    /*000000a8*/ ADD         FP, FP, #8 
    _ZN10hirtparser9GroupItemC1ERKS0__xac:
    /*000000ac*/ CMP         R7, #0 
    /*000000b0*/ BEQ         _ZN10hirtparser9GroupItemC1ERKS0__x174
    /*000000b4*/ LDMIB       R5, {R3, R6} 
    /*000000b8*/ STR         FP, [R4, #-28]              @ 0xffffffe4 
    /*000000bc*/ SUB         R6, R6, R3 
    /*000000c0*/ STR         R8, [R4, #-24]              @ 0xffffffe8 
    /*000000c4*/ ASRS        R3, R6, #2 
    /*000000c8*/ STR         R8, [R4, #-20]              @ 0xffffffec 
    /*000000cc*/ STR         R8, [R4, #-16] 
    /*000000d0*/ BEQ         _ZN10hirtparser9GroupItemC1ERKS0__xe8
    /*000000d4*/ CMN         R3, #-1073741823            @ 0xc0000001 
    /*000000d8*/ BHI         _ZN10hirtparser9GroupItemC1ERKS0__x380
    /*000000dc*/ MOV         R0, R6 
    /*000000e0*/ BL          _Znwj
    /*000000e4*/ MOV         R3, R0 
    _ZN10hirtparser9GroupItemC1ERKS0__xe8:
    /*000000e8*/ ADD         R6, R3, R6 
    /*000000ec*/ STR         R6, [R4, #-16] 
    /*000000f0*/ STR         R3, [R4, #-24]              @ 0xffffffe8 
    /*000000f4*/ STR         R3, [R4, #-20]              @ 0xffffffec 
    /*000000f8*/ LDMIB       R5, {R1, R6} 
    /*000000fc*/ SUB         R6, R6, R1 
    /*00000100*/ LSRS        R2, R6, #2 
    /*00000104*/ BEQ         _ZN10hirtparser9GroupItemC1ERKS0__x118
    /*00000108*/ MOV         R0, R3 
    /*0000010c*/ MOV         R2, R6 
    /*00000110*/ BL          memmove
    /*00000114*/ MOV         R3, R0 
    _ZN10hirtparser9GroupItemC1ERKS0__x118:
    /*00000118*/ LDR         R1, [R5, #16] 
    /*0000011c*/ ADD         R0, R7, #20 
    /*00000120*/ LDR         IP, [R5, #24] 
    /*00000124*/ STR         R4, [R4, #-8] 
    /*00000128*/ LDR         R2, [R5, #20] 
    /*0000012c*/ ADD         R3, R3, R6 
    /*00000130*/ STR         R1, [R4, #-12] 
    /*00000134*/ MOV         R1, R2 
    /*00000138*/ STR         R3, [R4, #-20]              @ 0xffffffec 
    /*0000013c*/ ADD         R2, R2, IP 
    /*00000140*/ BL          _ZNSt7__cxx1112basic_stringIcSt11char_traitsIcESaIcEE12_M_constructIPcEEvT_S7_St20forward_iterator_tag.isra.120
    /*00000144*/ LDR         R3, [R5, #44]               @ 0x2c 
    /*00000148*/ LDR         R1, [R5, #48]               @ 0x30 
    /*0000014c*/ STR         R3, [R4, #16] 
    /*00000150*/ LDR         R3, [R5, #52]               @ 0x34 
    /*00000154*/ LDR         R2, [R5, #56]               @ 0x38 
    /*00000158*/ STR         R3, [R4, #24] 
    /*0000015c*/ LDR         R3, [R5, #60]               @ 0x3c 
    /*00000160*/ STR         R1, [R4, #20] 
    /*00000164*/ STR         R3, [R4, #32] 
    /*00000168*/ LDR         R3, [R5, #64]               @ 0x40 
    /*0000016c*/ STR         R2, [R4, #28] 
    /*00000170*/ STR         R3, [R4, #36]               @ 0x24 
    _ZN10hirtparser9GroupItemC1ERKS0__x174:
    /*00000174*/ ADD         R5, R5, #68                 @ 0x44 
    /*00000178*/ ADD         R7, R7, #68                 @ 0x44 
    /*0000017c*/ CMP         SL, R5 
    /*00000180*/ ADD         R4, R4, #68                 @ 0x44 
    /*00000184*/ BNE         _ZN10hirtparser9GroupItemC1ERKS0__xac
    /*00000188*/ LDR         R1, [SP] 
    _ZN10hirtparser9GroupItemC1ERKS0__x18c:
    /*0000018c*/ STR         R7, [R9, #4] 
    /*00000190*/ MOVW        R3, #61681                  @ 0xf0f1 
    /*00000194*/ LDR         R4, [R1, #16] 
    /*00000198*/ MOV         R2, #0 
    /*0000019c*/ LDR         R1, [R1, #12] 
    /*000001a0*/ MOVT        R3, #61680                  @ 0xf0f0 
    /*000001a4*/ SUB         R4, R4, R1 
    /*000001a8*/ STR         R2, [R9, #12] 
    /*000001ac*/ ASR         R1, R4, #2 
    /*000001b0*/ MUL         R3, R3, R1 
    /*000001b4*/ STR         R2, [R9, #16] 
    /*000001b8*/ CMP         R3, R2 
    /*000001bc*/ STR         R2, [R9, #20] 
    /*000001c0*/ STREQ       R3, [SP, #4] 
    /*000001c4*/ BEQ         _ZN10hirtparser9GroupItemC1ERKS0__x1e8
    /*000001c8*/ MOVW        R2, #50115                  @ 0xc3c3 
    /*000001cc*/ MOVT        R2, #963                    @ 0x3c3 
    /*000001d0*/ CMP         R3, R2 
    /*000001d4*/ BHI         _ZN10hirtparser9GroupItemC1ERKS0__x3f0
    /*000001d8*/ MOV         R0, R4 
    /*000001dc*/ BL          _Znwj
    /*000001e0*/ STR         R0, [SP, #4] 
    /*000001e4*/ MOV         R3, R0 
    _ZN10hirtparser9GroupItemC1ERKS0__x1e8:
    /*000001e8*/ LDR         R2, [SP] 
    /*000001ec*/ ADD         R4, R3, R4 
    /*000001f0*/ STR         R4, [R9, #20] 
    /*000001f4*/ STR         R3, [R9, #12] 
    /*000001f8*/ STR         R3, [R9, #16] 
    /*000001fc*/ LDR         R5, [R2, #12] 
    /*00000200*/ LDR         SL, [R2, #16] 
    /*00000204*/ CMP         R5, SL 
    /*00000208*/ BEQ         _ZN10hirtparser9GroupItemC1ERKS0__x33c
    /*0000020c*/ LDR         FP, WORD_044c               @ LDR         FP, [PC, #568]              @ 0x000000000000044c 
    /*00000210*/ ADD         R4, R3, #28 
    /*00000214*/ MOV         R7, R3 
    /*00000218*/ MOV         R8, #0 
    /*0000021c*/ ADD         FP, PC, FP 
    /*00000220*/ ADD         FP, FP, #8 
    _ZN10hirtparser9GroupItemC1ERKS0__x224:
    /*00000224*/ CMP         R7, #0 
    /*00000228*/ BEQ         _ZN10hirtparser9GroupItemC1ERKS0__x2ec
    /*0000022c*/ LDMIB       R5, {R3, R6} 
    /*00000230*/ STR         FP, [R4, #-28]              @ 0xffffffe4 
    /*00000234*/ SUB         R6, R6, R3 
    /*00000238*/ STR         R8, [R4, #-24]              @ 0xffffffe8 
    /*0000023c*/ ASRS        R3, R6, #2 
    /*00000240*/ STR         R8, [R4, #-20]              @ 0xffffffec 
    /*00000244*/ STR         R8, [R4, #-16] 
    /*00000248*/ BEQ         _ZN10hirtparser9GroupItemC1ERKS0__x260
    /*0000024c*/ CMN         R3, #-1073741823            @ 0xc0000001 
    /*00000250*/ BHI         _ZN10hirtparser9GroupItemC1ERKS0__x348
    /*00000254*/ MOV         R0, R6 
    /*00000258*/ BL          _Znwj
    /*0000025c*/ MOV         R3, R0 
    _ZN10hirtparser9GroupItemC1ERKS0__x260:
    /*00000260*/ ADD         R6, R3, R6 
    /*00000264*/ STR         R6, [R4, #-16] 
    /*00000268*/ STR         R3, [R4, #-24]              @ 0xffffffe8 
    /*0000026c*/ STR         R3, [R4, #-20]              @ 0xffffffec 
    /*00000270*/ LDMIB       R5, {R1, R6} 
    /*00000274*/ SUB         R6, R6, R1 
    /*00000278*/ LSRS        R2, R6, #2 
    /*0000027c*/ BEQ         _ZN10hirtparser9GroupItemC1ERKS0__x290
    /*00000280*/ MOV         R0, R3 
    /*00000284*/ MOV         R2, R6 
    /*00000288*/ BL          memmove
    /*0000028c*/ MOV         R3, R0 
    _ZN10hirtparser9GroupItemC1ERKS0__x290:
    /*00000290*/ LDR         R1, [R5, #16] 
    /*00000294*/ ADD         R0, R7, #20 
    /*00000298*/ LDR         IP, [R5, #24] 
    /*0000029c*/ STR         R4, [R4, #-8] 
    /*000002a0*/ LDR         R2, [R5, #20] 
    /*000002a4*/ ADD         R3, R3, R6 
    /*000002a8*/ STR         R1, [R4, #-12] 
    /*000002ac*/ MOV         R1, R2 
    /*000002b0*/ STR         R3, [R4, #-20]              @ 0xffffffec 
    /*000002b4*/ ADD         R2, R2, IP 
    /*000002b8*/ BL          _ZNSt7__cxx1112basic_stringIcSt11char_traitsIcESaIcEE12_M_constructIPcEEvT_S7_St20forward_iterator_tag.isra.120
    /*000002bc*/ LDR         R3, [R5, #44]               @ 0x2c 
    /*000002c0*/ LDR         R1, [R5, #48]               @ 0x30 
    /*000002c4*/ STR         R3, [R4, #16] 
    /*000002c8*/ LDR         R3, [R5, #52]               @ 0x34 
    /*000002cc*/ LDR         R2, [R5, #56]               @ 0x38 
    /*000002d0*/ STR         R3, [R4, #24] 
    /*000002d4*/ LDR         R3, [R5, #60]               @ 0x3c 
    /*000002d8*/ STR         R1, [R4, #20] 
    /*000002dc*/ STR         R3, [R4, #32] 
    /*000002e0*/ LDR         R3, [R5, #64]               @ 0x40 
    /*000002e4*/ STR         R2, [R4, #28] 
    /*000002e8*/ STR         R3, [R4, #36]               @ 0x24 
    _ZN10hirtparser9GroupItemC1ERKS0__x2ec:
    /*000002ec*/ ADD         R5, R5, #68                 @ 0x44 
    /*000002f0*/ ADD         R7, R7, #68                 @ 0x44 
    /*000002f4*/ CMP         SL, R5 
    /*000002f8*/ ADD         R4, R4, #68                 @ 0x44 
    /*000002fc*/ BNE         _ZN10hirtparser9GroupItemC1ERKS0__x224
    /*00000300*/ LDR         R1, [SP] 
    _ZN10hirtparser9GroupItemC1ERKS0__x304:
    /*00000304*/ LDR         R2, [R1, #28] 
    /*00000308*/ ADD         R3, R9, #32 
    /*0000030c*/ STR         R3, [R9, #24] 
    /*00000310*/ ADD         R0, R9, #24 
    /*00000314*/ LDR         R1, [R1, #24] 
    /*00000318*/ STR         R7, [R9, #16] 
    /*0000031c*/ ADD         R2, R1, R2 
    /*00000320*/ BL          _ZNSt7__cxx1112basic_stringIcSt11char_traitsIcESaIcEE12_M_constructIPcEEvT_S7_St20forward_iterator_tag.isra.120
    /*00000324*/ MOV         R0, R9 
    /*00000328*/ ADD         SP, SP, #12 
    /*0000032c*/ POP         {R4, R5, R6, R7, R8, R9, SL, FP, PC} 
    _ZN10hirtparser9GroupItemC1ERKS0__x330:
    /*00000330*/ MOV         R7, R3 
    /*00000334*/ MOV         R1, R2 
    /*00000338*/ B           _ZN10hirtparser9GroupItemC1ERKS0__x18c
    _ZN10hirtparser9GroupItemC1ERKS0__x33c:
    /*0000033c*/ MOV         R7, R3 
    /*00000340*/ MOV         R1, R2 
    /*00000344*/ B           _ZN10hirtparser9GroupItemC1ERKS0__x304
    _ZN10hirtparser9GroupItemC1ERKS0__x348:
    /*00000348*/ BL          _ZSt17__throw_bad_allocv
    _ZN10hirtparser9GroupItemC1ERKS0__x34c:
    /*0000034c*/ BL          __cxa_begin_catch
    /*00000350*/ LDR         R3, [SP, #4] 
    /*00000354*/ CMP         R3, R7 
    /*00000358*/ MOVNE       R4, R3 
    /*0000035c*/ BEQ         _ZN10hirtparser9GroupItemC1ERKS0__x37c
    _ZN10hirtparser9GroupItemC1ERKS0__x360:
    /*00000360*/ LDR         R3, [R4] 
    /*00000364*/ MOV         R0, R4 
    /*00000368*/ ADD         R4, R4, #68                 @ 0x44 
    /*0000036c*/ LDR         R3, [R3] 
    /*00000370*/ BLX         R3 
    /*00000374*/ CMP         R4, R7 
    /*00000378*/ BNE         _ZN10hirtparser9GroupItemC1ERKS0__x360
    _ZN10hirtparser9GroupItemC1ERKS0__x37c:
    /*0000037c*/ BL          __cxa_rethrow
    _ZN10hirtparser9GroupItemC1ERKS0__x380:
    /*00000380*/ BL          _ZSt17__throw_bad_allocv
    _ZN10hirtparser9GroupItemC1ERKS0__x384:
    /*00000384*/ BL          __cxa_begin_catch
    /*00000388*/ LDR         R3, [SP, #4] 
    /*0000038c*/ CMP         R3, R7 
    /*00000390*/ MOVNE       R4, R3 
    /*00000394*/ BEQ         _ZN10hirtparser9GroupItemC1ERKS0__x3b4
    _ZN10hirtparser9GroupItemC1ERKS0__x398:
    /*00000398*/ LDR         R3, [R4] 
    /*0000039c*/ MOV         R0, R4 
    /*000003a0*/ ADD         R4, R4, #68                 @ 0x44 
    /*000003a4*/ LDR         R3, [R3] 
    /*000003a8*/ BLX         R3 
    /*000003ac*/ CMP         R4, R7 
    /*000003b0*/ BNE         _ZN10hirtparser9GroupItemC1ERKS0__x398
    _ZN10hirtparser9GroupItemC1ERKS0__x3b4:
    /*000003b4*/ BL          __cxa_rethrow
    /*000003b8*/ ADD         R0, R9, #12 
    /*000003bc*/ BL          _ZNSt6vectorIN10hirtparser4BlobESaIS1_EED1Ev
    _ZN10hirtparser9GroupItemC1ERKS0__x3c0:
    /*000003c0*/ MOV         R0, R9 
    /*000003c4*/ BL          _ZNSt6vectorIN10hirtparser4BlobESaIS1_EED1Ev
    _ZN10hirtparser9GroupItemC1ERKS0__x3c8:
    /*000003c8*/ BL          __cxa_end_cleanup
    _ZN10hirtparser9GroupItemC1ERKS0__x3cc:
    /*000003cc*/ BL          _ZSt17__throw_bad_allocv
    /*000003d0*/ LDR         R3, [R7, #4] 
    /*000003d4*/ MOV         R4, R0 
    /*000003d8*/ CMP         R3, #0 
    /*000003dc*/ BEQ         _ZN10hirtparser9GroupItemC1ERKS0__x3e8
    /*000003e0*/ MOV         R0, R3 
    /*000003e4*/ BL          _ZdlPv
    _ZN10hirtparser9GroupItemC1ERKS0__x3e8:
    /*000003e8*/ MOV         R0, R4 
    /*000003ec*/ B           _ZN10hirtparser9GroupItemC1ERKS0__x34c
    _ZN10hirtparser9GroupItemC1ERKS0__x3f0:
    /*000003f0*/ BL          _ZSt17__throw_bad_allocv
    /*000003f4*/ B           _ZN10hirtparser9GroupItemC1ERKS0__x3c0
    /*000003f8*/ LDR         R3, [R7, #4] 
    /*000003fc*/ MOV         R4, R0 
    /*00000400*/ CMP         R3, #0 
    /*00000404*/ BEQ         _ZN10hirtparser9GroupItemC1ERKS0__x410
    /*00000408*/ MOV         R0, R3 
    /*0000040c*/ BL          _ZdlPv
    _ZN10hirtparser9GroupItemC1ERKS0__x410:
    /*00000410*/ MOV         R0, R4 
    /*00000414*/ B           _ZN10hirtparser9GroupItemC1ERKS0__x384
    /*00000418*/ BL          __cxa_end_catch
    /*0000041c*/ LDR         R0, [R9] 
    /*00000420*/ CMP         R0, #0 
    /*00000424*/ BEQ         _ZN10hirtparser9GroupItemC1ERKS0__x3c8
    /*00000428*/ BL          _ZdlPv
    /*0000042c*/ B           _ZN10hirtparser9GroupItemC1ERKS0__x3c8
    /*00000430*/ BL          __cxa_end_catch
    /*00000434*/ LDR         R0, [R9, #12] 
    /*00000438*/ CMP         R0, #0 
    /*0000043c*/ BEQ         _ZN10hirtparser9GroupItemC1ERKS0__x3c0
    /*00000440*/ BL          _ZdlPv
    /*00000444*/ B           _ZN10hirtparser9GroupItemC1ERKS0__x3c0
    /*00000448*/ WORD_0448: .word 0x0000039c
    /*0000044c*/ WORD_044c: .word 0x00000228
FUNC_END _ZN10hirtparser9GroupItemC1ERKS0_


@ - - - - - - - - - - - - - - - - - - - - - - - - - - - - - 
@ .ARM.extab.text._ZN10hirtparser9GroupItemC2ERKS0_
@ Size: 0x60
@ - - - - - - - - - - - - - - - - - - - - - - - - - - - - - 

@ - - - - - - - - - - - - - - - - - - - - - - - - - - - - - 
@ .text._ZNSt6vectorIN10hirtparser5ModelESaIS1_EE19_M_emplace_back_auxIJRKS1_EEEvDpOT_
@ Size: 0x5d8
@ - - - - - - - - - - - - - - - - - - - - - - - - - - - - - 

FUNC_BEGIN _ZNSt6vectorIN10hirtparser5ModelESaIS1_EE19_M_emplace_back_auxIJRKS1_EEEvDpOT_
    /*00000000*/ MOV         IP, #16384                  @ 0x4000 
    /*00000004*/ PUSH        {R4, R5, R6, R7, R8, R9, SL, FP, LR} 
    /*00000008*/ SUB         IP, SP, IP 
    /*0000000c*/ STR         R0, [IP, #4032]             @ 0xfc0 
    /*00000010*/ LDR         R3, [R0] 
    /*00000014*/ MOV         SL, R1 
    /*00000018*/ LDR         R1, [R0, #4] 
    /*0000001c*/ SUB         SP, SP, #28 
    /*00000020*/ MOVW        R2, #61681                  @ 0xf0f1 
    /*00000024*/ SUB         R8, R1, R3 
    /*00000028*/ MOVT        R2, #61680                  @ 0xf0f0 
    /*0000002c*/ STR         R1, [SP, #4] 
    /*00000030*/ ASR         R1, R8, #2 
    /*00000034*/ MUL         R2, R2, R1 
    /*00000038*/ STR         R0, [SP, #8] 
    /*0000003c*/ CMP         R2, #0 
    /*00000040*/ BEQ         _ZNSt6vectorIN10hirtparser5ModelESaIS1_EE19_M_emplace_back_auxIJRKS1_EEEvDpOT__x498
    /*00000044*/ LSL         R1, R2, #1 
    /*00000048*/ CMP         R2, R1 
    /*0000004c*/ BLS         _ZNSt6vectorIN10hirtparser5ModelESaIS1_EE19_M_emplace_back_auxIJRKS1_EEEvDpOT__x51c
    _ZNSt6vectorIN10hirtparser5ModelESaIS1_EE19_M_emplace_back_auxIJRKS1_EEEvDpOT__x50:
    /*00000050*/ MVN         R3, #51                     @ 0x33 
    /*00000054*/ STR         R3, [SP, #16] 
    /*00000058*/ MOV         R0, R3 
    _ZNSt6vectorIN10hirtparser5ModelESaIS1_EE19_M_emplace_back_auxIJRKS1_EEEvDpOT__x5c:
    /*0000005c*/ BL          _Znwj
    /*00000060*/ LDR         R2, [SP, #8] 
    /*00000064*/ STR         R0, [SP, #12] 
    /*00000068*/ LDR         R3, [R2] 
    /*0000006c*/ LDR         R2, [R2, #4] 
    /*00000070*/ STR         R2, [SP, #4] 
    /*00000074*/ SUB         R8, R2, R3 
    /*00000078*/ MOV         R2, R0 
    _ZNSt6vectorIN10hirtparser5ModelESaIS1_EE19_M_emplace_back_auxIJRKS1_EEEvDpOT__x7c:
    /*0000007c*/ ADDS        R8, R2, R8 
    /*00000080*/ BEQ         _ZNSt6vectorIN10hirtparser5ModelESaIS1_EE19_M_emplace_back_auxIJRKS1_EEEvDpOT__x160
    /*00000084*/ MOV         R1, SL 
    /*00000088*/ MOV         R0, R8 
    /*0000008c*/ BL          _ZN10hirtparser9GroupItemC2ERKS0_
    /*00000090*/ LDR         R4, [SL, #48]               @ 0x30 
    /*00000094*/ MOVW        R9, #43691                  @ 0xaaab 
    /*00000098*/ LDR         R7, [SL, #52]               @ 0x34 
    /*0000009c*/ MOV         R3, #0 
    /*000000a0*/ MOVT        R9, #43690                  @ 0xaaaa 
    /*000000a4*/ SUB         R5, R7, R4 
    /*000000a8*/ STR         R3, [R8, #48]               @ 0x30 
    /*000000ac*/ ASR         R2, R5, #3 
    /*000000b0*/ MUL         R9, R9, R2 
    /*000000b4*/ STR         R3, [R8, #52]               @ 0x34 
    /*000000b8*/ CMP         R9, R3 
    /*000000bc*/ STR         R3, [R8, #56]               @ 0x38 
    /*000000c0*/ BEQ         _ZNSt6vectorIN10hirtparser5ModelESaIS1_EE19_M_emplace_back_auxIJRKS1_EEEvDpOT__xe8
    /*000000c4*/ MOVW        R3, #43690                  @ 0xaaaa 
    /*000000c8*/ MOVT        R3, #2730                   @ 0xaaa 
    /*000000cc*/ CMP         R9, R3 
    /*000000d0*/ BHI         _ZNSt6vectorIN10hirtparser5ModelESaIS1_EE19_M_emplace_back_auxIJRKS1_EEEvDpOT__x514
    /*000000d4*/ MOV         R0, R5 
    /*000000d8*/ BL          _Znwj
    /*000000dc*/ LDR         R4, [SL, #48]               @ 0x30 
    /*000000e0*/ MOV         R9, R0 
    /*000000e4*/ LDR         R7, [SL, #52]               @ 0x34 
    _ZNSt6vectorIN10hirtparser5ModelESaIS1_EE19_M_emplace_back_auxIJRKS1_EEEvDpOT__xe8:
    /*000000e8*/ CMP         R4, R7 
    /*000000ec*/ ADD         R5, R9, R5 
    /*000000f0*/ STR         R5, [R8, #56]               @ 0x38 
    /*000000f4*/ STR         R9, [R8, #48]               @ 0x30 
    /*000000f8*/ STR         R9, [R8, #52]               @ 0x34 
    /*000000fc*/ BEQ         _ZNSt6vectorIN10hirtparser5ModelESaIS1_EE19_M_emplace_back_auxIJRKS1_EEEvDpOT__x4e0
    /*00000100*/ ADD         FP, R9, #8 
    /*00000104*/ MOV         R5, R9 
    /*00000108*/ MOV         R6, FP 
    _ZNSt6vectorIN10hirtparser5ModelESaIS1_EE19_M_emplace_back_auxIJRKS1_EEEvDpOT__x10c:
    /*0000010c*/ CMP         R5, #0 
    /*00000110*/ BEQ         _ZNSt6vectorIN10hirtparser5ModelESaIS1_EE19_M_emplace_back_auxIJRKS1_EEEvDpOT__x128
    /*00000114*/ STR         R6, [R6, #-8] 
    /*00000118*/ MOV         R0, R5 
    /*0000011c*/ LDM         R4, {R1, R2} 
    /*00000120*/ ADD         R2, R1, R2 
    /*00000124*/ BL          _ZNSt7__cxx1112basic_stringIcSt11char_traitsIcESaIcEE12_M_constructIPcEEvT_S7_St20forward_iterator_tag.isra.120
    _ZNSt6vectorIN10hirtparser5ModelESaIS1_EE19_M_emplace_back_auxIJRKS1_EEEvDpOT__x128:
    /*00000128*/ ADD         R4, R4, #24 
    /*0000012c*/ ADD         R5, R5, #24 
    /*00000130*/ CMP         R7, R4 
    /*00000134*/ ADD         R6, R6, #24 
    /*00000138*/ BNE         _ZNSt6vectorIN10hirtparser5ModelESaIS1_EE19_M_emplace_back_auxIJRKS1_EEEvDpOT__x10c
    _ZNSt6vectorIN10hirtparser5ModelESaIS1_EE19_M_emplace_back_auxIJRKS1_EEEvDpOT__x13c:
    /*0000013c*/ STR         R5, [R8, #52]               @ 0x34 
    /*00000140*/ ADD         SL, SL, #60                 @ 0x3c 
    /*00000144*/ LDR         R2, [SP, #8] 
    /*00000148*/ ADD         R8, R8, #60                 @ 0x3c 
    /*0000014c*/ VLD1.32     {D16}, [SL] 
    /*00000150*/ LDR         R3, [R2] 
    /*00000154*/ LDR         R2, [R2, #4] 
    /*00000158*/ VST1.32     {D16}, [R8] 
    /*0000015c*/ STR         R2, [SP, #4] 
    _ZNSt6vectorIN10hirtparser5ModelESaIS1_EE19_M_emplace_back_auxIJRKS1_EEEvDpOT__x160:
    /*00000160*/ LDR         R5, [SP, #4] 
    /*00000164*/ CMP         R3, R5 
    /*00000168*/ BEQ         _ZNSt6vectorIN10hirtparser5ModelESaIS1_EE19_M_emplace_back_auxIJRKS1_EEEvDpOT__x4cc
    /*0000016c*/ LDR         FP, [SP, #12] 
    /*00000170*/ ADD         R3, R3, #32 
    /*00000174*/ MOV         R1, #0 
    /*00000178*/ ADD         R2, FP, #32 
    /*0000017c*/ B           _ZNSt6vectorIN10hirtparser5ModelESaIS1_EE19_M_emplace_back_auxIJRKS1_EEEvDpOT__x184
    _ZNSt6vectorIN10hirtparser5ModelESaIS1_EE19_M_emplace_back_auxIJRKS1_EEEvDpOT__x180:
    /*00000180*/ MOV         FP, R0 
    _ZNSt6vectorIN10hirtparser5ModelESaIS1_EE19_M_emplace_back_auxIJRKS1_EEEvDpOT__x184:
    /*00000184*/ CMP         FP, #0 
    /*00000188*/ BEQ         _ZNSt6vectorIN10hirtparser5ModelESaIS1_EE19_M_emplace_back_auxIJRKS1_EEEvDpOT__x274
    /*0000018c*/ STR         R1, [R2, #-28]              @ 0xffffffe4 
    /*00000190*/ STR         R1, [R2, #-24]              @ 0xffffffe8 
    /*00000194*/ STR         R1, [R2, #-32]              @ 0xffffffe0 
    /*00000198*/ LDR         R0, [R3, #-32]              @ 0xffffffe0 
    /*0000019c*/ STR         R0, [R2, #-32]              @ 0xffffffe0 
    /*000001a0*/ STR         R1, [R3, #-32]              @ 0xffffffe0 
    /*000001a4*/ LDR         IP, [R3, #-28]              @ 0xffffffe4 
    /*000001a8*/ LDR         R0, [R2, #-28]              @ 0xffffffe4 
    /*000001ac*/ STR         IP, [R2, #-28]              @ 0xffffffe4 
    /*000001b0*/ STR         R0, [R3, #-28]              @ 0xffffffe4 
    /*000001b4*/ LDR         IP, [R3, #-24]              @ 0xffffffe8 
    /*000001b8*/ LDR         R0, [R2, #-24]              @ 0xffffffe8 
    /*000001bc*/ STR         IP, [R2, #-24]              @ 0xffffffe8 
    /*000001c0*/ STR         R0, [R3, #-24]              @ 0xffffffe8 
    /*000001c4*/ STR         R1, [R2, #-16] 
    /*000001c8*/ STR         R1, [R2, #-12] 
    /*000001cc*/ STR         R1, [R2, #-20]              @ 0xffffffec 
    /*000001d0*/ LDR         R0, [R3, #-20]              @ 0xffffffec 
    /*000001d4*/ STR         R0, [R2, #-20]              @ 0xffffffec 
    /*000001d8*/ STR         R1, [R3, #-20]              @ 0xffffffec 
    /*000001dc*/ LDR         IP, [R3, #-16] 
    /*000001e0*/ LDR         R0, [R2, #-16] 
    /*000001e4*/ STR         IP, [R2, #-16] 
    /*000001e8*/ STR         R0, [R3, #-16] 
    /*000001ec*/ LDR         IP, [R3, #-12] 
    /*000001f0*/ LDR         R0, [R2, #-12] 
    /*000001f4*/ STR         IP, [R2, #-12] 
    /*000001f8*/ STR         R0, [R3, #-12] 
    /*000001fc*/ STR         R2, [R2, #-8] 
    /*00000200*/ LDR         R0, [R3, #-8] 
    /*00000204*/ CMP         R3, R0 
    /*00000208*/ STRNE       R0, [R2, #-8] 
    /*0000020c*/ LDRNE       R0, [R3] 
    /*00000210*/ STRNE       R0, [R2] 
    /*00000214*/ BEQ         _ZNSt6vectorIN10hirtparser5ModelESaIS1_EE19_M_emplace_back_auxIJRKS1_EEEvDpOT__x4a8
    _ZNSt6vectorIN10hirtparser5ModelESaIS1_EE19_M_emplace_back_auxIJRKS1_EEEvDpOT__x218:
    /*00000218*/ LDR         IP, [R3, #-4] 
    /*0000021c*/ LDR         R0, [R3, #28] 
    /*00000220*/ STR         IP, [R2, #-4] 
    /*00000224*/ STRB        R1, [R3] 
    /*00000228*/ STR         R3, [R3, #-8] 
    /*0000022c*/ STR         R1, [R3, #-4] 
    /*00000230*/ STR         R1, [R2, #20] 
    /*00000234*/ STR         R1, [R2, #24] 
    /*00000238*/ STR         R1, [R2, #16] 
    /*0000023c*/ LDR         LR, [R3, #16] 
    /*00000240*/ LDR         IP, [R3, #32] 
    /*00000244*/ STR         LR, [R2, #16] 
    /*00000248*/ STR         R1, [R3, #16] 
    /*0000024c*/ LDR         R4, [R3, #20] 
    /*00000250*/ LDR         LR, [R2, #20] 
    /*00000254*/ STR         R4, [R2, #20] 
    /*00000258*/ STR         LR, [R3, #20] 
    /*0000025c*/ LDR         R4, [R3, #24] 
    /*00000260*/ LDR         LR, [R2, #24] 
    /*00000264*/ STR         R4, [R2, #24] 
    /*00000268*/ STR         LR, [R3, #24] 
    /*0000026c*/ STR         IP, [R2, #32] 
    /*00000270*/ STR         R0, [R2, #28] 
    _ZNSt6vectorIN10hirtparser5ModelESaIS1_EE19_M_emplace_back_auxIJRKS1_EEEvDpOT__x274:
    /*00000274*/ ADD         R0, R3, #36                 @ 0x24 
    /*00000278*/ ADD         R2, R2, #68                 @ 0x44 
    /*0000027c*/ CMP         R5, R0 
    /*00000280*/ ADD         R3, R3, #68                 @ 0x44 
    /*00000284*/ ADD         R0, FP, #68                 @ 0x44 
    /*00000288*/ BNE         _ZNSt6vectorIN10hirtparser5ModelESaIS1_EE19_M_emplace_back_auxIJRKS1_EEEvDpOT__x180
    /*0000028c*/ LDR         R3, [SP, #8] 
    /*00000290*/ ADD         R2, FP, #136                @ 0x88 
    /*00000294*/ STR         R2, [SP, #20] 
    /*00000298*/ LDR         R9, [R3] 
    /*0000029c*/ LDR         R3, [R3, #4] 
    /*000002a0*/ CMP         R9, R3 
    /*000002a4*/ STR         R3, [SP, #4] 
    /*000002a8*/ BEQ         _ZNSt6vectorIN10hirtparser5ModelESaIS1_EE19_M_emplace_back_auxIJRKS1_EEEvDpOT__x460
    /*000002ac*/ LDR         R8, WORD_05c8               @ LDR         R8, [PC, #788]              @ 0x00000000000005c8 
    /*000002b0*/ ADD         R5, R9, #32 
    /*000002b4*/ LDR         R6, WORD_05cc               @ LDR         R6, [PC, #784]              @ 0x00000000000005cc 
    /*000002b8*/ ADD         R8, PC, R8 
    /*000002bc*/ ADD         R6, PC, R6 
    /*000002c0*/ ADD         R8, R8, #8 
    /*000002c4*/ ADD         R6, R6, #8 
    _ZNSt6vectorIN10hirtparser5ModelESaIS1_EE19_M_emplace_back_auxIJRKS1_EEEvDpOT__x2c8:
    /*000002c8*/ LDR         SL, [R5, #16] 
    /*000002cc*/ LDR         FP, [R5, #20] 
    /*000002d0*/ CMP         SL, FP 
    /*000002d4*/ BEQ         _ZNSt6vectorIN10hirtparser5ModelESaIS1_EE19_M_emplace_back_auxIJRKS1_EEEvDpOT__x300
    /*000002d8*/ ADD         R4, SL, #8 
    _ZNSt6vectorIN10hirtparser5ModelESaIS1_EE19_M_emplace_back_auxIJRKS1_EEEvDpOT__x2dc:
    /*000002dc*/ LDR         R0, [R4, #-8] 
    /*000002e0*/ CMP         R4, R0 
    /*000002e4*/ BEQ         _ZNSt6vectorIN10hirtparser5ModelESaIS1_EE19_M_emplace_back_auxIJRKS1_EEEvDpOT__x2ec
    /*000002e8*/ BL          _ZdlPv
    _ZNSt6vectorIN10hirtparser5ModelESaIS1_EE19_M_emplace_back_auxIJRKS1_EEEvDpOT__x2ec:
    /*000002ec*/ ADD         SL, SL, #24 
    /*000002f0*/ ADD         R4, R4, #24 
    /*000002f4*/ CMP         FP, SL 
    /*000002f8*/ BNE         _ZNSt6vectorIN10hirtparser5ModelESaIS1_EE19_M_emplace_back_auxIJRKS1_EEEvDpOT__x2dc
    /*000002fc*/ LDR         FP, [R5, #16] 
    _ZNSt6vectorIN10hirtparser5ModelESaIS1_EE19_M_emplace_back_auxIJRKS1_EEEvDpOT__x300:
    /*00000300*/ CMP         FP, #0 
    /*00000304*/ BEQ         _ZNSt6vectorIN10hirtparser5ModelESaIS1_EE19_M_emplace_back_auxIJRKS1_EEEvDpOT__x310
    /*00000308*/ MOV         R0, FP 
    /*0000030c*/ BL          _ZdlPv
    _ZNSt6vectorIN10hirtparser5ModelESaIS1_EE19_M_emplace_back_auxIJRKS1_EEEvDpOT__x310:
    /*00000310*/ LDR         R0, [R5, #-8] 
    /*00000314*/ CMP         R0, R5 
    /*00000318*/ BEQ         _ZNSt6vectorIN10hirtparser5ModelESaIS1_EE19_M_emplace_back_auxIJRKS1_EEEvDpOT__x320
    /*0000031c*/ BL          _ZdlPv
    _ZNSt6vectorIN10hirtparser5ModelESaIS1_EE19_M_emplace_back_auxIJRKS1_EEEvDpOT__x320:
    /*00000320*/ LDR         R7, [R5, #-20]              @ 0xffffffec 
    /*00000324*/ LDR         SL, [R5, #-16] 
    /*00000328*/ CMP         R7, SL 
    /*0000032c*/ BEQ         _ZNSt6vectorIN10hirtparser5ModelESaIS1_EE19_M_emplace_back_auxIJRKS1_EEEvDpOT__x3a0
    /*00000330*/ LDR         FP, WORD_05d0               @ LDR         FP, [PC, #664]              @ 0x00000000000005d0 
    /*00000334*/ ADD         R4, R7, #28 
    /*00000338*/ ADD         FP, PC, FP 
    /*0000033c*/ B           _ZNSt6vectorIN10hirtparser5ModelESaIS1_EE19_M_emplace_back_auxIJRKS1_EEEvDpOT__x374
    _ZNSt6vectorIN10hirtparser5ModelESaIS1_EE19_M_emplace_back_auxIJRKS1_EEEvDpOT__x340:
    /*00000340*/ LDR         R0, [R4, #-8] 
    /*00000344*/ STR         R8, [R4, #-28]              @ 0xffffffe4 
    /*00000348*/ CMP         R0, R4 
    /*0000034c*/ BEQ         _ZNSt6vectorIN10hirtparser5ModelESaIS1_EE19_M_emplace_back_auxIJRKS1_EEEvDpOT__x354
    /*00000350*/ BL          _ZdlPv
    _ZNSt6vectorIN10hirtparser5ModelESaIS1_EE19_M_emplace_back_auxIJRKS1_EEEvDpOT__x354:
    /*00000354*/ LDR         R0, [R4, #-24]              @ 0xffffffe8 
    /*00000358*/ CMP         R0, #0 
    /*0000035c*/ BEQ         _ZNSt6vectorIN10hirtparser5ModelESaIS1_EE19_M_emplace_back_auxIJRKS1_EEEvDpOT__x364
    /*00000360*/ BL          _ZdlPv
    _ZNSt6vectorIN10hirtparser5ModelESaIS1_EE19_M_emplace_back_auxIJRKS1_EEEvDpOT__x364:
    /*00000364*/ ADD         R7, R7, #68                 @ 0x44 
    /*00000368*/ ADD         R4, R4, #68                 @ 0x44 
    /*0000036c*/ CMP         SL, R7 
    /*00000370*/ BEQ         _ZNSt6vectorIN10hirtparser5ModelESaIS1_EE19_M_emplace_back_auxIJRKS1_EEEvDpOT__x39c
    _ZNSt6vectorIN10hirtparser5ModelESaIS1_EE19_M_emplace_back_auxIJRKS1_EEEvDpOT__x374:
    /*00000374*/ LDR         R3, [R4, #-28]              @ 0xffffffe4 
    /*00000378*/ LDR         R3, [R3] 
    /*0000037c*/ CMP         R3, FP 
    /*00000380*/ BEQ         _ZNSt6vectorIN10hirtparser5ModelESaIS1_EE19_M_emplace_back_auxIJRKS1_EEEvDpOT__x340
    /*00000384*/ MOV         R0, R7 
    /*00000388*/ ADD         R7, R7, #68                 @ 0x44 
    /*0000038c*/ ADD         R4, R4, #68                 @ 0x44 
    /*00000390*/ BLX         R3 
    /*00000394*/ CMP         SL, R7 
    /*00000398*/ BNE         _ZNSt6vectorIN10hirtparser5ModelESaIS1_EE19_M_emplace_back_auxIJRKS1_EEEvDpOT__x374
    _ZNSt6vectorIN10hirtparser5ModelESaIS1_EE19_M_emplace_back_auxIJRKS1_EEEvDpOT__x39c:
    /*0000039c*/ LDR         SL, [R5, #-20]              @ 0xffffffec 
    _ZNSt6vectorIN10hirtparser5ModelESaIS1_EE19_M_emplace_back_auxIJRKS1_EEEvDpOT__x3a0:
    /*000003a0*/ CMP         SL, #0 
    /*000003a4*/ BEQ         _ZNSt6vectorIN10hirtparser5ModelESaIS1_EE19_M_emplace_back_auxIJRKS1_EEEvDpOT__x3b0
    /*000003a8*/ MOV         R0, SL 
    /*000003ac*/ BL          _ZdlPv
    _ZNSt6vectorIN10hirtparser5ModelESaIS1_EE19_M_emplace_back_auxIJRKS1_EEEvDpOT__x3b0:
    /*000003b0*/ LDR         R7, [R5, #-32]              @ 0xffffffe0 
    /*000003b4*/ LDR         SL, [R5, #-28]              @ 0xffffffe4 
    /*000003b8*/ CMP         R7, SL 
    /*000003bc*/ BEQ         _ZNSt6vectorIN10hirtparser5ModelESaIS1_EE19_M_emplace_back_auxIJRKS1_EEEvDpOT__x430
    /*000003c0*/ LDR         FP, WORD_05d4               @ LDR         FP, [PC, #524]              @ 0x00000000000005d4 
    /*000003c4*/ ADD         R4, R7, #28 
    /*000003c8*/ ADD         FP, PC, FP 
    /*000003cc*/ B           _ZNSt6vectorIN10hirtparser5ModelESaIS1_EE19_M_emplace_back_auxIJRKS1_EEEvDpOT__x404
    _ZNSt6vectorIN10hirtparser5ModelESaIS1_EE19_M_emplace_back_auxIJRKS1_EEEvDpOT__x3d0:
    /*000003d0*/ LDR         R0, [R4, #-8] 
    /*000003d4*/ STR         R6, [R4, #-28]              @ 0xffffffe4 
    /*000003d8*/ CMP         R0, R4 
    /*000003dc*/ BEQ         _ZNSt6vectorIN10hirtparser5ModelESaIS1_EE19_M_emplace_back_auxIJRKS1_EEEvDpOT__x3e4
    /*000003e0*/ BL          _ZdlPv
    _ZNSt6vectorIN10hirtparser5ModelESaIS1_EE19_M_emplace_back_auxIJRKS1_EEEvDpOT__x3e4:
    /*000003e4*/ LDR         R0, [R4, #-24]              @ 0xffffffe8 
    /*000003e8*/ CMP         R0, #0 
    /*000003ec*/ BEQ         _ZNSt6vectorIN10hirtparser5ModelESaIS1_EE19_M_emplace_back_auxIJRKS1_EEEvDpOT__x3f4
    /*000003f0*/ BL          _ZdlPv
    _ZNSt6vectorIN10hirtparser5ModelESaIS1_EE19_M_emplace_back_auxIJRKS1_EEEvDpOT__x3f4:
    /*000003f4*/ ADD         R7, R7, #68                 @ 0x44 
    /*000003f8*/ ADD         R4, R4, #68                 @ 0x44 
    /*000003fc*/ CMP         SL, R7 
    /*00000400*/ BEQ         _ZNSt6vectorIN10hirtparser5ModelESaIS1_EE19_M_emplace_back_auxIJRKS1_EEEvDpOT__x42c
    _ZNSt6vectorIN10hirtparser5ModelESaIS1_EE19_M_emplace_back_auxIJRKS1_EEEvDpOT__x404:
    /*00000404*/ LDR         R3, [R4, #-28]              @ 0xffffffe4 
    /*00000408*/ LDR         R3, [R3] 
    /*0000040c*/ CMP         R3, FP 
    /*00000410*/ BEQ         _ZNSt6vectorIN10hirtparser5ModelESaIS1_EE19_M_emplace_back_auxIJRKS1_EEEvDpOT__x3d0
    /*00000414*/ MOV         R0, R7 
    /*00000418*/ ADD         R7, R7, #68                 @ 0x44 
    /*0000041c*/ ADD         R4, R4, #68                 @ 0x44 
    /*00000420*/ BLX         R3 
    /*00000424*/ CMP         SL, R7 
    /*00000428*/ BNE         _ZNSt6vectorIN10hirtparser5ModelESaIS1_EE19_M_emplace_back_auxIJRKS1_EEEvDpOT__x404
    _ZNSt6vectorIN10hirtparser5ModelESaIS1_EE19_M_emplace_back_auxIJRKS1_EEEvDpOT__x42c:
    /*0000042c*/ LDR         SL, [R5, #-32]              @ 0xffffffe0 
    _ZNSt6vectorIN10hirtparser5ModelESaIS1_EE19_M_emplace_back_auxIJRKS1_EEEvDpOT__x430:
    /*00000430*/ CMP         SL, #0 
    /*00000434*/ BEQ         _ZNSt6vectorIN10hirtparser5ModelESaIS1_EE19_M_emplace_back_auxIJRKS1_EEEvDpOT__x440
    /*00000438*/ MOV         R0, SL 
    /*0000043c*/ BL          _ZdlPv
    _ZNSt6vectorIN10hirtparser5ModelESaIS1_EE19_M_emplace_back_auxIJRKS1_EEEvDpOT__x440:
    /*00000440*/ LDR         R3, [SP, #4] 
    /*00000444*/ ADD         R9, R9, #68                 @ 0x44 
    /*00000448*/ ADD         R5, R5, #68                 @ 0x44 
    /*0000044c*/ CMP         R3, R9 
    /*00000450*/ BNE         _ZNSt6vectorIN10hirtparser5ModelESaIS1_EE19_M_emplace_back_auxIJRKS1_EEEvDpOT__x2c8
    /*00000454*/ LDR         R3, [SP, #8] 
    /*00000458*/ LDR         R3, [R3] 
    /*0000045c*/ STR         R3, [SP, #4] 
    _ZNSt6vectorIN10hirtparser5ModelESaIS1_EE19_M_emplace_back_auxIJRKS1_EEEvDpOT__x460:
    /*00000460*/ CMP         R3, #0 
    /*00000464*/ BEQ         _ZNSt6vectorIN10hirtparser5ModelESaIS1_EE19_M_emplace_back_auxIJRKS1_EEEvDpOT__x470
    /*00000468*/ MOV         R0, R3 
    /*0000046c*/ BL          _ZdlPv
    _ZNSt6vectorIN10hirtparser5ModelESaIS1_EE19_M_emplace_back_auxIJRKS1_EEEvDpOT__x470:
    /*00000470*/ LDR         R1, [SP, #12] 
    /*00000474*/ LDR         R2, [SP, #16] 
    /*00000478*/ ADD         R3, R1, R2 
    /*0000047c*/ LDR         R2, [SP, #8] 
    /*00000480*/ STR         R3, [R2, #8] 
    /*00000484*/ LDR         R3, [SP, #20] 
    /*00000488*/ STR         R1, [R2] 
    /*0000048c*/ STR         R3, [R2, #4] 
    /*00000490*/ ADD         SP, SP, #28 
    /*00000494*/ POP         {R4, R5, R6, R7, R8, R9, SL, FP, PC} 
    _ZNSt6vectorIN10hirtparser5ModelESaIS1_EE19_M_emplace_back_auxIJRKS1_EEEvDpOT__x498:
    /*00000498*/ MOV         R3, #68                     @ 0x44 
    /*0000049c*/ STR         R3, [SP, #16] 
    /*000004a0*/ MOV         R0, R3 
    /*000004a4*/ B           _ZNSt6vectorIN10hirtparser5ModelESaIS1_EE19_M_emplace_back_auxIJRKS1_EEEvDpOT__x5c
    _ZNSt6vectorIN10hirtparser5ModelESaIS1_EE19_M_emplace_back_auxIJRKS1_EEEvDpOT__x4a8:
    /*000004a8*/ LDR         R4, [R3] 
    /*000004ac*/ LDR         LR, [R3, #4] 
    /*000004b0*/ LDR         IP, [R3, #8] 
    /*000004b4*/ LDR         R0, [R3, #12] 
    /*000004b8*/ STR         R4, [R2] 
    /*000004bc*/ STR         LR, [R2, #4] 
    /*000004c0*/ STR         IP, [R2, #8] 
    /*000004c4*/ STR         R0, [R2, #12] 
    /*000004c8*/ B           _ZNSt6vectorIN10hirtparser5ModelESaIS1_EE19_M_emplace_back_auxIJRKS1_EEEvDpOT__x218
    _ZNSt6vectorIN10hirtparser5ModelESaIS1_EE19_M_emplace_back_auxIJRKS1_EEEvDpOT__x4cc:
    /*000004cc*/ LDR         R3, [SP, #12] 
    /*000004d0*/ ADD         R3, R3, #68                 @ 0x44 
    /*000004d4*/ STR         R3, [SP, #20] 
    /*000004d8*/ MOV         R3, R5 
    /*000004dc*/ B           _ZNSt6vectorIN10hirtparser5ModelESaIS1_EE19_M_emplace_back_auxIJRKS1_EEEvDpOT__x460
    _ZNSt6vectorIN10hirtparser5ModelESaIS1_EE19_M_emplace_back_auxIJRKS1_EEEvDpOT__x4e0:
    /*000004e0*/ MOV         R5, R9 
    /*000004e4*/ B           _ZNSt6vectorIN10hirtparser5ModelESaIS1_EE19_M_emplace_back_auxIJRKS1_EEEvDpOT__x13c
    /*000004e8*/ MOV         R4, R0 
    _ZNSt6vectorIN10hirtparser5ModelESaIS1_EE19_M_emplace_back_auxIJRKS1_EEEvDpOT__x4ec:
    /*000004ec*/ MOV         R0, R8 
    /*000004f0*/ BL          _ZN10hirtparser9GroupItemD2Ev
    /*000004f4*/ MOV         R0, R4 
    _ZNSt6vectorIN10hirtparser5ModelESaIS1_EE19_M_emplace_back_auxIJRKS1_EEEvDpOT__x4f8:
    /*000004f8*/ BL          __cxa_begin_catch
    /*000004fc*/ LDR         R3, [SP, #12] 
    /*00000500*/ CMP         R3, #0 
    /*00000504*/ BEQ         _ZNSt6vectorIN10hirtparser5ModelESaIS1_EE19_M_emplace_back_auxIJRKS1_EEEvDpOT__x58c
    /*00000508*/ MOV         R0, R3 
    /*0000050c*/ BL          _ZdlPv
    _ZNSt6vectorIN10hirtparser5ModelESaIS1_EE19_M_emplace_back_auxIJRKS1_EEEvDpOT__x510:
    /*00000510*/ BL          __cxa_rethrow
    _ZNSt6vectorIN10hirtparser5ModelESaIS1_EE19_M_emplace_back_auxIJRKS1_EEEvDpOT__x514:
    /*00000514*/ BL          _ZSt17__throw_bad_allocv
    /*00000518*/ B           _ZNSt6vectorIN10hirtparser5ModelESaIS1_EE19_M_emplace_back_auxIJRKS1_EEEvDpOT__x4f8
    _ZNSt6vectorIN10hirtparser5ModelESaIS1_EE19_M_emplace_back_auxIJRKS1_EEEvDpOT__x51c:
    /*0000051c*/ MOVW        R2, #50115                  @ 0xc3c3 
    /*00000520*/ MOVT        R2, #963                    @ 0x3c3 
    /*00000524*/ CMP         R1, R2 
    /*00000528*/ BHI         _ZNSt6vectorIN10hirtparser5ModelESaIS1_EE19_M_emplace_back_auxIJRKS1_EEEvDpOT__x50
    /*0000052c*/ CMP         R1, #0 
    /*00000530*/ MOVEQ       R2, R1 
    /*00000534*/ STREQ       R2, [SP, #16] 
    /*00000538*/ STREQ       R2, [SP, #12] 
    /*0000053c*/ BEQ         _ZNSt6vectorIN10hirtparser5ModelESaIS1_EE19_M_emplace_back_auxIJRKS1_EEEvDpOT__x7c
    /*00000540*/ MOV         R3, #68                     @ 0x44 
    /*00000544*/ MUL         R3, R3, R1 
    /*00000548*/ STR         R3, [SP, #16] 
    /*0000054c*/ MOV         R0, R3 
    /*00000550*/ B           _ZNSt6vectorIN10hirtparser5ModelESaIS1_EE19_M_emplace_back_auxIJRKS1_EEEvDpOT__x5c
    /*00000554*/ BL          __cxa_begin_catch
    /*00000558*/ CMP         R9, R5 
    /*0000055c*/ BEQ         _ZNSt6vectorIN10hirtparser5ModelESaIS1_EE19_M_emplace_back_auxIJRKS1_EEEvDpOT__x580
    _ZNSt6vectorIN10hirtparser5ModelESaIS1_EE19_M_emplace_back_auxIJRKS1_EEEvDpOT__x560:
    /*00000560*/ LDR         R0, [FP, #-8] 
    /*00000564*/ CMP         R0, FP 
    /*00000568*/ BEQ         _ZNSt6vectorIN10hirtparser5ModelESaIS1_EE19_M_emplace_back_auxIJRKS1_EEEvDpOT__x570
    /*0000056c*/ BL          _ZdlPv
    _ZNSt6vectorIN10hirtparser5ModelESaIS1_EE19_M_emplace_back_auxIJRKS1_EEEvDpOT__x570:
    /*00000570*/ ADD         R9, R9, #24 
    /*00000574*/ ADD         FP, FP, #24 
    /*00000578*/ CMP         R9, R5 
    /*0000057c*/ BNE         _ZNSt6vectorIN10hirtparser5ModelESaIS1_EE19_M_emplace_back_auxIJRKS1_EEEvDpOT__x560
    _ZNSt6vectorIN10hirtparser5ModelESaIS1_EE19_M_emplace_back_auxIJRKS1_EEEvDpOT__x580:
    /*00000580*/ BL          __cxa_rethrow
    /*00000584*/ BL          __cxa_end_catch
    /*00000588*/ BL          __cxa_end_cleanup
    _ZNSt6vectorIN10hirtparser5ModelESaIS1_EE19_M_emplace_back_auxIJRKS1_EEEvDpOT__x58c:
    /*0000058c*/ LDR         R3, [SP, #8] 
    /*00000590*/ LDM         R3, {R3, R4} 
    /*00000594*/ SUB         R4, R4, R3 
    /*00000598*/ ADD         R0, R4, #48                 @ 0x30 
    /*0000059c*/ BL          _ZNSt6vectorIN10hirtparser15CustomOperationESaIS1_EED1Ev
    /*000005a0*/ MOV         R0, R4 
    /*000005a4*/ BL          _ZN10hirtparser9GroupItemD2Ev
    /*000005a8*/ B           _ZNSt6vectorIN10hirtparser5ModelESaIS1_EE19_M_emplace_back_auxIJRKS1_EEEvDpOT__x510
    /*000005ac*/ MOV         R4, R0 
    /*000005b0*/ BL          __cxa_end_catch
    /*000005b4*/ LDR         R0, [R8, #48]               @ 0x30 
    /*000005b8*/ CMP         R0, #0 
    /*000005bc*/ BEQ         _ZNSt6vectorIN10hirtparser5ModelESaIS1_EE19_M_emplace_back_auxIJRKS1_EEEvDpOT__x4ec
    /*000005c0*/ BL          _ZdlPv
    /*000005c4*/ B           _ZNSt6vectorIN10hirtparser5ModelESaIS1_EE19_M_emplace_back_auxIJRKS1_EEEvDpOT__x4ec
    /*000005c8*/ WORD_05c8: .word 0x00000308
    /*000005cc*/ WORD_05cc: .word 0x00000308
    /*000005d0*/ WORD_05d0: .word 0x00000290
    /*000005d4*/ WORD_05d4: .word 0x00000204
FUNC_END _ZNSt6vectorIN10hirtparser5ModelESaIS1_EE19_M_emplace_back_auxIJRKS1_EEEvDpOT_


@ - - - - - - - - - - - - - - - - - - - - - - - - - - - - - 
@ .ARM.extab.text._ZNSt6vectorIN10hirtparser5ModelESaIS1_EE19_M_emplace_back_auxIJRKS1_EEEvDpOT_
@ Size: 0x44
@ - - - - - - - - - - - - - - - - - - - - - - - - - - - - - 

@ - - - - - - - - - - - - - - - - - - - - - - - - - - - - - 
@ .text._ZNSt6vectorISt4pairIlS_INSt7__cxx119sub_matchIN9__gnu_cxx17__normal_iteratorIPKcNS1_12basic_stringIcSt11char_traitsIcESaIcEEEEEEESaISD_EEESaISG_EED2Ev
@ Size: 0x58
@ - - - - - - - - - - - - - - - - - - - - - - - - - - - - - 

FUNC_BEGIN _ZNSt6vectorISt4pairIlS_INSt7__cxx119sub_matchIN9__gnu_cxx17__normal_iteratorIPKcNS1_12basic_stringIcSt11char_traitsIcESaIcEEEEEEESaISD_EEESaISG_EED2Ev
    /*00000000*/ MOV         IP, #16384                  @ 0x4000 
    /*00000004*/ PUSH        {R4, R5, R6, LR} 
    /*00000008*/ SUB         IP, SP, IP 
    /*0000000c*/ STR         R0, [IP, #4080]             @ 0xff0 
    /*00000010*/ LDM         R0, {R4, R5} 
    /*00000014*/ MOV         R6, R0 
    /*00000018*/ CMP         R4, R5 
    /*0000001c*/ BEQ         _ZNSt6vectorISt4pairIlS_INSt7__cxx119sub_matchIN9__gnu_cxx17__normal_iteratorIPKcNS1_12basic_stringIcSt11char_traitsIcESaIcEEEEEEESaISD_EEESaISG_EED2Ev_x40
    _ZNSt6vectorISt4pairIlS_INSt7__cxx119sub_matchIN9__gnu_cxx17__normal_iteratorIPKcNS1_12basic_stringIcSt11char_traitsIcESaIcEEEEEEESaISD_EEESaISG_EED2Ev_x20:
    /*00000020*/ LDR         R0, [R4, #4] 
    /*00000024*/ ADD         R4, R4, #16 
    /*00000028*/ CMP         R0, #0 
    /*0000002c*/ BEQ         _ZNSt6vectorISt4pairIlS_INSt7__cxx119sub_matchIN9__gnu_cxx17__normal_iteratorIPKcNS1_12basic_stringIcSt11char_traitsIcESaIcEEEEEEESaISD_EEESaISG_EED2Ev_x34
    /*00000030*/ BL          _ZdlPv
    _ZNSt6vectorISt4pairIlS_INSt7__cxx119sub_matchIN9__gnu_cxx17__normal_iteratorIPKcNS1_12basic_stringIcSt11char_traitsIcESaIcEEEEEEESaISD_EEESaISG_EED2Ev_x34:
    /*00000034*/ CMP         R5, R4 
    /*00000038*/ BNE         _ZNSt6vectorISt4pairIlS_INSt7__cxx119sub_matchIN9__gnu_cxx17__normal_iteratorIPKcNS1_12basic_stringIcSt11char_traitsIcESaIcEEEEEEESaISD_EEESaISG_EED2Ev_x20
    /*0000003c*/ LDR         R5, [R6] 
    _ZNSt6vectorISt4pairIlS_INSt7__cxx119sub_matchIN9__gnu_cxx17__normal_iteratorIPKcNS1_12basic_stringIcSt11char_traitsIcESaIcEEEEEEESaISD_EEESaISG_EED2Ev_x40:
    /*00000040*/ CMP         R5, #0 
    /*00000044*/ BEQ         _ZNSt6vectorISt4pairIlS_INSt7__cxx119sub_matchIN9__gnu_cxx17__normal_iteratorIPKcNS1_12basic_stringIcSt11char_traitsIcESaIcEEEEEEESaISD_EEESaISG_EED2Ev_x50
    /*00000048*/ MOV         R0, R5 
    /*0000004c*/ BL          _ZdlPv
    _ZNSt6vectorISt4pairIlS_INSt7__cxx119sub_matchIN9__gnu_cxx17__normal_iteratorIPKcNS1_12basic_stringIcSt11char_traitsIcESaIcEEEEEEESaISD_EEESaISG_EED2Ev_x50:
    /*00000050*/ MOV         R0, R6 
    /*00000054*/ POP         {R4, R5, R6, PC} 
FUNC_END _ZNSt6vectorISt4pairIlS_INSt7__cxx119sub_matchIN9__gnu_cxx17__normal_iteratorIPKcNS1_12basic_stringIcSt11char_traitsIcESaIcEEEEEEESaISD_EEESaISG_EED2Ev


FUNC_BEGIN _ZNSt6vectorISt4pairIlS_INSt7__cxx119sub_matchIN9__gnu_cxx17__normal_iteratorIPKcNS1_12basic_stringIcSt11char_traitsIcESaIcEEEEEEESaISD_EEESaISG_EED1Ev
    /*00000000*/ MOV         IP, #16384                  @ 0x4000 
    /*00000004*/ PUSH        {R4, R5, R6, LR} 
    /*00000008*/ SUB         IP, SP, IP 
    /*0000000c*/ STR         R0, [IP, #4080]             @ 0xff0 
    /*00000010*/ LDM         R0, {R4, R5} 
    /*00000014*/ MOV         R6, R0 
    /*00000018*/ CMP         R4, R5 
    /*0000001c*/ BEQ         _ZNSt6vectorISt4pairIlS_INSt7__cxx119sub_matchIN9__gnu_cxx17__normal_iteratorIPKcNS1_12basic_stringIcSt11char_traitsIcESaIcEEEEEEESaISD_EEESaISG_EED1Ev_x40
    _ZNSt6vectorISt4pairIlS_INSt7__cxx119sub_matchIN9__gnu_cxx17__normal_iteratorIPKcNS1_12basic_stringIcSt11char_traitsIcESaIcEEEEEEESaISD_EEESaISG_EED1Ev_x20:
    /*00000020*/ LDR         R0, [R4, #4] 
    /*00000024*/ ADD         R4, R4, #16 
    /*00000028*/ CMP         R0, #0 
    /*0000002c*/ BEQ         _ZNSt6vectorISt4pairIlS_INSt7__cxx119sub_matchIN9__gnu_cxx17__normal_iteratorIPKcNS1_12basic_stringIcSt11char_traitsIcESaIcEEEEEEESaISD_EEESaISG_EED1Ev_x34
    /*00000030*/ BL          _ZdlPv
    _ZNSt6vectorISt4pairIlS_INSt7__cxx119sub_matchIN9__gnu_cxx17__normal_iteratorIPKcNS1_12basic_stringIcSt11char_traitsIcESaIcEEEEEEESaISD_EEESaISG_EED1Ev_x34:
    /*00000034*/ CMP         R5, R4 
    /*00000038*/ BNE         _ZNSt6vectorISt4pairIlS_INSt7__cxx119sub_matchIN9__gnu_cxx17__normal_iteratorIPKcNS1_12basic_stringIcSt11char_traitsIcESaIcEEEEEEESaISD_EEESaISG_EED1Ev_x20
    /*0000003c*/ LDR         R5, [R6] 
    _ZNSt6vectorISt4pairIlS_INSt7__cxx119sub_matchIN9__gnu_cxx17__normal_iteratorIPKcNS1_12basic_stringIcSt11char_traitsIcESaIcEEEEEEESaISD_EEESaISG_EED1Ev_x40:
    /*00000040*/ CMP         R5, #0 
    /*00000044*/ BEQ         _ZNSt6vectorISt4pairIlS_INSt7__cxx119sub_matchIN9__gnu_cxx17__normal_iteratorIPKcNS1_12basic_stringIcSt11char_traitsIcESaIcEEEEEEESaISD_EEESaISG_EED1Ev_x50
    /*00000048*/ MOV         R0, R5 
    /*0000004c*/ BL          _ZdlPv
    _ZNSt6vectorISt4pairIlS_INSt7__cxx119sub_matchIN9__gnu_cxx17__normal_iteratorIPKcNS1_12basic_stringIcSt11char_traitsIcESaIcEEEEEEESaISD_EEESaISG_EED1Ev_x50:
    /*00000050*/ MOV         R0, R6 
    /*00000054*/ POP         {R4, R5, R6, PC} 
FUNC_END _ZNSt6vectorISt4pairIlS_INSt7__cxx119sub_matchIN9__gnu_cxx17__normal_iteratorIPKcNS1_12basic_stringIcSt11char_traitsIcESaIcEEEEEEESaISD_EEESaISG_EED1Ev


@ - - - - - - - - - - - - - - - - - - - - - - - - - - - - - 
@ .text._ZNSt8__detail9_ExecutorIN9__gnu_cxx17__normal_iteratorIPKcNSt7__cxx1112basic_stringIcSt11char_traitsIcESaIcEEEEESaINS5_9sub_matchISB_EEENS5_12regex_traitsIcEELb0EEC2ESB_SB_RSt6vectorISD_SE_ERKNS5_11basic_regexIcSG_EENSt15regex_constants15match_flag_typeE
@ Size: 0x178
@ - - - - - - - - - - - - - - - - - - - - - - - - - - - - - 

FUNC_BEGIN _ZNSt8__detail9_ExecutorIN9__gnu_cxx17__normal_iteratorIPKcNSt7__cxx1112basic_stringIcSt11char_traitsIcESaIcEEEEESaINS5_9sub_matchISB_EEENS5_12regex_traitsIcEELb0EEC2ESB_SB_RSt6vectorISD_SE_ERKNS5_11basic_regexIcSG_EENSt15regex_constants15match_flag_typeE
    /*00000000*/ MOV         IP, #16384                  @ 0x4000 
    /*00000004*/ PUSH        {R4, R5, R6, R7, R8, LR} 
    /*00000008*/ SUB         IP, SP, IP 
    /*0000000c*/ STR         R0, [IP, #4072]             @ 0xfe8 
    /*00000010*/ LDR         LR, [SP, #24] 
    /*00000014*/ MOV         R5, R0 
    /*00000018*/ MOVW        R4, #43691                  @ 0xaaab 
    /*0000001c*/ MOV         R0, #0 
    /*00000020*/ LDR         IP, [LR, #8] 
    /*00000024*/ STR         R1, [R5, #16] 
    /*00000028*/ LDR         R6, [IP, #28] 
    /*0000002c*/ LDR         R1, [IP, #32] 
    /*00000030*/ MOVT        R4, #43690                  @ 0xaaaa 
    /*00000034*/ SUB         R1, R1, R6 
    /*00000038*/ STR         R2, [R5, #20] 
    /*0000003c*/ ASR         R1, R1, #3 
    /*00000040*/ MUL         R4, R4, R1 
    /*00000044*/ STR         LR, [R5, #24] 
    /*00000048*/ CMP         R4, R0 
    /*0000004c*/ STR         R3, [R5, #32] 
    /*00000050*/ STR         IP, [R5, #28] 
    /*00000054*/ STR         R0, [R5] 
    /*00000058*/ STR         R0, [R5, #4] 
    /*0000005c*/ STR         R0, [R5, #8] 
    /*00000060*/ STR         R0, [R5, #12] 
    /*00000064*/ STR         R0, [R5, #36]               @ 0x24 
    /*00000068*/ STR         R0, [R5, #40]               @ 0x28 
    /*0000006c*/ STR         R0, [R5, #44]               @ 0x2c 
    /*00000070*/ LDR         R6, [SP, #28] 
    /*00000074*/ BEQ         _ZNSt8__detail9_ExecutorIN9__gnu_cxx17__normal_iteratorIPKcNSt7__cxx1112basic_stringIcSt11char_traitsIcESaIcEEEEESaINS5_9sub_matchISB_EEENS5_12regex_traitsIcEELb0EEC2ESB_SB_RSt6vectorISD_SE_ERKNS5_11basic_regexIcSG_EENSt15regex_constants15match_flag_typeE_x138
    /*00000078*/ CMN         R4, #-536870911             @ 0xe0000001 
    /*0000007c*/ BHI         _ZNSt8__detail9_ExecutorIN9__gnu_cxx17__normal_iteratorIPKcNSt7__cxx1112basic_stringIcSt11char_traitsIcESaIcEEEEESaINS5_9sub_matchISB_EEENS5_12regex_traitsIcEELb0EEC2ESB_SB_RSt6vectorISD_SE_ERKNS5_11basic_regexIcSG_EENSt15regex_constants15match_flag_typeE_x144
    /*00000080*/ LSL         R7, R4, #3 
    /*00000084*/ MOV         R0, R7 
    /*00000088*/ BL          _Znwj
    /*0000008c*/ ADD         R2, R0, R7 
    /*00000090*/ MOV         R3, #0 
    /*00000094*/ STR         R2, [R5, #44]               @ 0x2c 
    /*00000098*/ STR         R0, [R5, #36]               @ 0x24 
    /*0000009c*/ STR         R0, [R5, #40]               @ 0x28 
    _ZNSt8__detail9_ExecutorIN9__gnu_cxx17__normal_iteratorIPKcNSt7__cxx1112basic_stringIcSt11char_traitsIcESaIcEEEEESaINS5_9sub_matchISB_EEENS5_12regex_traitsIcEELb0EEC2ESB_SB_RSt6vectorISD_SE_ERKNS5_11basic_regexIcSG_EENSt15regex_constants15match_flag_typeE_xa0:
    /*000000a0*/ CMP         R0, #0 
    /*000000a4*/ ADD         R0, R0, #8 
    /*000000a8*/ STRNE       R3, [R0, #-8] 
    /*000000ac*/ STRNE       R3, [R0, #-4] 
    /*000000b0*/ SUBS        R4, R4, #1 
    /*000000b4*/ BNE         _ZNSt8__detail9_ExecutorIN9__gnu_cxx17__normal_iteratorIPKcNSt7__cxx1112basic_stringIcSt11char_traitsIcESaIcEEEEESaINS5_9sub_matchISB_EEENS5_12regex_traitsIcEELb0EEC2ESB_SB_RSt6vectorISD_SE_ERKNS5_11basic_regexIcSG_EENSt15regex_constants15match_flag_typeE_xa0
    /*000000b8*/ LDR         IP, [R5, #28] 
    /*000000bc*/ MOVW        R4, #43691                  @ 0xaaab 
    /*000000c0*/ MOVT        R4, #43690                  @ 0xaaaa 
    /*000000c4*/ LDR         R3, [IP, #32] 
    /*000000c8*/ LDR         R1, [IP, #28] 
    /*000000cc*/ SUB         R3, R3, R1 
    /*000000d0*/ ASR         R3, R3, #3 
    /*000000d4*/ MUL         R4, R4, R3 
    _ZNSt8__detail9_ExecutorIN9__gnu_cxx17__normal_iteratorIPKcNSt7__cxx1112basic_stringIcSt11char_traitsIcESaIcEEEEESaINS5_9sub_matchISB_EEENS5_12regex_traitsIcEELb0EEC2ESB_SB_RSt6vectorISD_SE_ERKNS5_11basic_regexIcSG_EENSt15regex_constants15match_flag_typeE_xd8:
    /*000000d8*/ LDR         R7, [IP, #16] 
    /*000000dc*/ MOV         R3, #0 
    /*000000e0*/ STR         R2, [R5, #40]               @ 0x28 
    /*000000e4*/ MOV         R0, R4 
    /*000000e8*/ STR         R3, [R5, #48]               @ 0x30 
    /*000000ec*/ STR         R3, [R5, #52]               @ 0x34 
    /*000000f0*/ STR         R3, [R5, #56]               @ 0x38 
    /*000000f4*/ BL          _Znaj
    /*000000f8*/ CMP         R4, #1 
    /*000000fc*/ MOV         R8, R0 
    /*00000100*/ BMI         _ZNSt8__detail9_ExecutorIN9__gnu_cxx17__normal_iteratorIPKcNSt7__cxx1112basic_stringIcSt11char_traitsIcESaIcEEEEESaINS5_9sub_matchISB_EEENS5_12regex_traitsIcEELb0EEC2ESB_SB_RSt6vectorISD_SE_ERKNS5_11basic_regexIcSG_EENSt15regex_constants15match_flag_typeE_x11c
    /*00000104*/ SUB         R3, R4, #2 
    /*00000108*/ MOV         R1, #0 
    /*0000010c*/ CMN         R3, #1 
    /*00000110*/ MOVGE       R2, R4 
    /*00000114*/ MOVLT       R2, #1 
    /*00000118*/ BL          memset
    _ZNSt8__detail9_ExecutorIN9__gnu_cxx17__normal_iteratorIPKcNSt7__cxx1112basic_stringIcSt11char_traitsIcESaIcEEEEESaINS5_9sub_matchISB_EEENS5_12regex_traitsIcEELb0EEC2ESB_SB_RSt6vectorISD_SE_ERKNS5_11basic_regexIcSG_EENSt15regex_constants15match_flag_typeE_x11c:
    /*0000011c*/ STR         R8, [R5, #60]               @ 0x3c 
    /*00000120*/ TST         R6, #128                    @ 0x80 
    /*00000124*/ BICNE       R6, R6, #5 
    /*00000128*/ MOV         R0, R5 
    /*0000012c*/ STR         R7, [R5, #64]               @ 0x40 
    /*00000130*/ STR         R6, [R5, #68]               @ 0x44 
    /*00000134*/ POP         {R4, R5, R6, R7, R8, PC} 
    _ZNSt8__detail9_ExecutorIN9__gnu_cxx17__normal_iteratorIPKcNSt7__cxx1112basic_stringIcSt11char_traitsIcESaIcEEEEESaINS5_9sub_matchISB_EEENS5_12regex_traitsIcEELb0EEC2ESB_SB_RSt6vectorISD_SE_ERKNS5_11basic_regexIcSG_EENSt15regex_constants15match_flag_typeE_x138:
    /*00000138*/ STR         R4, [R5, #44]               @ 0x2c 
    /*0000013c*/ MOV         R2, R4 
    /*00000140*/ B           _ZNSt8__detail9_ExecutorIN9__gnu_cxx17__normal_iteratorIPKcNSt7__cxx1112basic_stringIcSt11char_traitsIcESaIcEEEEESaINS5_9sub_matchISB_EEENS5_12regex_traitsIcEELb0EEC2ESB_SB_RSt6vectorISD_SE_ERKNS5_11basic_regexIcSG_EENSt15regex_constants15match_flag_typeE_xd8
    _ZNSt8__detail9_ExecutorIN9__gnu_cxx17__normal_iteratorIPKcNSt7__cxx1112basic_stringIcSt11char_traitsIcESaIcEEEEESaINS5_9sub_matchISB_EEENS5_12regex_traitsIcEELb0EEC2ESB_SB_RSt6vectorISD_SE_ERKNS5_11basic_regexIcSG_EENSt15regex_constants15match_flag_typeE_x144:
    /*00000144*/ BL          _ZSt17__throw_bad_allocv
    /*00000148*/ ADD         R0, R5, #48                 @ 0x30 
    /*0000014c*/ BL          _ZNSt6vectorISt4pairIlS_INSt7__cxx119sub_matchIN9__gnu_cxx17__normal_iteratorIPKcNS1_12basic_stringIcSt11char_traitsIcESaIcEEEEEEESaISD_EEESaISG_EED1Ev
    /*00000150*/ LDR         R0, [R5, #36]               @ 0x24 
    /*00000154*/ CMP         R0, #0 
    /*00000158*/ BEQ         _ZNSt8__detail9_ExecutorIN9__gnu_cxx17__normal_iteratorIPKcNSt7__cxx1112basic_stringIcSt11char_traitsIcESaIcEEEEESaINS5_9sub_matchISB_EEENS5_12regex_traitsIcEELb0EEC2ESB_SB_RSt6vectorISD_SE_ERKNS5_11basic_regexIcSG_EENSt15regex_constants15match_flag_typeE_x160
    /*0000015c*/ BL          _ZdlPv
    _ZNSt8__detail9_ExecutorIN9__gnu_cxx17__normal_iteratorIPKcNSt7__cxx1112basic_stringIcSt11char_traitsIcESaIcEEEEESaINS5_9sub_matchISB_EEENS5_12regex_traitsIcEELb0EEC2ESB_SB_RSt6vectorISD_SE_ERKNS5_11basic_regexIcSG_EENSt15regex_constants15match_flag_typeE_x160:
    /*00000160*/ LDR         R0, [R5] 
    /*00000164*/ CMP         R0, #0 
    /*00000168*/ BEQ         _ZNSt8__detail9_ExecutorIN9__gnu_cxx17__normal_iteratorIPKcNSt7__cxx1112basic_stringIcSt11char_traitsIcESaIcEEEEESaINS5_9sub_matchISB_EEENS5_12regex_traitsIcEELb0EEC2ESB_SB_RSt6vectorISD_SE_ERKNS5_11basic_regexIcSG_EENSt15regex_constants15match_flag_typeE_x170
    /*0000016c*/ BL          _ZdlPv
    _ZNSt8__detail9_ExecutorIN9__gnu_cxx17__normal_iteratorIPKcNSt7__cxx1112basic_stringIcSt11char_traitsIcESaIcEEEEESaINS5_9sub_matchISB_EEENS5_12regex_traitsIcEELb0EEC2ESB_SB_RSt6vectorISD_SE_ERKNS5_11basic_regexIcSG_EENSt15regex_constants15match_flag_typeE_x170:
    /*00000170*/ BL          __cxa_end_cleanup
    /*00000174*/ B           _ZNSt8__detail9_ExecutorIN9__gnu_cxx17__normal_iteratorIPKcNSt7__cxx1112basic_stringIcSt11char_traitsIcESaIcEEEEESaINS5_9sub_matchISB_EEENS5_12regex_traitsIcEELb0EEC2ESB_SB_RSt6vectorISD_SE_ERKNS5_11basic_regexIcSG_EENSt15regex_constants15match_flag_typeE_x160
FUNC_END _ZNSt8__detail9_ExecutorIN9__gnu_cxx17__normal_iteratorIPKcNSt7__cxx1112basic_stringIcSt11char_traitsIcESaIcEEEEESaINS5_9sub_matchISB_EEENS5_12regex_traitsIcEELb0EEC2ESB_SB_RSt6vectorISD_SE_ERKNS5_11basic_regexIcSG_EENSt15regex_constants15match_flag_typeE


FUNC_BEGIN _ZNSt8__detail9_ExecutorIN9__gnu_cxx17__normal_iteratorIPKcNSt7__cxx1112basic_stringIcSt11char_traitsIcESaIcEEEEESaINS5_9sub_matchISB_EEENS5_12regex_traitsIcEELb0EEC1ESB_SB_RSt6vectorISD_SE_ERKNS5_11basic_regexIcSG_EENSt15regex_constants15match_flag_typeE
    /*00000000*/ MOV         IP, #16384                  @ 0x4000 
    /*00000004*/ PUSH        {R4, R5, R6, R7, R8, LR} 
    /*00000008*/ SUB         IP, SP, IP 
    /*0000000c*/ STR         R0, [IP, #4072]             @ 0xfe8 
    /*00000010*/ LDR         LR, [SP, #24] 
    /*00000014*/ MOV         R5, R0 
    /*00000018*/ MOVW        R4, #43691                  @ 0xaaab 
    /*0000001c*/ MOV         R0, #0 
    /*00000020*/ LDR         IP, [LR, #8] 
    /*00000024*/ STR         R1, [R5, #16] 
    /*00000028*/ LDR         R6, [IP, #28] 
    /*0000002c*/ LDR         R1, [IP, #32] 
    /*00000030*/ MOVT        R4, #43690                  @ 0xaaaa 
    /*00000034*/ SUB         R1, R1, R6 
    /*00000038*/ STR         R2, [R5, #20] 
    /*0000003c*/ ASR         R1, R1, #3 
    /*00000040*/ MUL         R4, R4, R1 
    /*00000044*/ STR         LR, [R5, #24] 
    /*00000048*/ CMP         R4, R0 
    /*0000004c*/ STR         R3, [R5, #32] 
    /*00000050*/ STR         IP, [R5, #28] 
    /*00000054*/ STR         R0, [R5] 
    /*00000058*/ STR         R0, [R5, #4] 
    /*0000005c*/ STR         R0, [R5, #8] 
    /*00000060*/ STR         R0, [R5, #12] 
    /*00000064*/ STR         R0, [R5, #36]               @ 0x24 
    /*00000068*/ STR         R0, [R5, #40]               @ 0x28 
    /*0000006c*/ STR         R0, [R5, #44]               @ 0x2c 
    /*00000070*/ LDR         R6, [SP, #28] 
    /*00000074*/ BEQ         _ZNSt8__detail9_ExecutorIN9__gnu_cxx17__normal_iteratorIPKcNSt7__cxx1112basic_stringIcSt11char_traitsIcESaIcEEEEESaINS5_9sub_matchISB_EEENS5_12regex_traitsIcEELb0EEC1ESB_SB_RSt6vectorISD_SE_ERKNS5_11basic_regexIcSG_EENSt15regex_constants15match_flag_typeE_x138
    /*00000078*/ CMN         R4, #-536870911             @ 0xe0000001 
    /*0000007c*/ BHI         _ZNSt8__detail9_ExecutorIN9__gnu_cxx17__normal_iteratorIPKcNSt7__cxx1112basic_stringIcSt11char_traitsIcESaIcEEEEESaINS5_9sub_matchISB_EEENS5_12regex_traitsIcEELb0EEC1ESB_SB_RSt6vectorISD_SE_ERKNS5_11basic_regexIcSG_EENSt15regex_constants15match_flag_typeE_x144
    /*00000080*/ LSL         R7, R4, #3 
    /*00000084*/ MOV         R0, R7 
    /*00000088*/ BL          _Znwj
    /*0000008c*/ ADD         R2, R0, R7 
    /*00000090*/ MOV         R3, #0 
    /*00000094*/ STR         R2, [R5, #44]               @ 0x2c 
    /*00000098*/ STR         R0, [R5, #36]               @ 0x24 
    /*0000009c*/ STR         R0, [R5, #40]               @ 0x28 
    _ZNSt8__detail9_ExecutorIN9__gnu_cxx17__normal_iteratorIPKcNSt7__cxx1112basic_stringIcSt11char_traitsIcESaIcEEEEESaINS5_9sub_matchISB_EEENS5_12regex_traitsIcEELb0EEC1ESB_SB_RSt6vectorISD_SE_ERKNS5_11basic_regexIcSG_EENSt15regex_constants15match_flag_typeE_xa0:
    /*000000a0*/ CMP         R0, #0 
    /*000000a4*/ ADD         R0, R0, #8 
    /*000000a8*/ STRNE       R3, [R0, #-8] 
    /*000000ac*/ STRNE       R3, [R0, #-4] 
    /*000000b0*/ SUBS        R4, R4, #1 
    /*000000b4*/ BNE         _ZNSt8__detail9_ExecutorIN9__gnu_cxx17__normal_iteratorIPKcNSt7__cxx1112basic_stringIcSt11char_traitsIcESaIcEEEEESaINS5_9sub_matchISB_EEENS5_12regex_traitsIcEELb0EEC1ESB_SB_RSt6vectorISD_SE_ERKNS5_11basic_regexIcSG_EENSt15regex_constants15match_flag_typeE_xa0
    /*000000b8*/ LDR         IP, [R5, #28] 
    /*000000bc*/ MOVW        R4, #43691                  @ 0xaaab 
    /*000000c0*/ MOVT        R4, #43690                  @ 0xaaaa 
    /*000000c4*/ LDR         R3, [IP, #32] 
    /*000000c8*/ LDR         R1, [IP, #28] 
    /*000000cc*/ SUB         R3, R3, R1 
    /*000000d0*/ ASR         R3, R3, #3 
    /*000000d4*/ MUL         R4, R4, R3 
    _ZNSt8__detail9_ExecutorIN9__gnu_cxx17__normal_iteratorIPKcNSt7__cxx1112basic_stringIcSt11char_traitsIcESaIcEEEEESaINS5_9sub_matchISB_EEENS5_12regex_traitsIcEELb0EEC1ESB_SB_RSt6vectorISD_SE_ERKNS5_11basic_regexIcSG_EENSt15regex_constants15match_flag_typeE_xd8:
    /*000000d8*/ LDR         R7, [IP, #16] 
    /*000000dc*/ MOV         R3, #0 
    /*000000e0*/ STR         R2, [R5, #40]               @ 0x28 
    /*000000e4*/ MOV         R0, R4 
    /*000000e8*/ STR         R3, [R5, #48]               @ 0x30 
    /*000000ec*/ STR         R3, [R5, #52]               @ 0x34 
    /*000000f0*/ STR         R3, [R5, #56]               @ 0x38 
    /*000000f4*/ BL          _Znaj
    /*000000f8*/ CMP         R4, #1 
    /*000000fc*/ MOV         R8, R0 
    /*00000100*/ BMI         _ZNSt8__detail9_ExecutorIN9__gnu_cxx17__normal_iteratorIPKcNSt7__cxx1112basic_stringIcSt11char_traitsIcESaIcEEEEESaINS5_9sub_matchISB_EEENS5_12regex_traitsIcEELb0EEC1ESB_SB_RSt6vectorISD_SE_ERKNS5_11basic_regexIcSG_EENSt15regex_constants15match_flag_typeE_x11c
    /*00000104*/ SUB         R3, R4, #2 
    /*00000108*/ MOV         R1, #0 
    /*0000010c*/ CMN         R3, #1 
    /*00000110*/ MOVGE       R2, R4 
    /*00000114*/ MOVLT       R2, #1 
    /*00000118*/ BL          memset
    _ZNSt8__detail9_ExecutorIN9__gnu_cxx17__normal_iteratorIPKcNSt7__cxx1112basic_stringIcSt11char_traitsIcESaIcEEEEESaINS5_9sub_matchISB_EEENS5_12regex_traitsIcEELb0EEC1ESB_SB_RSt6vectorISD_SE_ERKNS5_11basic_regexIcSG_EENSt15regex_constants15match_flag_typeE_x11c:
    /*0000011c*/ STR         R8, [R5, #60]               @ 0x3c 
    /*00000120*/ TST         R6, #128                    @ 0x80 
    /*00000124*/ BICNE       R6, R6, #5 
    /*00000128*/ MOV         R0, R5 
    /*0000012c*/ STR         R7, [R5, #64]               @ 0x40 
    /*00000130*/ STR         R6, [R5, #68]               @ 0x44 
    /*00000134*/ POP         {R4, R5, R6, R7, R8, PC} 
    _ZNSt8__detail9_ExecutorIN9__gnu_cxx17__normal_iteratorIPKcNSt7__cxx1112basic_stringIcSt11char_traitsIcESaIcEEEEESaINS5_9sub_matchISB_EEENS5_12regex_traitsIcEELb0EEC1ESB_SB_RSt6vectorISD_SE_ERKNS5_11basic_regexIcSG_EENSt15regex_constants15match_flag_typeE_x138:
    /*00000138*/ STR         R4, [R5, #44]               @ 0x2c 
    /*0000013c*/ MOV         R2, R4 
    /*00000140*/ B           _ZNSt8__detail9_ExecutorIN9__gnu_cxx17__normal_iteratorIPKcNSt7__cxx1112basic_stringIcSt11char_traitsIcESaIcEEEEESaINS5_9sub_matchISB_EEENS5_12regex_traitsIcEELb0EEC1ESB_SB_RSt6vectorISD_SE_ERKNS5_11basic_regexIcSG_EENSt15regex_constants15match_flag_typeE_xd8
    _ZNSt8__detail9_ExecutorIN9__gnu_cxx17__normal_iteratorIPKcNSt7__cxx1112basic_stringIcSt11char_traitsIcESaIcEEEEESaINS5_9sub_matchISB_EEENS5_12regex_traitsIcEELb0EEC1ESB_SB_RSt6vectorISD_SE_ERKNS5_11basic_regexIcSG_EENSt15regex_constants15match_flag_typeE_x144:
    /*00000144*/ BL          _ZSt17__throw_bad_allocv
    /*00000148*/ ADD         R0, R5, #48                 @ 0x30 
    /*0000014c*/ BL          _ZNSt6vectorISt4pairIlS_INSt7__cxx119sub_matchIN9__gnu_cxx17__normal_iteratorIPKcNS1_12basic_stringIcSt11char_traitsIcESaIcEEEEEEESaISD_EEESaISG_EED1Ev
    /*00000150*/ LDR         R0, [R5, #36]               @ 0x24 
    /*00000154*/ CMP         R0, #0 
    /*00000158*/ BEQ         _ZNSt8__detail9_ExecutorIN9__gnu_cxx17__normal_iteratorIPKcNSt7__cxx1112basic_stringIcSt11char_traitsIcESaIcEEEEESaINS5_9sub_matchISB_EEENS5_12regex_traitsIcEELb0EEC1ESB_SB_RSt6vectorISD_SE_ERKNS5_11basic_regexIcSG_EENSt15regex_constants15match_flag_typeE_x160
    /*0000015c*/ BL          _ZdlPv
    _ZNSt8__detail9_ExecutorIN9__gnu_cxx17__normal_iteratorIPKcNSt7__cxx1112basic_stringIcSt11char_traitsIcESaIcEEEEESaINS5_9sub_matchISB_EEENS5_12regex_traitsIcEELb0EEC1ESB_SB_RSt6vectorISD_SE_ERKNS5_11basic_regexIcSG_EENSt15regex_constants15match_flag_typeE_x160:
    /*00000160*/ LDR         R0, [R5] 
    /*00000164*/ CMP         R0, #0 
    /*00000168*/ BEQ         _ZNSt8__detail9_ExecutorIN9__gnu_cxx17__normal_iteratorIPKcNSt7__cxx1112basic_stringIcSt11char_traitsIcESaIcEEEEESaINS5_9sub_matchISB_EEENS5_12regex_traitsIcEELb0EEC1ESB_SB_RSt6vectorISD_SE_ERKNS5_11basic_regexIcSG_EENSt15regex_constants15match_flag_typeE_x170
    /*0000016c*/ BL          _ZdlPv
    _ZNSt8__detail9_ExecutorIN9__gnu_cxx17__normal_iteratorIPKcNSt7__cxx1112basic_stringIcSt11char_traitsIcESaIcEEEEESaINS5_9sub_matchISB_EEENS5_12regex_traitsIcEELb0EEC1ESB_SB_RSt6vectorISD_SE_ERKNS5_11basic_regexIcSG_EENSt15regex_constants15match_flag_typeE_x170:
    /*00000170*/ BL          __cxa_end_cleanup
    /*00000174*/ B           _ZNSt8__detail9_ExecutorIN9__gnu_cxx17__normal_iteratorIPKcNSt7__cxx1112basic_stringIcSt11char_traitsIcESaIcEEEEESaINS5_9sub_matchISB_EEENS5_12regex_traitsIcEELb0EEC1ESB_SB_RSt6vectorISD_SE_ERKNS5_11basic_regexIcSG_EENSt15regex_constants15match_flag_typeE_x160
FUNC_END _ZNSt8__detail9_ExecutorIN9__gnu_cxx17__normal_iteratorIPKcNSt7__cxx1112basic_stringIcSt11char_traitsIcESaIcEEEEESaINS5_9sub_matchISB_EEENS5_12regex_traitsIcEELb0EEC1ESB_SB_RSt6vectorISD_SE_ERKNS5_11basic_regexIcSG_EENSt15regex_constants15match_flag_typeE


@ - - - - - - - - - - - - - - - - - - - - - - - - - - - - - 
@ .ARM.extab.text._ZNSt8__detail9_ExecutorIN9__gnu_cxx17__normal_iteratorIPKcNSt7__cxx1112basic_stringIcSt11char_traitsIcESaIcEEEEESaINS5_9sub_matchISB_EEENS5_12regex_traitsIcEELb0EEC2ESB_SB_RSt6vectorISD_SE_ERKNS5_11basic_regexIcSG_EENSt15regex_constants15match_flag_typeE
@ Size: 0x23
@ - - - - - - - - - - - - - - - - - - - - - - - - - - - - - 

@ - - - - - - - - - - - - - - - - - - - - - - - - - - - - - 
@ .text._ZNSt6vectorINSt7__cxx119sub_matchIN9__gnu_cxx17__normal_iteratorIPKcNS0_12basic_stringIcSt11char_traitsIcESaIcEEEEEEESaISC_EEaSERKSE_
@ Size: 0x1b8
@ - - - - - - - - - - - - - - - - - - - - - - - - - - - - - 

FUNC_BEGIN _ZNSt6vectorINSt7__cxx119sub_matchIN9__gnu_cxx17__normal_iteratorIPKcNS0_12basic_stringIcSt11char_traitsIcESaIcEEEEEEESaISC_EEaSERKSE_
    /*00000000*/ MOV         IP, #16384                  @ 0x4000 
    /*00000004*/ PUSH        {R4, R5, R6, R7, R8, LR} 
    /*00000008*/ SUB         IP, SP, IP 
    /*0000000c*/ STR         R0, [IP, #4072]             @ 0xfe8 
    /*00000010*/ CMP         R1, R0 
    /*00000014*/ MOV         R4, R0 
    /*00000018*/ BEQ         _ZNSt6vectorINSt7__cxx119sub_matchIN9__gnu_cxx17__normal_iteratorIPKcNS0_12basic_stringIcSt11char_traitsIcESaIcEEEEEEESaISC_EEaSERKSE__xac
    /*0000001c*/ LDR         LR, [R0] 
    /*00000020*/ MOVW        R2, #43691                  @ 0xaaab 
    /*00000024*/ LDR         R3, [R0, #8] 
    /*00000028*/ LDR         R7, [R1] 
    /*0000002c*/ LDR         R6, [R1, #4] 
    /*00000030*/ SUB         R3, R3, LR 
    /*00000034*/ SUB         R5, R6, R7 
    /*00000038*/ MOVT        R2, #43690                  @ 0xaaaa 
    /*0000003c*/ ASR         R0, R5, #2 
    /*00000040*/ ASR         R3, R3, #2 
    /*00000044*/ MUL         R0, R2, R0 
    /*00000048*/ MUL         R3, R2, R3 
    /*0000004c*/ CMP         R3, R0 
    /*00000050*/ BCC         _ZNSt6vectorINSt7__cxx119sub_matchIN9__gnu_cxx17__normal_iteratorIPKcNS0_12basic_stringIcSt11char_traitsIcESaIcEEEEEEESaISC_EEaSERKSE__x118
    /*00000054*/ LDR         IP, [R4, #4] 
    /*00000058*/ SUB         R3, IP, LR 
    /*0000005c*/ ASR         R8, R3, #2 
    /*00000060*/ MUL         R8, R2, R8 
    /*00000064*/ CMP         R0, R8 
    /*00000068*/ BHI         _ZNSt6vectorINSt7__cxx119sub_matchIN9__gnu_cxx17__normal_iteratorIPKcNS0_12basic_stringIcSt11char_traitsIcESaIcEEEEEEESaISC_EEaSERKSE__xb4
    /*0000006c*/ CMP         R0, #0 
    /*00000070*/ BLE         _ZNSt6vectorINSt7__cxx119sub_matchIN9__gnu_cxx17__normal_iteratorIPKcNS0_12basic_stringIcSt11char_traitsIcESaIcEEEEEEESaISC_EEaSERKSE__xa4
    /*00000074*/ ADD         R2, R7, #12 
    /*00000078*/ ADD         R3, LR, #12 
    _ZNSt6vectorINSt7__cxx119sub_matchIN9__gnu_cxx17__normal_iteratorIPKcNS0_12basic_stringIcSt11char_traitsIcESaIcEEEEEEESaISC_EEaSERKSE__x7c:
    /*0000007c*/ LDR         R1, [R2, #-12] 
    /*00000080*/ SUBS        R0, R0, #1 
    /*00000084*/ LDRB        IP, [R2, #-4] 
    /*00000088*/ ADD         R3, R3, #12 
    /*0000008c*/ STR         R1, [R3, #-24]              @ 0xffffffe8 
    /*00000090*/ ADD         R2, R2, #12 
    /*00000094*/ LDR         R1, [R2, #-20]              @ 0xffffffec 
    /*00000098*/ STRB        IP, [R3, #-16] 
    /*0000009c*/ STR         R1, [R3, #-20]              @ 0xffffffec 
    /*000000a0*/ BNE         _ZNSt6vectorINSt7__cxx119sub_matchIN9__gnu_cxx17__normal_iteratorIPKcNS0_12basic_stringIcSt11char_traitsIcESaIcEEEEEEESaISC_EEaSERKSE__x7c
    _ZNSt6vectorINSt7__cxx119sub_matchIN9__gnu_cxx17__normal_iteratorIPKcNS0_12basic_stringIcSt11char_traitsIcESaIcEEEEEEESaISC_EEaSERKSE__xa4:
    /*000000a4*/ ADD         R5, LR, R5 
    _ZNSt6vectorINSt7__cxx119sub_matchIN9__gnu_cxx17__normal_iteratorIPKcNS0_12basic_stringIcSt11char_traitsIcESaIcEEEEEEESaISC_EEaSERKSE__xa8:
    /*000000a8*/ STR         R5, [R4, #4] 
    _ZNSt6vectorINSt7__cxx119sub_matchIN9__gnu_cxx17__normal_iteratorIPKcNS0_12basic_stringIcSt11char_traitsIcESaIcEEEEEEESaISC_EEaSERKSE__xac:
    /*000000ac*/ MOV         R0, R4 
    /*000000b0*/ POP         {R4, R5, R6, R7, R8, PC} 
    _ZNSt6vectorINSt7__cxx119sub_matchIN9__gnu_cxx17__normal_iteratorIPKcNS0_12basic_stringIcSt11char_traitsIcESaIcEEEEEEESaISC_EEaSERKSE__xb4:
    /*000000b4*/ ADD         R3, R7, R3 
    /*000000b8*/ CMP         R8, #0 
    /*000000bc*/ ADDGT       R2, R7, #12 
    /*000000c0*/ ADDGT       R1, LR, #12 
    /*000000c4*/ BLE         _ZNSt6vectorINSt7__cxx119sub_matchIN9__gnu_cxx17__normal_iteratorIPKcNS0_12basic_stringIcSt11char_traitsIcESaIcEEEEEEESaISC_EEaSERKSE__xf0
    _ZNSt6vectorINSt7__cxx119sub_matchIN9__gnu_cxx17__normal_iteratorIPKcNS0_12basic_stringIcSt11char_traitsIcESaIcEEEEEEESaISC_EEaSERKSE__xc8:
    /*000000c8*/ LDR         R0, [R2, #-12] 
    /*000000cc*/ SUBS        R8, R8, #1 
    /*000000d0*/ LDRB        R7, [R2, #-4] 
    /*000000d4*/ ADD         R1, R1, #12 
    /*000000d8*/ STR         R0, [R1, #-24]              @ 0xffffffe8 
    /*000000dc*/ ADD         R2, R2, #12 
    /*000000e0*/ LDR         R0, [R2, #-20]              @ 0xffffffec 
    /*000000e4*/ STRB        R7, [R1, #-16] 
    /*000000e8*/ STR         R0, [R1, #-20]              @ 0xffffffec 
    /*000000ec*/ BNE         _ZNSt6vectorINSt7__cxx119sub_matchIN9__gnu_cxx17__normal_iteratorIPKcNS0_12basic_stringIcSt11char_traitsIcESaIcEEEEEEESaISC_EEaSERKSE__xc8
    _ZNSt6vectorINSt7__cxx119sub_matchIN9__gnu_cxx17__normal_iteratorIPKcNS0_12basic_stringIcSt11char_traitsIcESaIcEEEEEEESaISC_EEaSERKSE__xf0:
    /*000000f0*/ CMP         R3, R6 
    /*000000f4*/ BEQ         _ZNSt6vectorINSt7__cxx119sub_matchIN9__gnu_cxx17__normal_iteratorIPKcNS0_12basic_stringIcSt11char_traitsIcESaIcEEEEEEESaISC_EEaSERKSE__xa4
    _ZNSt6vectorINSt7__cxx119sub_matchIN9__gnu_cxx17__normal_iteratorIPKcNS0_12basic_stringIcSt11char_traitsIcESaIcEEEEEEESaISC_EEaSERKSE__xf8:
    /*000000f8*/ CMP         IP, #0 
    /*000000fc*/ LDMNE       R3, {R0, R1, R2} 
    /*00000100*/ ADD         R3, R3, #12 
    /*00000104*/ STMNE       IP, {R0, R1, R2} 
    /*00000108*/ CMP         R6, R3 
    /*0000010c*/ ADD         IP, IP, #12 
    /*00000110*/ BNE         _ZNSt6vectorINSt7__cxx119sub_matchIN9__gnu_cxx17__normal_iteratorIPKcNS0_12basic_stringIcSt11char_traitsIcESaIcEEEEEEESaISC_EEaSERKSE__xf8
    /*00000114*/ B           _ZNSt6vectorINSt7__cxx119sub_matchIN9__gnu_cxx17__normal_iteratorIPKcNS0_12basic_stringIcSt11char_traitsIcESaIcEEEEEEESaISC_EEaSERKSE__xa4
    _ZNSt6vectorINSt7__cxx119sub_matchIN9__gnu_cxx17__normal_iteratorIPKcNS0_12basic_stringIcSt11char_traitsIcESaIcEEEEEEESaISC_EEaSERKSE__x118:
    /*00000118*/ CMP         R0, #0 
    /*0000011c*/ MOVEQ       R8, R0 
    /*00000120*/ BEQ         _ZNSt6vectorINSt7__cxx119sub_matchIN9__gnu_cxx17__normal_iteratorIPKcNS0_12basic_stringIcSt11char_traitsIcESaIcEEEEEEESaISC_EEaSERKSE__x144
    /*00000124*/ MOVW        R3, #21845                  @ 0x5555 
    /*00000128*/ MOVT        R3, #5461                   @ 0x1555 
    /*0000012c*/ CMP         R0, R3 
    /*00000130*/ BHI         _ZNSt6vectorINSt7__cxx119sub_matchIN9__gnu_cxx17__normal_iteratorIPKcNS0_12basic_stringIcSt11char_traitsIcESaIcEEEEEEESaISC_EEaSERKSE__x1b4
    /*00000134*/ MOV         R0, R5 
    /*00000138*/ BL          _Znwj
    /*0000013c*/ LDR         LR, [R4] 
    /*00000140*/ MOV         R8, R0 
    _ZNSt6vectorINSt7__cxx119sub_matchIN9__gnu_cxx17__normal_iteratorIPKcNS0_12basic_stringIcSt11char_traitsIcESaIcEEEEEEESaISC_EEaSERKSE__x144:
    /*00000144*/ CMP         R7, R6 
    /*00000148*/ BEQ         _ZNSt6vectorINSt7__cxx119sub_matchIN9__gnu_cxx17__normal_iteratorIPKcNS0_12basic_stringIcSt11char_traitsIcESaIcEEEEEEESaISC_EEaSERKSE__x194
    /*0000014c*/ ADD         IP, R7, #12 
    /*00000150*/ MOVW        R3, #43691                  @ 0xaaab 
    /*00000154*/ SUB         R6, R6, IP 
    /*00000158*/ MOV         R2, #12 
    /*0000015c*/ MOVT        R3, #10922                  @ 0x2aaa 
    /*00000160*/ LSR         R6, R6, #2 
    /*00000164*/ MUL         R6, R3, R6 
    /*00000168*/ MOV         R3, R8 
    /*0000016c*/ BIC         R6, R6, #-1073741824        @ 0xc0000000 
    /*00000170*/ ADD         R6, R6, #1 
    /*00000174*/ MLA         R6, R2, R6, R8 
    _ZNSt6vectorINSt7__cxx119sub_matchIN9__gnu_cxx17__normal_iteratorIPKcNS0_12basic_stringIcSt11char_traitsIcESaIcEEEEEEESaISC_EEaSERKSE__x178:
    /*00000178*/ CMP         R3, #0 
    /*0000017c*/ LDMDBNE     IP, {R0, R1, R2} 
    /*00000180*/ ADD         IP, IP, #12 
    /*00000184*/ STMNE       R3, {R0, R1, R2} 
    /*00000188*/ ADD         R3, R3, #12 
    /*0000018c*/ CMP         R6, R3 
    /*00000190*/ BNE         _ZNSt6vectorINSt7__cxx119sub_matchIN9__gnu_cxx17__normal_iteratorIPKcNS0_12basic_stringIcSt11char_traitsIcESaIcEEEEEEESaISC_EEaSERKSE__x178
    _ZNSt6vectorINSt7__cxx119sub_matchIN9__gnu_cxx17__normal_iteratorIPKcNS0_12basic_stringIcSt11char_traitsIcESaIcEEEEEEESaISC_EEaSERKSE__x194:
    /*00000194*/ CMP         LR, #0 
    /*00000198*/ BEQ         _ZNSt6vectorINSt7__cxx119sub_matchIN9__gnu_cxx17__normal_iteratorIPKcNS0_12basic_stringIcSt11char_traitsIcESaIcEEEEEEESaISC_EEaSERKSE__x1a4
    /*0000019c*/ MOV         R0, LR 
    /*000001a0*/ BL          _ZdlPv
    _ZNSt6vectorINSt7__cxx119sub_matchIN9__gnu_cxx17__normal_iteratorIPKcNS0_12basic_stringIcSt11char_traitsIcESaIcEEEEEEESaISC_EEaSERKSE__x1a4:
    /*000001a4*/ ADD         R5, R8, R5 
    /*000001a8*/ STR         R5, [R4, #8] 
    /*000001ac*/ STR         R8, [R4] 
    /*000001b0*/ B           _ZNSt6vectorINSt7__cxx119sub_matchIN9__gnu_cxx17__normal_iteratorIPKcNS0_12basic_stringIcSt11char_traitsIcESaIcEEEEEEESaISC_EEaSERKSE__xa8
    _ZNSt6vectorINSt7__cxx119sub_matchIN9__gnu_cxx17__normal_iteratorIPKcNS0_12basic_stringIcSt11char_traitsIcESaIcEEEEEEESaISC_EEaSERKSE__x1b4:
    /*000001b4*/ BL          _ZSt17__throw_bad_allocv
FUNC_END _ZNSt6vectorINSt7__cxx119sub_matchIN9__gnu_cxx17__normal_iteratorIPKcNS0_12basic_stringIcSt11char_traitsIcESaIcEEEEEEESaISC_EEaSERKSE_


@ - - - - - - - - - - - - - - - - - - - - - - - - - - - - - 
@ .text._ZNSt6vectorIN10hirtparser4BlobESaIS1_EEC2ERKS3_
@ Size: 0x214
@ - - - - - - - - - - - - - - - - - - - - - - - - - - - - - 

FUNC_BEGIN _ZNSt6vectorIN10hirtparser4BlobESaIS1_EEC2ERKS3_
    /*00000000*/ MOV         IP, #16384                  @ 0x4000 
    /*00000004*/ PUSH        {R4, R5, R6, R7, R8, R9, SL, FP, LR} 
    /*00000008*/ SUB         IP, SP, IP 
    /*0000000c*/ STR         R0, [IP, #4048]             @ 0xfd0 
    /*00000010*/ LDR         R4, [R1, #4] 
    /*00000014*/ MOV         R6, R1 
    /*00000018*/ LDR         R1, [R1] 
    /*0000001c*/ MOVW        R3, #61681                  @ 0xf0f1 
    /*00000020*/ MOVT        R3, #61680                  @ 0xf0f0 
    /*00000024*/ MOV         R2, #0 
    /*00000028*/ SUB         R4, R4, R1 
    /*0000002c*/ SUB         SP, SP, #12 
    /*00000030*/ STR         R2, [R0] 
    /*00000034*/ MOV         FP, R0 
    /*00000038*/ ASR         R1, R4, #2 
    /*0000003c*/ MUL         R3, R3, R1 
    /*00000040*/ STR         R2, [R0, #4] 
    /*00000044*/ CMP         R3, R2 
    /*00000048*/ STR         R2, [R0, #8] 
    /*0000004c*/ STREQ       R3, [SP, #4] 
    /*00000050*/ BEQ         _ZNSt6vectorIN10hirtparser4BlobESaIS1_EEC2ERKS3__x74
    /*00000054*/ MOVW        R2, #50115                  @ 0xc3c3 
    /*00000058*/ MOVT        R2, #963                    @ 0x3c3 
    /*0000005c*/ CMP         R3, R2 
    /*00000060*/ BHI         _ZNSt6vectorIN10hirtparser4BlobESaIS1_EEC2ERKS3__x1d4
    /*00000064*/ MOV         R0, R4 
    /*00000068*/ BL          _Znwj
    /*0000006c*/ STR         R0, [SP, #4] 
    /*00000070*/ MOV         R3, R0 
    _ZNSt6vectorIN10hirtparser4BlobESaIS1_EEC2ERKS3__x74:
    /*00000074*/ ADD         R4, R3, R4 
    /*00000078*/ STR         R4, [FP, #8] 
    /*0000007c*/ STR         R3, [FP] 
    /*00000080*/ STR         R3, [FP, #4] 
    /*00000084*/ LDM         R6, {R5, R9} 
    /*00000088*/ CMP         R5, R9 
    /*0000008c*/ BEQ         _ZNSt6vectorIN10hirtparser4BlobESaIS1_EEC2ERKS3__x194
    /*00000090*/ LDR         SL, WORD_0210               @ LDR         SL, [PC, #376]              @ 0x0000000000000210 
    /*00000094*/ ADD         R4, R3, #28 
    /*00000098*/ MOV         R7, R3 
    /*0000009c*/ MOV         R8, #0 
    /*000000a0*/ ADD         SL, PC, SL 
    /*000000a4*/ ADD         SL, SL, #8 
    _ZNSt6vectorIN10hirtparser4BlobESaIS1_EEC2ERKS3__xa8:
    /*000000a8*/ CMP         R7, #0 
    /*000000ac*/ BEQ         _ZNSt6vectorIN10hirtparser4BlobESaIS1_EEC2ERKS3__x170
    /*000000b0*/ LDMIB       R5, {R3, R6} 
    /*000000b4*/ STR         SL, [R4, #-28]              @ 0xffffffe4 
    /*000000b8*/ SUB         R6, R6, R3 
    /*000000bc*/ STR         R8, [R4, #-24]              @ 0xffffffe8 
    /*000000c0*/ ASRS        R3, R6, #2 
    /*000000c4*/ STR         R8, [R4, #-20]              @ 0xffffffec 
    /*000000c8*/ STR         R8, [R4, #-16] 
    /*000000cc*/ BEQ         _ZNSt6vectorIN10hirtparser4BlobESaIS1_EEC2ERKS3__xe4
    /*000000d0*/ CMN         R3, #-1073741823            @ 0xc0000001 
    /*000000d4*/ BHI         _ZNSt6vectorIN10hirtparser4BlobESaIS1_EEC2ERKS3__x19c
    /*000000d8*/ MOV         R0, R6 
    /*000000dc*/ BL          _Znwj
    /*000000e0*/ MOV         R3, R0 
    _ZNSt6vectorIN10hirtparser4BlobESaIS1_EEC2ERKS3__xe4:
    /*000000e4*/ ADD         R6, R3, R6 
    /*000000e8*/ STR         R6, [R4, #-16] 
    /*000000ec*/ STR         R3, [R4, #-24]              @ 0xffffffe8 
    /*000000f0*/ STR         R3, [R4, #-20]              @ 0xffffffec 
    /*000000f4*/ LDMIB       R5, {R1, R6} 
    /*000000f8*/ SUB         R6, R6, R1 
    /*000000fc*/ LSRS        R2, R6, #2 
    /*00000100*/ BEQ         _ZNSt6vectorIN10hirtparser4BlobESaIS1_EEC2ERKS3__x114
    /*00000104*/ MOV         R0, R3 
    /*00000108*/ MOV         R2, R6 
    /*0000010c*/ BL          memmove
    /*00000110*/ MOV         R3, R0 
    _ZNSt6vectorIN10hirtparser4BlobESaIS1_EEC2ERKS3__x114:
    /*00000114*/ LDR         LR, [R5, #16] 
    /*00000118*/ ADD         R0, R7, #20 
    /*0000011c*/ LDR         IP, [R5, #24] 
    /*00000120*/ STR         R4, [R4, #-8] 
    /*00000124*/ LDR         R2, [R5, #20] 
    /*00000128*/ ADD         R3, R3, R6 
    /*0000012c*/ STR         R3, [R4, #-20]              @ 0xffffffec 
    /*00000130*/ MOV         R1, R2 
    /*00000134*/ STR         LR, [R4, #-12] 
    /*00000138*/ ADD         R2, R2, IP 
    /*0000013c*/ BL          _ZNSt7__cxx1112basic_stringIcSt11char_traitsIcESaIcEE12_M_constructIPcEEvT_S7_St20forward_iterator_tag.isra.120
    /*00000140*/ LDR         R3, [R5, #44]               @ 0x2c 
    /*00000144*/ LDR         R1, [R5, #48]               @ 0x30 
    /*00000148*/ STR         R3, [R4, #16] 
    /*0000014c*/ LDR         R3, [R5, #52]               @ 0x34 
    /*00000150*/ LDR         R2, [R5, #56]               @ 0x38 
    /*00000154*/ STR         R3, [R4, #24] 
    /*00000158*/ LDR         R3, [R5, #60]               @ 0x3c 
    /*0000015c*/ STR         R1, [R4, #20] 
    /*00000160*/ STR         R3, [R4, #32] 
    /*00000164*/ LDR         R3, [R5, #64]               @ 0x40 
    /*00000168*/ STR         R2, [R4, #28] 
    /*0000016c*/ STR         R3, [R4, #36]               @ 0x24 
    _ZNSt6vectorIN10hirtparser4BlobESaIS1_EEC2ERKS3__x170:
    /*00000170*/ ADD         R5, R5, #68                 @ 0x44 
    /*00000174*/ ADD         R7, R7, #68                 @ 0x44 
    /*00000178*/ CMP         R9, R5 
    /*0000017c*/ ADD         R4, R4, #68                 @ 0x44 
    /*00000180*/ BNE         _ZNSt6vectorIN10hirtparser4BlobESaIS1_EEC2ERKS3__xa8
    _ZNSt6vectorIN10hirtparser4BlobESaIS1_EEC2ERKS3__x184:
    /*00000184*/ STR         R7, [FP, #4] 
    /*00000188*/ MOV         R0, FP 
    /*0000018c*/ ADD         SP, SP, #12 
    /*00000190*/ POP         {R4, R5, R6, R7, R8, R9, SL, FP, PC} 
    _ZNSt6vectorIN10hirtparser4BlobESaIS1_EEC2ERKS3__x194:
    /*00000194*/ MOV         R7, R3 
    /*00000198*/ B           _ZNSt6vectorIN10hirtparser4BlobESaIS1_EEC2ERKS3__x184
    _ZNSt6vectorIN10hirtparser4BlobESaIS1_EEC2ERKS3__x19c:
    /*0000019c*/ BL          _ZSt17__throw_bad_allocv
    _ZNSt6vectorIN10hirtparser4BlobESaIS1_EEC2ERKS3__x1a0:
    /*000001a0*/ BL          __cxa_begin_catch
    /*000001a4*/ LDR         R3, [SP, #4] 
    /*000001a8*/ CMP         R3, R7 
    /*000001ac*/ MOVNE       R4, R3 
    /*000001b0*/ BEQ         _ZNSt6vectorIN10hirtparser4BlobESaIS1_EEC2ERKS3__x1d0
    _ZNSt6vectorIN10hirtparser4BlobESaIS1_EEC2ERKS3__x1b4:
    /*000001b4*/ LDR         R3, [R4] 
    /*000001b8*/ MOV         R0, R4 
    /*000001bc*/ ADD         R4, R4, #68                 @ 0x44 
    /*000001c0*/ LDR         R3, [R3] 
    /*000001c4*/ BLX         R3 
    /*000001c8*/ CMP         R4, R7 
    /*000001cc*/ BNE         _ZNSt6vectorIN10hirtparser4BlobESaIS1_EEC2ERKS3__x1b4
    _ZNSt6vectorIN10hirtparser4BlobESaIS1_EEC2ERKS3__x1d0:
    /*000001d0*/ BL          __cxa_rethrow
    _ZNSt6vectorIN10hirtparser4BlobESaIS1_EEC2ERKS3__x1d4:
    /*000001d4*/ BL          _ZSt17__throw_bad_allocv
    /*000001d8*/ LDR         R3, [R7, #4] 
    /*000001dc*/ MOV         R4, R0 
    /*000001e0*/ CMP         R3, #0 
    /*000001e4*/ BEQ         _ZNSt6vectorIN10hirtparser4BlobESaIS1_EEC2ERKS3__x1f0
    /*000001e8*/ MOV         R0, R3 
    /*000001ec*/ BL          _ZdlPv
    _ZNSt6vectorIN10hirtparser4BlobESaIS1_EEC2ERKS3__x1f0:
    /*000001f0*/ MOV         R0, R4 
    /*000001f4*/ B           _ZNSt6vectorIN10hirtparser4BlobESaIS1_EEC2ERKS3__x1a0
    /*000001f8*/ BL          __cxa_end_catch
    /*000001fc*/ LDR         R0, [FP] 
    /*00000200*/ CMP         R0, #0 
    /*00000204*/ BEQ         _ZNSt6vectorIN10hirtparser4BlobESaIS1_EEC2ERKS3__x20c
    /*00000208*/ BL          _ZdlPv
    _ZNSt6vectorIN10hirtparser4BlobESaIS1_EEC2ERKS3__x20c:
    /*0000020c*/ BL          __cxa_end_cleanup
    /*00000210*/ WORD_0210: .word 0x00000168
FUNC_END _ZNSt6vectorIN10hirtparser4BlobESaIS1_EEC2ERKS3_


FUNC_BEGIN _ZNSt6vectorIN10hirtparser4BlobESaIS1_EEC1ERKS3_
    /*00000000*/ MOV         IP, #16384                  @ 0x4000 
    /*00000004*/ PUSH        {R4, R5, R6, R7, R8, R9, SL, FP, LR} 
    /*00000008*/ SUB         IP, SP, IP 
    /*0000000c*/ STR         R0, [IP, #4048]             @ 0xfd0 
    /*00000010*/ LDR         R4, [R1, #4] 
    /*00000014*/ MOV         R6, R1 
    /*00000018*/ LDR         R1, [R1] 
    /*0000001c*/ MOVW        R3, #61681                  @ 0xf0f1 
    /*00000020*/ MOVT        R3, #61680                  @ 0xf0f0 
    /*00000024*/ MOV         R2, #0 
    /*00000028*/ SUB         R4, R4, R1 
    /*0000002c*/ SUB         SP, SP, #12 
    /*00000030*/ STR         R2, [R0] 
    /*00000034*/ MOV         FP, R0 
    /*00000038*/ ASR         R1, R4, #2 
    /*0000003c*/ MUL         R3, R3, R1 
    /*00000040*/ STR         R2, [R0, #4] 
    /*00000044*/ CMP         R3, R2 
    /*00000048*/ STR         R2, [R0, #8] 
    /*0000004c*/ STREQ       R3, [SP, #4] 
    /*00000050*/ BEQ         _ZNSt6vectorIN10hirtparser4BlobESaIS1_EEC1ERKS3__x74
    /*00000054*/ MOVW        R2, #50115                  @ 0xc3c3 
    /*00000058*/ MOVT        R2, #963                    @ 0x3c3 
    /*0000005c*/ CMP         R3, R2 
    /*00000060*/ BHI         _ZNSt6vectorIN10hirtparser4BlobESaIS1_EEC1ERKS3__x1d4
    /*00000064*/ MOV         R0, R4 
    /*00000068*/ BL          _Znwj
    /*0000006c*/ STR         R0, [SP, #4] 
    /*00000070*/ MOV         R3, R0 
    _ZNSt6vectorIN10hirtparser4BlobESaIS1_EEC1ERKS3__x74:
    /*00000074*/ ADD         R4, R3, R4 
    /*00000078*/ STR         R4, [FP, #8] 
    /*0000007c*/ STR         R3, [FP] 
    /*00000080*/ STR         R3, [FP, #4] 
    /*00000084*/ LDM         R6, {R5, R9} 
    /*00000088*/ CMP         R5, R9 
    /*0000008c*/ BEQ         _ZNSt6vectorIN10hirtparser4BlobESaIS1_EEC1ERKS3__x194
    /*00000090*/ LDR         SL, WORD_0210               @ LDR         SL, [PC, #376]              @ 0x0000000000000210 
    /*00000094*/ ADD         R4, R3, #28 
    /*00000098*/ MOV         R7, R3 
    /*0000009c*/ MOV         R8, #0 
    /*000000a0*/ ADD         SL, PC, SL 
    /*000000a4*/ ADD         SL, SL, #8 
    _ZNSt6vectorIN10hirtparser4BlobESaIS1_EEC1ERKS3__xa8:
    /*000000a8*/ CMP         R7, #0 
    /*000000ac*/ BEQ         _ZNSt6vectorIN10hirtparser4BlobESaIS1_EEC1ERKS3__x170
    /*000000b0*/ LDMIB       R5, {R3, R6} 
    /*000000b4*/ STR         SL, [R4, #-28]              @ 0xffffffe4 
    /*000000b8*/ SUB         R6, R6, R3 
    /*000000bc*/ STR         R8, [R4, #-24]              @ 0xffffffe8 
    /*000000c0*/ ASRS        R3, R6, #2 
    /*000000c4*/ STR         R8, [R4, #-20]              @ 0xffffffec 
    /*000000c8*/ STR         R8, [R4, #-16] 
    /*000000cc*/ BEQ         _ZNSt6vectorIN10hirtparser4BlobESaIS1_EEC1ERKS3__xe4
    /*000000d0*/ CMN         R3, #-1073741823            @ 0xc0000001 
    /*000000d4*/ BHI         _ZNSt6vectorIN10hirtparser4BlobESaIS1_EEC1ERKS3__x19c
    /*000000d8*/ MOV         R0, R6 
    /*000000dc*/ BL          _Znwj
    /*000000e0*/ MOV         R3, R0 
    _ZNSt6vectorIN10hirtparser4BlobESaIS1_EEC1ERKS3__xe4:
    /*000000e4*/ ADD         R6, R3, R6 
    /*000000e8*/ STR         R6, [R4, #-16] 
    /*000000ec*/ STR         R3, [R4, #-24]              @ 0xffffffe8 
    /*000000f0*/ STR         R3, [R4, #-20]              @ 0xffffffec 
    /*000000f4*/ LDMIB       R5, {R1, R6} 
    /*000000f8*/ SUB         R6, R6, R1 
    /*000000fc*/ LSRS        R2, R6, #2 
    /*00000100*/ BEQ         _ZNSt6vectorIN10hirtparser4BlobESaIS1_EEC1ERKS3__x114
    /*00000104*/ MOV         R0, R3 
    /*00000108*/ MOV         R2, R6 
    /*0000010c*/ BL          memmove
    /*00000110*/ MOV         R3, R0 
    _ZNSt6vectorIN10hirtparser4BlobESaIS1_EEC1ERKS3__x114:
    /*00000114*/ LDR         LR, [R5, #16] 
    /*00000118*/ ADD         R0, R7, #20 
    /*0000011c*/ LDR         IP, [R5, #24] 
    /*00000120*/ STR         R4, [R4, #-8] 
    /*00000124*/ LDR         R2, [R5, #20] 
    /*00000128*/ ADD         R3, R3, R6 
    /*0000012c*/ STR         R3, [R4, #-20]              @ 0xffffffec 
    /*00000130*/ MOV         R1, R2 
    /*00000134*/ STR         LR, [R4, #-12] 
    /*00000138*/ ADD         R2, R2, IP 
    /*0000013c*/ BL          _ZNSt7__cxx1112basic_stringIcSt11char_traitsIcESaIcEE12_M_constructIPcEEvT_S7_St20forward_iterator_tag.isra.120
    /*00000140*/ LDR         R3, [R5, #44]               @ 0x2c 
    /*00000144*/ LDR         R1, [R5, #48]               @ 0x30 
    /*00000148*/ STR         R3, [R4, #16] 
    /*0000014c*/ LDR         R3, [R5, #52]               @ 0x34 
    /*00000150*/ LDR         R2, [R5, #56]               @ 0x38 
    /*00000154*/ STR         R3, [R4, #24] 
    /*00000158*/ LDR         R3, [R5, #60]               @ 0x3c 
    /*0000015c*/ STR         R1, [R4, #20] 
    /*00000160*/ STR         R3, [R4, #32] 
    /*00000164*/ LDR         R3, [R5, #64]               @ 0x40 
    /*00000168*/ STR         R2, [R4, #28] 
    /*0000016c*/ STR         R3, [R4, #36]               @ 0x24 
    _ZNSt6vectorIN10hirtparser4BlobESaIS1_EEC1ERKS3__x170:
    /*00000170*/ ADD         R5, R5, #68                 @ 0x44 
    /*00000174*/ ADD         R7, R7, #68                 @ 0x44 
    /*00000178*/ CMP         R9, R5 
    /*0000017c*/ ADD         R4, R4, #68                 @ 0x44 
    /*00000180*/ BNE         _ZNSt6vectorIN10hirtparser4BlobESaIS1_EEC1ERKS3__xa8
    _ZNSt6vectorIN10hirtparser4BlobESaIS1_EEC1ERKS3__x184:
    /*00000184*/ STR         R7, [FP, #4] 
    /*00000188*/ MOV         R0, FP 
    /*0000018c*/ ADD         SP, SP, #12 
    /*00000190*/ POP         {R4, R5, R6, R7, R8, R9, SL, FP, PC} 
    _ZNSt6vectorIN10hirtparser4BlobESaIS1_EEC1ERKS3__x194:
    /*00000194*/ MOV         R7, R3 
    /*00000198*/ B           _ZNSt6vectorIN10hirtparser4BlobESaIS1_EEC1ERKS3__x184
    _ZNSt6vectorIN10hirtparser4BlobESaIS1_EEC1ERKS3__x19c:
    /*0000019c*/ BL          _ZSt17__throw_bad_allocv
    _ZNSt6vectorIN10hirtparser4BlobESaIS1_EEC1ERKS3__x1a0:
    /*000001a0*/ BL          __cxa_begin_catch
    /*000001a4*/ LDR         R3, [SP, #4] 
    /*000001a8*/ CMP         R3, R7 
    /*000001ac*/ MOVNE       R4, R3 
    /*000001b0*/ BEQ         _ZNSt6vectorIN10hirtparser4BlobESaIS1_EEC1ERKS3__x1d0
    _ZNSt6vectorIN10hirtparser4BlobESaIS1_EEC1ERKS3__x1b4:
    /*000001b4*/ LDR         R3, [R4] 
    /*000001b8*/ MOV         R0, R4 
    /*000001bc*/ ADD         R4, R4, #68                 @ 0x44 
    /*000001c0*/ LDR         R3, [R3] 
    /*000001c4*/ BLX         R3 
    /*000001c8*/ CMP         R4, R7 
    /*000001cc*/ BNE         _ZNSt6vectorIN10hirtparser4BlobESaIS1_EEC1ERKS3__x1b4
    _ZNSt6vectorIN10hirtparser4BlobESaIS1_EEC1ERKS3__x1d0:
    /*000001d0*/ BL          __cxa_rethrow
    _ZNSt6vectorIN10hirtparser4BlobESaIS1_EEC1ERKS3__x1d4:
    /*000001d4*/ BL          _ZSt17__throw_bad_allocv
    /*000001d8*/ LDR         R3, [R7, #4] 
    /*000001dc*/ MOV         R4, R0 
    /*000001e0*/ CMP         R3, #0 
    /*000001e4*/ BEQ         _ZNSt6vectorIN10hirtparser4BlobESaIS1_EEC1ERKS3__x1f0
    /*000001e8*/ MOV         R0, R3 
    /*000001ec*/ BL          _ZdlPv
    _ZNSt6vectorIN10hirtparser4BlobESaIS1_EEC1ERKS3__x1f0:
    /*000001f0*/ MOV         R0, R4 
    /*000001f4*/ B           _ZNSt6vectorIN10hirtparser4BlobESaIS1_EEC1ERKS3__x1a0
    /*000001f8*/ BL          __cxa_end_catch
    /*000001fc*/ LDR         R0, [FP] 
    /*00000200*/ CMP         R0, #0 
    /*00000204*/ BEQ         _ZNSt6vectorIN10hirtparser4BlobESaIS1_EEC1ERKS3__x20c
    /*00000208*/ BL          _ZdlPv
    _ZNSt6vectorIN10hirtparser4BlobESaIS1_EEC1ERKS3__x20c:
    /*0000020c*/ BL          __cxa_end_cleanup
    /*00000210*/ WORD_0210: .word 0x00000168
FUNC_END _ZNSt6vectorIN10hirtparser4BlobESaIS1_EEC1ERKS3_


@ - - - - - - - - - - - - - - - - - - - - - - - - - - - - - 
@ .ARM.extab.text._ZNSt6vectorIN10hirtparser4BlobESaIS1_EEC2ERKS3_
@ Size: 0x3c
@ - - - - - - - - - - - - - - - - - - - - - - - - - - - - - 

@ - - - - - - - - - - - - - - - - - - - - - - - - - - - - - 
@ .text._ZNSt6vectorIN10hirtparser9ConnectorESaIS1_EE19_M_emplace_back_auxIJRKS1_EEEvDpOT_
@ Size: 0x658
@ - - - - - - - - - - - - - - - - - - - - - - - - - - - - - 

FUNC_BEGIN _ZNSt6vectorIN10hirtparser9ConnectorESaIS1_EE19_M_emplace_back_auxIJRKS1_EEEvDpOT_
    /*00000000*/ MOV         IP, #16384                  @ 0x4000 
    /*00000004*/ PUSH        {R4, R5, R6, R7, R8, R9, SL, FP, LR} 
    /*00000008*/ SUB         IP, SP, IP 
    /*0000000c*/ STR         R0, [IP, #4032]             @ 0xfc0 
    /*00000010*/ LDR         R3, [R0] 
    /*00000014*/ SUB         SP, SP, #28 
    /*00000018*/ MOVW        R2, #43691                  @ 0xaaab 
    /*0000001c*/ STR         R1, [SP, #20] 
    /*00000020*/ LDR         R1, [R0, #4] 
    /*00000024*/ MOVT        R2, #43690                  @ 0xaaaa 
    /*00000028*/ SUB         SL, R1, R3 
    /*0000002c*/ STR         R1, [SP, #4] 
    /*00000030*/ ASR         R1, SL, #4 
    /*00000034*/ MUL         R2, R2, R1 
    /*00000038*/ STR         R0, [SP, #8] 
    /*0000003c*/ CMP         R2, #0 
    /*00000040*/ BEQ         _ZNSt6vectorIN10hirtparser9ConnectorESaIS1_EE19_M_emplace_back_auxIJRKS1_EEEvDpOT__x4e4
    /*00000044*/ LSL         R1, R2, #1 
    /*00000048*/ CMP         R2, R1 
    /*0000004c*/ BLS         _ZNSt6vectorIN10hirtparser9ConnectorESaIS1_EE19_M_emplace_back_auxIJRKS1_EEEvDpOT__x5d0
    _ZNSt6vectorIN10hirtparser9ConnectorESaIS1_EE19_M_emplace_back_auxIJRKS1_EEEvDpOT__x50:
    /*00000050*/ MVN         R3, #15 
    /*00000054*/ STR         R3, [SP, #16] 
    /*00000058*/ MOV         R0, R3 
    _ZNSt6vectorIN10hirtparser9ConnectorESaIS1_EE19_M_emplace_back_auxIJRKS1_EEEvDpOT__x5c:
    /*0000005c*/ BL          _Znwj
    /*00000060*/ LDR         R2, [SP, #8] 
    /*00000064*/ STR         R0, [SP, #12] 
    /*00000068*/ LDR         R3, [R2] 
    /*0000006c*/ LDR         R2, [R2, #4] 
    /*00000070*/ STR         R2, [SP, #4] 
    /*00000074*/ SUB         SL, R2, R3 
    /*00000078*/ MOV         R2, R0 
    _ZNSt6vectorIN10hirtparser9ConnectorESaIS1_EE19_M_emplace_back_auxIJRKS1_EEEvDpOT__x7c:
    /*0000007c*/ ADDS        SL, R2, SL 
    /*00000080*/ BEQ         _ZNSt6vectorIN10hirtparser9ConnectorESaIS1_EE19_M_emplace_back_auxIJRKS1_EEEvDpOT__x23c
    /*00000084*/ LDR         R4, [SP, #20] 
    /*00000088*/ MOV         R0, SL 
    /*0000008c*/ MOV         R1, R4 
    /*00000090*/ BL          _ZNSt6vectorIN10hirtparser4BlobESaIS1_EEC1ERKS3_
    /*00000094*/ LDR         R5, [R4, #12] 
    /*00000098*/ MOVW        R3, #61681                  @ 0xf0f1 
    /*0000009c*/ LDR         R9, [R4, #16] 
    /*000000a0*/ MOV         R2, #0 
    /*000000a4*/ MOVT        R3, #61680                  @ 0xf0f0 
    /*000000a8*/ SUB         R4, R9, R5 
    /*000000ac*/ STR         R2, [SL, #12] 
    /*000000b0*/ ASR         R1, R4, #2 
    /*000000b4*/ MUL         R3, R3, R1 
    /*000000b8*/ STR         R2, [SL, #16] 
    /*000000bc*/ CMP         R3, R2 
    /*000000c0*/ STR         R2, [SL, #20] 
    /*000000c4*/ STREQ       R3, [SP, #4] 
    /*000000c8*/ BEQ         _ZNSt6vectorIN10hirtparser9ConnectorESaIS1_EE19_M_emplace_back_auxIJRKS1_EEEvDpOT__xf8
    /*000000cc*/ MOVW        R2, #50115                  @ 0xc3c3 
    /*000000d0*/ MOVT        R2, #963                    @ 0x3c3 
    /*000000d4*/ CMP         R3, R2 
    /*000000d8*/ BHI         _ZNSt6vectorIN10hirtparser9ConnectorESaIS1_EE19_M_emplace_back_auxIJRKS1_EEEvDpOT__x608
    /*000000dc*/ MOV         R0, R4 
    /*000000e0*/ BL          _Znwj
    /*000000e4*/ LDR         R3, [SP, #20] 
    /*000000e8*/ STR         R0, [SP, #4] 
    /*000000ec*/ LDR         R5, [R3, #12] 
    /*000000f0*/ LDR         R9, [R3, #16] 
    /*000000f4*/ MOV         R3, R0 
    _ZNSt6vectorIN10hirtparser9ConnectorESaIS1_EE19_M_emplace_back_auxIJRKS1_EEEvDpOT__xf8:
    /*000000f8*/ CMP         R9, R5 
    /*000000fc*/ ADD         R4, R3, R4 
    /*00000100*/ STR         R4, [SL, #20] 
    /*00000104*/ STR         R3, [SL, #12] 
    /*00000108*/ STR         R3, [SL, #16] 
    /*0000010c*/ BEQ         _ZNSt6vectorIN10hirtparser9ConnectorESaIS1_EE19_M_emplace_back_auxIJRKS1_EEEvDpOT__x52c
    /*00000110*/ LDR         FP, WORD_0644               @ LDR         FP, [PC, #1324]             @ 0x0000000000000644 
    /*00000114*/ ADD         R4, R3, #28 
    /*00000118*/ MOV         R7, R3 
    /*0000011c*/ MOV         R8, #0 
    /*00000120*/ ADD         FP, PC, FP 
    /*00000124*/ ADD         FP, FP, #8 
    _ZNSt6vectorIN10hirtparser9ConnectorESaIS1_EE19_M_emplace_back_auxIJRKS1_EEEvDpOT__x128:
    /*00000128*/ CMP         R7, #0 
    /*0000012c*/ BEQ         _ZNSt6vectorIN10hirtparser9ConnectorESaIS1_EE19_M_emplace_back_auxIJRKS1_EEEvDpOT__x1f0
    /*00000130*/ LDMIB       R5, {R3, R6} 
    /*00000134*/ STR         FP, [R4, #-28]              @ 0xffffffe4 
    /*00000138*/ SUB         R6, R6, R3 
    /*0000013c*/ STR         R8, [R4, #-24]              @ 0xffffffe8 
    /*00000140*/ ASRS        R3, R6, #2 
    /*00000144*/ STR         R8, [R4, #-20]              @ 0xffffffec 
    /*00000148*/ STR         R8, [R4, #-16] 
    /*0000014c*/ BEQ         _ZNSt6vectorIN10hirtparser9ConnectorESaIS1_EE19_M_emplace_back_auxIJRKS1_EEEvDpOT__x164
    /*00000150*/ CMN         R3, #-1073741823            @ 0xc0000001 
    /*00000154*/ BHI         _ZNSt6vectorIN10hirtparser9ConnectorESaIS1_EE19_M_emplace_back_auxIJRKS1_EEEvDpOT__x59c
    /*00000158*/ MOV         R0, R6 
    /*0000015c*/ BL          _Znwj
    /*00000160*/ MOV         R3, R0 
    _ZNSt6vectorIN10hirtparser9ConnectorESaIS1_EE19_M_emplace_back_auxIJRKS1_EEEvDpOT__x164:
    /*00000164*/ ADD         R6, R3, R6 
    /*00000168*/ STR         R6, [R4, #-16] 
    /*0000016c*/ STR         R3, [R4, #-24]              @ 0xffffffe8 
    /*00000170*/ STR         R3, [R4, #-20]              @ 0xffffffec 
    /*00000174*/ LDMIB       R5, {R1, R6} 
    /*00000178*/ SUB         R6, R6, R1 
    /*0000017c*/ LSRS        R2, R6, #2 
    /*00000180*/ BEQ         _ZNSt6vectorIN10hirtparser9ConnectorESaIS1_EE19_M_emplace_back_auxIJRKS1_EEEvDpOT__x194
    /*00000184*/ MOV         R0, R3 
    /*00000188*/ MOV         R2, R6 
    /*0000018c*/ BL          memmove
    /*00000190*/ MOV         R3, R0 
    _ZNSt6vectorIN10hirtparser9ConnectorESaIS1_EE19_M_emplace_back_auxIJRKS1_EEEvDpOT__x194:
    /*00000194*/ ADD         R3, R3, R6 
    /*00000198*/ ADD         R0, R7, #20 
    /*0000019c*/ LDR         R1, [R5, #16] 
    /*000001a0*/ STR         R4, [R4, #-8] 
    /*000001a4*/ LDR         R2, [R5, #20] 
    /*000001a8*/ STR         R3, [R4, #-20]              @ 0xffffffec 
    /*000001ac*/ LDR         R3, [R5, #24] 
    /*000001b0*/ STR         R1, [R4, #-12] 
    /*000001b4*/ MOV         R1, R2 
    /*000001b8*/ ADD         R2, R2, R3 
    /*000001bc*/ BL          _ZNSt7__cxx1112basic_stringIcSt11char_traitsIcESaIcEE12_M_constructIPcEEvT_S7_St20forward_iterator_tag.isra.120
    /*000001c0*/ LDR         R3, [R5, #44]               @ 0x2c 
    /*000001c4*/ LDR         R2, [R5, #48]               @ 0x30 
    /*000001c8*/ STR         R3, [R4, #16] 
    /*000001cc*/ LDR         R3, [R5, #52]               @ 0x34 
    /*000001d0*/ STR         R2, [R4, #20] 
    /*000001d4*/ STR         R3, [R4, #24] 
    /*000001d8*/ LDR         R3, [R5, #60]               @ 0x3c 
    /*000001dc*/ LDR         R2, [R5, #56]               @ 0x38 
    /*000001e0*/ STR         R3, [R4, #32] 
    /*000001e4*/ LDR         R3, [R5, #64]               @ 0x40 
    /*000001e8*/ STR         R2, [R4, #28] 
    /*000001ec*/ STR         R3, [R4, #36]               @ 0x24 
    _ZNSt6vectorIN10hirtparser9ConnectorESaIS1_EE19_M_emplace_back_auxIJRKS1_EEEvDpOT__x1f0:
    /*000001f0*/ ADD         R5, R5, #68                 @ 0x44 
    /*000001f4*/ ADD         R7, R7, #68                 @ 0x44 
    /*000001f8*/ CMP         R9, R5 
    /*000001fc*/ ADD         R4, R4, #68                 @ 0x44 
    /*00000200*/ BNE         _ZNSt6vectorIN10hirtparser9ConnectorESaIS1_EE19_M_emplace_back_auxIJRKS1_EEEvDpOT__x128
    _ZNSt6vectorIN10hirtparser9ConnectorESaIS1_EE19_M_emplace_back_auxIJRKS1_EEEvDpOT__x204:
    /*00000204*/ LDR         R2, [SP, #20] 
    /*00000208*/ ADD         IP, SL, #32 
    /*0000020c*/ STR         R7, [SL, #16] 
    /*00000210*/ ADD         R0, SL, #24 
    /*00000214*/ LDR         R3, [R2, #24] 
    /*00000218*/ LDR         R2, [R2, #28] 
    /*0000021c*/ STR         IP, [SL, #24] 
    /*00000220*/ MOV         R1, R3 
    /*00000224*/ ADD         R2, R3, R2 
    /*00000228*/ BL          _ZNSt7__cxx1112basic_stringIcSt11char_traitsIcESaIcEE12_M_constructIPcEEvT_S7_St20forward_iterator_tag.isra.120
    /*0000022c*/ LDR         R2, [SP, #8] 
    /*00000230*/ LDR         R3, [R2] 
    /*00000234*/ LDR         R2, [R2, #4] 
    /*00000238*/ STR         R2, [SP, #4] 
    _ZNSt6vectorIN10hirtparser9ConnectorESaIS1_EE19_M_emplace_back_auxIJRKS1_EEEvDpOT__x23c:
    /*0000023c*/ LDR         LR, [SP, #4] 
    /*00000240*/ CMP         R3, LR 
    /*00000244*/ BEQ         _ZNSt6vectorIN10hirtparser9ConnectorESaIS1_EE19_M_emplace_back_auxIJRKS1_EEEvDpOT__x518
    /*00000248*/ LDR         FP, [SP, #12] 
    /*0000024c*/ ADD         R3, R3, #32 
    /*00000250*/ MOV         R1, #0 
    /*00000254*/ ADD         R2, FP, #32 
    /*00000258*/ B           _ZNSt6vectorIN10hirtparser9ConnectorESaIS1_EE19_M_emplace_back_auxIJRKS1_EEEvDpOT__x260
    _ZNSt6vectorIN10hirtparser9ConnectorESaIS1_EE19_M_emplace_back_auxIJRKS1_EEEvDpOT__x25c:
    /*0000025c*/ MOV         FP, R0 
    _ZNSt6vectorIN10hirtparser9ConnectorESaIS1_EE19_M_emplace_back_auxIJRKS1_EEEvDpOT__x260:
    /*00000260*/ CMP         FP, #0 
    /*00000264*/ BEQ         _ZNSt6vectorIN10hirtparser9ConnectorESaIS1_EE19_M_emplace_back_auxIJRKS1_EEEvDpOT__x308
    /*00000268*/ STR         R1, [R2, #-28]              @ 0xffffffe4 
    /*0000026c*/ STR         R1, [R2, #-24]              @ 0xffffffe8 
    /*00000270*/ STR         R1, [R2, #-32]              @ 0xffffffe0 
    /*00000274*/ LDR         R0, [R3, #-32]              @ 0xffffffe0 
    /*00000278*/ STR         R0, [R2, #-32]              @ 0xffffffe0 
    /*0000027c*/ STR         R1, [R3, #-32]              @ 0xffffffe0 
    /*00000280*/ LDR         IP, [R3, #-28]              @ 0xffffffe4 
    /*00000284*/ LDR         R0, [R2, #-28]              @ 0xffffffe4 
    /*00000288*/ STR         IP, [R2, #-28]              @ 0xffffffe4 
    /*0000028c*/ STR         R0, [R3, #-28]              @ 0xffffffe4 
    /*00000290*/ LDR         IP, [R3, #-24]              @ 0xffffffe8 
    /*00000294*/ LDR         R0, [R2, #-24]              @ 0xffffffe8 
    /*00000298*/ STR         IP, [R2, #-24]              @ 0xffffffe8 
    /*0000029c*/ STR         R0, [R3, #-24]              @ 0xffffffe8 
    /*000002a0*/ STR         R1, [R2, #-16] 
    /*000002a4*/ STR         R1, [R2, #-12] 
    /*000002a8*/ STR         R1, [R2, #-20]              @ 0xffffffec 
    /*000002ac*/ LDR         R0, [R3, #-20]              @ 0xffffffec 
    /*000002b0*/ STR         R0, [R2, #-20]              @ 0xffffffec 
    /*000002b4*/ STR         R1, [R3, #-20]              @ 0xffffffec 
    /*000002b8*/ LDR         IP, [R3, #-16] 
    /*000002bc*/ LDR         R0, [R2, #-16] 
    /*000002c0*/ STR         IP, [R2, #-16] 
    /*000002c4*/ STR         R0, [R3, #-16] 
    /*000002c8*/ LDR         IP, [R3, #-12] 
    /*000002cc*/ LDR         R0, [R2, #-12] 
    /*000002d0*/ STR         IP, [R2, #-12] 
    /*000002d4*/ STR         R0, [R3, #-12] 
    /*000002d8*/ STR         R2, [R2, #-8] 
    /*000002dc*/ LDR         R0, [R3, #-8] 
    /*000002e0*/ CMP         R3, R0 
    /*000002e4*/ STRNE       R0, [R2, #-8] 
    /*000002e8*/ LDRNE       R0, [R3] 
    /*000002ec*/ STRNE       R0, [R2] 
    /*000002f0*/ BEQ         _ZNSt6vectorIN10hirtparser9ConnectorESaIS1_EE19_M_emplace_back_auxIJRKS1_EEEvDpOT__x4f4
    _ZNSt6vectorIN10hirtparser9ConnectorESaIS1_EE19_M_emplace_back_auxIJRKS1_EEEvDpOT__x2f4:
    /*000002f4*/ LDR         R0, [R3, #-4] 
    /*000002f8*/ STR         R0, [R2, #-4] 
    /*000002fc*/ STR         R3, [R3, #-8] 
    /*00000300*/ STR         R1, [R3, #-4] 
    /*00000304*/ STRB        R1, [R3] 
    _ZNSt6vectorIN10hirtparser9ConnectorESaIS1_EE19_M_emplace_back_auxIJRKS1_EEEvDpOT__x308:
    /*00000308*/ ADD         R0, R3, #16 
    /*0000030c*/ ADD         R2, R2, #48                 @ 0x30 
    /*00000310*/ CMP         LR, R0 
    /*00000314*/ ADD         R3, R3, #48                 @ 0x30 
    /*00000318*/ ADD         R0, FP, #48                 @ 0x30 
    /*0000031c*/ BNE         _ZNSt6vectorIN10hirtparser9ConnectorESaIS1_EE19_M_emplace_back_auxIJRKS1_EEEvDpOT__x25c
    /*00000320*/ LDR         R3, [SP, #8] 
    /*00000324*/ ADD         R2, FP, #96                 @ 0x60 
    /*00000328*/ STR         R2, [SP, #20] 
    /*0000032c*/ LDR         R9, [R3] 
    /*00000330*/ LDR         R3, [R3, #4] 
    /*00000334*/ CMP         R9, R3 
    /*00000338*/ STR         R3, [SP, #4] 
    /*0000033c*/ BEQ         _ZNSt6vectorIN10hirtparser9ConnectorESaIS1_EE19_M_emplace_back_auxIJRKS1_EEEvDpOT__x4ac
    /*00000340*/ LDR         R8, WORD_0648               @ LDR         R8, [PC, #768]              @ 0x0000000000000648 
    /*00000344*/ ADD         R5, R9, #32 
    /*00000348*/ LDR         R6, WORD_064c               @ LDR         R6, [PC, #764]              @ 0x000000000000064c 
    /*0000034c*/ ADD         R8, PC, R8 
    /*00000350*/ ADD         R6, PC, R6 
    /*00000354*/ ADD         R8, R8, #8 
    /*00000358*/ ADD         R6, R6, #8 
    _ZNSt6vectorIN10hirtparser9ConnectorESaIS1_EE19_M_emplace_back_auxIJRKS1_EEEvDpOT__x35c:
    /*0000035c*/ LDR         R0, [R5, #-8] 
    /*00000360*/ CMP         R5, R0 
    /*00000364*/ BEQ         _ZNSt6vectorIN10hirtparser9ConnectorESaIS1_EE19_M_emplace_back_auxIJRKS1_EEEvDpOT__x36c
    /*00000368*/ BL          _ZdlPv
    _ZNSt6vectorIN10hirtparser9ConnectorESaIS1_EE19_M_emplace_back_auxIJRKS1_EEEvDpOT__x36c:
    /*0000036c*/ LDR         SL, [R5, #-20]              @ 0xffffffec 
    /*00000370*/ LDR         R7, [R5, #-16] 
    /*00000374*/ CMP         SL, R7 
    /*00000378*/ BEQ         _ZNSt6vectorIN10hirtparser9ConnectorESaIS1_EE19_M_emplace_back_auxIJRKS1_EEEvDpOT__x3ec
    /*0000037c*/ LDR         FP, WORD_0650               @ LDR         FP, [PC, #716]              @ 0x0000000000000650 
    /*00000380*/ ADD         R4, SL, #28 
    /*00000384*/ ADD         FP, PC, FP 
    /*00000388*/ B           _ZNSt6vectorIN10hirtparser9ConnectorESaIS1_EE19_M_emplace_back_auxIJRKS1_EEEvDpOT__x3c0
    _ZNSt6vectorIN10hirtparser9ConnectorESaIS1_EE19_M_emplace_back_auxIJRKS1_EEEvDpOT__x38c:
    /*0000038c*/ LDR         R0, [R4, #-8] 
    /*00000390*/ STR         R8, [R4, #-28]              @ 0xffffffe4 
    /*00000394*/ CMP         R0, R4 
    /*00000398*/ BEQ         _ZNSt6vectorIN10hirtparser9ConnectorESaIS1_EE19_M_emplace_back_auxIJRKS1_EEEvDpOT__x3a0
    /*0000039c*/ BL          _ZdlPv
    _ZNSt6vectorIN10hirtparser9ConnectorESaIS1_EE19_M_emplace_back_auxIJRKS1_EEEvDpOT__x3a0:
    /*000003a0*/ LDR         R0, [R4, #-24]              @ 0xffffffe8 
    /*000003a4*/ CMP         R0, #0 
    /*000003a8*/ BEQ         _ZNSt6vectorIN10hirtparser9ConnectorESaIS1_EE19_M_emplace_back_auxIJRKS1_EEEvDpOT__x3b0
    /*000003ac*/ BL          _ZdlPv
    _ZNSt6vectorIN10hirtparser9ConnectorESaIS1_EE19_M_emplace_back_auxIJRKS1_EEEvDpOT__x3b0:
    /*000003b0*/ ADD         SL, SL, #68                 @ 0x44 
    /*000003b4*/ ADD         R4, R4, #68                 @ 0x44 
    /*000003b8*/ CMP         R7, SL 
    /*000003bc*/ BEQ         _ZNSt6vectorIN10hirtparser9ConnectorESaIS1_EE19_M_emplace_back_auxIJRKS1_EEEvDpOT__x3e8
    _ZNSt6vectorIN10hirtparser9ConnectorESaIS1_EE19_M_emplace_back_auxIJRKS1_EEEvDpOT__x3c0:
    /*000003c0*/ LDR         R3, [R4, #-28]              @ 0xffffffe4 
    /*000003c4*/ LDR         R3, [R3] 
    /*000003c8*/ CMP         R3, FP 
    /*000003cc*/ BEQ         _ZNSt6vectorIN10hirtparser9ConnectorESaIS1_EE19_M_emplace_back_auxIJRKS1_EEEvDpOT__x38c
    /*000003d0*/ MOV         R0, SL 
    /*000003d4*/ ADD         SL, SL, #68                 @ 0x44 
    /*000003d8*/ ADD         R4, R4, #68                 @ 0x44 
    /*000003dc*/ BLX         R3 
    /*000003e0*/ CMP         R7, SL 
    /*000003e4*/ BNE         _ZNSt6vectorIN10hirtparser9ConnectorESaIS1_EE19_M_emplace_back_auxIJRKS1_EEEvDpOT__x3c0
    _ZNSt6vectorIN10hirtparser9ConnectorESaIS1_EE19_M_emplace_back_auxIJRKS1_EEEvDpOT__x3e8:
    /*000003e8*/ LDR         R7, [R5, #-20]              @ 0xffffffec 
    _ZNSt6vectorIN10hirtparser9ConnectorESaIS1_EE19_M_emplace_back_auxIJRKS1_EEEvDpOT__x3ec:
    /*000003ec*/ CMP         R7, #0 
    /*000003f0*/ BEQ         _ZNSt6vectorIN10hirtparser9ConnectorESaIS1_EE19_M_emplace_back_auxIJRKS1_EEEvDpOT__x3fc
    /*000003f4*/ MOV         R0, R7 
    /*000003f8*/ BL          _ZdlPv
    _ZNSt6vectorIN10hirtparser9ConnectorESaIS1_EE19_M_emplace_back_auxIJRKS1_EEEvDpOT__x3fc:
    /*000003fc*/ LDR         SL, [R5, #-32]              @ 0xffffffe0 
    /*00000400*/ LDR         R7, [R5, #-28]              @ 0xffffffe4 
    /*00000404*/ CMP         SL, R7 
    /*00000408*/ BEQ         _ZNSt6vectorIN10hirtparser9ConnectorESaIS1_EE19_M_emplace_back_auxIJRKS1_EEEvDpOT__x47c
    /*0000040c*/ LDR         FP, WORD_0654               @ LDR         FP, [PC, #576]              @ 0x0000000000000654 
    /*00000410*/ ADD         R4, SL, #28 
    /*00000414*/ ADD         FP, PC, FP 
    /*00000418*/ B           _ZNSt6vectorIN10hirtparser9ConnectorESaIS1_EE19_M_emplace_back_auxIJRKS1_EEEvDpOT__x450
    _ZNSt6vectorIN10hirtparser9ConnectorESaIS1_EE19_M_emplace_back_auxIJRKS1_EEEvDpOT__x41c:
    /*0000041c*/ LDR         R0, [R4, #-8] 
    /*00000420*/ STR         R6, [R4, #-28]              @ 0xffffffe4 
    /*00000424*/ CMP         R0, R4 
    /*00000428*/ BEQ         _ZNSt6vectorIN10hirtparser9ConnectorESaIS1_EE19_M_emplace_back_auxIJRKS1_EEEvDpOT__x430
    /*0000042c*/ BL          _ZdlPv
    _ZNSt6vectorIN10hirtparser9ConnectorESaIS1_EE19_M_emplace_back_auxIJRKS1_EEEvDpOT__x430:
    /*00000430*/ LDR         R0, [R4, #-24]              @ 0xffffffe8 
    /*00000434*/ CMP         R0, #0 
    /*00000438*/ BEQ         _ZNSt6vectorIN10hirtparser9ConnectorESaIS1_EE19_M_emplace_back_auxIJRKS1_EEEvDpOT__x440
    /*0000043c*/ BL          _ZdlPv
    _ZNSt6vectorIN10hirtparser9ConnectorESaIS1_EE19_M_emplace_back_auxIJRKS1_EEEvDpOT__x440:
    /*00000440*/ ADD         SL, SL, #68                 @ 0x44 
    /*00000444*/ ADD         R4, R4, #68                 @ 0x44 
    /*00000448*/ CMP         R7, SL 
    /*0000044c*/ BEQ         _ZNSt6vectorIN10hirtparser9ConnectorESaIS1_EE19_M_emplace_back_auxIJRKS1_EEEvDpOT__x478
    _ZNSt6vectorIN10hirtparser9ConnectorESaIS1_EE19_M_emplace_back_auxIJRKS1_EEEvDpOT__x450:
    /*00000450*/ LDR         R3, [R4, #-28]              @ 0xffffffe4 
    /*00000454*/ LDR         R3, [R3] 
    /*00000458*/ CMP         R3, FP 
    /*0000045c*/ BEQ         _ZNSt6vectorIN10hirtparser9ConnectorESaIS1_EE19_M_emplace_back_auxIJRKS1_EEEvDpOT__x41c
    /*00000460*/ MOV         R0, SL 
    /*00000464*/ ADD         SL, SL, #68                 @ 0x44 
    /*00000468*/ ADD         R4, R4, #68                 @ 0x44 
    /*0000046c*/ BLX         R3 
    /*00000470*/ CMP         R7, SL 
    /*00000474*/ BNE         _ZNSt6vectorIN10hirtparser9ConnectorESaIS1_EE19_M_emplace_back_auxIJRKS1_EEEvDpOT__x450
    _ZNSt6vectorIN10hirtparser9ConnectorESaIS1_EE19_M_emplace_back_auxIJRKS1_EEEvDpOT__x478:
    /*00000478*/ LDR         R7, [R5, #-32]              @ 0xffffffe0 
    _ZNSt6vectorIN10hirtparser9ConnectorESaIS1_EE19_M_emplace_back_auxIJRKS1_EEEvDpOT__x47c:
    /*0000047c*/ CMP         R7, #0 
    /*00000480*/ BEQ         _ZNSt6vectorIN10hirtparser9ConnectorESaIS1_EE19_M_emplace_back_auxIJRKS1_EEEvDpOT__x48c
    /*00000484*/ MOV         R0, R7 
    /*00000488*/ BL          _ZdlPv
    _ZNSt6vectorIN10hirtparser9ConnectorESaIS1_EE19_M_emplace_back_auxIJRKS1_EEEvDpOT__x48c:
    /*0000048c*/ LDR         R3, [SP, #4] 
    /*00000490*/ ADD         R9, R9, #48                 @ 0x30 
    /*00000494*/ ADD         R5, R5, #48                 @ 0x30 
    /*00000498*/ CMP         R3, R9 
    /*0000049c*/ BNE         _ZNSt6vectorIN10hirtparser9ConnectorESaIS1_EE19_M_emplace_back_auxIJRKS1_EEEvDpOT__x35c
    /*000004a0*/ LDR         R3, [SP, #8] 
    /*000004a4*/ LDR         R3, [R3] 
    /*000004a8*/ STR         R3, [SP, #4] 
    _ZNSt6vectorIN10hirtparser9ConnectorESaIS1_EE19_M_emplace_back_auxIJRKS1_EEEvDpOT__x4ac:
    /*000004ac*/ CMP         R3, #0 
    /*000004b0*/ BEQ         _ZNSt6vectorIN10hirtparser9ConnectorESaIS1_EE19_M_emplace_back_auxIJRKS1_EEEvDpOT__x4bc
    /*000004b4*/ MOV         R0, R3 
    /*000004b8*/ BL          _ZdlPv
    _ZNSt6vectorIN10hirtparser9ConnectorESaIS1_EE19_M_emplace_back_auxIJRKS1_EEEvDpOT__x4bc:
    /*000004bc*/ LDR         R1, [SP, #12] 
    /*000004c0*/ LDR         R2, [SP, #16] 
    /*000004c4*/ ADD         R3, R1, R2 
    /*000004c8*/ LDR         R2, [SP, #8] 
    /*000004cc*/ STR         R3, [R2, #8] 
    /*000004d0*/ LDR         R3, [SP, #20] 
    /*000004d4*/ STR         R1, [R2] 
    /*000004d8*/ STR         R3, [R2, #4] 
    /*000004dc*/ ADD         SP, SP, #28 
    /*000004e0*/ POP         {R4, R5, R6, R7, R8, R9, SL, FP, PC} 
    _ZNSt6vectorIN10hirtparser9ConnectorESaIS1_EE19_M_emplace_back_auxIJRKS1_EEEvDpOT__x4e4:
    /*000004e4*/ MOV         R3, #48                     @ 0x30 
    /*000004e8*/ STR         R3, [SP, #16] 
    /*000004ec*/ MOV         R0, R3 
    /*000004f0*/ B           _ZNSt6vectorIN10hirtparser9ConnectorESaIS1_EE19_M_emplace_back_auxIJRKS1_EEEvDpOT__x5c
    _ZNSt6vectorIN10hirtparser9ConnectorESaIS1_EE19_M_emplace_back_auxIJRKS1_EEEvDpOT__x4f4:
    /*000004f4*/ LDR         R5, [R3] 
    /*000004f8*/ LDR         R4, [R3, #4] 
    /*000004fc*/ LDR         IP, [R3, #8] 
    /*00000500*/ LDR         R0, [R3, #12] 
    /*00000504*/ STR         R5, [R2] 
    /*00000508*/ STR         R4, [R2, #4] 
    /*0000050c*/ STR         IP, [R2, #8] 
    /*00000510*/ STR         R0, [R2, #12] 
    /*00000514*/ B           _ZNSt6vectorIN10hirtparser9ConnectorESaIS1_EE19_M_emplace_back_auxIJRKS1_EEEvDpOT__x2f4
    _ZNSt6vectorIN10hirtparser9ConnectorESaIS1_EE19_M_emplace_back_auxIJRKS1_EEEvDpOT__x518:
    /*00000518*/ LDR         R3, [SP, #12] 
    /*0000051c*/ ADD         R3, R3, #48                 @ 0x30 
    /*00000520*/ STR         R3, [SP, #20] 
    /*00000524*/ MOV         R3, LR 
    /*00000528*/ B           _ZNSt6vectorIN10hirtparser9ConnectorESaIS1_EE19_M_emplace_back_auxIJRKS1_EEEvDpOT__x4ac
    _ZNSt6vectorIN10hirtparser9ConnectorESaIS1_EE19_M_emplace_back_auxIJRKS1_EEEvDpOT__x52c:
    /*0000052c*/ MOV         R7, R3 
    /*00000530*/ B           _ZNSt6vectorIN10hirtparser9ConnectorESaIS1_EE19_M_emplace_back_auxIJRKS1_EEEvDpOT__x204
    _ZNSt6vectorIN10hirtparser9ConnectorESaIS1_EE19_M_emplace_back_auxIJRKS1_EEEvDpOT__x534:
    /*00000534*/ BL          __cxa_begin_catch
    /*00000538*/ LDR         R3, [SP, #4] 
    /*0000053c*/ CMP         R7, R3 
    /*00000540*/ MOVNE       R4, R3 
    /*00000544*/ BEQ         _ZNSt6vectorIN10hirtparser9ConnectorESaIS1_EE19_M_emplace_back_auxIJRKS1_EEEvDpOT__x564
    _ZNSt6vectorIN10hirtparser9ConnectorESaIS1_EE19_M_emplace_back_auxIJRKS1_EEEvDpOT__x548:
    /*00000548*/ LDR         R3, [R4] 
    /*0000054c*/ MOV         R0, R4 
    /*00000550*/ ADD         R4, R4, #68                 @ 0x44 
    /*00000554*/ LDR         R3, [R3] 
    /*00000558*/ BLX         R3 
    /*0000055c*/ CMP         R7, R4 
    /*00000560*/ BNE         _ZNSt6vectorIN10hirtparser9ConnectorESaIS1_EE19_M_emplace_back_auxIJRKS1_EEEvDpOT__x548
    _ZNSt6vectorIN10hirtparser9ConnectorESaIS1_EE19_M_emplace_back_auxIJRKS1_EEEvDpOT__x564:
    /*00000564*/ BL          __cxa_rethrow
    /*00000568*/ MOV         R4, R0 
    _ZNSt6vectorIN10hirtparser9ConnectorESaIS1_EE19_M_emplace_back_auxIJRKS1_EEEvDpOT__x56c:
    /*0000056c*/ MOV         R0, SL 
    /*00000570*/ BL          _ZNSt6vectorIN10hirtparser4BlobESaIS1_EED1Ev
    /*00000574*/ MOV         R0, R4 
    _ZNSt6vectorIN10hirtparser9ConnectorESaIS1_EE19_M_emplace_back_auxIJRKS1_EEEvDpOT__x578:
    /*00000578*/ BL          __cxa_begin_catch
    /*0000057c*/ LDR         R3, [SP, #12] 
    /*00000580*/ CMP         R3, #0 
    /*00000584*/ BEQ         _ZNSt6vectorIN10hirtparser9ConnectorESaIS1_EE19_M_emplace_back_auxIJRKS1_EEEvDpOT__x610
    /*00000588*/ MOV         R0, R3 
    /*0000058c*/ BL          _ZdlPv
    _ZNSt6vectorIN10hirtparser9ConnectorESaIS1_EE19_M_emplace_back_auxIJRKS1_EEEvDpOT__x590:
    /*00000590*/ BL          __cxa_rethrow
    /*00000594*/ BL          __cxa_end_catch
    /*00000598*/ BL          __cxa_end_cleanup
    _ZNSt6vectorIN10hirtparser9ConnectorESaIS1_EE19_M_emplace_back_auxIJRKS1_EEEvDpOT__x59c:
    /*0000059c*/ BL          _ZSt17__throw_bad_allocv
    /*000005a0*/ LDR         R3, [R7, #4] 
    /*000005a4*/ MOV         R4, R0 
    /*000005a8*/ CMP         R3, #0 
    /*000005ac*/ BEQ         _ZNSt6vectorIN10hirtparser9ConnectorESaIS1_EE19_M_emplace_back_auxIJRKS1_EEEvDpOT__x5b8
    /*000005b0*/ MOV         R0, R3 
    /*000005b4*/ BL          _ZdlPv
    _ZNSt6vectorIN10hirtparser9ConnectorESaIS1_EE19_M_emplace_back_auxIJRKS1_EEEvDpOT__x5b8:
    /*000005b8*/ MOV         R0, R4 
    /*000005bc*/ B           _ZNSt6vectorIN10hirtparser9ConnectorESaIS1_EE19_M_emplace_back_auxIJRKS1_EEEvDpOT__x534
    /*000005c0*/ MOV         R4, R0 
    /*000005c4*/ ADD         R0, SL, #12 
    /*000005c8*/ BL          _ZNSt6vectorIN10hirtparser4BlobESaIS1_EED1Ev
    /*000005cc*/ B           _ZNSt6vectorIN10hirtparser9ConnectorESaIS1_EE19_M_emplace_back_auxIJRKS1_EEEvDpOT__x56c
    _ZNSt6vectorIN10hirtparser9ConnectorESaIS1_EE19_M_emplace_back_auxIJRKS1_EEEvDpOT__x5d0:
    /*000005d0*/ MOVW        R2, #21845                  @ 0x5555 
    /*000005d4*/ MOVT        R2, #1365                   @ 0x555 
    /*000005d8*/ CMP         R1, R2 
    /*000005dc*/ BHI         _ZNSt6vectorIN10hirtparser9ConnectorESaIS1_EE19_M_emplace_back_auxIJRKS1_EEEvDpOT__x50
    /*000005e0*/ CMP         R1, #0 
    /*000005e4*/ MOVEQ       R2, R1 
    /*000005e8*/ STREQ       R2, [SP, #16] 
    /*000005ec*/ STREQ       R2, [SP, #12] 
    /*000005f0*/ BEQ         _ZNSt6vectorIN10hirtparser9ConnectorESaIS1_EE19_M_emplace_back_auxIJRKS1_EEEvDpOT__x7c
    /*000005f4*/ MOV         R3, #48                     @ 0x30 
    /*000005f8*/ MUL         R3, R3, R1 
    /*000005fc*/ STR         R3, [SP, #16] 
    /*00000600*/ MOV         R0, R3 
    /*00000604*/ B           _ZNSt6vectorIN10hirtparser9ConnectorESaIS1_EE19_M_emplace_back_auxIJRKS1_EEEvDpOT__x5c
    _ZNSt6vectorIN10hirtparser9ConnectorESaIS1_EE19_M_emplace_back_auxIJRKS1_EEEvDpOT__x608:
    /*00000608*/ BL          _ZSt17__throw_bad_allocv
    /*0000060c*/ B           _ZNSt6vectorIN10hirtparser9ConnectorESaIS1_EE19_M_emplace_back_auxIJRKS1_EEEvDpOT__x578
    _ZNSt6vectorIN10hirtparser9ConnectorESaIS1_EE19_M_emplace_back_auxIJRKS1_EEEvDpOT__x610:
    /*00000610*/ LDR         R3, [SP, #8] 
    /*00000614*/ LDR         R0, [R3, #4] 
    /*00000618*/ LDR         R3, [R3] 
    /*0000061c*/ SUB         R0, R0, R3 
    /*00000620*/ BL          _ZN10hirtparser9GroupItemD2Ev
    /*00000624*/ B           _ZNSt6vectorIN10hirtparser9ConnectorESaIS1_EE19_M_emplace_back_auxIJRKS1_EEEvDpOT__x590
    /*00000628*/ MOV         R4, R0 
    /*0000062c*/ BL          __cxa_end_catch
    /*00000630*/ LDR         R0, [SL, #12] 
    /*00000634*/ CMP         R0, #0 
    /*00000638*/ BEQ         _ZNSt6vectorIN10hirtparser9ConnectorESaIS1_EE19_M_emplace_back_auxIJRKS1_EEEvDpOT__x56c
    /*0000063c*/ BL          _ZdlPv
    /*00000640*/ B           _ZNSt6vectorIN10hirtparser9ConnectorESaIS1_EE19_M_emplace_back_auxIJRKS1_EEEvDpOT__x56c
    /*00000644*/ WORD_0644: .word 0x0000051c
    /*00000648*/ WORD_0648: .word 0x000002f4
    /*0000064c*/ WORD_064c: .word 0x000002f4
    /*00000650*/ WORD_0650: .word 0x000002c4
    /*00000654*/ WORD_0654: .word 0x00000238
FUNC_END _ZNSt6vectorIN10hirtparser9ConnectorESaIS1_EE19_M_emplace_back_auxIJRKS1_EEEvDpOT_


@ - - - - - - - - - - - - - - - - - - - - - - - - - - - - - 
@ .ARM.extab.text._ZNSt6vectorIN10hirtparser9ConnectorESaIS1_EE19_M_emplace_back_auxIJRKS1_EEEvDpOT_
@ Size: 0x54
@ - - - - - - - - - - - - - - - - - - - - - - - - - - - - - 

@ - - - - - - - - - - - - - - - - - - - - - - - - - - - - - 
@ .text._ZNSt8_Rb_treeINSt7__cxx1112basic_stringIcSt11char_traitsIcESaIcEEESt4pairIKS5_N10hirtparser8DataTypeEESt10_Select1stISA_ESt4lessIS5_ESaISA_EE24_M_get_insert_unique_posERS7_
@ Size: 0xf0
@ - - - - - - - - - - - - - - - - - - - - - - - - - - - - - 

FUNC_BEGIN _ZNSt8_Rb_treeINSt7__cxx1112basic_stringIcSt11char_traitsIcESaIcEEESt4pairIKS5_N10hirtparser8DataTypeEESt10_Select1stISA_ESt4lessIS5_ESaISA_EE24_M_get_insert_unique_posERS7_
    /*00000000*/ MOV         IP, #16384                  @ 0x4000 
    /*00000004*/ PUSH        {R4, R5, R6, R7, R8, R9, SL, LR} 
    /*00000008*/ SUB         IP, SP, IP 
    /*0000000c*/ STR         R0, [IP, #4064]             @ 0xfe0 
    /*00000010*/ LDR         R4, [R1, #8] 
    /*00000014*/ MOV         R8, R1 
    /*00000018*/ MOV         R6, R0 
    /*0000001c*/ MOV         R7, R2 
    /*00000020*/ CMP         R4, #0 
    /*00000024*/ ADDEQ       R4, R1, #4 
    /*00000028*/ BEQ         _ZNSt8_Rb_treeINSt7__cxx1112basic_stringIcSt11char_traitsIcESaIcEEESt4pairIKS5_N10hirtparser8DataTypeEESt10_Select1stISA_ESt4lessIS5_ESaISA_EE24_M_get_insert_unique_posERS7__xc0
    /*0000002c*/ LDR         R9, [R2, #4] 
    /*00000030*/ LDR         SL, [R2] 
    /*00000034*/ B           _ZNSt8_Rb_treeINSt7__cxx1112basic_stringIcSt11char_traitsIcESaIcEEESt4pairIKS5_N10hirtparser8DataTypeEESt10_Select1stISA_ESt4lessIS5_ESaISA_EE24_M_get_insert_unique_posERS7__x68
    _ZNSt8_Rb_treeINSt7__cxx1112basic_stringIcSt11char_traitsIcESaIcEEESt4pairIKS5_N10hirtparser8DataTypeEESt10_Select1stISA_ESt4lessIS5_ESaISA_EE24_M_get_insert_unique_posERS7__x38:
    /*00000038*/ LDR         R1, [R4, #16] 
    /*0000003c*/ BL          memcmp
    /*00000040*/ CMP         R0, #0 
    /*00000044*/ BEQ         _ZNSt8_Rb_treeINSt7__cxx1112basic_stringIcSt11char_traitsIcESaIcEEESt4pairIKS5_N10hirtparser8DataTypeEESt10_Select1stISA_ESt4lessIS5_ESaISA_EE24_M_get_insert_unique_posERS7__x84
    _ZNSt8_Rb_treeINSt7__cxx1112basic_stringIcSt11char_traitsIcESaIcEEESt4pairIKS5_N10hirtparser8DataTypeEESt10_Select1stISA_ESt4lessIS5_ESaISA_EE24_M_get_insert_unique_posERS7__x48:
    /*00000048*/ CMP         R0, #0 
    /*0000004c*/ MOV         R2, #0 
    /*00000050*/ MOVLT       R2, #1 
    /*00000054*/ LDRLT       R3, [R4, #8] 
    /*00000058*/ LDRGE       R3, [R4, #12] 
    /*0000005c*/ CMP         R3, #0 
    /*00000060*/ BEQ         _ZNSt8_Rb_treeINSt7__cxx1112basic_stringIcSt11char_traitsIcESaIcEEESt4pairIKS5_N10hirtparser8DataTypeEESt10_Select1stISA_ESt4lessIS5_ESaISA_EE24_M_get_insert_unique_posERS7__x8c
    /*00000064*/ MOV         R4, R3 
    _ZNSt8_Rb_treeINSt7__cxx1112basic_stringIcSt11char_traitsIcESaIcEEESt4pairIKS5_N10hirtparser8DataTypeEESt10_Select1stISA_ESt4lessIS5_ESaISA_EE24_M_get_insert_unique_posERS7__x68:
    /*00000068*/ LDR         R5, [R4, #20] 
    /*0000006c*/ MOV         R0, SL 
    /*00000070*/ CMP         R5, R9 
    /*00000074*/ MOVCC       R3, R5 
    /*00000078*/ MOVCS       R3, R9 
    /*0000007c*/ SUBS        R2, R3, #0 
    /*00000080*/ BNE         _ZNSt8_Rb_treeINSt7__cxx1112basic_stringIcSt11char_traitsIcESaIcEEESt4pairIKS5_N10hirtparser8DataTypeEESt10_Select1stISA_ESt4lessIS5_ESaISA_EE24_M_get_insert_unique_posERS7__x38
    _ZNSt8_Rb_treeINSt7__cxx1112basic_stringIcSt11char_traitsIcESaIcEEESt4pairIKS5_N10hirtparser8DataTypeEESt10_Select1stISA_ESt4lessIS5_ESaISA_EE24_M_get_insert_unique_posERS7__x84:
    /*00000084*/ SUB         R0, R9, R5 
    /*00000088*/ B           _ZNSt8_Rb_treeINSt7__cxx1112basic_stringIcSt11char_traitsIcESaIcEEESt4pairIKS5_N10hirtparser8DataTypeEESt10_Select1stISA_ESt4lessIS5_ESaISA_EE24_M_get_insert_unique_posERS7__x48
    _ZNSt8_Rb_treeINSt7__cxx1112basic_stringIcSt11char_traitsIcESaIcEEESt4pairIKS5_N10hirtparser8DataTypeEESt10_Select1stISA_ESt4lessIS5_ESaISA_EE24_M_get_insert_unique_posERS7__x8c:
    /*0000008c*/ CMP         R2, #0 
    /*00000090*/ MOVEQ       R5, R4 
    /*00000094*/ BNE         _ZNSt8_Rb_treeINSt7__cxx1112basic_stringIcSt11char_traitsIcESaIcEEESt4pairIKS5_N10hirtparser8DataTypeEESt10_Select1stISA_ESt4lessIS5_ESaISA_EE24_M_get_insert_unique_posERS7__xc0
    _ZNSt8_Rb_treeINSt7__cxx1112basic_stringIcSt11char_traitsIcESaIcEEESt4pairIKS5_N10hirtparser8DataTypeEESt10_Select1stISA_ESt4lessIS5_ESaISA_EE24_M_get_insert_unique_posERS7__x98:
    /*00000098*/ MOV         R1, R7 
    /*0000009c*/ ADD         R0, R5, #16 
    /*000000a0*/ BL          _ZNKSt7__cxx1112basic_stringIcSt11char_traitsIcESaIcEE7compareERKS4_
    /*000000a4*/ CMP         R0, #0 
    /*000000a8*/ STRGE       R5, [R6] 
    /*000000ac*/ MOVGE       R3, #0 
    /*000000b0*/ STRGE       R3, [R6, #4] 
    /*000000b4*/ BLT         _ZNSt8_Rb_treeINSt7__cxx1112basic_stringIcSt11char_traitsIcESaIcEEESt4pairIKS5_N10hirtparser8DataTypeEESt10_Select1stISA_ESt4lessIS5_ESaISA_EE24_M_get_insert_unique_posERS7__xdc
    /*000000b8*/ MOV         R0, R6 
    /*000000bc*/ POP         {R4, R5, R6, R7, R8, R9, SL, PC} 
    _ZNSt8_Rb_treeINSt7__cxx1112basic_stringIcSt11char_traitsIcESaIcEEESt4pairIKS5_N10hirtparser8DataTypeEESt10_Select1stISA_ESt4lessIS5_ESaISA_EE24_M_get_insert_unique_posERS7__xc0:
    /*000000c0*/ LDR         R3, [R8, #12] 
    /*000000c4*/ CMP         R3, R4 
    /*000000c8*/ BEQ         _ZNSt8_Rb_treeINSt7__cxx1112basic_stringIcSt11char_traitsIcESaIcEEESt4pairIKS5_N10hirtparser8DataTypeEESt10_Select1stISA_ESt4lessIS5_ESaISA_EE24_M_get_insert_unique_posERS7__xdc
    /*000000cc*/ MOV         R0, R4 
    /*000000d0*/ BL          _ZSt18_Rb_tree_decrementPSt18_Rb_tree_node_base
    /*000000d4*/ MOV         R5, R0 
    /*000000d8*/ B           _ZNSt8_Rb_treeINSt7__cxx1112basic_stringIcSt11char_traitsIcESaIcEEESt4pairIKS5_N10hirtparser8DataTypeEESt10_Select1stISA_ESt4lessIS5_ESaISA_EE24_M_get_insert_unique_posERS7__x98
    _ZNSt8_Rb_treeINSt7__cxx1112basic_stringIcSt11char_traitsIcESaIcEEESt4pairIKS5_N10hirtparser8DataTypeEESt10_Select1stISA_ESt4lessIS5_ESaISA_EE24_M_get_insert_unique_posERS7__xdc:
    /*000000dc*/ STR         R4, [R6, #4] 
    /*000000e0*/ MOV         R3, #0 
    /*000000e4*/ STR         R3, [R6] 
    /*000000e8*/ MOV         R0, R6 
    /*000000ec*/ POP         {R4, R5, R6, R7, R8, R9, SL, PC} 
FUNC_END _ZNSt8_Rb_treeINSt7__cxx1112basic_stringIcSt11char_traitsIcESaIcEEESt4pairIKS5_N10hirtparser8DataTypeEESt10_Select1stISA_ESt4lessIS5_ESaISA_EE24_M_get_insert_unique_posERS7_


@ - - - - - - - - - - - - - - - - - - - - - - - - - - - - - 
@ .text._ZNSt3mapINSt7__cxx1112basic_stringIcSt11char_traitsIcESaIcEEEN10hirtparser8DataTypeESt4lessIS5_ESaISt4pairIKS5_S7_EEEC2ESt16initializer_listISC_ERKS9_RKSD_
@ Size: 0x154
@ - - - - - - - - - - - - - - - - - - - - - - - - - - - - - 

FUNC_BEGIN _ZNSt3mapINSt7__cxx1112basic_stringIcSt11char_traitsIcESaIcEEEN10hirtparser8DataTypeESt4lessIS5_ESaISt4pairIKS5_S7_EEEC2ESt16initializer_listISC_ERKS9_RKSD_
    /*00000000*/ MOV         IP, #16384                  @ 0x4000 
    /*00000004*/ PUSH        {R4, R5, R6, R7, R8, R9, SL, FP, LR} 
    /*00000008*/ SUB         IP, SP, IP 
    /*0000000c*/ STR         R0, [IP, #4040]             @ 0xfc8 
    /*00000010*/ MOV         IP, #28 
    /*00000014*/ ADD         R8, R0, #4 
    /*00000018*/ VMOV.I32    Q8, #0                      @ 0x00000000 
    /*0000001c*/ MLA         R7, IP, R2, R1 
    /*00000020*/ SUB         SP, SP, #20 
    /*00000024*/ MOV         R5, #0 
    /*00000028*/ CMP         R7, R1 
    /*0000002c*/ MOV         R6, R0 
    /*00000030*/ VST1.8      {D16-D17}, [R8] 
    /*00000034*/ STM         SP, {R1, R2} 
    /*00000038*/ STR         R8, [R0, #12] 
    /*0000003c*/ STR         R8, [R0, #16] 
    /*00000040*/ STR         R5, [R0, #20] 
    /*00000044*/ BEQ         _ZNSt3mapINSt7__cxx1112basic_stringIcSt11char_traitsIcESaIcEEEN10hirtparser8DataTypeESt4lessIS5_ESaISt4pairIKS5_S7_EEEC2ESt16initializer_listISC_ERKS9_RKSD__x118
    /*00000048*/ MOV         R4, R1 
    /*0000004c*/ ADD         R9, SP, #8 
    _ZNSt3mapINSt7__cxx1112basic_stringIcSt11char_traitsIcESaIcEEEN10hirtparser8DataTypeESt4lessIS5_ESaISt4pairIKS5_S7_EEEC2ESt16initializer_listISC_ERKS9_RKSD__x50:
    /*00000050*/ CMP         R5, #0 
    /*00000054*/ BEQ         _ZNSt3mapINSt7__cxx1112basic_stringIcSt11char_traitsIcESaIcEEEN10hirtparser8DataTypeESt4lessIS5_ESaISt4pairIKS5_S7_EEEC2ESt16initializer_listISC_ERKS9_RKSD__x70
    /*00000058*/ LDR         SL, [R6, #16] 
    /*0000005c*/ MOV         R1, R4 
    /*00000060*/ ADD         R0, SL, #16 
    /*00000064*/ BL          _ZNKSt7__cxx1112basic_stringIcSt11char_traitsIcESaIcEE7compareERKS4_
    /*00000068*/ CMP         R0, #0 
    /*0000006c*/ BLT         _ZNSt3mapINSt7__cxx1112basic_stringIcSt11char_traitsIcESaIcEEEN10hirtparser8DataTypeESt4lessIS5_ESaISt4pairIKS5_S7_EEEC2ESt16initializer_listISC_ERKS9_RKSD__x124
    _ZNSt3mapINSt7__cxx1112basic_stringIcSt11char_traitsIcESaIcEEEN10hirtparser8DataTypeESt4lessIS5_ESaISt4pairIKS5_S7_EEEC2ESt16initializer_listISC_ERKS9_RKSD__x70:
    /*00000070*/ MOV         R2, R4 
    /*00000074*/ MOV         R1, R6 
    /*00000078*/ MOV         R0, R9 
    /*0000007c*/ BL          _ZNSt8_Rb_treeINSt7__cxx1112basic_stringIcSt11char_traitsIcESaIcEEESt4pairIKS5_N10hirtparser8DataTypeEESt10_Select1stISA_ESt4lessIS5_ESaISA_EE24_M_get_insert_unique_posERS7_
    /*00000080*/ LDR         FP, [SP, #8] 
    /*00000084*/ LDR         SL, [SP, #12] 
    _ZNSt3mapINSt7__cxx1112basic_stringIcSt11char_traitsIcESaIcEEEN10hirtparser8DataTypeESt4lessIS5_ESaISt4pairIKS5_S7_EEEC2ESt16initializer_listISC_ERKS9_RKSD__x88:
    /*00000088*/ CMP         SL, #0 
