@
@ -- FILES --
@

@ ModelManager.cpp


unsigned char data[0] = {
};

unsigned char bss[0];

_RODATA__ZTSN4HIRT12GRAPHOFFLINEE_0000: .ascii "N4hirt12GraphOfflineE\0"


unsigned char data.rel.ro._ZTIN4hirt12GraphOfflineE[12] = {
    /*0000*/ 0x08, 0x00, 0x00, 0x00, 0x00, 0x00, 0x00, 0x00, 0x00, 0x00, 0x00, 0x00, 
};

unsigned char rel.data.rel.ro._ZTIN4hirt12GraphOfflineE[24] = {
    /*0000*/ 0x00, 0x00, 0x00, 0x00, 0x02, 0x00, 0x01, 0x00, 0x04, 0x00, 0x00, 0x00, 0x02, 0xfe, 0x00, 0x00, 
    /*0010*/ 0x08, 0x00, 0x00, 0x00, 0x02, 0x01, 0x01, 0x00, 
};

_RODATA__ZTSN4HIRT13WKMODELLOADERE_0000: .ascii "N4hirt13WKModelLoaderE\0"


unsigned char data.rel.ro._ZTIN4hirt13WKModelLoaderE[12] = {
    /*0000*/ 0x08, 0x00, 0x00, 0x00, 0x00, 0x00, 0x00, 0x00, 0x00, 0x00, 0x00, 0x00, 
};

unsigned char rel.data.rel.ro._ZTIN4hirt13WKModelLoaderE[24] = {
    /*0000*/ 0x00, 0x00, 0x00, 0x00, 0x02, 0x00, 0x01, 0x00, 0x04, 0x00, 0x00, 0x00, 0x02, 0x04, 0x01, 0x00, 
    /*0010*/ 0x08, 0x00, 0x00, 0x00, 0x02, 0x06, 0x01, 0x00, 
};

unsigned char data.rel.ro.local._ZTVN4hirt12GraphOfflineE[16] = {
    /*0000*/ 0x00, 0x00, 0x00, 0x00, 0x00, 0x00, 0x00, 0x00, 0x00, 0x00, 0x00, 0x00, 0x00, 0x00, 0x00, 0x00, 
};

unsigned char rel.data.rel.ro.local._ZTVN4hirt12GraphOfflineE[24] = {
    /*0000*/ 0x04, 0x00, 0x00, 0x00, 0x02, 0xff, 0x00, 0x00, 0x08, 0x00, 0x00, 0x00, 0x02, 0xc5, 0x00, 0x00, 
    /*0010*/ 0x0c, 0x00, 0x00, 0x00, 0x02, 0xd0, 0x00, 0x00, 
};

unsigned char data.rel.ro.local._ZTVN4hirt13WKModelLoaderE[16] = {
    /*0000*/ 0x00, 0x00, 0x00, 0x00, 0x00, 0x00, 0x00, 0x00, 0x00, 0x00, 0x00, 0x00, 0x00, 0x00, 0x00, 0x00, 
};

unsigned char rel.data.rel.ro.local._ZTVN4hirt13WKModelLoaderE[24] = {
    /*0000*/ 0x04, 0x00, 0x00, 0x00, 0x02, 0x05, 0x01, 0x00, 0x08, 0x00, 0x00, 0x00, 0x02, 0xc9, 0x00, 0x00, 
    /*0010*/ 0x0c, 0x00, 0x00, 0x00, 0x02, 0xca, 0x00, 0x00, 
};

unsigned char bss._ZGVZN4hirt12ModelManager11getInstanceEvE9mInstance[4];

unsigned char bss._ZN4hirt12ModelManager4mMutE[24];

unsigned char bss._ZN4hirt12ModelManager7mModelsE[12];

unsigned char bss._ZStL8__ioinit[1];

unsigned char bss._ZZN4hirt12ModelManager11getInstanceEvE9mInstance[4];

unsigned char data.rel.ro._ZTIN4hirt12ModelManagerE[8] = {
    /*0000*/ 0x08, 0x00, 0x00, 0x00, 0x00, 0x00, 0x00, 0x00, 
};

unsigned char rel.data.rel.ro._ZTIN4hirt12ModelManagerE[16] = {
    /*0000*/ 0x00, 0x00, 0x00, 0x00, 0x02, 0x0d, 0x01, 0x00, 0x04, 0x00, 0x00, 0x00, 0x02, 0x02, 0x01, 0x00, 
};

unsigned char data.rel.ro.local._ZTVN4hirt12ModelManagerE[16] = {
    /*0000*/ 0x00, 0x00, 0x00, 0x00, 0x00, 0x00, 0x00, 0x00, 0x00, 0x00, 0x00, 0x00, 0x00, 0x00, 0x00, 0x00, 
};

unsigned char rel.data.rel.ro.local._ZTVN4hirt12ModelManagerE[24] = {
    /*0000*/ 0x04, 0x00, 0x00, 0x00, 0x02, 0x03, 0x01, 0x00, 0x08, 0x00, 0x00, 0x00, 0x02, 0xce, 0x00, 0x00, 
    /*0010*/ 0x0c, 0x00, 0x00, 0x00, 0x02, 0xcf, 0x00, 0x00, 
};

_RODATA__ZN4HIRT12MODELMANAGER17CHECKHANDLERVALIDEPVR7HI_BOOL_STR1_4_0000: .ascii "param hHandle is null\0"


_RODATA__ZN4HIRT12MODELMANAGER8ADDMODELEPK17HIRT_MODEL_INFO_SRNS_16TAGMODEL_MODEL_SEPNS_19GROUPINDEXCONTAINERE_STR1_4_0000: .ascii "new(std::nothrow) model error\0\0\0",
_RODATA__ZN4HIRT12MODELMANAGER8ADDMODELEPK17HIRT_MODEL_INFO_SRNS_16TAGMODEL_MODEL_SEPNS_19GROUPINDEXCONTAINERE_STR1_4_0020: .ascii "model size error\0\0\0\0",
_RODATA__ZN4HIRT12MODELMANAGER8ADDMODELEPK17HIRT_MODEL_INFO_SRNS_16TAGMODEL_MODEL_SEPNS_19GROUPINDEXCONTAINERE_STR1_4_0034: .ascii "model vir addr error\0\0\0\0",
_RODATA__ZN4HIRT12MODELMANAGER8ADDMODELEPK17HIRT_MODEL_INFO_SRNS_16TAGMODEL_MODEL_SEPNS_19GROUPINDEXCONTAINERE_STR1_4_004c: .ascii "model phy addr error\0\0\0\0",
_RODATA__ZN4HIRT12MODELMANAGER8ADDMODELEPK17HIRT_MODEL_INFO_SRNS_16TAGMODEL_MODEL_SEPNS_19GROUPINDEXCONTAINERE_STR1_4_0064: .ascii "model already exist\0",
_RODATA__ZN4HIRT12MODELMANAGER8ADDMODELEPK17HIRT_MODEL_INFO_SRNS_16TAGMODEL_MODEL_SEPNS_19GROUPINDEXCONTAINERE_STR1_4_0078: .ascii "runtime new(std::nothrow) model error\0\0\0",
_RODATA__ZN4HIRT12MODELMANAGER8ADDMODELEPK17HIRT_MODEL_INFO_SRNS_16TAGMODEL_MODEL_SEPNS_19GROUPINDEXCONTAINERE_STR1_4_00a0: .ascii "%s:[%d] clear model error\n\0\0",
_RODATA__ZN4HIRT12MODELMANAGER8ADDMODELEPK17HIRT_MODEL_INFO_SRNS_16TAGMODEL_MODEL_SEPNS_19GROUPINDEXCONTAINERE_STR1_4_00bc: .ascii "%s:[%d] copy model name error\n\0\0",
_RODATA__ZN4HIRT12MODELMANAGER8ADDMODELEPK17HIRT_MODEL_INFO_SRNS_16TAGMODEL_MODEL_SEPNS_19GROUPINDEXCONTAINERE_STR1_4_00dc: .ascii "new(std::nothrow) manager model error\0\0\0",
_RODATA__ZN4HIRT12MODELMANAGER8ADDMODELEPK17HIRT_MODEL_INFO_SRNS_16TAGMODEL_MODEL_SEPNS_19GROUPINDEXCONTAINERE_STR1_4_0104: .ascii "new(std::nothrow) manager entity error\0\0",
_RODATA__ZN4HIRT12MODELMANAGER8ADDMODELEPK17HIRT_MODEL_INFO_SRNS_16TAGMODEL_MODEL_SEPNS_19GROUPINDEXCONTAINERE_STR1_4_012c: .ascii "new(std::nothrow) ModelLoader error\0",
_RODATA__ZN4HIRT12MODELMANAGER8ADDMODELEPK17HIRT_MODEL_INFO_SRNS_16TAGMODEL_MODEL_SEPNS_19GROUPINDEXCONTAINERE_STR1_4_0150: .ascii "Proto model %s top %s is not in the WK!\0",
_RODATA__ZN4HIRT12MODELMANAGER8ADDMODELEPK17HIRT_MODEL_INFO_SRNS_16TAGMODEL_MODEL_SEPNS_19GROUPINDEXCONTAINERE_STR1_4_0178: .ascii "checkModel error\0\0\0\0",
_RODATA__ZN4HIRT12MODELMANAGER8ADDMODELEPK17HIRT_MODEL_INFO_SRNS_16TAGMODEL_MODEL_SEPNS_19GROUPINDEXCONTAINERE_STR1_4_018c: .ascii "basic_string::_M_construct null not valid\0\0\0",
_RODATA__ZN4HIRT12MODELMANAGER8ADDMODELEPK17HIRT_MODEL_INFO_SRNS_16TAGMODEL_MODEL_SEPNS_19GROUPINDEXCONTAINERE_STR1_4_01b8: .ascii "Proto model %s inputs[%d][%zu]/outputs[%d][%zu] number is not the same as WK!\0"


_RODATA__ZN4HIRT12MODELMANAGER8DELMODELEPKC_STR1_4_0000: .ascii "param pModelName is null\0\0\0\0",
_RODATA__ZN4HIRT12MODELMANAGER8DELMODELEPKC_STR1_4_001c: .ascii "hirt\0\0\0\0",
_RODATA__ZN4HIRT12MODELMANAGER8DELMODELEPKC_STR1_4_0024: .ascii "model is loading\0\0\0\0",
_RODATA__ZN4HIRT12MODELMANAGER8DELMODELEPKC_STR1_4_0038: .ascii "model is not in the modellist\0"


_RODATA__ZTSN4HIRT12MODELMANAGERE_0000: .ascii "N4hirt12ModelManagerE\0"


_RODATA__ZZN4HIRT12MODELMANAGER8ADDMODELEPK17HIRT_MODEL_INFO_SRNS_16TAGMODEL_MODEL_SEPNS_19GROUPINDEXCONTAINEREE12__FUNCTION___0000: .ascii "addModel\0"


@ - - - - - - - - - - - - - - - - - - - - - - - - - - - - - 
@ .text._ZNSt6vectorIPN4hirt17_MANAGER_ENTITY_SESaIS2_EED2Ev
@ Size: 0x2c
@ - - - - - - - - - - - - - - - - - - - - - - - - - - - - - 

FUNC_BEGIN _ZNSt6vectorIPN4hirt17_MANAGER_ENTITY_SESaIS2_EED2Ev
    /*00000000*/ MOV         IP, #16384                  @ 0x4000 
    /*00000004*/ PUSH        {R4, LR} 
    /*00000008*/ SUB         IP, SP, IP 
    /*0000000c*/ STR         R0, [IP, #4088]             @ 0xff8 
    /*00000010*/ MOV         R4, R0 
    /*00000014*/ LDR         R0, [R0] 
    /*00000018*/ CMP         R0, #0 
    /*0000001c*/ BEQ         _ZNSt6vectorIPN4hirt17_MANAGER_ENTITY_SESaIS2_EED2Ev_x24
    /*00000020*/ BL          _ZdlPv
    _ZNSt6vectorIPN4hirt17_MANAGER_ENTITY_SESaIS2_EED2Ev_x24:
    /*00000024*/ MOV         R0, R4 
    /*00000028*/ POP         {R4, PC} 
FUNC_END _ZNSt6vectorIPN4hirt17_MANAGER_ENTITY_SESaIS2_EED2Ev


FUNC_BEGIN _ZNSt6vectorIPN4hirt17_MANAGER_ENTITY_SESaIS2_EED1Ev
    /*00000000*/ MOV         IP, #16384                  @ 0x4000 
    /*00000004*/ PUSH        {R4, LR} 
    /*00000008*/ SUB         IP, SP, IP 
    /*0000000c*/ STR         R0, [IP, #4088]             @ 0xff8 
    /*00000010*/ MOV         R4, R0 
    /*00000014*/ LDR         R0, [R0] 
    /*00000018*/ CMP         R0, #0 
    /*0000001c*/ BEQ         _ZNSt6vectorIPN4hirt17_MANAGER_ENTITY_SESaIS2_EED1Ev_x24
    /*00000020*/ BL          _ZdlPv
    _ZNSt6vectorIPN4hirt17_MANAGER_ENTITY_SESaIS2_EED1Ev_x24:
    /*00000024*/ MOV         R0, R4 
    /*00000028*/ POP         {R4, PC} 
FUNC_END _ZNSt6vectorIPN4hirt17_MANAGER_ENTITY_SESaIS2_EED1Ev


@ - - - - - - - - - - - - - - - - - - - - - - - - - - - - - 
@ .text._ZN4hirt12GraphOfflineD2Ev
@ Size: 0x8c
@ - - - - - - - - - - - - - - - - - - - - - - - - - - - - - 

FUNC_BEGIN _ZN4hirt12GraphOfflineD2Ev
    /*00000000*/ MOV         IP, #16384                  @ 0x4000 
    /*00000004*/ PUSH        {R4, LR} 
    /*00000008*/ SUB         IP, SP, IP 
    /*0000000c*/ STR         R0, [IP, #4088]             @ 0xff8 
    /*00000010*/ LDR         R3, WORD_0088               @ LDR         R3, [PC, #112]              @ 0x0000000000000088 
    /*00000014*/ MOV         R4, R0 
    /*00000018*/ LDR         R0, [R0, #116]              @ 0x74 
    /*0000001c*/ ADD         R2, R4, #124                @ 0x7c 
    /*00000020*/ ADD         R3, PC, R3 
    /*00000024*/ CMP         R0, R2 
    /*00000028*/ ADD         R3, R3, #8 
    /*0000002c*/ STR         R3, [R4] 
    /*00000030*/ BEQ         _ZN4hirt12GraphOfflineD2Ev_x38
    /*00000034*/ BL          _ZdlPv
    _ZN4hirt12GraphOfflineD2Ev_x38:
    /*00000038*/ LDR         R0, [R4, #76]               @ 0x4c 
    /*0000003c*/ CMP         R0, #0 
    /*00000040*/ BEQ         _ZN4hirt12GraphOfflineD2Ev_x48
    /*00000044*/ BL          _ZdlPv
    _ZN4hirt12GraphOfflineD2Ev_x48:
    /*00000048*/ LDR         R0, [R4, #64]               @ 0x40 
    /*0000004c*/ CMP         R0, #0 
    /*00000050*/ BEQ         _ZN4hirt12GraphOfflineD2Ev_x58
    /*00000054*/ BL          _ZdlPv
    _ZN4hirt12GraphOfflineD2Ev_x58:
    /*00000058*/ LDR         R0, [R4, #52]               @ 0x34 
    /*0000005c*/ CMP         R0, #0 
    /*00000060*/ BEQ         _ZN4hirt12GraphOfflineD2Ev_x68
    /*00000064*/ BL          _ZdlPv
    _ZN4hirt12GraphOfflineD2Ev_x68:
    /*00000068*/ LDR         R0, [R4, #40]               @ 0x28 
    /*0000006c*/ CMP         R0, #0 
    /*00000070*/ BEQ         _ZN4hirt12GraphOfflineD2Ev_x78
    /*00000074*/ BL          _ZdlPv
    _ZN4hirt12GraphOfflineD2Ev_x78:
    /*00000078*/ MOV         R0, R4 
    /*0000007c*/ BL          _ZN4hirt5GraphD2Ev
    /*00000080*/ MOV         R0, R4 
    /*00000084*/ POP         {R4, PC} 
    /*00000088*/ WORD_0088: .word 0x00000060
FUNC_END _ZN4hirt12GraphOfflineD2Ev


FUNC_BEGIN _ZN4hirt12GraphOfflineD1Ev
    /*00000000*/ MOV         IP, #16384                  @ 0x4000 
    /*00000004*/ PUSH        {R4, LR} 
    /*00000008*/ SUB         IP, SP, IP 
    /*0000000c*/ STR         R0, [IP, #4088]             @ 0xff8 
    /*00000010*/ LDR         R3, WORD_0088               @ LDR         R3, [PC, #112]              @ 0x0000000000000088 
    /*00000014*/ MOV         R4, R0 
    /*00000018*/ LDR         R0, [R0, #116]              @ 0x74 
    /*0000001c*/ ADD         R2, R4, #124                @ 0x7c 
    /*00000020*/ ADD         R3, PC, R3 
    /*00000024*/ CMP         R0, R2 
    /*00000028*/ ADD         R3, R3, #8 
    /*0000002c*/ STR         R3, [R4] 
    /*00000030*/ BEQ         _ZN4hirt12GraphOfflineD1Ev_x38
    /*00000034*/ BL          _ZdlPv
    _ZN4hirt12GraphOfflineD1Ev_x38:
    /*00000038*/ LDR         R0, [R4, #76]               @ 0x4c 
    /*0000003c*/ CMP         R0, #0 
    /*00000040*/ BEQ         _ZN4hirt12GraphOfflineD1Ev_x48
    /*00000044*/ BL          _ZdlPv
    _ZN4hirt12GraphOfflineD1Ev_x48:
    /*00000048*/ LDR         R0, [R4, #64]               @ 0x40 
    /*0000004c*/ CMP         R0, #0 
    /*00000050*/ BEQ         _ZN4hirt12GraphOfflineD1Ev_x58
    /*00000054*/ BL          _ZdlPv
    _ZN4hirt12GraphOfflineD1Ev_x58:
    /*00000058*/ LDR         R0, [R4, #52]               @ 0x34 
    /*0000005c*/ CMP         R0, #0 
    /*00000060*/ BEQ         _ZN4hirt12GraphOfflineD1Ev_x68
    /*00000064*/ BL          _ZdlPv
    _ZN4hirt12GraphOfflineD1Ev_x68:
    /*00000068*/ LDR         R0, [R4, #40]               @ 0x28 
    /*0000006c*/ CMP         R0, #0 
    /*00000070*/ BEQ         _ZN4hirt12GraphOfflineD1Ev_x78
    /*00000074*/ BL          _ZdlPv
    _ZN4hirt12GraphOfflineD1Ev_x78:
    /*00000078*/ MOV         R0, R4 
    /*0000007c*/ BL          _ZN4hirt5GraphD2Ev
    /*00000080*/ MOV         R0, R4 
    /*00000084*/ POP         {R4, PC} 
    /*00000088*/ WORD_0088: .word 0x00000060
FUNC_END _ZN4hirt12GraphOfflineD1Ev


@ - - - - - - - - - - - - - - - - - - - - - - - - - - - - - 
@ .text._ZN4hirt13WKModelLoaderD2Ev
@ Size: 0x34
@ - - - - - - - - - - - - - - - - - - - - - - - - - - - - - 

FUNC_BEGIN _ZN4hirt13WKModelLoaderD2Ev
    /*00000000*/ MOV         IP, #16384                  @ 0x4000 
    /*00000004*/ PUSH        {R4, LR} 
    /*00000008*/ SUB         IP, SP, IP 
    /*0000000c*/ STR         R0, [IP, #4088]             @ 0xff8 
    /*00000010*/ LDR         R3, WORD_0030               @ LDR         R3, [PC, #24]               @ 0x0000000000000030 
    /*00000014*/ MOV         R4, R0 
    /*00000018*/ ADD         R3, PC, R3 
    /*0000001c*/ ADD         R3, R3, #8 
    /*00000020*/ STR         R3, [R0] 
    /*00000024*/ BL          _ZN4hirt11ModelLoaderD2Ev
    /*00000028*/ MOV         R0, R4 
    /*0000002c*/ POP         {R4, PC} 
    /*00000030*/ WORD_0030: .word 0x00000010
FUNC_END _ZN4hirt13WKModelLoaderD2Ev


FUNC_BEGIN _ZN4hirt13WKModelLoaderD1Ev
    /*00000000*/ MOV         IP, #16384                  @ 0x4000 
    /*00000004*/ PUSH        {R4, LR} 
    /*00000008*/ SUB         IP, SP, IP 
    /*0000000c*/ STR         R0, [IP, #4088]             @ 0xff8 
    /*00000010*/ LDR         R3, WORD_0030               @ LDR         R3, [PC, #24]               @ 0x0000000000000030 
    /*00000014*/ MOV         R4, R0 
    /*00000018*/ ADD         R3, PC, R3 
    /*0000001c*/ ADD         R3, R3, #8 
    /*00000020*/ STR         R3, [R0] 
    /*00000024*/ BL          _ZN4hirt11ModelLoaderD2Ev
    /*00000028*/ MOV         R0, R4 
    /*0000002c*/ POP         {R4, PC} 
    /*00000030*/ WORD_0030: .word 0x00000010
FUNC_END _ZN4hirt13WKModelLoaderD1Ev


@ - - - - - - - - - - - - - - - - - - - - - - - - - - - - - 
@ .text._ZN4hirt13WKModelLoaderD0Ev
@ Size: 0x40
@ - - - - - - - - - - - - - - - - - - - - - - - - - - - - - 

FUNC_BEGIN _ZN4hirt13WKModelLoaderD0Ev
    /*00000000*/ MOV         IP, #16384                  @ 0x4000 
    /*00000004*/ PUSH        {R4, LR} 
    /*00000008*/ SUB         IP, SP, IP 
    /*0000000c*/ STR         R0, [IP, #4088]             @ 0xff8 
    /*00000010*/ LDR         R3, WORD_003c               @ LDR         R3, [PC, #36]               @ 0x000000000000003c 
    /*00000014*/ MOV         R4, R0 
    /*00000018*/ ADD         R3, PC, R3 
    /*0000001c*/ ADD         R3, R3, #8 
    /*00000020*/ STR         R3, [R0] 
    /*00000024*/ BL          _ZN4hirt11ModelLoaderD2Ev
    /*00000028*/ MOV         R0, R4 
    /*0000002c*/ MOV         R1, #4 
    /*00000030*/ BL          _ZdlPvj
    /*00000034*/ MOV         R0, R4 
    /*00000038*/ POP         {R4, PC} 
    /*0000003c*/ WORD_003c: .word 0x0000001c
FUNC_END _ZN4hirt13WKModelLoaderD0Ev


@ - - - - - - - - - - - - - - - - - - - - - - - - - - - - - 
@ .text._ZN4hirt12ModelManagerD2Ev
@ Size: 0xec
@ - - - - - - - - - - - - - - - - - - - - - - - - - - - - - 

FUNC_BEGIN _ZN4hirt12ModelManagerD2Ev
    /*00000000*/ MOV         IP, #16384                  @ 0x4000 
    /*00000004*/ PUSH        {R4, R5, R6, R7, R8, R9, SL, LR} 
    /*00000008*/ SUB         IP, SP, IP 
    /*0000000c*/ STR         R0, [IP, #4064]             @ 0xfe0 
    /*00000010*/ LDR         R5, WORD_00dc               @ LDR         R5, [PC, #196]              @ 0x00000000000000dc 
    /*00000014*/ MOV         R8, R0 
    /*00000018*/ LDR         R3, WORD_00e0               @ LDR         R3, [PC, #192]              @ 0x00000000000000e0 
    /*0000001c*/ ADD         R5, PC, R5 
    /*00000020*/ ADD         R3, PC, R3 
    /*00000024*/ LDR         R6, WORD_00e4               @ LDR         R6, [PC, #184]              @ 0x00000000000000e4 
    /*00000028*/ ADD         R3, R3, #8 
    /*0000002c*/ LDR         R7, WORD_00e8               @ LDR         R7, [PC, #180]              @ 0x00000000000000e8 
    /*00000030*/ LDR         R4, [R5] 
    /*00000034*/ ADD         R6, PC, R6 
    /*00000038*/ ADD         R7, PC, R7 
    /*0000003c*/ STR         R3, [R0] 
    /*00000040*/ B           _ZN4hirt12ModelManagerD2Ev_x58
    _ZN4hirt12ModelManagerD2Ev_x44:
    /*00000044*/ SUB         R3, R3, #4 
    /*00000048*/ MOV         R0, R9 
    /*0000004c*/ STR         R3, [R7, #4] 
    /*00000050*/ MOV         R1, #12 
    /*00000054*/ BL          _ZdlPvj
    _ZN4hirt12ModelManagerD2Ev_x58:
    /*00000058*/ LDR         R3, [R5, #4] 
    /*0000005c*/ MOV         R1, #76                     @ 0x4c 
    /*00000060*/ CMP         R4, R3 
    /*00000064*/ BEQ         _ZN4hirt12ModelManagerD2Ev_xd4
    /*00000068*/ LDR         R3, [R4] 
    /*0000006c*/ LDR         R3, [R3] 
    /*00000070*/ LDR         R2, [R3, #4] 
    /*00000074*/ SUBS        R0, R2, #0 
    /*00000078*/ BEQ         _ZN4hirt12ModelManagerD2Ev_x90
    /*0000007c*/ BL          _ZdlPvj
    /*00000080*/ LDR         R3, [R4] 
    /*00000084*/ MOV         R2, #0 
    /*00000088*/ LDR         R3, [R3] 
    /*0000008c*/ STR         R2, [R3, #4] 
    _ZN4hirt12ModelManagerD2Ev_x90:
    /*00000090*/ MOV         R0, R3 
    /*00000094*/ MOV         R1, #8 
    /*00000098*/ BL          _ZdlPvj
    /*0000009c*/ LDR         R3, [R6, #4] 
    /*000000a0*/ MOV         R1, R4 
    /*000000a4*/ MOV         R0, #0 
    /*000000a8*/ LDR         R9, [R1], #4 
    /*000000ac*/ CMP         R1, R3 
    /*000000b0*/ SUB         R2, R3, R1 
    /*000000b4*/ STR         R0, [R9] 
    /*000000b8*/ BEQ         _ZN4hirt12ModelManagerD2Ev_x44
    /*000000bc*/ LSRS        R0, R2, #2 
    /*000000c0*/ BEQ         _ZN4hirt12ModelManagerD2Ev_x44
    /*000000c4*/ MOV         R0, R4 
    /*000000c8*/ BL          memmove
    /*000000cc*/ LDR         R3, [R6, #4] 
    /*000000d0*/ B           _ZN4hirt12ModelManagerD2Ev_x44
    _ZN4hirt12ModelManagerD2Ev_xd4:
    /*000000d4*/ MOV         R0, R8 
    /*000000d8*/ POP         {R4, R5, R6, R7, R8, R9, SL, PC} 
    /*000000dc*/ WORD_00dc: .word 0x000000b8
    /*000000e0*/ WORD_00e0: .word 0x000000b8
    /*000000e4*/ WORD_00e4: .word 0x000000a8
    /*000000e8*/ WORD_00e8: .word 0x000000a8
FUNC_END _ZN4hirt12ModelManagerD2Ev


FUNC_BEGIN _ZN4hirt12ModelManagerD1Ev
    /*00000000*/ MOV         IP, #16384                  @ 0x4000 
    /*00000004*/ PUSH        {R4, R5, R6, R7, R8, R9, SL, LR} 
    /*00000008*/ SUB         IP, SP, IP 
    /*0000000c*/ STR         R0, [IP, #4064]             @ 0xfe0 
    /*00000010*/ LDR         R5, WORD_00dc               @ LDR         R5, [PC, #196]              @ 0x00000000000000dc 
    /*00000014*/ MOV         R8, R0 
    /*00000018*/ LDR         R3, WORD_00e0               @ LDR         R3, [PC, #192]              @ 0x00000000000000e0 
    /*0000001c*/ ADD         R5, PC, R5 
    /*00000020*/ ADD         R3, PC, R3 
    /*00000024*/ LDR         R6, WORD_00e4               @ LDR         R6, [PC, #184]              @ 0x00000000000000e4 
    /*00000028*/ ADD         R3, R3, #8 
    /*0000002c*/ LDR         R7, WORD_00e8               @ LDR         R7, [PC, #180]              @ 0x00000000000000e8 
    /*00000030*/ LDR         R4, [R5] 
    /*00000034*/ ADD         R6, PC, R6 
    /*00000038*/ ADD         R7, PC, R7 
    /*0000003c*/ STR         R3, [R0] 
    /*00000040*/ B           _ZN4hirt12ModelManagerD1Ev_x58
    _ZN4hirt12ModelManagerD1Ev_x44:
    /*00000044*/ SUB         R3, R3, #4 
    /*00000048*/ MOV         R0, R9 
    /*0000004c*/ STR         R3, [R7, #4] 
    /*00000050*/ MOV         R1, #12 
    /*00000054*/ BL          _ZdlPvj
    _ZN4hirt12ModelManagerD1Ev_x58:
    /*00000058*/ LDR         R3, [R5, #4] 
    /*0000005c*/ MOV         R1, #76                     @ 0x4c 
    /*00000060*/ CMP         R4, R3 
    /*00000064*/ BEQ         _ZN4hirt12ModelManagerD1Ev_xd4
    /*00000068*/ LDR         R3, [R4] 
    /*0000006c*/ LDR         R3, [R3] 
    /*00000070*/ LDR         R2, [R3, #4] 
    /*00000074*/ SUBS        R0, R2, #0 
    /*00000078*/ BEQ         _ZN4hirt12ModelManagerD1Ev_x90
    /*0000007c*/ BL          _ZdlPvj
    /*00000080*/ LDR         R3, [R4] 
    /*00000084*/ MOV         R2, #0 
    /*00000088*/ LDR         R3, [R3] 
    /*0000008c*/ STR         R2, [R3, #4] 
    _ZN4hirt12ModelManagerD1Ev_x90:
    /*00000090*/ MOV         R0, R3 
    /*00000094*/ MOV         R1, #8 
    /*00000098*/ BL          _ZdlPvj
    /*0000009c*/ LDR         R3, [R6, #4] 
    /*000000a0*/ MOV         R1, R4 
    /*000000a4*/ MOV         R0, #0 
    /*000000a8*/ LDR         R9, [R1], #4 
    /*000000ac*/ CMP         R1, R3 
    /*000000b0*/ SUB         R2, R3, R1 
    /*000000b4*/ STR         R0, [R9] 
    /*000000b8*/ BEQ         _ZN4hirt12ModelManagerD1Ev_x44
    /*000000bc*/ LSRS        R0, R2, #2 
    /*000000c0*/ BEQ         _ZN4hirt12ModelManagerD1Ev_x44
    /*000000c4*/ MOV         R0, R4 
    /*000000c8*/ BL          memmove
    /*000000cc*/ LDR         R3, [R6, #4] 
    /*000000d0*/ B           _ZN4hirt12ModelManagerD1Ev_x44
    _ZN4hirt12ModelManagerD1Ev_xd4:
    /*000000d4*/ MOV         R0, R8 
    /*000000d8*/ POP         {R4, R5, R6, R7, R8, R9, SL, PC} 
    /*000000dc*/ WORD_00dc: .word 0x000000b8
    /*000000e0*/ WORD_00e0: .word 0x000000b8
    /*000000e4*/ WORD_00e4: .word 0x000000a8
    /*000000e8*/ WORD_00e8: .word 0x000000a8
FUNC_END _ZN4hirt12ModelManagerD1Ev


@ - - - - - - - - - - - - - - - - - - - - - - - - - - - - - 
@ .text._ZN4hirt12ModelManagerD0Ev
@ Size: 0x2c
@ - - - - - - - - - - - - - - - - - - - - - - - - - - - - - 

FUNC_BEGIN _ZN4hirt12ModelManagerD0Ev
    /*00000000*/ MOV         IP, #16384                  @ 0x4000 
    /*00000004*/ PUSH        {R4, LR} 
    /*00000008*/ SUB         IP, SP, IP 
    /*0000000c*/ STR         R0, [IP, #4088]             @ 0xff8 
    /*00000010*/ MOV         R4, R0 
    /*00000014*/ BL          _ZN4hirt12ModelManagerD1Ev
    /*00000018*/ MOV         R0, R4 
    /*0000001c*/ MOV         R1, #4 
    /*00000020*/ BL          _ZdlPvj
    /*00000024*/ MOV         R0, R4 
    /*00000028*/ POP         {R4, PC} 
FUNC_END _ZN4hirt12ModelManagerD0Ev


@ - - - - - - - - - - - - - - - - - - - - - - - - - - - - - 
@ .text._ZN4hirt12GraphOfflineD0Ev
@ Size: 0x98
@ - - - - - - - - - - - - - - - - - - - - - - - - - - - - - 

FUNC_BEGIN _ZN4hirt12GraphOfflineD0Ev
    /*00000000*/ MOV         IP, #16384                  @ 0x4000 
    /*00000004*/ PUSH        {R4, LR} 
    /*00000008*/ SUB         IP, SP, IP 
    /*0000000c*/ STR         R0, [IP, #4088]             @ 0xff8 
    /*00000010*/ LDR         R3, WORD_0094               @ LDR         R3, [PC, #124]              @ 0x0000000000000094 
    /*00000014*/ MOV         R4, R0 
    /*00000018*/ LDR         R0, [R0, #116]              @ 0x74 
    /*0000001c*/ ADD         R2, R4, #124                @ 0x7c 
    /*00000020*/ ADD         R3, PC, R3 
    /*00000024*/ CMP         R0, R2 
    /*00000028*/ ADD         R3, R3, #8 
    /*0000002c*/ STR         R3, [R4] 
    /*00000030*/ BEQ         _ZN4hirt12GraphOfflineD0Ev_x38
    /*00000034*/ BL          _ZdlPv
    _ZN4hirt12GraphOfflineD0Ev_x38:
    /*00000038*/ LDR         R0, [R4, #76]               @ 0x4c 
    /*0000003c*/ CMP         R0, #0 
    /*00000040*/ BEQ         _ZN4hirt12GraphOfflineD0Ev_x48
    /*00000044*/ BL          _ZdlPv
    _ZN4hirt12GraphOfflineD0Ev_x48:
    /*00000048*/ LDR         R0, [R4, #64]               @ 0x40 
    /*0000004c*/ CMP         R0, #0 
    /*00000050*/ BEQ         _ZN4hirt12GraphOfflineD0Ev_x58
    /*00000054*/ BL          _ZdlPv
    _ZN4hirt12GraphOfflineD0Ev_x58:
    /*00000058*/ LDR         R0, [R4, #52]               @ 0x34 
    /*0000005c*/ CMP         R0, #0 
    /*00000060*/ BEQ         _ZN4hirt12GraphOfflineD0Ev_x68
    /*00000064*/ BL          _ZdlPv
    _ZN4hirt12GraphOfflineD0Ev_x68:
    /*00000068*/ LDR         R0, [R4, #40]               @ 0x28 
    /*0000006c*/ CMP         R0, #0 
    /*00000070*/ BEQ         _ZN4hirt12GraphOfflineD0Ev_x78
    /*00000074*/ BL          _ZdlPv
    _ZN4hirt12GraphOfflineD0Ev_x78:
    /*00000078*/ MOV         R0, R4 
    /*0000007c*/ BL          _ZN4hirt5GraphD2Ev
    /*00000080*/ MOV         R0, R4 
    /*00000084*/ MOV         R1, #156                    @ 0x9c 
    /*00000088*/ BL          _ZdlPvj
    /*0000008c*/ MOV         R0, R4 
    /*00000090*/ POP         {R4, PC} 
    /*00000094*/ WORD_0094: .word 0x0000006c
FUNC_END _ZN4hirt12GraphOfflineD0Ev


@ - - - - - - - - - - - - - - - - - - - - - - - - - - - - - 
@ .text._ZN4hirt12ModelManagerC2Ev
@ Size: 0x18
@ - - - - - - - - - - - - - - - - - - - - - - - - - - - - - 

FUNC_BEGIN _ZN4hirt12ModelManagerC2Ev
    /*00000000*/ LDR         R3, WORD_0014               @ LDR         R3, [PC, #12]               @ 0x0000000000000014 
    /*00000004*/ ADD         R3, PC, R3 
    /*00000008*/ ADD         R3, R3, #8 
    /*0000000c*/ STR         R3, [R0] 
    /*00000010*/ BX          LR 
    /*00000014*/ WORD_0014: .word 0x00000008
FUNC_END _ZN4hirt12ModelManagerC2Ev


FUNC_BEGIN _ZN4hirt12ModelManagerC1Ev
    /*00000000*/ LDR         R3, WORD_0014               @ LDR         R3, [PC, #12]               @ 0x0000000000000014 
    /*00000004*/ ADD         R3, PC, R3 
    /*00000008*/ ADD         R3, R3, #8 
    /*0000000c*/ STR         R3, [R0] 
    /*00000010*/ BX          LR 
    /*00000014*/ WORD_0014: .word 0x00000008
FUNC_END _ZN4hirt12ModelManagerC1Ev


@ - - - - - - - - - - - - - - - - - - - - - - - - - - - - - 
@ .text._ZN4hirt12ModelManager11getInstanceEv
@ Size: 0x98
@ - - - - - - - - - - - - - - - - - - - - - - - - - - - - - 

FUNC_BEGIN _ZN4hirt12ModelManager11getInstanceEv
    /*00000000*/ MOV         IP, #16384                  @ 0x4000 
    /*00000004*/ PUSH        {R4, LR} 
    /*00000008*/ SUB         IP, SP, IP 
    /*0000000c*/ STR         R0, [IP, #4088]             @ 0xff8 
    /*00000010*/ LDR         R4, WORD_0080               @ LDR         R4, [PC, #104]              @ 0x0000000000000080 
    /*00000014*/ ADD         R4, PC, R4 
    /*00000018*/ LDRB        R3, [R4] 
    /*0000001c*/ DMB         ISH 
    /*00000020*/ TST         R3, #1 
    /*00000024*/ BEQ         _ZN4hirt12ModelManager11getInstanceEv_x34
    _ZN4hirt12ModelManager11getInstanceEv_x28:
    /*00000028*/ LDR         R0, WORD_0084               @ LDR         R0, [PC, #84]               @ 0x0000000000000084 
    /*0000002c*/ ADD         R0, PC, R0 
    /*00000030*/ POP         {R4, PC} 
    _ZN4hirt12ModelManager11getInstanceEv_x34:
    /*00000034*/ MOV         R0, R4 
    /*00000038*/ BL          __cxa_guard_acquire
    /*0000003c*/ CMP         R0, #0 
    /*00000040*/ BEQ         _ZN4hirt12ModelManager11getInstanceEv_x28
    /*00000044*/ LDR         R3, WORD_0088               @ LDR         R3, [PC, #60]               @ 0x0000000000000088 
    /*00000048*/ MOV         R0, R4 
    /*0000004c*/ LDR         R4, WORD_008c               @ LDR         R4, [PC, #56]               @ 0x000000000000008c 
    /*00000050*/ ADD         R3, PC, R3 
    /*00000054*/ ADD         R4, PC, R4 
    /*00000058*/ ADD         R3, R3, #8 
    /*0000005c*/ STR         R3, [R4] 
    /*00000060*/ BL          __cxa_guard_release
    /*00000064*/ LDR         R2, WORD_0090               @ LDR         R2, [PC, #36]               @ 0x0000000000000090 
    /*00000068*/ MOV         R0, R4 
    /*0000006c*/ LDR         R1, WORD_0094               @ LDR         R1, [PC, #32]               @ 0x0000000000000094 
    /*00000070*/ ADD         R2, PC, R2 
    /*00000074*/ ADD         R1, PC, R1 
    /*00000078*/ BL          __aeabi_atexit
    /*0000007c*/ B           _ZN4hirt12ModelManager11getInstanceEv_x28
    /*00000080*/ WORD_0080: .word 0x00000064
    /*00000084*/ WORD_0084: .word 0x00000050
    /*00000088*/ WORD_0088: .word 0x00000030
    /*0000008c*/ WORD_008c: .word 0x00000030
    /*00000090*/ WORD_0090: .word 0x00000018
    /*00000094*/ WORD_0094: .word 0x00000018
FUNC_END _ZN4hirt12ModelManager11getInstanceEv


@ - - - - - - - - - - - - - - - - - - - - - - - - - - - - - 
@ .text._ZN4hirt12ModelManager8delModelEPKc
@ Size: 0x2f0
@ - - - - - - - - - - - - - - - - - - - - - - - - - - - - - 

FUNC_BEGIN _ZN4hirt12ModelManager8delModelEPKc
    /*00000000*/ MOV         IP, #16384                  @ 0x4000 
    /*00000004*/ PUSH        {R4, R5, R6, R7, R8, R9, SL, LR} 
    /*00000008*/ SUB         IP, SP, IP 
    /*0000000c*/ STR         R0, [IP, #4056]             @ 0xfd8 
    /*00000010*/ LDR         R3, WORD_0298               @ LDR         R3, [PC, #640]              @ 0x0000000000000298 
    /*00000014*/ SUBS        R7, R1, #0 
    /*00000018*/ SUB         SP, SP, #8 
    /*0000001c*/ ADD         R3, PC, R3 
    /*00000020*/ BEQ         _ZN4hirt12ModelManager8delModelEPKc_x23c
    /*00000024*/ LDR         R2, WORD_029c               @ LDR         R2, [PC, #624]              @ 0x000000000000029c 
    /*00000028*/ LDR         R8, [R3, R2] 
    /*0000002c*/ CMP         R8, #0 
    /*00000030*/ BEQ         _ZN4hirt12ModelManager8delModelEPKc_x1b8
    /*00000034*/ LDR         R0, WORD_02a0               @ LDR         R0, [PC, #612]              @ 0x00000000000002a0 
    /*00000038*/ ADD         R0, PC, R0 
    /*0000003c*/ BL          pthread_mutex_lock
    /*00000040*/ CMP         R0, #0 
    /*00000044*/ BNE         _ZN4hirt12ModelManager8delModelEPKc_x25c
    /*00000048*/ LDR         R3, WORD_02a4               @ LDR         R3, [PC, #596]              @ 0x00000000000002a4 
    /*0000004c*/ ADD         R3, PC, R3 
    /*00000050*/ LDM         R3, {R4, R6} 
    /*00000054*/ CMP         R6, R4 
    /*00000058*/ BNE         _ZN4hirt12ModelManager8delModelEPKc_x68
    /*0000005c*/ B           _ZN4hirt12ModelManager8delModelEPKc_x27c
    _ZN4hirt12ModelManager8delModelEPKc_x60:
    /*00000060*/ CMP         R6, R4 
    /*00000064*/ BEQ         _ZN4hirt12ModelManager8delModelEPKc_x178
    _ZN4hirt12ModelManager8delModelEPKc_x68:
    /*00000068*/ MOV         R9, R4 
    /*0000006c*/ MOV         R2, #64                     @ 0x40 
    /*00000070*/ LDR         R5, [R4], #4 
    /*00000074*/ MOV         R1, R7 
    /*00000078*/ LDR         R3, [R5] 
    /*0000007c*/ LDR         R0, [R3] 
    /*00000080*/ ADD         R0, R0, #8 
    /*00000084*/ BL          strncmp
    /*00000088*/ SUBS        SL, R0, #0 
    /*0000008c*/ BNE         _ZN4hirt12ModelManager8delModelEPKc_x60
    /*00000090*/ LDR         R3, [R5, #8] 
    /*00000094*/ CMP         R3, #1 
    /*00000098*/ BEQ         _ZN4hirt12ModelManager8delModelEPKc_x1ec
    /*0000009c*/ ADD         R1, R9, #4 
    /*000000a0*/ CMP         R6, R1 
    /*000000a4*/ BEQ         _ZN4hirt12ModelManager8delModelEPKc_xb4
    /*000000a8*/ SUB         R2, R6, R1 
    /*000000ac*/ LSRS        R3, R2, #2 
    /*000000b0*/ BNE         _ZN4hirt12ModelManager8delModelEPKc_x224
    _ZN4hirt12ModelManager8delModelEPKc_xb4:
    /*000000b4*/ LDR         R3, WORD_02a8               @ LDR         R3, [PC, #492]              @ 0x00000000000002a8 
    /*000000b8*/ ADD         R4, SP, #4 
    /*000000bc*/ SUB         R6, R6, #4 
    /*000000c0*/ MOV         R0, R4 
    /*000000c4*/ ADD         R3, PC, R3 
    /*000000c8*/ STR         R6, [R3, #4] 
    /*000000cc*/ BL          _ZN4hirt13WKModelLoaderC1Ev
    /*000000d0*/ LDR         R3, [R5] 
    /*000000d4*/ MOV         R0, R4 
    /*000000d8*/ LDR         R3, [R3, #4] 
    /*000000dc*/ LDR         R6, [R3, #68]               @ 0x44 
    /*000000e0*/ MOV         R1, R6 
    /*000000e4*/ BL          _ZN4hirt13WKModelLoader14releaseWKModelERKNS_16hiMODEL_LOADER_SE
    /*000000e8*/ CMP         R6, #0 
    /*000000ec*/ BEQ         _ZN4hirt12ModelManager8delModelEPKc_xfc
    /*000000f0*/ MOV         R0, R6 
    /*000000f4*/ MOV         R1, #20 
    /*000000f8*/ BL          _ZdlPvj
    _ZN4hirt12ModelManager8delModelEPKc_xfc:
    /*000000fc*/ LDR         R0, [R5] 
    /*00000100*/ LDR         R3, [R0, #4] 
    /*00000104*/ CMP         R3, #0 
    /*00000108*/ BEQ         _ZN4hirt12ModelManager8delModelEPKc_x124
    /*0000010c*/ MOV         R0, R3 
    /*00000110*/ MOV         R1, #76                     @ 0x4c 
    /*00000114*/ BL          _ZdlPvj
    /*00000118*/ LDR         R0, [R5] 
    /*0000011c*/ MOV         R3, #0 
    /*00000120*/ STR         R3, [R0, #4] 
    _ZN4hirt12ModelManager8delModelEPKc_x124:
    /*00000124*/ MOV         R1, #8 
    /*00000128*/ BL          _ZdlPvj
    /*0000012c*/ MOV         R3, #0 
    /*00000130*/ MOV         R0, R5 
    /*00000134*/ STR         R3, [R5] 
    /*00000138*/ MOV         R1, #12 
    /*0000013c*/ BL          _ZdlPvj
    /*00000140*/ LDR         R3, WORD_02ac               @ LDR         R3, [PC, #356]              @ 0x00000000000002ac 
    /*00000144*/ MOV         R0, R4 
    /*00000148*/ ADD         R3, PC, R3 
    /*0000014c*/ ADD         R3, R3, #8 
    /*00000150*/ STR         R3, [SP, #4] 
    /*00000154*/ BL          _ZN4hirt11ModelLoaderD2Ev
    /*00000158*/ CMP         R8, #0 
    /*0000015c*/ BEQ         _ZN4hirt12ModelManager8delModelEPKc_x16c
    /*00000160*/ LDR         R0, WORD_02b0               @ LDR         R0, [PC, #328]              @ 0x00000000000002b0 
    /*00000164*/ ADD         R0, PC, R0 
    /*00000168*/ BL          pthread_mutex_unlock
    _ZN4hirt12ModelManager8delModelEPKc_x16c:
    /*0000016c*/ MOV         R0, SL 
    /*00000170*/ ADD         SP, SP, #8 
    /*00000174*/ POP         {R4, R5, R6, R7, R8, R9, SL, PC} 
    _ZN4hirt12ModelManager8delModelEPKc_x178:
    /*00000178*/ LDR         R2, WORD_02b4               @ LDR         R2, [PC, #308]              @ 0x00000000000002b4 
    /*0000017c*/ MOV         R1, #4 
    /*00000180*/ LDR         R0, WORD_02b8               @ LDR         R0, [PC, #304]              @ 0x00000000000002b8 
    /*00000184*/ ADD         R2, PC, R2 
    /*00000188*/ ADD         R0, PC, R0 
    /*0000018c*/ BL          _Z15HIRT_LOG_PrintfPKc19tagHIRT_LOG_LEVEL_ES0_z
    /*00000190*/ CMP         R8, #0 
    /*00000194*/ MVNEQ       SL, #1 
    /*00000198*/ BEQ         _ZN4hirt12ModelManager8delModelEPKc_x16c
    _ZN4hirt12ModelManager8delModelEPKc_x19c:
    /*0000019c*/ LDR         R0, WORD_02bc               @ LDR         R0, [PC, #280]              @ 0x00000000000002bc 
    /*000001a0*/ MVN         SL, #1 
    /*000001a4*/ ADD         R0, PC, R0 
    /*000001a8*/ BL          pthread_mutex_unlock
    /*000001ac*/ MOV         R0, SL 
    /*000001b0*/ ADD         SP, SP, #8 
    /*000001b4*/ POP         {R4, R5, R6, R7, R8, R9, SL, PC} 
    _ZN4hirt12ModelManager8delModelEPKc_x1b8:
    /*000001b8*/ LDR         R3, WORD_02c0               @ LDR         R3, [PC, #256]              @ 0x00000000000002c0 
    /*000001bc*/ ADD         R3, PC, R3 
    /*000001c0*/ LDM         R3, {R4, R6} 
    /*000001c4*/ CMP         R4, R6 
    /*000001c8*/ BNE         _ZN4hirt12ModelManager8delModelEPKc_x68
    /*000001cc*/ LDR         R2, WORD_02c4               @ LDR         R2, [PC, #240]              @ 0x00000000000002c4 
    /*000001d0*/ MOV         R1, #4 
    /*000001d4*/ LDR         R0, WORD_02c8               @ LDR         R0, [PC, #236]              @ 0x00000000000002c8 
    /*000001d8*/ MVN         SL, #1 
    /*000001dc*/ ADD         R2, PC, R2 
    /*000001e0*/ ADD         R0, PC, R0 
    /*000001e4*/ BL          _Z15HIRT_LOG_PrintfPKc19tagHIRT_LOG_LEVEL_ES0_z
    /*000001e8*/ B           _ZN4hirt12ModelManager8delModelEPKc_x16c
    _ZN4hirt12ModelManager8delModelEPKc_x1ec:
    /*000001ec*/ LDR         R2, WORD_02cc               @ LDR         R2, [PC, #216]              @ 0x00000000000002cc 
    /*000001f0*/ MOV         R1, #4 
    /*000001f4*/ LDR         R0, WORD_02d0               @ LDR         R0, [PC, #212]              @ 0x00000000000002d0 
    /*000001f8*/ ADD         R2, PC, R2 
    /*000001fc*/ ADD         R0, PC, R0 
    /*00000200*/ BL          _Z15HIRT_LOG_PrintfPKc19tagHIRT_LOG_LEVEL_ES0_z
    /*00000204*/ CMP         R8, #0 
    /*00000208*/ MVNEQ       SL, #2 
    /*0000020c*/ BEQ         _ZN4hirt12ModelManager8delModelEPKc_x16c
    /*00000210*/ LDR         R0, WORD_02d4               @ LDR         R0, [PC, #188]              @ 0x00000000000002d4 
    /*00000214*/ MVN         SL, #2 
    /*00000218*/ ADD         R0, PC, R0 
    /*0000021c*/ BL          pthread_mutex_unlock
    /*00000220*/ B           _ZN4hirt12ModelManager8delModelEPKc_x16c
    _ZN4hirt12ModelManager8delModelEPKc_x224:
    /*00000224*/ MOV         R0, R9 
    /*00000228*/ BL          memmove
    /*0000022c*/ LDR         R3, WORD_02d8               @ LDR         R3, [PC, #164]              @ 0x00000000000002d8 
    /*00000230*/ ADD         R3, PC, R3 
    /*00000234*/ LDR         R6, [R3, #4] 
    /*00000238*/ B           _ZN4hirt12ModelManager8delModelEPKc_xb4
    _ZN4hirt12ModelManager8delModelEPKc_x23c:
    /*0000023c*/ LDR         R2, WORD_02dc               @ LDR         R2, [PC, #152]              @ 0x00000000000002dc 
    /*00000240*/ MOV         R1, #4 
    /*00000244*/ LDR         R0, WORD_02e0               @ LDR         R0, [PC, #148]              @ 0x00000000000002e0 
    /*00000248*/ MVN         SL, #0 
    /*0000024c*/ ADD         R2, PC, R2 
    /*00000250*/ ADD         R0, PC, R0 
    /*00000254*/ BL          _Z15HIRT_LOG_PrintfPKc19tagHIRT_LOG_LEVEL_ES0_z
    /*00000258*/ B           _ZN4hirt12ModelManager8delModelEPKc_x16c
    _ZN4hirt12ModelManager8delModelEPKc_x25c:
    /*0000025c*/ BL          _ZSt20__throw_system_errori
    /*00000260*/ LDR         R3, WORD_02e4               @ LDR         R3, [PC, #124]              @ 0x00000000000002e4 
    /*00000264*/ MOV         R0, R4 
    /*00000268*/ ADD         R3, PC, R3 
    /*0000026c*/ ADD         R3, R3, #8 
    /*00000270*/ STR         R3, [SP, #4] 
    /*00000274*/ BL          _ZN4hirt11ModelLoaderD2Ev
    /*00000278*/ BL          __cxa_end_cleanup
    _ZN4hirt12ModelManager8delModelEPKc_x27c:
    /*0000027c*/ LDR         R2, WORD_02e8               @ LDR         R2, [PC, #100]              @ 0x00000000000002e8 
    /*00000280*/ MOV         R1, #4 
    /*00000284*/ LDR         R0, WORD_02ec               @ LDR         R0, [PC, #96]               @ 0x00000000000002ec 
    /*00000288*/ ADD         R2, PC, R2 
    /*0000028c*/ ADD         R0, PC, R0 
    /*00000290*/ BL          _Z15HIRT_LOG_PrintfPKc19tagHIRT_LOG_LEVEL_ES0_z
    /*00000294*/ B           _ZN4hirt12ModelManager8delModelEPKc_x19c
    /*00000298*/ WORD_0298: .word 0x00000274
    /*0000029c*/ WORD_029c: .word 0x00000000
    /*000002a0*/ WORD_02a0: .word 0x00000260
    /*000002a4*/ WORD_02a4: .word 0x00000250
    /*000002a8*/ WORD_02a8: .word 0x000001dc
    /*000002ac*/ WORD_02ac: .word 0x0000015c
    /*000002b0*/ WORD_02b0: .word 0x00000144
    /*000002b4*/ WORD_02b4: .word 0x00000128
    /*000002b8*/ WORD_02b8: .word 0x00000128
    /*000002bc*/ WORD_02bc: .word 0x00000110
    /*000002c0*/ WORD_02c0: .word 0x000000fc
    /*000002c4*/ WORD_02c4: .word 0x000000e0
    /*000002c8*/ WORD_02c8: .word 0x000000e0
    /*000002cc*/ WORD_02cc: .word 0x000000cc
    /*000002d0*/ WORD_02d0: .word 0x000000cc
    /*000002d4*/ WORD_02d4: .word 0x000000b4
    /*000002d8*/ WORD_02d8: .word 0x000000a0
    /*000002dc*/ WORD_02dc: .word 0x00000088
    /*000002e0*/ WORD_02e0: .word 0x00000088
    /*000002e4*/ WORD_02e4: .word 0x00000074
    /*000002e8*/ WORD_02e8: .word 0x00000058
    /*000002ec*/ WORD_02ec: .word 0x00000058
FUNC_END _ZN4hirt12ModelManager8delModelEPKc


@ - - - - - - - - - - - - - - - - - - - - - - - - - - - - - 
@ .ARM.extab.text._ZN4hirt12ModelManager8delModelEPKc
@ Size: 0x1d
@ - - - - - - - - - - - - - - - - - - - - - - - - - - - - - 

@ - - - - - - - - - - - - - - - - - - - - - - - - - - - - - 
@ .text._ZN4hirt12ModelManager8delModelEPNS_16tagMODEL_MODEL_SE
@ Size: 0x4
@ - - - - - - - - - - - - - - - - - - - - - - - - - - - - - 

FUNC_BEGIN _ZN4hirt12ModelManager8delModelEPNS_16tagMODEL_MODEL_SE
    _ZN4hirt12ModelManager8delModelEPNS_16tagMODEL_MODEL_SE_x0:
    /*00000000*/ B           _ZN4hirt12ModelManager8delModelEPNS_16tagMODEL_MODEL_SE_x0@ _ZN4hirt12ModelManager8delModelEPKc [R_ARM_JUMP24: .text._ZN4hirt12ModelManager8delModelEPKc+0x0] 
FUNC_END _ZN4hirt12ModelManager8delModelEPNS_16tagMODEL_MODEL_SE


@ - - - - - - - - - - - - - - - - - - - - - - - - - - - - - 
@ .text._ZN4hirt12ModelManager17checkHandlerValidEPvR7HI_BOOL
@ Size: 0x1e8
@ - - - - - - - - - - - - - - - - - - - - - - - - - - - - - 

FUNC_BEGIN _ZN4hirt12ModelManager17checkHandlerValidEPvR7HI_BOOL
    /*00000000*/ MOV         IP, #16384                  @ 0x4000 
    /*00000004*/ PUSH        {R4, R5, R6, LR} 
    /*00000008*/ SUB         IP, SP, IP 
    /*0000000c*/ STR         R0, [IP, #4080]             @ 0xff0 
    /*00000010*/ LDR         R3, WORD_01ac               @ LDR         R3, [PC, #404]              @ 0x00000000000001ac 
    /*00000014*/ SUBS        R5, R1, #0 
    /*00000018*/ ADD         R3, PC, R3 
    /*0000001c*/ BEQ         _ZN4hirt12ModelManager17checkHandlerValidEPvR7HI_BOOL_x188
    /*00000020*/ MOV         R6, R2 
    /*00000024*/ LDR         R2, WORD_01b0               @ LDR         R2, [PC, #388]              @ 0x00000000000001b0 
    /*00000028*/ LDR         R4, [R3, R2] 
    /*0000002c*/ CMP         R4, #0 
    /*00000030*/ BEQ         _ZN4hirt12ModelManager17checkHandlerValidEPvR7HI_BOOL_x100
    /*00000034*/ LDR         R0, WORD_01b4               @ LDR         R0, [PC, #376]              @ 0x00000000000001b4 
    /*00000038*/ ADD         R0, PC, R0 
    /*0000003c*/ BL          pthread_mutex_lock
    /*00000040*/ CMP         R0, #0 
    /*00000044*/ BNE         _ZN4hirt12ModelManager17checkHandlerValidEPvR7HI_BOOL_x1a8
    /*00000048*/ LDR         R2, WORD_01b8               @ LDR         R2, [PC, #360]              @ 0x00000000000001b8 
    /*0000004c*/ ADD         R2, PC, R2 
    /*00000050*/ LDR         R3, [R2] 
    /*00000054*/ LDR         R0, [R2, #4] 
    /*00000058*/ CMP         R3, R0 
    /*0000005c*/ BEQ         _ZN4hirt12ModelManager17checkHandlerValidEPvR7HI_BOOL_x14c
    /*00000060*/ LDR         R2, [R3] 
    /*00000064*/ LDR         R2, [R2] 
    /*00000068*/ LDR         R2, [R2, #4] 
    /*0000006c*/ LDR         R2, [R2, #68]               @ 0x44 
    /*00000070*/ CMP         R5, R2 
    /*00000074*/ BEQ         _ZN4hirt12ModelManager17checkHandlerValidEPvR7HI_BOOL_x140
    _ZN4hirt12ModelManager17checkHandlerValidEPvR7HI_BOOL_x78:
    /*00000078*/ ADD         R3, R3, #4 
    /*0000007c*/ B           _ZN4hirt12ModelManager17checkHandlerValidEPvR7HI_BOOL_x9c
    _ZN4hirt12ModelManager17checkHandlerValidEPvR7HI_BOOL_x80:
    /*00000080*/ LDR         IP, [IP] 
    /*00000084*/ ADD         R3, R3, #4 
    /*00000088*/ LDR         IP, [IP] 
    /*0000008c*/ LDR         IP, [IP, #4] 
    /*00000090*/ LDR         IP, [IP, #68]               @ 0x44 
    /*00000094*/ CMP         R5, IP 
    /*00000098*/ BEQ         _ZN4hirt12ModelManager17checkHandlerValidEPvR7HI_BOOL_xdc
    _ZN4hirt12ModelManager17checkHandlerValidEPvR7HI_BOOL_x9c:
    /*0000009c*/ CMP         R3, R0 
    /*000000a0*/ MOV         IP, R3 
    /*000000a4*/ BNE         _ZN4hirt12ModelManager17checkHandlerValidEPvR7HI_BOOL_x80
    /*000000a8*/ LDR         R2, WORD_01bc               @ LDR         R2, [PC, #268]              @ 0x00000000000001bc 
    /*000000ac*/ MOV         R1, #4 
    /*000000b0*/ LDR         R0, WORD_01c0               @ LDR         R0, [PC, #264]              @ 0x00000000000001c0 
    /*000000b4*/ ADD         R2, PC, R2 
    /*000000b8*/ ADD         R0, PC, R0 
    /*000000bc*/ BL          _Z15HIRT_LOG_PrintfPKc19tagHIRT_LOG_LEVEL_ES0_z
    /*000000c0*/ CMP         R4, #0 
    /*000000c4*/ BEQ         _ZN4hirt12ModelManager17checkHandlerValidEPvR7HI_BOOL_xd4
    _ZN4hirt12ModelManager17checkHandlerValidEPvR7HI_BOOL_xc8:
    /*000000c8*/ LDR         R0, WORD_01c4               @ LDR         R0, [PC, #244]              @ 0x00000000000001c4 
    /*000000cc*/ ADD         R0, PC, R0 
    /*000000d0*/ BL          pthread_mutex_unlock
    _ZN4hirt12ModelManager17checkHandlerValidEPvR7HI_BOOL_xd4:
    /*000000d4*/ MVN         R0, #1 
    /*000000d8*/ POP         {R4, R5, R6, PC} 
    _ZN4hirt12ModelManager17checkHandlerValidEPvR7HI_BOOL_xdc:
    /*000000dc*/ CMP         R4, #0 
    /*000000e0*/ MOV         R3, #1 
    /*000000e4*/ STR         R3, [R6] 
    /*000000e8*/ BEQ         _ZN4hirt12ModelManager17checkHandlerValidEPvR7HI_BOOL_xf8
    _ZN4hirt12ModelManager17checkHandlerValidEPvR7HI_BOOL_xec:
    /*000000ec*/ LDR         R0, WORD_01c8               @ LDR         R0, [PC, #212]              @ 0x00000000000001c8 
    /*000000f0*/ ADD         R0, PC, R0 
    /*000000f4*/ BL          pthread_mutex_unlock
    _ZN4hirt12ModelManager17checkHandlerValidEPvR7HI_BOOL_xf8:
    /*000000f8*/ MOV         R0, #0 
    /*000000fc*/ POP         {R4, R5, R6, PC} 
    _ZN4hirt12ModelManager17checkHandlerValidEPvR7HI_BOOL_x100:
    /*00000100*/ LDR         R2, WORD_01cc               @ LDR         R2, [PC, #196]              @ 0x00000000000001cc 
    /*00000104*/ ADD         R2, PC, R2 
    /*00000108*/ LDR         R3, [R2] 
    /*0000010c*/ LDR         R0, [R2, #4] 
    /*00000110*/ CMP         R3, R0 
    /*00000114*/ BEQ         _ZN4hirt12ModelManager17checkHandlerValidEPvR7HI_BOOL_x168
    /*00000118*/ LDR         R2, [R3] 
    /*0000011c*/ LDR         R2, [R2] 
    /*00000120*/ LDR         R2, [R2, #4] 
    /*00000124*/ LDR         R2, [R2, #68]               @ 0x44 
    /*00000128*/ CMP         R5, R2 
    /*0000012c*/ BNE         _ZN4hirt12ModelManager17checkHandlerValidEPvR7HI_BOOL_x78
    /*00000130*/ MOV         R3, #1 
    /*00000134*/ MOV         R0, R4 
    /*00000138*/ STR         R3, [R6] 
    /*0000013c*/ POP         {R4, R5, R6, PC} 
    _ZN4hirt12ModelManager17checkHandlerValidEPvR7HI_BOOL_x140:
    /*00000140*/ MOV         R3, #1 
    /*00000144*/ STR         R3, [R6] 
    /*00000148*/ B           _ZN4hirt12ModelManager17checkHandlerValidEPvR7HI_BOOL_xec
    _ZN4hirt12ModelManager17checkHandlerValidEPvR7HI_BOOL_x14c:
    /*0000014c*/ LDR         R2, WORD_01d0               @ LDR         R2, [PC, #124]              @ 0x00000000000001d0 
    /*00000150*/ MOV         R1, #4 
    /*00000154*/ LDR         R0, WORD_01d4               @ LDR         R0, [PC, #120]              @ 0x00000000000001d4 
    /*00000158*/ ADD         R2, PC, R2 
    /*0000015c*/ ADD         R0, PC, R0 
    /*00000160*/ BL          _Z15HIRT_LOG_PrintfPKc19tagHIRT_LOG_LEVEL_ES0_z
    /*00000164*/ B           _ZN4hirt12ModelManager17checkHandlerValidEPvR7HI_BOOL_xc8
    _ZN4hirt12ModelManager17checkHandlerValidEPvR7HI_BOOL_x168:
    /*00000168*/ LDR         R2, WORD_01d8               @ LDR         R2, [PC, #104]              @ 0x00000000000001d8 
    /*0000016c*/ MOV         R1, #4 
    /*00000170*/ LDR         R0, WORD_01dc               @ LDR         R0, [PC, #100]              @ 0x00000000000001dc 
    /*00000174*/ ADD         R2, PC, R2 
    /*00000178*/ ADD         R0, PC, R0 
    /*0000017c*/ BL          _Z15HIRT_LOG_PrintfPKc19tagHIRT_LOG_LEVEL_ES0_z
    /*00000180*/ MVN         R0, #1 
    /*00000184*/ POP         {R4, R5, R6, PC} 
    _ZN4hirt12ModelManager17checkHandlerValidEPvR7HI_BOOL_x188:
    /*00000188*/ LDR         R2, WORD_01e0               @ LDR         R2, [PC, #80]               @ 0x00000000000001e0 
    /*0000018c*/ MOV         R1, #4 
    /*00000190*/ LDR         R0, WORD_01e4               @ LDR         R0, [PC, #76]               @ 0x00000000000001e4 
    /*00000194*/ ADD         R2, PC, R2 
    /*00000198*/ ADD         R0, PC, R0 
    /*0000019c*/ BL          _Z15HIRT_LOG_PrintfPKc19tagHIRT_LOG_LEVEL_ES0_z
    /*000001a0*/ MVN         R0, #0 
    /*000001a4*/ POP         {R4, R5, R6, PC} 
    _ZN4hirt12ModelManager17checkHandlerValidEPvR7HI_BOOL_x1a8:
    /*000001a8*/ BL          _ZSt20__throw_system_errori
    /*000001ac*/ WORD_01ac: .word 0x0000018c
    /*000001b0*/ WORD_01b0: .word 0x00000000
    /*000001b4*/ WORD_01b4: .word 0x00000174
    /*000001b8*/ WORD_01b8: .word 0x00000164
    /*000001bc*/ WORD_01bc: .word 0x00000100
    /*000001c0*/ WORD_01c0: .word 0x00000100
    /*000001c4*/ WORD_01c4: .word 0x000000f0
    /*000001c8*/ WORD_01c8: .word 0x000000d0
    /*000001cc*/ WORD_01cc: .word 0x000000c0
    /*000001d0*/ WORD_01d0: .word 0x00000070
    /*000001d4*/ WORD_01d4: .word 0x00000070
    /*000001d8*/ WORD_01d8: .word 0x0000005c
    /*000001dc*/ WORD_01dc: .word 0x0000005c
    /*000001e0*/ WORD_01e0: .word 0x00000044
    /*000001e4*/ WORD_01e4: .word 0x00000044
FUNC_END _ZN4hirt12ModelManager17checkHandlerValidEPvR7HI_BOOL


@ - - - - - - - - - - - - - - - - - - - - - - - - - - - - - 
@ .text._ZNSt6vectorINSt7__cxx1112basic_stringIcSt11char_traitsIcESaIcEEESaIS5_EED2Ev
@ Size: 0x60
@ - - - - - - - - - - - - - - - - - - - - - - - - - - - - - 

FUNC_BEGIN _ZNSt6vectorINSt7__cxx1112basic_stringIcSt11char_traitsIcESaIcEEESaIS5_EED2Ev
    /*00000000*/ MOV         IP, #16384                  @ 0x4000 
    /*00000004*/ PUSH        {R4, R5, R6, R7, R8, LR} 
    /*00000008*/ SUB         IP, SP, IP 
    /*0000000c*/ STR         R0, [IP, #4072]             @ 0xfe8 
    /*00000010*/ LDM         R0, {R5, R6} 
    /*00000014*/ MOV         R7, R0 
    /*00000018*/ CMP         R5, R6 
    /*0000001c*/ BEQ         _ZNSt6vectorINSt7__cxx1112basic_stringIcSt11char_traitsIcESaIcEEESaIS5_EED2Ev_x48
    /*00000020*/ ADD         R4, R5, #8 
    _ZNSt6vectorINSt7__cxx1112basic_stringIcSt11char_traitsIcESaIcEEESaIS5_EED2Ev_x24:
    /*00000024*/ LDR         R0, [R4, #-8] 
    /*00000028*/ ADD         R5, R5, #24 
    /*0000002c*/ CMP         R0, R4 
    /*00000030*/ ADD         R4, R4, #24 
    /*00000034*/ BEQ         _ZNSt6vectorINSt7__cxx1112basic_stringIcSt11char_traitsIcESaIcEEESaIS5_EED2Ev_x3c
    /*00000038*/ BL          _ZdlPv
    _ZNSt6vectorINSt7__cxx1112basic_stringIcSt11char_traitsIcESaIcEEESaIS5_EED2Ev_x3c:
    /*0000003c*/ CMP         R6, R5 
    /*00000040*/ BNE         _ZNSt6vectorINSt7__cxx1112basic_stringIcSt11char_traitsIcESaIcEEESaIS5_EED2Ev_x24
    /*00000044*/ LDR         R6, [R7] 
    _ZNSt6vectorINSt7__cxx1112basic_stringIcSt11char_traitsIcESaIcEEESaIS5_EED2Ev_x48:
    /*00000048*/ CMP         R6, #0 
    /*0000004c*/ BEQ         _ZNSt6vectorINSt7__cxx1112basic_stringIcSt11char_traitsIcESaIcEEESaIS5_EED2Ev_x58
    /*00000050*/ MOV         R0, R6 
    /*00000054*/ BL          _ZdlPv
    _ZNSt6vectorINSt7__cxx1112basic_stringIcSt11char_traitsIcESaIcEEESaIS5_EED2Ev_x58:
    /*00000058*/ MOV         R0, R7 
    /*0000005c*/ POP         {R4, R5, R6, R7, R8, PC} 
FUNC_END _ZNSt6vectorINSt7__cxx1112basic_stringIcSt11char_traitsIcESaIcEEESaIS5_EED2Ev


FUNC_BEGIN _ZNSt6vectorINSt7__cxx1112basic_stringIcSt11char_traitsIcESaIcEEESaIS5_EED1Ev
    /*00000000*/ MOV         IP, #16384                  @ 0x4000 
    /*00000004*/ PUSH        {R4, R5, R6, R7, R8, LR} 
    /*00000008*/ SUB         IP, SP, IP 
    /*0000000c*/ STR         R0, [IP, #4072]             @ 0xfe8 
    /*00000010*/ LDM         R0, {R5, R6} 
    /*00000014*/ MOV         R7, R0 
    /*00000018*/ CMP         R5, R6 
    /*0000001c*/ BEQ         _ZNSt6vectorINSt7__cxx1112basic_stringIcSt11char_traitsIcESaIcEEESaIS5_EED1Ev_x48
    /*00000020*/ ADD         R4, R5, #8 
    _ZNSt6vectorINSt7__cxx1112basic_stringIcSt11char_traitsIcESaIcEEESaIS5_EED1Ev_x24:
    /*00000024*/ LDR         R0, [R4, #-8] 
    /*00000028*/ ADD         R5, R5, #24 
    /*0000002c*/ CMP         R0, R4 
    /*00000030*/ ADD         R4, R4, #24 
    /*00000034*/ BEQ         _ZNSt6vectorINSt7__cxx1112basic_stringIcSt11char_traitsIcESaIcEEESaIS5_EED1Ev_x3c
    /*00000038*/ BL          _ZdlPv
    _ZNSt6vectorINSt7__cxx1112basic_stringIcSt11char_traitsIcESaIcEEESaIS5_EED1Ev_x3c:
    /*0000003c*/ CMP         R6, R5 
    /*00000040*/ BNE         _ZNSt6vectorINSt7__cxx1112basic_stringIcSt11char_traitsIcESaIcEEESaIS5_EED1Ev_x24
    /*00000044*/ LDR         R6, [R7] 
    _ZNSt6vectorINSt7__cxx1112basic_stringIcSt11char_traitsIcESaIcEEESaIS5_EED1Ev_x48:
    /*00000048*/ CMP         R6, #0 
    /*0000004c*/ BEQ         _ZNSt6vectorINSt7__cxx1112basic_stringIcSt11char_traitsIcESaIcEEESaIS5_EED1Ev_x58
    /*00000050*/ MOV         R0, R6 
    /*00000054*/ BL          _ZdlPv
    _ZNSt6vectorINSt7__cxx1112basic_stringIcSt11char_traitsIcESaIcEEESaIS5_EED1Ev_x58:
    /*00000058*/ MOV         R0, R7 
    /*0000005c*/ POP         {R4, R5, R6, R7, R8, PC} 
FUNC_END _ZNSt6vectorINSt7__cxx1112basic_stringIcSt11char_traitsIcESaIcEEESaIS5_EED1Ev


@ - - - - - - - - - - - - - - - - - - - - - - - - - - - - - 
@ .text._ZNSt6vectorIPN4hirt17_MANAGER_ENTITY_SESaIS2_EE19_M_emplace_back_auxIJRKS2_EEEvDpOT_
@ Size: 0xd4
@ - - - - - - - - - - - - - - - - - - - - - - - - - - - - - 

FUNC_BEGIN _ZNSt6vectorIPN4hirt17_MANAGER_ENTITY_SESaIS2_EE19_M_emplace_back_auxIJRKS2_EEEvDpOT_
    /*00000000*/ MOV         IP, #16384                  @ 0x4000 
    /*00000004*/ PUSH        {R4, R5, R6, R7, R8, R9, SL, LR} 
    /*00000008*/ SUB         IP, SP, IP 
    /*0000000c*/ STR         R0, [IP, #4064]             @ 0xfe0 
    /*00000010*/ LDM         R0, {R2, R3} 
    /*00000014*/ MOV         R6, R0 
    /*00000018*/ MOV         R9, R1 
    /*0000001c*/ SUB         R3, R3, R2 
    /*00000020*/ ASRS        R3, R3, #2 
    /*00000024*/ BEQ         _ZNSt6vectorIPN4hirt17_MANAGER_ENTITY_SESaIS2_EE19_M_emplace_back_auxIJRKS2_EEEvDpOT__x3c
    /*00000028*/ LSL         R5, R3, #1 
    /*0000002c*/ CMP         R3, R5 
    /*00000030*/ BLS         _ZNSt6vectorIPN4hirt17_MANAGER_ENTITY_SESaIS2_EE19_M_emplace_back_auxIJRKS2_EEEvDpOT__xb8
    _ZNSt6vectorIPN4hirt17_MANAGER_ENTITY_SESaIS2_EE19_M_emplace_back_auxIJRKS2_EEEvDpOT__x34:
    /*00000034*/ MVN         R5, #3 
    /*00000038*/ B           _ZNSt6vectorIPN4hirt17_MANAGER_ENTITY_SESaIS2_EE19_M_emplace_back_auxIJRKS2_EEEvDpOT__x40
    _ZNSt6vectorIPN4hirt17_MANAGER_ENTITY_SESaIS2_EE19_M_emplace_back_auxIJRKS2_EEEvDpOT__x3c:
    /*0000003c*/ MOV         R5, #4 
    _ZNSt6vectorIPN4hirt17_MANAGER_ENTITY_SESaIS2_EE19_M_emplace_back_auxIJRKS2_EEEvDpOT__x40:
    /*00000040*/ MOV         R0, R5 
    /*00000044*/ BL          _Znwj
    /*00000048*/ MOV         R7, R0 
    _ZNSt6vectorIPN4hirt17_MANAGER_ENTITY_SESaIS2_EE19_M_emplace_back_auxIJRKS2_EEEvDpOT__x4c:
    /*0000004c*/ LDR         R8, [R6] 
    /*00000050*/ LDR         R4, [R6, #4] 
    /*00000054*/ LDR         R2, [R9] 
    /*00000058*/ SUB         R4, R4, R8 
    /*0000005c*/ CMN         R7, R4 
    /*00000060*/ ASR         R3, R4, #2 
    /*00000064*/ STRNE       R2, [R7, R4] 
    /*00000068*/ CMP         R3, #0 
    /*0000006c*/ BNE         _ZNSt6vectorIPN4hirt17_MANAGER_ENTITY_SESaIS2_EE19_M_emplace_back_auxIJRKS2_EEEvDpOT__x9c
    /*00000070*/ CMP         R8, #0 
    /*00000074*/ ADD         R4, R4, #4 
    /*00000078*/ ADD         R4, R7, R4 
    /*0000007c*/ BEQ         _ZNSt6vectorIPN4hirt17_MANAGER_ENTITY_SESaIS2_EE19_M_emplace_back_auxIJRKS2_EEEvDpOT__x88
    _ZNSt6vectorIPN4hirt17_MANAGER_ENTITY_SESaIS2_EE19_M_emplace_back_auxIJRKS2_EEEvDpOT__x80:
    /*00000080*/ MOV         R0, R8 
    /*00000084*/ BL          _ZdlPv
    _ZNSt6vectorIPN4hirt17_MANAGER_ENTITY_SESaIS2_EE19_M_emplace_back_auxIJRKS2_EEEvDpOT__x88:
    /*00000088*/ ADD         R5, R7, R5 
    /*0000008c*/ STR         R5, [R6, #8] 
    /*00000090*/ STR         R7, [R6] 
    /*00000094*/ STR         R4, [R6, #4] 
    /*00000098*/ POP         {R4, R5, R6, R7, R8, R9, SL, PC} 
    _ZNSt6vectorIPN4hirt17_MANAGER_ENTITY_SESaIS2_EE19_M_emplace_back_auxIJRKS2_EEEvDpOT__x9c:
    /*0000009c*/ MOV         R2, R4 
    /*000000a0*/ MOV         R1, R8 
    /*000000a4*/ MOV         R0, R7 
    /*000000a8*/ ADD         R4, R4, #4 
    /*000000ac*/ ADD         R4, R7, R4 
    /*000000b0*/ BL          memmove
    /*000000b4*/ B           _ZNSt6vectorIPN4hirt17_MANAGER_ENTITY_SESaIS2_EE19_M_emplace_back_auxIJRKS2_EEEvDpOT__x80
    _ZNSt6vectorIPN4hirt17_MANAGER_ENTITY_SESaIS2_EE19_M_emplace_back_auxIJRKS2_EEEvDpOT__xb8:
    /*000000b8*/ CMN         R5, #-1073741823            @ 0xc0000001 
    /*000000bc*/ BHI         _ZNSt6vectorIPN4hirt17_MANAGER_ENTITY_SESaIS2_EE19_M_emplace_back_auxIJRKS2_EEEvDpOT__x34
    /*000000c0*/ CMP         R5, #0 
    /*000000c4*/ LSLNE       R5, R3, #3 
    /*000000c8*/ BNE         _ZNSt6vectorIPN4hirt17_MANAGER_ENTITY_SESaIS2_EE19_M_emplace_back_auxIJRKS2_EEEvDpOT__x40
    /*000000cc*/ MOV         R7, R5 
    /*000000d0*/ B           _ZNSt6vectorIPN4hirt17_MANAGER_ENTITY_SESaIS2_EE19_M_emplace_back_auxIJRKS2_EEEvDpOT__x4c
FUNC_END _ZNSt6vectorIPN4hirt17_MANAGER_ENTITY_SESaIS2_EE19_M_emplace_back_auxIJRKS2_EEEvDpOT_


@ - - - - - - - - - - - - - - - - - - - - - - - - - - - - - 
@ .text._ZNSt6vectorINSt7__cxx1112basic_stringIcSt11char_traitsIcESaIcEEESaIS5_EE19_M_emplace_back_auxIJS5_EEEvDpOT_
@ Size: 0x1fc
@ - - - - - - - - - - - - - - - - - - - - - - - - - - - - - 

FUNC_BEGIN _ZNSt6vectorINSt7__cxx1112basic_stringIcSt11char_traitsIcESaIcEEESaIS5_EE19_M_emplace_back_auxIJS5_EEEvDpOT_
    /*00000000*/ MOV         IP, #16384                  @ 0x4000 
    /*00000004*/ PUSH        {R4, R5, R6, R7, R8, R9, SL, LR} 
    /*00000008*/ SUB         IP, SP, IP 
    /*0000000c*/ STR         R0, [IP, #4064]             @ 0xfe0 
    /*00000010*/ LDM         R0, {R3, SL} 
    /*00000014*/ MOV         R6, R0 
    /*00000018*/ MOVW        R2, #43691                  @ 0xaaab 
    /*0000001c*/ SUB         R0, SL, R3 
    /*00000020*/ MOV         R4, R1 
    /*00000024*/ MOVT        R2, #43690                  @ 0xaaaa 
    /*00000028*/ ASR         R1, R0, #3 
    /*0000002c*/ MUL         R2, R2, R1 
    /*00000030*/ CMP         R2, #0 
    /*00000034*/ BEQ         _ZNSt6vectorINSt7__cxx1112basic_stringIcSt11char_traitsIcESaIcEEESaIS5_EE19_M_emplace_back_auxIJS5_EEEvDpOT__x17c
    /*00000038*/ LSL         R1, R2, #1 
    /*0000003c*/ CMP         R2, R1 
    /*00000040*/ BLS         _ZNSt6vectorINSt7__cxx1112basic_stringIcSt11char_traitsIcESaIcEEESaIS5_EE19_M_emplace_back_auxIJS5_EEEvDpOT__x1cc
    _ZNSt6vectorINSt7__cxx1112basic_stringIcSt11char_traitsIcESaIcEEESaIS5_EE19_M_emplace_back_auxIJS5_EEEvDpOT__x44:
    /*00000044*/ MVN         R8, #15 
    _ZNSt6vectorINSt7__cxx1112basic_stringIcSt11char_traitsIcESaIcEEESaIS5_EE19_M_emplace_back_auxIJS5_EEEvDpOT__x48:
    /*00000048*/ MOV         R0, R8 
    /*0000004c*/ BL          _Znwj
    /*00000050*/ LDR         SL, [R6, #4] 
    /*00000054*/ MOV         R7, R0 
    /*00000058*/ LDR         R3, [R6] 
    /*0000005c*/ ADD         R9, R0, #24 
    /*00000060*/ ADD         R8, R0, R8 
    /*00000064*/ SUB         R0, SL, R3 
    _ZNSt6vectorINSt7__cxx1112basic_stringIcSt11char_traitsIcESaIcEEESaIS5_EE19_M_emplace_back_auxIJS5_EEEvDpOT__x68:
    /*00000068*/ ADDS        R2, R7, R0 
    /*0000006c*/ BEQ         _ZNSt6vectorINSt7__cxx1112basic_stringIcSt11char_traitsIcESaIcEEESaIS5_EE19_M_emplace_back_auxIJS5_EEEvDpOT__xb4
    /*00000070*/ MOV         R3, R4 
    /*00000074*/ ADD         IP, R2, #8 
    /*00000078*/ STR         IP, [R7, R0] 
    /*0000007c*/ LDR         R1, [R3], #8 
    /*00000080*/ CMP         R1, R3 
    /*00000084*/ STRNE       R1, [R2] 
    /*00000088*/ LDRNE       R0, [R4, #8] 
    /*0000008c*/ STRNE       R0, [R2, #8] 
    /*00000090*/ BEQ         _ZNSt6vectorINSt7__cxx1112basic_stringIcSt11char_traitsIcESaIcEEESaIS5_EE19_M_emplace_back_auxIJS5_EEEvDpOT__x1a8
    _ZNSt6vectorINSt7__cxx1112basic_stringIcSt11char_traitsIcESaIcEEESaIS5_EE19_M_emplace_back_auxIJS5_EEEvDpOT__x94:
    /*00000094*/ LDR         R0, [R4, #4] 
    /*00000098*/ MOV         R1, #0 
    /*0000009c*/ STRB        R1, [R4, #8] 
    /*000000a0*/ LDR         SL, [R6, #4] 
    /*000000a4*/ STR         R3, [R4] 
    /*000000a8*/ STR         R0, [R2, #4] 
    /*000000ac*/ LDR         R3, [R6] 
    /*000000b0*/ STR         R1, [R4, #4] 
    _ZNSt6vectorINSt7__cxx1112basic_stringIcSt11char_traitsIcESaIcEEESaIS5_EE19_M_emplace_back_auxIJS5_EEEvDpOT__xb4:
    /*000000b4*/ CMP         R3, SL 
    /*000000b8*/ BEQ         _ZNSt6vectorINSt7__cxx1112basic_stringIcSt11char_traitsIcESaIcEEESaIS5_EE19_M_emplace_back_auxIJS5_EEEvDpOT__x160
    /*000000bc*/ ADD         R3, R3, #8 
    /*000000c0*/ ADD         R1, R7, #8 
    /*000000c4*/ MOV         R9, R7 
    /*000000c8*/ MOV         R0, #0 
    /*000000cc*/ B           _ZNSt6vectorINSt7__cxx1112basic_stringIcSt11char_traitsIcESaIcEEESaIS5_EE19_M_emplace_back_auxIJS5_EEEvDpOT__xd4
    _ZNSt6vectorINSt7__cxx1112basic_stringIcSt11char_traitsIcESaIcEEESaIS5_EE19_M_emplace_back_auxIJS5_EEEvDpOT__xd0:
    /*000000d0*/ MOV         R9, R2 
    _ZNSt6vectorINSt7__cxx1112basic_stringIcSt11char_traitsIcESaIcEEESaIS5_EE19_M_emplace_back_auxIJS5_EEEvDpOT__xd4:
    /*000000d4*/ CMP         R9, #0 
    /*000000d8*/ BEQ         _ZNSt6vectorINSt7__cxx1112basic_stringIcSt11char_traitsIcESaIcEEESaIS5_EE19_M_emplace_back_auxIJS5_EEEvDpOT__x10c
    /*000000dc*/ STR         R1, [R1, #-8] 
    /*000000e0*/ LDR         R2, [R3, #-8] 
    /*000000e4*/ CMP         R3, R2 
    /*000000e8*/ STRNE       R2, [R1, #-8] 
    /*000000ec*/ LDRNE       R2, [R3] 
    /*000000f0*/ STRNE       R2, [R1] 
    /*000000f4*/ BEQ         _ZNSt6vectorINSt7__cxx1112basic_stringIcSt11char_traitsIcESaIcEEESaIS5_EE19_M_emplace_back_auxIJS5_EEEvDpOT__x184
    _ZNSt6vectorINSt7__cxx1112basic_stringIcSt11char_traitsIcESaIcEEESaIS5_EE19_M_emplace_back_auxIJS5_EEEvDpOT__xf8:
    /*000000f8*/ LDR         R2, [R3, #-4] 
    /*000000fc*/ STR         R2, [R1, #-4] 
    /*00000100*/ STR         R3, [R3, #-8] 
    /*00000104*/ STR         R0, [R3, #-4] 
    /*00000108*/ STRB        R0, [R3] 
    _ZNSt6vectorINSt7__cxx1112basic_stringIcSt11char_traitsIcESaIcEEESaIS5_EE19_M_emplace_back_auxIJS5_EEEvDpOT__x10c:
    /*0000010c*/ ADD         R2, R3, #16 
    /*00000110*/ ADD         R1, R1, #24 
    /*00000114*/ CMP         SL, R2 
    /*00000118*/ ADD         R3, R3, #24 
    /*0000011c*/ ADD         R2, R9, #24 
    /*00000120*/ BNE         _ZNSt6vectorINSt7__cxx1112basic_stringIcSt11char_traitsIcESaIcEEESaIS5_EE19_M_emplace_back_auxIJS5_EEEvDpOT__xd0
    /*00000124*/ LDR         R5, [R6] 
    /*00000128*/ ADD         R9, R9, #48                 @ 0x30 
    /*0000012c*/ LDR         SL, [R6, #4] 
    /*00000130*/ CMP         R5, SL 
    /*00000134*/ BEQ         _ZNSt6vectorINSt7__cxx1112basic_stringIcSt11char_traitsIcESaIcEEESaIS5_EE19_M_emplace_back_auxIJS5_EEEvDpOT__x160
    /*00000138*/ ADD         R4, R5, #8 
    _ZNSt6vectorINSt7__cxx1112basic_stringIcSt11char_traitsIcESaIcEEESaIS5_EE19_M_emplace_back_auxIJS5_EEEvDpOT__x13c:
    /*0000013c*/ LDR         R0, [R4, #-8] 
    /*00000140*/ ADD         R5, R5, #24 
    /*00000144*/ CMP         R0, R4 
    /*00000148*/ ADD         R4, R4, #24 
    /*0000014c*/ BEQ         _ZNSt6vectorINSt7__cxx1112basic_stringIcSt11char_traitsIcESaIcEEESaIS5_EE19_M_emplace_back_auxIJS5_EEEvDpOT__x154
    /*00000150*/ BL          _ZdlPv
    _ZNSt6vectorINSt7__cxx1112basic_stringIcSt11char_traitsIcESaIcEEESaIS5_EE19_M_emplace_back_auxIJS5_EEEvDpOT__x154:
    /*00000154*/ CMP         R5, SL 
    /*00000158*/ BNE         _ZNSt6vectorINSt7__cxx1112basic_stringIcSt11char_traitsIcESaIcEEESaIS5_EE19_M_emplace_back_auxIJS5_EEEvDpOT__x13c
    /*0000015c*/ LDR         SL, [R6] 
    _ZNSt6vectorINSt7__cxx1112basic_stringIcSt11char_traitsIcESaIcEEESaIS5_EE19_M_emplace_back_auxIJS5_EEEvDpOT__x160:
    /*00000160*/ CMP         SL, #0 
    /*00000164*/ BEQ         _ZNSt6vectorINSt7__cxx1112basic_stringIcSt11char_traitsIcESaIcEEESaIS5_EE19_M_emplace_back_auxIJS5_EEEvDpOT__x170
    /*00000168*/ MOV         R0, SL 
    /*0000016c*/ BL          _ZdlPv
    _ZNSt6vectorINSt7__cxx1112basic_stringIcSt11char_traitsIcESaIcEEESaIS5_EE19_M_emplace_back_auxIJS5_EEEvDpOT__x170:
    /*00000170*/ STM         R6, {R7, R9} 
    /*00000174*/ STR         R8, [R6, #8] 
    /*00000178*/ POP         {R4, R5, R6, R7, R8, R9, SL, PC} 
    _ZNSt6vectorINSt7__cxx1112basic_stringIcSt11char_traitsIcESaIcEEESaIS5_EE19_M_emplace_back_auxIJS5_EEEvDpOT__x17c:
    /*0000017c*/ MOV         R8, #24 
    /*00000180*/ B           _ZNSt6vectorINSt7__cxx1112basic_stringIcSt11char_traitsIcESaIcEEESaIS5_EE19_M_emplace_back_auxIJS5_EEEvDpOT__x48
    _ZNSt6vectorINSt7__cxx1112basic_stringIcSt11char_traitsIcESaIcEEESaIS5_EE19_M_emplace_back_auxIJS5_EEEvDpOT__x184:
    /*00000184*/ LDR         R4, [R3] 
    /*00000188*/ LDR         LR, [R3, #4] 
    /*0000018c*/ LDR         IP, [R3, #8] 
    /*00000190*/ LDR         R2, [R3, #12] 
    /*00000194*/ STR         R4, [R1] 
    /*00000198*/ STR         LR, [R1, #4] 
    /*0000019c*/ STR         IP, [R1, #8] 
    /*000001a0*/ STR         R2, [R1, #12] 
    /*000001a4*/ B           _ZNSt6vectorINSt7__cxx1112basic_stringIcSt11char_traitsIcESaIcEEESaIS5_EE19_M_emplace_back_auxIJS5_EEEvDpOT__xf8
    _ZNSt6vectorINSt7__cxx1112basic_stringIcSt11char_traitsIcESaIcEEESaIS5_EE19_M_emplace_back_auxIJS5_EEEvDpOT__x1a8:
    /*000001a8*/ LDR         R0, [R3] 
    /*000001ac*/ LDR         R1, [R3, #4] 
    /*000001b0*/ STR         R0, [R2, #8] 
    /*000001b4*/ STR         R1, [R2, #12] 
    /*000001b8*/ LDR         R0, [R3, #8] 
    /*000001bc*/ LDR         R1, [R3, #12] 
    /*000001c0*/ STR         R0, [R2, #16] 
    /*000001c4*/ STR         R1, [R2, #20] 
    /*000001c8*/ B           _ZNSt6vectorINSt7__cxx1112basic_stringIcSt11char_traitsIcESaIcEEESaIS5_EE19_M_emplace_back_auxIJS5_EEEvDpOT__x94
    _ZNSt6vectorINSt7__cxx1112basic_stringIcSt11char_traitsIcESaIcEEESaIS5_EE19_M_emplace_back_auxIJS5_EEEvDpOT__x1cc:
    /*000001cc*/ MOVW        R2, #43690                  @ 0xaaaa 
    /*000001d0*/ MOVT        R2, #2730                   @ 0xaaa 
    /*000001d4*/ CMP         R1, R2 
    /*000001d8*/ BHI         _ZNSt6vectorINSt7__cxx1112basic_stringIcSt11char_traitsIcESaIcEEESaIS5_EE19_M_emplace_back_auxIJS5_EEEvDpOT__x44
    /*000001dc*/ CMP         R1, #0 
    /*000001e0*/ MOVNE       R8, #24 
    /*000001e4*/ MULNE       R8, R8, R1 
    /*000001e8*/ BNE         _ZNSt6vectorINSt7__cxx1112basic_stringIcSt11char_traitsIcESaIcEEESaIS5_EE19_M_emplace_back_auxIJS5_EEEvDpOT__x48
    /*000001ec*/ MOV         R8, R1 
    /*000001f0*/ MOV         R9, #24 
    /*000001f4*/ MOV         R7, R1 
    /*000001f8*/ B           _ZNSt6vectorINSt7__cxx1112basic_stringIcSt11char_traitsIcESaIcEEESaIS5_EE19_M_emplace_back_auxIJS5_EEEvDpOT__x68
FUNC_END _ZNSt6vectorINSt7__cxx1112basic_stringIcSt11char_traitsIcESaIcEEESaIS5_EE19_M_emplace_back_auxIJS5_EEEvDpOT_


@ - - - - - - - - - - - - - - - - - - - - - - - - - - - - - 
@ .text._ZSt9__find_ifIN9__gnu_cxx17__normal_iteratorIPNSt7__cxx1112basic_stringIcSt11char_traitsIcESaIcEEESt6vectorIS7_SaIS7_EEEENS0_5__ops16_Iter_equals_valIKS7_EEET_SH_SH_T0_St26random_access_iterator_tag
@ Size: 0x274
@ - - - - - - - - - - - - - - - - - - - - - - - - - - - - - 

FUNC_BEGIN _ZSt9__find_ifIN9__gnu_cxx17__normal_iteratorIPNSt7__cxx1112basic_stringIcSt11char_traitsIcESaIcEEESt6vectorIS7_SaIS7_EEEENS0_5__ops16_Iter_equals_valIKS7_EEET_SH_SH_T0_St26random_access_iterator_tag
    /*00000000*/ MOV         IP, #16384                  @ 0x4000 
    /*00000004*/ PUSH        {R4, R5, R6, R7, R8, R9, SL, LR} 
    /*00000008*/ SUB         IP, SP, IP 
    /*0000000c*/ STR         R0, [IP, #4064]             @ 0xfe0 
    /*00000010*/ MOV         R9, R1 
    /*00000014*/ MOVW        R3, #43691                  @ 0xaaab 
    /*00000018*/ SUB         R1, R1, R0 
    /*0000001c*/ MOV         R8, R2 
    /*00000020*/ MOVT        R3, #43690                  @ 0xaaaa 
    /*00000024*/ ASR         R1, R1, #3 
    /*00000028*/ MUL         R3, R3, R1 
    /*0000002c*/ ASR         R4, R3, #2 
    /*00000030*/ CMP         R4, #0 
    /*00000034*/ BLE         _ZSt9__find_ifIN9__gnu_cxx17__normal_iteratorIPNSt7__cxx1112basic_stringIcSt11char_traitsIcESaIcEEESt6vectorIS7_SaIS7_EEEENS0_5__ops16_Iter_equals_valIKS7_EEET_SH_SH_T0_St26random_access_iterator_tag_x26c
    /*00000038*/ LDR         R5, [R2, #4] 
    /*0000003c*/ MOV         R6, R0 
    /*00000040*/ MOV         R0, #96                     @ 0x60 
    /*00000044*/ MLA         R7, R0, R4, R6 
    /*00000048*/ ADD         R4, R6, #24 
    /*0000004c*/ B           _ZSt9__find_ifIN9__gnu_cxx17__normal_iteratorIPNSt7__cxx1112basic_stringIcSt11char_traitsIcESaIcEEESt6vectorIS7_SaIS7_EEEENS0_5__ops16_Iter_equals_valIKS7_EEET_SH_SH_T0_St26random_access_iterator_tag_x84
    _ZSt9__find_ifIN9__gnu_cxx17__normal_iteratorIPNSt7__cxx1112basic_stringIcSt11char_traitsIcESaIcEEESt6vectorIS7_SaIS7_EEEENS0_5__ops16_Iter_equals_valIKS7_EEET_SH_SH_T0_St26random_access_iterator_tag_x50:
    /*00000050*/ LDR         R3, [R4, #4] 
    /*00000054*/ CMP         R5, R3 
    /*00000058*/ BEQ         _ZSt9__find_ifIN9__gnu_cxx17__normal_iteratorIPNSt7__cxx1112basic_stringIcSt11char_traitsIcESaIcEEESt6vectorIS7_SaIS7_EEEENS0_5__ops16_Iter_equals_valIKS7_EEET_SH_SH_T0_St26random_access_iterator_tag_xb0
    _ZSt9__find_ifIN9__gnu_cxx17__normal_iteratorIPNSt7__cxx1112basic_stringIcSt11char_traitsIcESaIcEEESt6vectorIS7_SaIS7_EEEENS0_5__ops16_Iter_equals_valIKS7_EEET_SH_SH_T0_St26random_access_iterator_tag_x5c:
    /*0000005c*/ LDR         R3, [R4, #28] 
    /*00000060*/ CMP         R5, R3 
    /*00000064*/ BEQ         _ZSt9__find_ifIN9__gnu_cxx17__normal_iteratorIPNSt7__cxx1112basic_stringIcSt11char_traitsIcESaIcEEESt6vectorIS7_SaIS7_EEEENS0_5__ops16_Iter_equals_valIKS7_EEET_SH_SH_T0_St26random_access_iterator_tag_xa0
    _ZSt9__find_ifIN9__gnu_cxx17__normal_iteratorIPNSt7__cxx1112basic_stringIcSt11char_traitsIcESaIcEEESt6vectorIS7_SaIS7_EEEENS0_5__ops16_Iter_equals_valIKS7_EEET_SH_SH_T0_St26random_access_iterator_tag_x68:
    /*00000068*/ LDR         R3, [R4, #52]               @ 0x34 
    /*0000006c*/ CMP         R5, R3 
    /*00000070*/ BEQ         _ZSt9__find_ifIN9__gnu_cxx17__normal_iteratorIPNSt7__cxx1112basic_stringIcSt11char_traitsIcESaIcEEESt6vectorIS7_SaIS7_EEEENS0_5__ops16_Iter_equals_valIKS7_EEET_SH_SH_T0_St26random_access_iterator_tag_xc8
    _ZSt9__find_ifIN9__gnu_cxx17__normal_iteratorIPNSt7__cxx1112basic_stringIcSt11char_traitsIcESaIcEEESt6vectorIS7_SaIS7_EEEENS0_5__ops16_Iter_equals_valIKS7_EEET_SH_SH_T0_St26random_access_iterator_tag_x74:
    /*00000074*/ ADD         R6, R6, #96                 @ 0x60 
    /*00000078*/ ADD         R4, R4, #96                 @ 0x60 
    /*0000007c*/ CMP         R7, R6 
    /*00000080*/ BEQ         _ZSt9__find_ifIN9__gnu_cxx17__normal_iteratorIPNSt7__cxx1112basic_stringIcSt11char_traitsIcESaIcEEESt6vectorIS7_SaIS7_EEEENS0_5__ops16_Iter_equals_valIKS7_EEET_SH_SH_T0_St26random_access_iterator_tag_x158
    _ZSt9__find_ifIN9__gnu_cxx17__normal_iteratorIPNSt7__cxx1112basic_stringIcSt11char_traitsIcESaIcEEESt6vectorIS7_SaIS7_EEEENS0_5__ops16_Iter_equals_valIKS7_EEET_SH_SH_T0_St26random_access_iterator_tag_x84:
    /*00000084*/ LDR         R3, [R4, #-20]              @ 0xffffffec 
    /*00000088*/ CMP         R5, R3 
    /*0000008c*/ BNE         _ZSt9__find_ifIN9__gnu_cxx17__normal_iteratorIPNSt7__cxx1112basic_stringIcSt11char_traitsIcESaIcEEESt6vectorIS7_SaIS7_EEEENS0_5__ops16_Iter_equals_valIKS7_EEET_SH_SH_T0_St26random_access_iterator_tag_x50
    /*00000090*/ CMP         R5, #0 
    /*00000094*/ BNE         _ZSt9__find_ifIN9__gnu_cxx17__normal_iteratorIPNSt7__cxx1112basic_stringIcSt11char_traitsIcESaIcEEESt6vectorIS7_SaIS7_EEEENS0_5__ops16_Iter_equals_valIKS7_EEET_SH_SH_T0_St26random_access_iterator_tag_xd8
    _ZSt9__find_ifIN9__gnu_cxx17__normal_iteratorIPNSt7__cxx1112basic_stringIcSt11char_traitsIcESaIcEEESt6vectorIS7_SaIS7_EEEENS0_5__ops16_Iter_equals_valIKS7_EEET_SH_SH_T0_St26random_access_iterator_tag_x98:
    /*00000098*/ MOV         R0, R6 
    /*0000009c*/ POP         {R4, R5, R6, R7, R8, R9, SL, PC} 
    _ZSt9__find_ifIN9__gnu_cxx17__normal_iteratorIPNSt7__cxx1112basic_stringIcSt11char_traitsIcESaIcEEESt6vectorIS7_SaIS7_EEEENS0_5__ops16_Iter_equals_valIKS7_EEET_SH_SH_T0_St26random_access_iterator_tag_xa0:
    /*000000a0*/ CMP         R5, #0 
    /*000000a4*/ BNE         _ZSt9__find_ifIN9__gnu_cxx17__normal_iteratorIPNSt7__cxx1112basic_stringIcSt11char_traitsIcESaIcEEESt6vectorIS7_SaIS7_EEEENS0_5__ops16_Iter_equals_valIKS7_EEET_SH_SH_T0_St26random_access_iterator_tag_x1ac
    _ZSt9__find_ifIN9__gnu_cxx17__normal_iteratorIPNSt7__cxx1112basic_stringIcSt11char_traitsIcESaIcEEESt6vectorIS7_SaIS7_EEEENS0_5__ops16_Iter_equals_valIKS7_EEET_SH_SH_T0_St26random_access_iterator_tag_xa8:
    /*000000a8*/ ADD         R0, R6, #48                 @ 0x30 
    /*000000ac*/ POP         {R4, R5, R6, R7, R8, R9, SL, PC} 
    _ZSt9__find_ifIN9__gnu_cxx17__normal_iteratorIPNSt7__cxx1112basic_stringIcSt11char_traitsIcESaIcEEESt6vectorIS7_SaIS7_EEEENS0_5__ops16_Iter_equals_valIKS7_EEET_SH_SH_T0_St26random_access_iterator_tag_xb0:
    /*000000b0*/ LDR         R0, [R4] 
    /*000000b4*/ CMP         R5, #0 
    /*000000b8*/ LDR         SL, [R8] 
    /*000000bc*/ BNE         _ZSt9__find_ifIN9__gnu_cxx17__normal_iteratorIPNSt7__cxx1112basic_stringIcSt11char_traitsIcESaIcEEESt6vectorIS7_SaIS7_EEEENS0_5__ops16_Iter_equals_valIKS7_EEET_SH_SH_T0_St26random_access_iterator_tag_x190
    /*000000c0*/ MOV         R0, R4 
    /*000000c4*/ POP         {R4, R5, R6, R7, R8, R9, SL, PC} 
    _ZSt9__find_ifIN9__gnu_cxx17__normal_iteratorIPNSt7__cxx1112basic_stringIcSt11char_traitsIcESaIcEEESt6vectorIS7_SaIS7_EEEENS0_5__ops16_Iter_equals_valIKS7_EEET_SH_SH_T0_St26random_access_iterator_tag_xc8:
    /*000000c8*/ CMP         R5, #0 
    /*000000cc*/ BNE         _ZSt9__find_ifIN9__gnu_cxx17__normal_iteratorIPNSt7__cxx1112basic_stringIcSt11char_traitsIcESaIcEEESt6vectorIS7_SaIS7_EEEENS0_5__ops16_Iter_equals_valIKS7_EEET_SH_SH_T0_St26random_access_iterator_tag_x1b4
    _ZSt9__find_ifIN9__gnu_cxx17__normal_iteratorIPNSt7__cxx1112basic_stringIcSt11char_traitsIcESaIcEEESt6vectorIS7_SaIS7_EEEENS0_5__ops16_Iter_equals_valIKS7_EEET_SH_SH_T0_St26random_access_iterator_tag_xd0:
    /*000000d0*/ ADD         R0, R6, #72                 @ 0x48 
    /*000000d4*/ POP         {R4, R5, R6, R7, R8, R9, SL, PC} 
    _ZSt9__find_ifIN9__gnu_cxx17__normal_iteratorIPNSt7__cxx1112basic_stringIcSt11char_traitsIcESaIcEEESt6vectorIS7_SaIS7_EEEENS0_5__ops16_Iter_equals_valIKS7_EEET_SH_SH_T0_St26random_access_iterator_tag_xd8:
    /*000000d8*/ LDR         SL, [R8] 
    /*000000dc*/ MOV         R2, R5 
    /*000000e0*/ LDR         R0, [R4, #-24]              @ 0xffffffe8 
    /*000000e4*/ MOV         R1, SL 
    /*000000e8*/ BL          memcmp
    /*000000ec*/ CMP         R0, #0 
    /*000000f0*/ BEQ         _ZSt9__find_ifIN9__gnu_cxx17__normal_iteratorIPNSt7__cxx1112basic_stringIcSt11char_traitsIcESaIcEEESt6vectorIS7_SaIS7_EEEENS0_5__ops16_Iter_equals_valIKS7_EEET_SH_SH_T0_St26random_access_iterator_tag_x98
    /*000000f4*/ LDR         R3, [R4, #4] 
    /*000000f8*/ CMP         R5, R3 
    /*000000fc*/ BEQ         _ZSt9__find_ifIN9__gnu_cxx17__normal_iteratorIPNSt7__cxx1112basic_stringIcSt11char_traitsIcESaIcEEESt6vectorIS7_SaIS7_EEEENS0_5__ops16_Iter_equals_valIKS7_EEET_SH_SH_T0_St26random_access_iterator_tag_x18c
    /*00000100*/ LDR         R3, [R4, #28] 
    /*00000104*/ CMP         R5, R3 
    /*00000108*/ BNE         _ZSt9__find_ifIN9__gnu_cxx17__normal_iteratorIPNSt7__cxx1112basic_stringIcSt11char_traitsIcESaIcEEESt6vectorIS7_SaIS7_EEEENS0_5__ops16_Iter_equals_valIKS7_EEET_SH_SH_T0_St26random_access_iterator_tag_x68
    _ZSt9__find_ifIN9__gnu_cxx17__normal_iteratorIPNSt7__cxx1112basic_stringIcSt11char_traitsIcESaIcEEESt6vectorIS7_SaIS7_EEEENS0_5__ops16_Iter_equals_valIKS7_EEET_SH_SH_T0_St26random_access_iterator_tag_x10c:
    /*0000010c*/ LDR         R0, [R4, #24] 
    /*00000110*/ MOV         R2, R5 
    /*00000114*/ MOV         R1, SL 
    /*00000118*/ BL          memcmp
    /*0000011c*/ CMP         R0, #0 
    /*00000120*/ BEQ         _ZSt9__find_ifIN9__gnu_cxx17__normal_iteratorIPNSt7__cxx1112basic_stringIcSt11char_traitsIcESaIcEEESt6vectorIS7_SaIS7_EEEENS0_5__ops16_Iter_equals_valIKS7_EEET_SH_SH_T0_St26random_access_iterator_tag_xa8
    /*00000124*/ LDR         R3, [R4, #52]               @ 0x34 
    /*00000128*/ CMP         R5, R3 
    /*0000012c*/ BNE         _ZSt9__find_ifIN9__gnu_cxx17__normal_iteratorIPNSt7__cxx1112basic_stringIcSt11char_traitsIcESaIcEEESt6vectorIS7_SaIS7_EEEENS0_5__ops16_Iter_equals_valIKS7_EEET_SH_SH_T0_St26random_access_iterator_tag_x74
    _ZSt9__find_ifIN9__gnu_cxx17__normal_iteratorIPNSt7__cxx1112basic_stringIcSt11char_traitsIcESaIcEEESt6vectorIS7_SaIS7_EEEENS0_5__ops16_Iter_equals_valIKS7_EEET_SH_SH_T0_St26random_access_iterator_tag_x130:
    /*00000130*/ LDR         R0, [R4, #48]               @ 0x30 
    /*00000134*/ MOV         R1, SL 
    /*00000138*/ MOV         R2, R5 
    /*0000013c*/ BL          memcmp
    /*00000140*/ CMP         R0, #0 
    /*00000144*/ BEQ         _ZSt9__find_ifIN9__gnu_cxx17__normal_iteratorIPNSt7__cxx1112basic_stringIcSt11char_traitsIcESaIcEEESt6vectorIS7_SaIS7_EEEENS0_5__ops16_Iter_equals_valIKS7_EEET_SH_SH_T0_St26random_access_iterator_tag_xd0
    /*00000148*/ ADD         R6, R6, #96                 @ 0x60 
    /*0000014c*/ ADD         R4, R4, #96                 @ 0x60 
    /*00000150*/ CMP         R7, R6 
    /*00000154*/ BNE         _ZSt9__find_ifIN9__gnu_cxx17__normal_iteratorIPNSt7__cxx1112basic_stringIcSt11char_traitsIcESaIcEEESt6vectorIS7_SaIS7_EEEENS0_5__ops16_Iter_equals_valIKS7_EEET_SH_SH_T0_St26random_access_iterator_tag_x84
    _ZSt9__find_ifIN9__gnu_cxx17__normal_iteratorIPNSt7__cxx1112basic_stringIcSt11char_traitsIcESaIcEEESt6vectorIS7_SaIS7_EEEENS0_5__ops16_Iter_equals_valIKS7_EEET_SH_SH_T0_St26random_access_iterator_tag_x158:
    /*00000158*/ SUB         R2, R9, R7 
    /*0000015c*/ MOVW        R3, #43691                  @ 0xaaab 
    /*00000160*/ MOVT        R3, #43690                  @ 0xaaaa 
    /*00000164*/ ASR         R2, R2, #3 
    /*00000168*/ MUL         R3, R3, R2 
    _ZSt9__find_ifIN9__gnu_cxx17__normal_iteratorIPNSt7__cxx1112basic_stringIcSt11char_traitsIcESaIcEEESt6vectorIS7_SaIS7_EEEENS0_5__ops16_Iter_equals_valIKS7_EEET_SH_SH_T0_St26random_access_iterator_tag_x16c:
    /*0000016c*/ CMP         R3, #2 
    /*00000170*/ BEQ         _ZSt9__find_ifIN9__gnu_cxx17__normal_iteratorIPNSt7__cxx1112basic_stringIcSt11char_traitsIcESaIcEEESt6vectorIS7_SaIS7_EEEENS0_5__ops16_Iter_equals_valIKS7_EEET_SH_SH_T0_St26random_access_iterator_tag_x1bc
    /*00000174*/ CMP         R3, #3 
    /*00000178*/ BEQ         _ZSt9__find_ifIN9__gnu_cxx17__normal_iteratorIPNSt7__cxx1112basic_stringIcSt11char_traitsIcESaIcEEESt6vectorIS7_SaIS7_EEEENS0_5__ops16_Iter_equals_valIKS7_EEET_SH_SH_T0_St26random_access_iterator_tag_x20c
    /*0000017c*/ CMP         R3, #1 
    /*00000180*/ BEQ         _ZSt9__find_ifIN9__gnu_cxx17__normal_iteratorIPNSt7__cxx1112basic_stringIcSt11char_traitsIcESaIcEEESt6vectorIS7_SaIS7_EEEENS0_5__ops16_Iter_equals_valIKS7_EEET_SH_SH_T0_St26random_access_iterator_tag_x204
    _ZSt9__find_ifIN9__gnu_cxx17__normal_iteratorIPNSt7__cxx1112basic_stringIcSt11char_traitsIcESaIcEEESt6vectorIS7_SaIS7_EEEENS0_5__ops16_Iter_equals_valIKS7_EEET_SH_SH_T0_St26random_access_iterator_tag_x184:
    /*00000184*/ MOV         R0, R9 
    /*00000188*/ POP         {R4, R5, R6, R7, R8, R9, SL, PC} 
    _ZSt9__find_ifIN9__gnu_cxx17__normal_iteratorIPNSt7__cxx1112basic_stringIcSt11char_traitsIcESaIcEEESt6vectorIS7_SaIS7_EEEENS0_5__ops16_Iter_equals_valIKS7_EEET_SH_SH_T0_St26random_access_iterator_tag_x18c:
    /*0000018c*/ LDR         R0, [R4] 
    _ZSt9__find_ifIN9__gnu_cxx17__normal_iteratorIPNSt7__cxx1112basic_stringIcSt11char_traitsIcESaIcEEESt6vectorIS7_SaIS7_EEEENS0_5__ops16_Iter_equals_valIKS7_EEET_SH_SH_T0_St26random_access_iterator_tag_x190:
    /*00000190*/ MOV         R1, SL 
    /*00000194*/ MOV         R2, R5 
    /*00000198*/ BL          memcmp
    /*0000019c*/ CMP         R0, #0 
    /*000001a0*/ BNE         _ZSt9__find_ifIN9__gnu_cxx17__normal_iteratorIPNSt7__cxx1112basic_stringIcSt11char_traitsIcESaIcEEESt6vectorIS7_SaIS7_EEEENS0_5__ops16_Iter_equals_valIKS7_EEET_SH_SH_T0_St26random_access_iterator_tag_x5c
    /*000001a4*/ MOV         R0, R4 
    /*000001a8*/ POP         {R4, R5, R6, R7, R8, R9, SL, PC} 
    _ZSt9__find_ifIN9__gnu_cxx17__normal_iteratorIPNSt7__cxx1112basic_stringIcSt11char_traitsIcESaIcEEESt6vectorIS7_SaIS7_EEEENS0_5__ops16_Iter_equals_valIKS7_EEET_SH_SH_T0_St26random_access_iterator_tag_x1ac:
    /*000001ac*/ LDR         SL, [R8] 
    /*000001b0*/ B           _ZSt9__find_ifIN9__gnu_cxx17__normal_iteratorIPNSt7__cxx1112basic_stringIcSt11char_traitsIcESaIcEEESt6vectorIS7_SaIS7_EEEENS0_5__ops16_Iter_equals_valIKS7_EEET_SH_SH_T0_St26random_access_iterator_tag_x10c
    _ZSt9__find_ifIN9__gnu_cxx17__normal_iteratorIPNSt7__cxx1112basic_stringIcSt11char_traitsIcESaIcEEESt6vectorIS7_SaIS7_EEEENS0_5__ops16_Iter_equals_valIKS7_EEET_SH_SH_T0_St26random_access_iterator_tag_x1b4:
    /*000001b4*/ LDR         SL, [R8] 
    /*000001b8*/ B           _ZSt9__find_ifIN9__gnu_cxx17__normal_iteratorIPNSt7__cxx1112basic_stringIcSt11char_traitsIcESaIcEEESt6vectorIS7_SaIS7_EEEENS0_5__ops16_Iter_equals_valIKS7_EEET_SH_SH_T0_St26random_access_iterator_tag_x130
    _ZSt9__find_ifIN9__gnu_cxx17__normal_iteratorIPNSt7__cxx1112basic_stringIcSt11char_traitsIcESaIcEEESt6vectorIS7_SaIS7_EEEENS0_5__ops16_Iter_equals_valIKS7_EEET_SH_SH_T0_St26random_access_iterator_tag_x1bc:
    /*000001bc*/ LDR         R4, [R8, #4] 
    _ZSt9__find_ifIN9__gnu_cxx17__normal_iteratorIPNSt7__cxx1112basic_stringIcSt11char_traitsIcESaIcEEESt6vectorIS7_SaIS7_EEEENS0_5__ops16_Iter_equals_valIKS7_EEET_SH_SH_T0_St26random_access_iterator_tag_x1c0:
    /*000001c0*/ LDR         R3, [R7, #4] 
    /*000001c4*/ CMP         R3, R4 
    /*000001c8*/ BEQ         _ZSt9__find_ifIN9__gnu_cxx17__normal_iteratorIPNSt7__cxx1112basic_stringIcSt11char_traitsIcESaIcEEESt6vectorIS7_SaIS7_EEEENS0_5__ops16_Iter_equals_valIKS7_EEET_SH_SH_T0_St26random_access_iterator_tag_x248
    _ZSt9__find_ifIN9__gnu_cxx17__normal_iteratorIPNSt7__cxx1112basic_stringIcSt11char_traitsIcESaIcEEESt6vectorIS7_SaIS7_EEEENS0_5__ops16_Iter_equals_valIKS7_EEET_SH_SH_T0_St26random_access_iterator_tag_x1cc:
    /*000001cc*/ ADD         R7, R7, #24 
    _ZSt9__find_ifIN9__gnu_cxx17__normal_iteratorIPNSt7__cxx1112basic_stringIcSt11char_traitsIcESaIcEEESt6vectorIS7_SaIS7_EEEENS0_5__ops16_Iter_equals_valIKS7_EEET_SH_SH_T0_St26random_access_iterator_tag_x1d0:
    /*000001d0*/ LDR         R3, [R7, #4] 
    /*000001d4*/ CMP         R3, R4 
    /*000001d8*/ BNE         _ZSt9__find_ifIN9__gnu_cxx17__normal_iteratorIPNSt7__cxx1112basic_stringIcSt11char_traitsIcESaIcEEESt6vectorIS7_SaIS7_EEEENS0_5__ops16_Iter_equals_valIKS7_EEET_SH_SH_T0_St26random_access_iterator_tag_x184
    /*000001dc*/ CMP         R4, #0 
    /*000001e0*/ BEQ         _ZSt9__find_ifIN9__gnu_cxx17__normal_iteratorIPNSt7__cxx1112basic_stringIcSt11char_traitsIcESaIcEEESt6vectorIS7_SaIS7_EEEENS0_5__ops16_Iter_equals_valIKS7_EEET_SH_SH_T0_St26random_access_iterator_tag_x1fc
    /*000001e4*/ LDR         R1, [R8] 
    /*000001e8*/ MOV         R2, R4 
    /*000001ec*/ LDR         R0, [R7] 
    /*000001f0*/ BL          memcmp
    /*000001f4*/ CMP         R0, #0 
    /*000001f8*/ BNE         _ZSt9__find_ifIN9__gnu_cxx17__normal_iteratorIPNSt7__cxx1112basic_stringIcSt11char_traitsIcESaIcEEESt6vectorIS7_SaIS7_EEEENS0_5__ops16_Iter_equals_valIKS7_EEET_SH_SH_T0_St26random_access_iterator_tag_x184
    _ZSt9__find_ifIN9__gnu_cxx17__normal_iteratorIPNSt7__cxx1112basic_stringIcSt11char_traitsIcESaIcEEESt6vectorIS7_SaIS7_EEEENS0_5__ops16_Iter_equals_valIKS7_EEET_SH_SH_T0_St26random_access_iterator_tag_x1fc:
    /*000001fc*/ MOV         R0, R7 
    /*00000200*/ POP         {R4, R5, R6, R7, R8, R9, SL, PC} 
    _ZSt9__find_ifIN9__gnu_cxx17__normal_iteratorIPNSt7__cxx1112basic_stringIcSt11char_traitsIcESaIcEEESt6vectorIS7_SaIS7_EEEENS0_5__ops16_Iter_equals_valIKS7_EEET_SH_SH_T0_St26random_access_iterator_tag_x204:
    /*00000204*/ LDR         R4, [R8, #4] 
    /*00000208*/ B           _ZSt9__find_ifIN9__gnu_cxx17__normal_iteratorIPNSt7__cxx1112basic_stringIcSt11char_traitsIcESaIcEEESt6vectorIS7_SaIS7_EEEENS0_5__ops16_Iter_equals_valIKS7_EEET_SH_SH_T0_St26random_access_iterator_tag_x1d0
    _ZSt9__find_ifIN9__gnu_cxx17__normal_iteratorIPNSt7__cxx1112basic_stringIcSt11char_traitsIcESaIcEEESt6vectorIS7_SaIS7_EEEENS0_5__ops16_Iter_equals_valIKS7_EEET_SH_SH_T0_St26random_access_iterator_tag_x20c:
    /*0000020c*/ LDR         R4, [R8, #4] 
    /*00000210*/ LDR         R3, [R7, #4] 
    /*00000214*/ CMP         R3, R4 
    /*00000218*/ BEQ         _ZSt9__find_ifIN9__gnu_cxx17__normal_iteratorIPNSt7__cxx1112basic_stringIcSt11char_traitsIcESaIcEEESt6vectorIS7_SaIS7_EEEENS0_5__ops16_Iter_equals_valIKS7_EEET_SH_SH_T0_St26random_access_iterator_tag_x224
    _ZSt9__find_ifIN9__gnu_cxx17__normal_iteratorIPNSt7__cxx1112basic_stringIcSt11char_traitsIcESaIcEEESt6vectorIS7_SaIS7_EEEENS0_5__ops16_Iter_equals_valIKS7_EEET_SH_SH_T0_St26random_access_iterator_tag_x21c:
    /*0000021c*/ ADD         R7, R7, #24 
    /*00000220*/ B           _ZSt9__find_ifIN9__gnu_cxx17__normal_iteratorIPNSt7__cxx1112basic_stringIcSt11char_traitsIcESaIcEEESt6vectorIS7_SaIS7_EEEENS0_5__ops16_Iter_equals_valIKS7_EEET_SH_SH_T0_St26random_access_iterator_tag_x1c0
    _ZSt9__find_ifIN9__gnu_cxx17__normal_iteratorIPNSt7__cxx1112basic_stringIcSt11char_traitsIcESaIcEEESt6vectorIS7_SaIS7_EEEENS0_5__ops16_Iter_equals_valIKS7_EEET_SH_SH_T0_St26random_access_iterator_tag_x224:
    /*00000224*/ CMP         R4, #0 
    /*00000228*/ BEQ         _ZSt9__find_ifIN9__gnu_cxx17__normal_iteratorIPNSt7__cxx1112basic_stringIcSt11char_traitsIcESaIcEEESt6vectorIS7_SaIS7_EEEENS0_5__ops16_Iter_equals_valIKS7_EEET_SH_SH_T0_St26random_access_iterator_tag_x1fc
    /*0000022c*/ LDR         R1, [R8] 
    /*00000230*/ MOV         R2, R4 
    /*00000234*/ LDR         R0, [R7] 
    /*00000238*/ BL          memcmp
    /*0000023c*/ CMP         R0, #0 
    /*00000240*/ BNE         _ZSt9__find_ifIN9__gnu_cxx17__normal_iteratorIPNSt7__cxx1112basic_stringIcSt11char_traitsIcESaIcEEESt6vectorIS7_SaIS7_EEEENS0_5__ops16_Iter_equals_valIKS7_EEET_SH_SH_T0_St26random_access_iterator_tag_x21c
    /*00000244*/ B           _ZSt9__find_ifIN9__gnu_cxx17__normal_iteratorIPNSt7__cxx1112basic_stringIcSt11char_traitsIcESaIcEEESt6vectorIS7_SaIS7_EEEENS0_5__ops16_Iter_equals_valIKS7_EEET_SH_SH_T0_St26random_access_iterator_tag_x1fc
    _ZSt9__find_ifIN9__gnu_cxx17__normal_iteratorIPNSt7__cxx1112basic_stringIcSt11char_traitsIcESaIcEEESt6vectorIS7_SaIS7_EEEENS0_5__ops16_Iter_equals_valIKS7_EEET_SH_SH_T0_St26random_access_iterator_tag_x248:
    /*00000248*/ CMP         R4, #0 
    /*0000024c*/ BEQ         _ZSt9__find_ifIN9__gnu_cxx17__normal_iteratorIPNSt7__cxx1112basic_stringIcSt11char_traitsIcESaIcEEESt6vectorIS7_SaIS7_EEEENS0_5__ops16_Iter_equals_valIKS7_EEET_SH_SH_T0_St26random_access_iterator_tag_x1fc
    /*00000250*/ LDR         R1, [R8] 
    /*00000254*/ MOV         R2, R4 
    /*00000258*/ LDR         R0, [R7] 
    /*0000025c*/ BL          memcmp
    /*00000260*/ CMP         R0, #0 
    /*00000264*/ BNE         _ZSt9__find_ifIN9__gnu_cxx17__normal_iteratorIPNSt7__cxx1112basic_stringIcSt11char_traitsIcESaIcEEESt6vectorIS7_SaIS7_EEEENS0_5__ops16_Iter_equals_valIKS7_EEET_SH_SH_T0_St26random_access_iterator_tag_x1cc
    /*00000268*/ B           _ZSt9__find_ifIN9__gnu_cxx17__normal_iteratorIPNSt7__cxx1112basic_stringIcSt11char_traitsIcESaIcEEESt6vectorIS7_SaIS7_EEEENS0_5__ops16_Iter_equals_valIKS7_EEET_SH_SH_T0_St26random_access_iterator_tag_x1fc
    _ZSt9__find_ifIN9__gnu_cxx17__normal_iteratorIPNSt7__cxx1112basic_stringIcSt11char_traitsIcESaIcEEESt6vectorIS7_SaIS7_EEEENS0_5__ops16_Iter_equals_valIKS7_EEET_SH_SH_T0_St26random_access_iterator_tag_x26c:
    /*0000026c*/ MOV         R7, R0 
    /*00000270*/ B           _ZSt9__find_ifIN9__gnu_cxx17__normal_iteratorIPNSt7__cxx1112basic_stringIcSt11char_traitsIcESaIcEEESt6vectorIS7_SaIS7_EEEENS0_5__ops16_Iter_equals_valIKS7_EEET_SH_SH_T0_St26random_access_iterator_tag_x16c
FUNC_END _ZSt9__find_ifIN9__gnu_cxx17__normal_iteratorIPNSt7__cxx1112basic_stringIcSt11char_traitsIcESaIcEEESt6vectorIS7_SaIS7_EEEENS0_5__ops16_Iter_equals_valIKS7_EEET_SH_SH_T0_St26random_access_iterator_tag


@ - - - - - - - - - - - - - - - - - - - - - - - - - - - - - 
@ .text._ZN4hirt12ModelManager8addModelEPK17HIRT_MODEL_INFO_SRNS_16tagMODEL_MODEL_SEPNS_19GroupIndexContainerE
@ Size: 0xff8
@ - - - - - - - - - - - - - - - - - - - - - - - - - - - - - 

FUNC_BEGIN _ZN4hirt12ModelManager8addModelEPK17HIRT_MODEL_INFO_SRNS_16tagMODEL_MODEL_SEPNS_19GroupIndexContainerE
    /*00000000*/ MOV         IP, #16384                  @ 0x4000 
    /*00000004*/ PUSH        {R4, R5, R6, R7, R8, R9, SL, FP, LR} 
    /*00000008*/ SUB         IP, SP, IP 
    /*0000000c*/ STR         R0, [IP, #3888]             @ 0xf30 
    /*00000010*/ LDR         R4, WORD_0f00               @ LDR         R4, [PC, #3816]             @ 0x0000000000000f00 
    /*00000014*/ SUB         SP, SP, #172                @ 0xac 
    /*00000018*/ ADD         IP, SP, #76                 @ 0x4c 
    /*0000001c*/ MOV         R7, R0 
    /*00000020*/ STR         IP, [SP, #24] 
    /*00000024*/ MOV         LR, IP 
    /*00000028*/ ADD         R4, PC, R4 
    /*0000002c*/ MOV         R8, R1 
    /*00000030*/ LDR         IP, WORD_0f04               @ LDR         IP, [PC, #3788]             @ 0x0000000000000f04 
    /*00000034*/ MOV         R9, R3 
    /*00000038*/ LDR         R0, [R4, IP] 
    /*0000003c*/ STR         R2, [SP, #32] 
    /*00000040*/ LDR         R1, [R0] 
    /*00000044*/ STR         R0, [SP, #28] 
    /*00000048*/ MOV         R0, LR 
    /*0000004c*/ STR         R1, [SP, #164]              @ 0xa4 
    /*00000050*/ MOV         R1, #0 
    /*00000054*/ STR         R1, [SP, #72]               @ 0x48 
    /*00000058*/ BL          _ZN4hirt13WKModelLoaderC1Ev
    /*0000005c*/ CMP         R8, #0 
    /*00000060*/ BEQ         _ZN4hirt12ModelManager8addModelEPK17HIRT_MODEL_INFO_SRNS_16tagMODEL_MODEL_SEPNS_19GroupIndexContainerE_x3e8
    /*00000064*/ LDR         R3, [R8, #128]              @ 0x80 
    /*00000068*/ TST         R3, #15 
    /*0000006c*/ BNE         _ZN4hirt12ModelManager8addModelEPK17HIRT_MODEL_INFO_SRNS_16tagMODEL_MODEL_SEPNS_19GroupIndexContainerE_xe0
    /*00000070*/ LDRD        R2, [R8, #120]              @ 0x78 
    /*00000074*/ ORRS        R3, R2, R3 
    /*00000078*/ BEQ         _ZN4hirt12ModelManager8addModelEPK17HIRT_MODEL_INFO_SRNS_16tagMODEL_MODEL_SEPNS_19GroupIndexContainerE_x338
    /*0000007c*/ LDRD        R2, [R8, #112]              @ 0x70 
    /*00000080*/ ORRS        R3, R2, R3 
    /*00000084*/ BNE         _ZN4hirt12ModelManager8addModelEPK17HIRT_MODEL_INFO_SRNS_16tagMODEL_MODEL_SEPNS_19GroupIndexContainerE_xfc
    /*00000088*/ LDR         R2, WORD_0f08               @ LDR         R2, [PC, #3704]             @ 0x0000000000000f08 
    /*0000008c*/ MOV         R1, #4 
    /*00000090*/ LDR         R0, WORD_0f0c               @ LDR         R0, [PC, #3700]             @ 0x0000000000000f0c 
    /*00000094*/ ADD         R2, PC, R2 
    /*00000098*/ ADD         R0, PC, R0 
    /*0000009c*/ BL          _Z15HIRT_LOG_PrintfPKc19tagHIRT_LOG_LEVEL_ES0_z
    _ZN4hirt12ModelManager8addModelEPK17HIRT_MODEL_INFO_SRNS_16tagMODEL_MODEL_SEPNS_19GroupIndexContainerE_xa0:
    /*000000a0*/ MVN         R3, #0 
    /*000000a4*/ STR         R3, [SP, #20] 
    _ZN4hirt12ModelManager8addModelEPK17HIRT_MODEL_INFO_SRNS_16tagMODEL_MODEL_SEPNS_19GroupIndexContainerE_xa8:
    /*000000a8*/ LDR         R3, WORD_0f10               @ LDR         R3, [PC, #3680]             @ 0x0000000000000f10 
    /*000000ac*/ LDR         R0, [SP, #24] 
    /*000000b0*/ ADD         R3, PC, R3 
    /*000000b4*/ ADD         R3, R3, #8 
    /*000000b8*/ STR         R3, [SP, #76]               @ 0x4c 
    /*000000bc*/ BL          _ZN4hirt11ModelLoaderD2Ev
    /*000000c0*/ LDR         R3, [SP, #28] 
    /*000000c4*/ LDR         R2, [SP, #164]              @ 0xa4 
    /*000000c8*/ LDR         R3, [R3] 
    /*000000cc*/ LDR         R0, [SP, #20] 
    /*000000d0*/ CMP         R2, R3 
    /*000000d4*/ BNE         _ZN4hirt12ModelManager8addModelEPK17HIRT_MODEL_INFO_SRNS_16tagMODEL_MODEL_SEPNS_19GroupIndexContainerE_xe80
    /*000000d8*/ ADD         SP, SP, #172                @ 0xac 
    /*000000dc*/ POP         {R4, R5, R6, R7, R8, R9, SL, FP, PC} 
    _ZN4hirt12ModelManager8addModelEPK17HIRT_MODEL_INFO_SRNS_16tagMODEL_MODEL_SEPNS_19GroupIndexContainerE_xe0:
    /*000000e0*/ LDR         R2, WORD_0f14               @ LDR         R2, [PC, #3628]             @ 0x0000000000000f14 
    /*000000e4*/ MOV         R1, #4 
    /*000000e8*/ LDR         R0, WORD_0f18               @ LDR         R0, [PC, #3624]             @ 0x0000000000000f18 
    /*000000ec*/ ADD         R2, PC, R2 
    /*000000f0*/ ADD         R0, PC, R0 
    /*000000f4*/ BL          _Z15HIRT_LOG_PrintfPKc19tagHIRT_LOG_LEVEL_ES0_z
    /*000000f8*/ B           _ZN4hirt12ModelManager8addModelEPK17HIRT_MODEL_INFO_SRNS_16tagMODEL_MODEL_SEPNS_19GroupIndexContainerE_xa0
    _ZN4hirt12ModelManager8addModelEPK17HIRT_MODEL_INFO_SRNS_16tagMODEL_MODEL_SEPNS_19GroupIndexContainerE_xfc:
    /*000000fc*/ LDR         R3, WORD_0f1c               @ LDR         R3, [PC, #3608]             @ 0x0000000000000f1c 
    /*00000100*/ LDR         R3, [R4, R3] 
    /*00000104*/ STR         R3, [SP, #36]               @ 0x24 
    /*00000108*/ CMP         R3, #0 
    /*0000010c*/ BEQ         _ZN4hirt12ModelManager8addModelEPK17HIRT_MODEL_INFO_SRNS_16tagMODEL_MODEL_SEPNS_19GroupIndexContainerE_x124
    /*00000110*/ LDR         R0, WORD_0f20               @ LDR         R0, [PC, #3592]             @ 0x0000000000000f20 
    /*00000114*/ ADD         R0, PC, R0 
    /*00000118*/ BL          pthread_mutex_lock
    /*0000011c*/ CMP         R0, #0 
    /*00000120*/ BNE         _ZN4hirt12ModelManager8addModelEPK17HIRT_MODEL_INFO_SRNS_16tagMODEL_MODEL_SEPNS_19GroupIndexContainerE_xeb0
    _ZN4hirt12ModelManager8addModelEPK17HIRT_MODEL_INFO_SRNS_16tagMODEL_MODEL_SEPNS_19GroupIndexContainerE_x124:
    /*00000124*/ LDR         R3, WORD_0f24               @ LDR         R3, [PC, #3576]             @ 0x0000000000000f24 
    /*00000128*/ ADD         R3, PC, R3 
    /*0000012c*/ LDR         SL, [R3] 
    /*00000130*/ LDR         R5, [R3, #4] 
    /*00000134*/ CMP         SL, R5 
    /*00000138*/ BEQ         _ZN4hirt12ModelManager8addModelEPK17HIRT_MODEL_INFO_SRNS_16tagMODEL_MODEL_SEPNS_19GroupIndexContainerE_x354
    /*0000013c*/ ADD         R6, R8, #8 
    /*00000140*/ B           _ZN4hirt12ModelManager8addModelEPK17HIRT_MODEL_INFO_SRNS_16tagMODEL_MODEL_SEPNS_19GroupIndexContainerE_x14c
    _ZN4hirt12ModelManager8addModelEPK17HIRT_MODEL_INFO_SRNS_16tagMODEL_MODEL_SEPNS_19GroupIndexContainerE_x144:
    /*00000144*/ CMP         R5, SL 
    /*00000148*/ BEQ         _ZN4hirt12ModelManager8addModelEPK17HIRT_MODEL_INFO_SRNS_16tagMODEL_MODEL_SEPNS_19GroupIndexContainerE_x354
    _ZN4hirt12ModelManager8addModelEPK17HIRT_MODEL_INFO_SRNS_16tagMODEL_MODEL_SEPNS_19GroupIndexContainerE_x14c:
    /*0000014c*/ LDR         R3, [SL], #4 
    /*00000150*/ MOV         R2, #64                     @ 0x40 
    /*00000154*/ MOV         R1, R6 
    /*00000158*/ LDR         R3, [R3] 
    /*0000015c*/ LDR         R0, [R3] 
    /*00000160*/ ADD         R0, R0, #8 
    /*00000164*/ BL          strncmp
    /*00000168*/ CMP         R0, #0 
    /*0000016c*/ BNE         _ZN4hirt12ModelManager8addModelEPK17HIRT_MODEL_INFO_SRNS_16tagMODEL_MODEL_SEPNS_19GroupIndexContainerE_x144
    /*00000170*/ LDR         R2, WORD_0f28               @ LDR         R2, [PC, #3504]             @ 0x0000000000000f28 
    /*00000174*/ MOV         R1, #4 
    /*00000178*/ LDR         R0, WORD_0f2c               @ LDR         R0, [PC, #3500]             @ 0x0000000000000f2c 
    /*0000017c*/ ADD         R2, PC, R2 
    /*00000180*/ ADD         R0, PC, R0 
    /*00000184*/ BL          _Z15HIRT_LOG_PrintfPKc19tagHIRT_LOG_LEVEL_ES0_z
    _ZN4hirt12ModelManager8addModelEPK17HIRT_MODEL_INFO_SRNS_16tagMODEL_MODEL_SEPNS_19GroupIndexContainerE_x188:
    /*00000188*/ MOV         R5, #0 
    /*0000018c*/ MOV         R6, R5 
    _ZN4hirt12ModelManager8addModelEPK17HIRT_MODEL_INFO_SRNS_16tagMODEL_MODEL_SEPNS_19GroupIndexContainerE_x190:
    /*00000190*/ LDR         R3, [SP, #36]               @ 0x24 
    /*00000194*/ CMP         R3, #0 
    /*00000198*/ BEQ         _ZN4hirt12ModelManager8addModelEPK17HIRT_MODEL_INFO_SRNS_16tagMODEL_MODEL_SEPNS_19GroupIndexContainerE_x404
    /*0000019c*/ LDR         R0, WORD_0f30               @ LDR         R0, [PC, #3468]             @ 0x0000000000000f30 
    /*000001a0*/ MOV         R4, #0 
    /*000001a4*/ ADD         R0, PC, R0 
    /*000001a8*/ BL          pthread_mutex_unlock
    _ZN4hirt12ModelManager8addModelEPK17HIRT_MODEL_INFO_SRNS_16tagMODEL_MODEL_SEPNS_19GroupIndexContainerE_x1ac:
    /*000001ac*/ LDR         R0, WORD_0f34               @ LDR         R0, [PC, #3456]             @ 0x0000000000000f34 
    /*000001b0*/ ADD         R0, PC, R0 
    /*000001b4*/ BL          pthread_mutex_lock
    /*000001b8*/ CMP         R0, #0 
    /*000001bc*/ BNE         _ZN4hirt12ModelManager8addModelEPK17HIRT_MODEL_INFO_SRNS_16tagMODEL_MODEL_SEPNS_19GroupIndexContainerE_xeac
    /*000001c0*/ LDR         R3, WORD_0f38               @ LDR         R3, [PC, #3440]             @ 0x0000000000000f38 
    /*000001c4*/ ADD         R3, PC, R3 
    /*000001c8*/ LDM         R3, {R0, IP} 
    /*000001cc*/ CMP         R0, IP 
    /*000001d0*/ BEQ         _ZN4hirt12ModelManager8addModelEPK17HIRT_MODEL_INFO_SRNS_16tagMODEL_MODEL_SEPNS_19GroupIndexContainerE_x214
    _ZN4hirt12ModelManager8addModelEPK17HIRT_MODEL_INFO_SRNS_16tagMODEL_MODEL_SEPNS_19GroupIndexContainerE_x1d4:
    /*000001d4*/ LDR         R3, [R0] 
    /*000001d8*/ LDR         R1, [SP, #72]               @ 0x48 
    /*000001dc*/ CMP         R1, R3 
    /*000001e0*/ ADDNE       R3, R0, #4 
    /*000001e4*/ BNE         _ZN4hirt12ModelManager8addModelEPK17HIRT_MODEL_INFO_SRNS_16tagMODEL_MODEL_SEPNS_19GroupIndexContainerE_x1fc
    /*000001e8*/ B           _ZN4hirt12ModelManager8addModelEPK17HIRT_MODEL_INFO_SRNS_16tagMODEL_MODEL_SEPNS_19GroupIndexContainerE_x3bc
    _ZN4hirt12ModelManager8addModelEPK17HIRT_MODEL_INFO_SRNS_16tagMODEL_MODEL_SEPNS_19GroupIndexContainerE_x1ec:
    /*000001ec*/ LDR         R2, [R0] 
    /*000001f0*/ ADD         R3, R3, #4 
    /*000001f4*/ CMP         R2, R1 
    /*000001f8*/ BEQ         _ZN4hirt12ModelManager8addModelEPK17HIRT_MODEL_INFO_SRNS_16tagMODEL_MODEL_SEPNS_19GroupIndexContainerE_x3bc
    _ZN4hirt12ModelManager8addModelEPK17HIRT_MODEL_INFO_SRNS_16tagMODEL_MODEL_SEPNS_19GroupIndexContainerE_x1fc:
    /*000001fc*/ CMP         R3, IP 
    /*00000200*/ MOV         R0, R3 
    /*00000204*/ BNE         _ZN4hirt12ModelManager8addModelEPK17HIRT_MODEL_INFO_SRNS_16tagMODEL_MODEL_SEPNS_19GroupIndexContainerE_x1ec
    _ZN4hirt12ModelManager8addModelEPK17HIRT_MODEL_INFO_SRNS_16tagMODEL_MODEL_SEPNS_19GroupIndexContainerE_x208:
    /*00000208*/ LDR         R3, [SP, #36]               @ 0x24 
    /*0000020c*/ CMP         R3, #0 
    /*00000210*/ BEQ         _ZN4hirt12ModelManager8addModelEPK17HIRT_MODEL_INFO_SRNS_16tagMODEL_MODEL_SEPNS_19GroupIndexContainerE_x220
    _ZN4hirt12ModelManager8addModelEPK17HIRT_MODEL_INFO_SRNS_16tagMODEL_MODEL_SEPNS_19GroupIndexContainerE_x214:
    /*00000214*/ LDR         R0, WORD_0f3c               @ LDR         R0, [PC, #3360]             @ 0x0000000000000f3c 
    /*00000218*/ ADD         R0, PC, R0 
    /*0000021c*/ BL          pthread_mutex_unlock
    _ZN4hirt12ModelManager8addModelEPK17HIRT_MODEL_INFO_SRNS_16tagMODEL_MODEL_SEPNS_19GroupIndexContainerE_x220:
    /*00000220*/ CMP         R6, #0 
    /*00000224*/ BEQ         _ZN4hirt12ModelManager8addModelEPK17HIRT_MODEL_INFO_SRNS_16tagMODEL_MODEL_SEPNS_19GroupIndexContainerE_x234
    _ZN4hirt12ModelManager8addModelEPK17HIRT_MODEL_INFO_SRNS_16tagMODEL_MODEL_SEPNS_19GroupIndexContainerE_x228:
    /*00000228*/ MOV         R0, R6 
    /*0000022c*/ MOV         R1, #76                     @ 0x4c 
    /*00000230*/ BL          _ZdlPvj
    _ZN4hirt12ModelManager8addModelEPK17HIRT_MODEL_INFO_SRNS_16tagMODEL_MODEL_SEPNS_19GroupIndexContainerE_x234:
    /*00000234*/ CMP         R5, #0 
    /*00000238*/ BEQ         _ZN4hirt12ModelManager8addModelEPK17HIRT_MODEL_INFO_SRNS_16tagMODEL_MODEL_SEPNS_19GroupIndexContainerE_x248
    /*0000023c*/ MOV         R0, R5 
    /*00000240*/ MOV         R1, #8 
    /*00000244*/ BL          _ZdlPvj
    _ZN4hirt12ModelManager8addModelEPK17HIRT_MODEL_INFO_SRNS_16tagMODEL_MODEL_SEPNS_19GroupIndexContainerE_x248:
    /*00000248*/ LDR         R0, [SP, #72]               @ 0x48 
    /*0000024c*/ CMP         R0, #0 
    /*00000250*/ BEQ         _ZN4hirt12ModelManager8addModelEPK17HIRT_MODEL_INFO_SRNS_16tagMODEL_MODEL_SEPNS_19GroupIndexContainerE_x264
    /*00000254*/ MOV         R1, #12 
    /*00000258*/ BL          _ZdlPvj
    /*0000025c*/ MOV         R3, #0 
    /*00000260*/ STR         R3, [SP, #72]               @ 0x48 
    _ZN4hirt12ModelManager8addModelEPK17HIRT_MODEL_INFO_SRNS_16tagMODEL_MODEL_SEPNS_19GroupIndexContainerE_x264:
    /*00000264*/ CMP         R4, #0 
    /*00000268*/ BEQ         _ZN4hirt12ModelManager8addModelEPK17HIRT_MODEL_INFO_SRNS_16tagMODEL_MODEL_SEPNS_19GroupIndexContainerE_xa0
    /*0000026c*/ LDR         R0, [R4, #4] 
    /*00000270*/ CMP         R0, #0 
    /*00000274*/ BEQ         _ZN4hirt12ModelManager8addModelEPK17HIRT_MODEL_INFO_SRNS_16tagMODEL_MODEL_SEPNS_19GroupIndexContainerE_x284
    /*00000278*/ BL          free
    /*0000027c*/ MOV         R3, #0 
    /*00000280*/ STR         R3, [R4, #4] 
    _ZN4hirt12ModelManager8addModelEPK17HIRT_MODEL_INFO_SRNS_16tagMODEL_MODEL_SEPNS_19GroupIndexContainerE_x284:
    /*00000284*/ LDR         R5, [R4] 
    /*00000288*/ CMP         R5, #0 
    /*0000028c*/ BEQ         _ZN4hirt12ModelManager8addModelEPK17HIRT_MODEL_INFO_SRNS_16tagMODEL_MODEL_SEPNS_19GroupIndexContainerE_x320
    /*00000290*/ LDR         R2, [R5] 
    /*00000294*/ LDR         R3, WORD_0f40               @ LDR         R3, [PC, #3236]             @ 0x0000000000000f40 
    /*00000298*/ LDR         R2, [R2, #4] 
    /*0000029c*/ ADD         R3, PC, R3 
    /*000002a0*/ CMP         R2, R3 
    /*000002a4*/ BNE         _ZN4hirt12ModelManager8addModelEPK17HIRT_MODEL_INFO_SRNS_16tagMODEL_MODEL_SEPNS_19GroupIndexContainerE_x560
    /*000002a8*/ LDR         R0, [R5, #116]              @ 0x74 
    /*000002ac*/ ADD         R2, R5, #124                @ 0x7c 
    /*000002b0*/ LDR         R3, WORD_0f44               @ LDR         R3, [PC, #3212]             @ 0x0000000000000f44 
    /*000002b4*/ CMP         R0, R2 
    /*000002b8*/ ADD         R3, PC, R3 
    /*000002bc*/ ADD         R3, R3, #8 
    /*000002c0*/ STR         R3, [R5] 
    /*000002c4*/ BEQ         _ZN4hirt12ModelManager8addModelEPK17HIRT_MODEL_INFO_SRNS_16tagMODEL_MODEL_SEPNS_19GroupIndexContainerE_x2cc
    /*000002c8*/ BL          _ZdlPv
    _ZN4hirt12ModelManager8addModelEPK17HIRT_MODEL_INFO_SRNS_16tagMODEL_MODEL_SEPNS_19GroupIndexContainerE_x2cc:
    /*000002cc*/ LDR         R0, [R5, #76]               @ 0x4c 
    /*000002d0*/ CMP         R0, #0 
    /*000002d4*/ BEQ         _ZN4hirt12ModelManager8addModelEPK17HIRT_MODEL_INFO_SRNS_16tagMODEL_MODEL_SEPNS_19GroupIndexContainerE_x2dc
    /*000002d8*/ BL          _ZdlPv
    _ZN4hirt12ModelManager8addModelEPK17HIRT_MODEL_INFO_SRNS_16tagMODEL_MODEL_SEPNS_19GroupIndexContainerE_x2dc:
    /*000002dc*/ LDR         R0, [R5, #64]               @ 0x40 
    /*000002e0*/ CMP         R0, #0 
    /*000002e4*/ BEQ         _ZN4hirt12ModelManager8addModelEPK17HIRT_MODEL_INFO_SRNS_16tagMODEL_MODEL_SEPNS_19GroupIndexContainerE_x2ec
    /*000002e8*/ BL          _ZdlPv
    _ZN4hirt12ModelManager8addModelEPK17HIRT_MODEL_INFO_SRNS_16tagMODEL_MODEL_SEPNS_19GroupIndexContainerE_x2ec:
    /*000002ec*/ LDR         R0, [R5, #52]               @ 0x34 
    /*000002f0*/ CMP         R0, #0 
    /*000002f4*/ BEQ         _ZN4hirt12ModelManager8addModelEPK17HIRT_MODEL_INFO_SRNS_16tagMODEL_MODEL_SEPNS_19GroupIndexContainerE_x2fc
    /*000002f8*/ BL          _ZdlPv
    _ZN4hirt12ModelManager8addModelEPK17HIRT_MODEL_INFO_SRNS_16tagMODEL_MODEL_SEPNS_19GroupIndexContainerE_x2fc:
    /*000002fc*/ LDR         R0, [R5, #40]               @ 0x28 
    /*00000300*/ CMP         R0, #0 
    /*00000304*/ BEQ         _ZN4hirt12ModelManager8addModelEPK17HIRT_MODEL_INFO_SRNS_16tagMODEL_MODEL_SEPNS_19GroupIndexContainerE_x30c
    /*00000308*/ BL          _ZdlPv
    _ZN4hirt12ModelManager8addModelEPK17HIRT_MODEL_INFO_SRNS_16tagMODEL_MODEL_SEPNS_19GroupIndexContainerE_x30c:
    /*0000030c*/ MOV         R0, R5 
    /*00000310*/ BL          _ZN4hirt5GraphD2Ev
    /*00000314*/ MOV         R0, R5 
    /*00000318*/ MOV         R1, #156                    @ 0x9c 
    /*0000031c*/ BL          _ZdlPvj
    _ZN4hirt12ModelManager8addModelEPK17HIRT_MODEL_INFO_SRNS_16tagMODEL_MODEL_SEPNS_19GroupIndexContainerE_x320:
    /*00000320*/ MVN         R3, #0 
    /*00000324*/ MOV         R0, R4 
    /*00000328*/ STR         R3, [SP, #20] 
    /*0000032c*/ MOV         R1, #20 
    /*00000330*/ BL          _ZdlPvj
    /*00000334*/ B           _ZN4hirt12ModelManager8addModelEPK17HIRT_MODEL_INFO_SRNS_16tagMODEL_MODEL_SEPNS_19GroupIndexContainerE_xa8
    _ZN4hirt12ModelManager8addModelEPK17HIRT_MODEL_INFO_SRNS_16tagMODEL_MODEL_SEPNS_19GroupIndexContainerE_x338:
    /*00000338*/ LDR         R2, WORD_0f48               @ LDR         R2, [PC, #3080]             @ 0x0000000000000f48 
    /*0000033c*/ MOV         R1, #4 
    /*00000340*/ LDR         R0, WORD_0f4c               @ LDR         R0, [PC, #3076]             @ 0x0000000000000f4c 
    /*00000344*/ ADD         R2, PC, R2 
    /*00000348*/ ADD         R0, PC, R0 
    /*0000034c*/ BL          _Z15HIRT_LOG_PrintfPKc19tagHIRT_LOG_LEVEL_ES0_z
    /*00000350*/ B           _ZN4hirt12ModelManager8addModelEPK17HIRT_MODEL_INFO_SRNS_16tagMODEL_MODEL_SEPNS_19GroupIndexContainerE_xa0
    _ZN4hirt12ModelManager8addModelEPK17HIRT_MODEL_INFO_SRNS_16tagMODEL_MODEL_SEPNS_19GroupIndexContainerE_x354:
    /*00000354*/ LDR         R3, WORD_0f50               @ LDR         R3, [PC, #3060]             @ 0x0000000000000f50 
    /*00000358*/ MOV         R0, #76                     @ 0x4c 
    /*0000035c*/ LDR         R5, [R4, R3] 
    /*00000360*/ MOV         R1, R5 
    /*00000364*/ BL          _ZnwjRKSt9nothrow_t
    /*00000368*/ SUBS        R3, R0, #0 
    /*0000036c*/ STR         R3, [SP, #52]               @ 0x34 
    /*00000370*/ BEQ         _ZN4hirt12ModelManager8addModelEPK17HIRT_MODEL_INFO_SRNS_16tagMODEL_MODEL_SEPNS_19GroupIndexContainerE_x56c
    /*00000374*/ MOV         R3, #76                     @ 0x4c 
    /*00000378*/ MOV         R2, #0 
    /*0000037c*/ MOV         R1, R3 
    /*00000380*/ BL          memset_s
    /*00000384*/ CMP         R0, #0 
    /*00000388*/ BEQ         _ZN4hirt12ModelManager8addModelEPK17HIRT_MODEL_INFO_SRNS_16tagMODEL_MODEL_SEPNS_19GroupIndexContainerE_x420
    /*0000038c*/ STR         R0, [SP] 
    /*00000390*/ MOV         R1, #4 
    /*00000394*/ LDR         R3, WORD_0f54               @ LDR         R3, [PC, #3000]             @ 0x0000000000000f54 
    /*00000398*/ LDR         R2, WORD_0f58               @ LDR         R2, [PC, #3000]             @ 0x0000000000000f58 
    /*0000039c*/ LDR         R0, WORD_0f5c               @ LDR         R0, [PC, #3000]             @ 0x0000000000000f5c 
    /*000003a0*/ ADD         R3, PC, R3 
    /*000003a4*/ ADD         R2, PC, R2 
    /*000003a8*/ ADD         R0, PC, R0 
    /*000003ac*/ BL          _Z15HIRT_LOG_PrintfPKc19tagHIRT_LOG_LEVEL_ES0_z
    _ZN4hirt12ModelManager8addModelEPK17HIRT_MODEL_INFO_SRNS_16tagMODEL_MODEL_SEPNS_19GroupIndexContainerE_x3b0:
    /*000003b0*/ LDR         R6, [SP, #52]               @ 0x34 
    /*000003b4*/ MOV         R5, #0 
    /*000003b8*/ B           _ZN4hirt12ModelManager8addModelEPK17HIRT_MODEL_INFO_SRNS_16tagMODEL_MODEL_SEPNS_19GroupIndexContainerE_x190
    _ZN4hirt12ModelManager8addModelEPK17HIRT_MODEL_INFO_SRNS_16tagMODEL_MODEL_SEPNS_19GroupIndexContainerE_x3bc:
    /*000003bc*/ ADD         R1, R0, #4 
    /*000003c0*/ CMP         R1, IP 
    /*000003c4*/ BEQ         _ZN4hirt12ModelManager8addModelEPK17HIRT_MODEL_INFO_SRNS_16tagMODEL_MODEL_SEPNS_19GroupIndexContainerE_x3d4
    /*000003c8*/ SUB         R2, IP, R1 
    /*000003cc*/ LSRS        R3, R2, #2 
    /*000003d0*/ BNE         _ZN4hirt12ModelManager8addModelEPK17HIRT_MODEL_INFO_SRNS_16tagMODEL_MODEL_SEPNS_19GroupIndexContainerE_x54c
    _ZN4hirt12ModelManager8addModelEPK17HIRT_MODEL_INFO_SRNS_16tagMODEL_MODEL_SEPNS_19GroupIndexContainerE_x3d4:
    /*000003d4*/ LDR         R3, WORD_0f60               @ LDR         R3, [PC, #2948]             @ 0x0000000000000f60 
    /*000003d8*/ SUB         IP, IP, #4 
    /*000003dc*/ ADD         R3, PC, R3 
    /*000003e0*/ STR         IP, [R3, #4] 
    /*000003e4*/ B           _ZN4hirt12ModelManager8addModelEPK17HIRT_MODEL_INFO_SRNS_16tagMODEL_MODEL_SEPNS_19GroupIndexContainerE_x208
    _ZN4hirt12ModelManager8addModelEPK17HIRT_MODEL_INFO_SRNS_16tagMODEL_MODEL_SEPNS_19GroupIndexContainerE_x3e8:
    /*000003e8*/ LDR         R2, WORD_0f64               @ LDR         R2, [PC, #2932]             @ 0x0000000000000f64 
    /*000003ec*/ MOV         R1, #4 
    /*000003f0*/ LDR         R0, WORD_0f68               @ LDR         R0, [PC, #2928]             @ 0x0000000000000f68 
    /*000003f4*/ ADD         R2, PC, R2 
    /*000003f8*/ ADD         R0, PC, R0 
    /*000003fc*/ BL          _Z15HIRT_LOG_PrintfPKc19tagHIRT_LOG_LEVEL_ES0_z
    /*00000400*/ B           _ZN4hirt12ModelManager8addModelEPK17HIRT_MODEL_INFO_SRNS_16tagMODEL_MODEL_SEPNS_19GroupIndexContainerE_xa0
    _ZN4hirt12ModelManager8addModelEPK17HIRT_MODEL_INFO_SRNS_16tagMODEL_MODEL_SEPNS_19GroupIndexContainerE_x404:
    /*00000404*/ LDR         R3, WORD_0f6c               @ LDR         R3, [PC, #2912]             @ 0x0000000000000f6c 
    /*00000408*/ LDR         R4, [SP, #36]               @ 0x24 
    /*0000040c*/ ADD         R3, PC, R3 
    /*00000410*/ LDM         R3, {R0, IP} 
    /*00000414*/ CMP         R0, IP 
    /*00000418*/ BNE         _ZN4hirt12ModelManager8addModelEPK17HIRT_MODEL_INFO_SRNS_16tagMODEL_MODEL_SEPNS_19GroupIndexContainerE_x1d4
    /*0000041c*/ B           _ZN4hirt12ModelManager8addModelEPK17HIRT_MODEL_INFO_SRNS_16tagMODEL_MODEL_SEPNS_19GroupIndexContainerE_x220
    _ZN4hirt12ModelManager8addModelEPK17HIRT_MODEL_INFO_SRNS_16tagMODEL_MODEL_SEPNS_19GroupIndexContainerE_x420:
    /*00000420*/ LDR         R0, [SP, #52]               @ 0x34 
    /*00000424*/ ADD         R3, R8, #8 
    /*00000428*/ STR         R3, [SP, #64]               @ 0x40 
    /*0000042c*/ MOV         R2, R3 
    /*00000430*/ MOV         R1, #65                     @ 0x41 
    /*00000434*/ MOV         R3, #64                     @ 0x40 
    /*00000438*/ BL          strncpy_s
    /*0000043c*/ CMP         R0, #0 
    /*00000440*/ BNE         _ZN4hirt12ModelManager8addModelEPK17HIRT_MODEL_INFO_SRNS_16tagMODEL_MODEL_SEPNS_19GroupIndexContainerE_x524
    /*00000444*/ MOV         R1, R5 
    /*00000448*/ MOV         R0, #8 
    /*0000044c*/ BL          _ZnwjRKSt9nothrow_t
    /*00000450*/ SUBS        R3, R0, #0 
    /*00000454*/ STR         R3, [SP, #60]               @ 0x3c 
    /*00000458*/ BEQ         _ZN4hirt12ModelManager8addModelEPK17HIRT_MODEL_INFO_SRNS_16tagMODEL_MODEL_SEPNS_19GroupIndexContainerE_x5c8
    /*0000045c*/ LDR         R2, [SP, #52]               @ 0x34 
    /*00000460*/ MOV         R1, R5 
    /*00000464*/ STR         R8, [R3] 
    /*00000468*/ MOV         R0, #12 
    /*0000046c*/ STR         R2, [R3, #4] 
    /*00000470*/ BL          _ZnwjRKSt9nothrow_t
    /*00000474*/ STR         R0, [SP, #72]               @ 0x48 
    /*00000478*/ CMP         R0, #0 
    /*0000047c*/ BEQ         _ZN4hirt12ModelManager8addModelEPK17HIRT_MODEL_INFO_SRNS_16tagMODEL_MODEL_SEPNS_19GroupIndexContainerE_xafc
    /*00000480*/ LDR         R2, WORD_0f70               @ LDR         R2, [PC, #2792]             @ 0x0000000000000f70 
    /*00000484*/ MOV         IP, #1 
    /*00000488*/ LDR         R3, [SP, #60]               @ 0x3c 
    /*0000048c*/ ADD         R2, PC, R2 
    /*00000490*/ STR         R3, [R0] 
    /*00000494*/ LDR         R1, [R2, #8] 
    /*00000498*/ LDR         R3, [R2, #4] 
    /*0000049c*/ STR         IP, [R0, #8] 
    /*000004a0*/ CMP         R3, R1 
    /*000004a4*/ BEQ         _ZN4hirt12ModelManager8addModelEPK17HIRT_MODEL_INFO_SRNS_16tagMODEL_MODEL_SEPNS_19GroupIndexContainerE_xb40
    /*000004a8*/ LDR         R2, WORD_0f74               @ LDR         R2, [PC, #2756]             @ 0x0000000000000f74 
    /*000004ac*/ CMP         R3, #0 
    /*000004b0*/ STRNE       R0, [R3] 
    /*000004b4*/ ADD         R3, R3, #4 
    /*000004b8*/ ADD         R2, PC, R2 
    /*000004bc*/ STR         R3, [R2, #4] 
    _ZN4hirt12ModelManager8addModelEPK17HIRT_MODEL_INFO_SRNS_16tagMODEL_MODEL_SEPNS_19GroupIndexContainerE_x4c0:
    /*000004c0*/ LDR         R3, [SP, #36]               @ 0x24 
    /*000004c4*/ CMP         R3, #0 
    /*000004c8*/ BEQ         _ZN4hirt12ModelManager8addModelEPK17HIRT_MODEL_INFO_SRNS_16tagMODEL_MODEL_SEPNS_19GroupIndexContainerE_x4d8
    /*000004cc*/ LDR         R0, WORD_0f78               @ LDR         R0, [PC, #2724]             @ 0x0000000000000f78 
    /*000004d0*/ ADD         R0, PC, R0 
    /*000004d4*/ BL          pthread_mutex_unlock
    _ZN4hirt12ModelManager8addModelEPK17HIRT_MODEL_INFO_SRNS_16tagMODEL_MODEL_SEPNS_19GroupIndexContainerE_x4d8:
    /*000004d8*/ MOV         R1, R5 
    /*000004dc*/ MOV         R0, #20 
    /*000004e0*/ BL          _ZnwjRKSt9nothrow_t
    /*000004e4*/ SUBS        R3, R0, #0 
    /*000004e8*/ STR         R3, [SP, #68]               @ 0x44 
    /*000004ec*/ BEQ         _ZN4hirt12ModelManager8addModelEPK17HIRT_MODEL_INFO_SRNS_16tagMODEL_MODEL_SEPNS_19GroupIndexContainerE_xb20
    /*000004f0*/ MOV         R3, #20 
    /*000004f4*/ MOV         R2, #0 
    /*000004f8*/ MOV         R1, R3 
    /*000004fc*/ BL          memset_s
    /*00000500*/ CMP         R0, #0 
    /*00000504*/ BEQ         _ZN4hirt12ModelManager8addModelEPK17HIRT_MODEL_INFO_SRNS_16tagMODEL_MODEL_SEPNS_19GroupIndexContainerE_x588
    /*00000508*/ LDR         R0, [SP, #68]               @ 0x44 
    /*0000050c*/ MOV         R1, #20 
    /*00000510*/ BL          _ZdlPvj
    /*00000514*/ LDR         R1, [SP, #64]               @ 0x40 
    /*00000518*/ MOV         R0, R7 
    /*0000051c*/ BL          _ZN4hirt12ModelManager8delModelEPKc
    /*00000520*/ B           _ZN4hirt12ModelManager8addModelEPK17HIRT_MODEL_INFO_SRNS_16tagMODEL_MODEL_SEPNS_19GroupIndexContainerE_xa0
    _ZN4hirt12ModelManager8addModelEPK17HIRT_MODEL_INFO_SRNS_16tagMODEL_MODEL_SEPNS_19GroupIndexContainerE_x524:
    /*00000524*/ STR         R0, [SP] 
    /*00000528*/ MOV         R1, #4 
    /*0000052c*/ LDR         R3, WORD_0f7c               @ LDR         R3, [PC, #2632]             @ 0x0000000000000f7c 
    /*00000530*/ LDR         R2, WORD_0f80               @ LDR         R2, [PC, #2632]             @ 0x0000000000000f80 
    /*00000534*/ LDR         R0, WORD_0f84               @ LDR         R0, [PC, #2632]             @ 0x0000000000000f84 
    /*00000538*/ ADD         R3, PC, R3 
    /*0000053c*/ ADD         R2, PC, R2 
    /*00000540*/ ADD         R0, PC, R0 
    /*00000544*/ BL          _Z15HIRT_LOG_PrintfPKc19tagHIRT_LOG_LEVEL_ES0_z
    /*00000548*/ B           _ZN4hirt12ModelManager8addModelEPK17HIRT_MODEL_INFO_SRNS_16tagMODEL_MODEL_SEPNS_19GroupIndexContainerE_x3b0
    _ZN4hirt12ModelManager8addModelEPK17HIRT_MODEL_INFO_SRNS_16tagMODEL_MODEL_SEPNS_19GroupIndexContainerE_x54c:
    /*0000054c*/ BL          memmove
    /*00000550*/ LDR         R3, WORD_0f88               @ LDR         R3, [PC, #2608]             @ 0x0000000000000f88 
    /*00000554*/ ADD         R3, PC, R3 
    /*00000558*/ LDR         IP, [R3, #4] 
    /*0000055c*/ B           _ZN4hirt12ModelManager8addModelEPK17HIRT_MODEL_INFO_SRNS_16tagMODEL_MODEL_SEPNS_19GroupIndexContainerE_x3d4
    _ZN4hirt12ModelManager8addModelEPK17HIRT_MODEL_INFO_SRNS_16tagMODEL_MODEL_SEPNS_19GroupIndexContainerE_x560:
    /*00000560*/ MOV         R0, R5 
    /*00000564*/ BLX         R2 
    /*00000568*/ B           _ZN4hirt12ModelManager8addModelEPK17HIRT_MODEL_INFO_SRNS_16tagMODEL_MODEL_SEPNS_19GroupIndexContainerE_x320
    _ZN4hirt12ModelManager8addModelEPK17HIRT_MODEL_INFO_SRNS_16tagMODEL_MODEL_SEPNS_19GroupIndexContainerE_x56c:
    /*0000056c*/ LDR         R2, WORD_0f8c               @ LDR         R2, [PC, #2584]             @ 0x0000000000000f8c 
    /*00000570*/ MOV         R1, #4 
    /*00000574*/ LDR         R0, WORD_0f90               @ LDR         R0, [PC, #2580]             @ 0x0000000000000f90 
    /*00000578*/ ADD         R2, PC, R2 
    /*0000057c*/ ADD         R0, PC, R0 
    /*00000580*/ BL          _Z15HIRT_LOG_PrintfPKc19tagHIRT_LOG_LEVEL_ES0_z
    /*00000584*/ B           _ZN4hirt12ModelManager8addModelEPK17HIRT_MODEL_INFO_SRNS_16tagMODEL_MODEL_SEPNS_19GroupIndexContainerE_x188
    _ZN4hirt12ModelManager8addModelEPK17HIRT_MODEL_INFO_SRNS_16tagMODEL_MODEL_SEPNS_19GroupIndexContainerE_x588:
    /*00000588*/ LDR         R5, [SP, #68]               @ 0x44 
    /*0000058c*/ MOV         R3, R9 
    /*00000590*/ LDR         R0, [SP, #24] 
    /*00000594*/ ADD         R1, R8, #112                @ 0x70 
    /*00000598*/ MOV         R2, R5 
    /*0000059c*/ BL          _ZN4hirt13WKModelLoader12parseWKModelERK15hiRUNTIME_MEM_SRNS_16hiMODEL_LOADER_SEPNS_19GroupIndexContainerE
    /*000005a0*/ SUBS        R3, R0, #0 
    /*000005a4*/ STR         R3, [SP, #20] 
    /*000005a8*/ BEQ         _ZN4hirt12ModelManager8addModelEPK17HIRT_MODEL_INFO_SRNS_16tagMODEL_MODEL_SEPNS_19GroupIndexContainerE_x5e4
    /*000005ac*/ MOV         R0, R5 
    /*000005b0*/ MOV         R1, #20 
    /*000005b4*/ BL          _ZdlPvj
    /*000005b8*/ LDR         R1, [SP, #64]               @ 0x40 
    /*000005bc*/ MOV         R0, R7 
    /*000005c0*/ BL          _ZN4hirt12ModelManager8delModelEPKc
    /*000005c4*/ B           _ZN4hirt12ModelManager8addModelEPK17HIRT_MODEL_INFO_SRNS_16tagMODEL_MODEL_SEPNS_19GroupIndexContainerE_xa8
    _ZN4hirt12ModelManager8addModelEPK17HIRT_MODEL_INFO_SRNS_16tagMODEL_MODEL_SEPNS_19GroupIndexContainerE_x5c8:
    /*000005c8*/ LDR         R2, WORD_0f94               @ LDR         R2, [PC, #2500]             @ 0x0000000000000f94 
    /*000005cc*/ MOV         R1, #4 
    /*000005d0*/ LDR         R0, WORD_0f98               @ LDR         R0, [PC, #2496]             @ 0x0000000000000f98 
    /*000005d4*/ ADD         R2, PC, R2 
    /*000005d8*/ ADD         R0, PC, R0 
    /*000005dc*/ BL          _Z15HIRT_LOG_PrintfPKc19tagHIRT_LOG_LEVEL_ES0_z
    /*000005e0*/ B           _ZN4hirt12ModelManager8addModelEPK17HIRT_MODEL_INFO_SRNS_16tagMODEL_MODEL_SEPNS_19GroupIndexContainerE_x3b0
    _ZN4hirt12ModelManager8addModelEPK17HIRT_MODEL_INFO_SRNS_16tagMODEL_MODEL_SEPNS_19GroupIndexContainerE_x5e4:
    /*000005e4*/ MOV         R1, R3 
    /*000005e8*/ LDR         R3, [SP, #68]               @ 0x44 
    /*000005ec*/ LDR         R3, [R3] 
    /*000005f0*/ STR         R1, [SP, #92]               @ 0x5c 
    /*000005f4*/ STR         R3, [SP, #56]               @ 0x38 
    /*000005f8*/ MOV         R2, R3 
    /*000005fc*/ STR         R1, [SP, #104]              @ 0x68 
    /*00000600*/ LDR         R3, [R2, #4] 
    /*00000604*/ LDR         R2, [R2, #8] 
    /*00000608*/ STR         R1, [SP, #96]               @ 0x60 
    /*0000060c*/ CMP         R3, R2 
    /*00000610*/ STRNE       R3, [SP, #48]               @ 0x30 
    /*00000614*/ ADDNE       R3, SP, #140                @ 0x8c 
    /*00000618*/ STR         R1, [SP, #100]              @ 0x64 
    /*0000061c*/ MOVNE       R7, R1 
    /*00000620*/ STR         R1, [SP, #108]              @ 0x6c 
    /*00000624*/ STR         R1, [SP, #112]              @ 0x70 
    /*00000628*/ STRNE       R3, [SP, #44]               @ 0x2c 
    /*0000062c*/ BEQ         _ZN4hirt12ModelManager8addModelEPK17HIRT_MODEL_INFO_SRNS_16tagMODEL_MODEL_SEPNS_19GroupIndexContainerE_x8f8
    _ZN4hirt12ModelManager8addModelEPK17HIRT_MODEL_INFO_SRNS_16tagMODEL_MODEL_SEPNS_19GroupIndexContainerE_x630:
    /*00000630*/ LDR         R3, [SP, #48]               @ 0x30 
    /*00000634*/ LDR         R9, [R3], #4 
    /*00000638*/ LDMIB       R9, {R5, R6} 
    /*0000063c*/ STR         R3, [SP, #48]               @ 0x30 
    /*00000640*/ CMP         R6, R5 
    /*00000644*/ ADDNE       SL, SP, #148                @ 0x94 
    /*00000648*/ BEQ         _ZN4hirt12ModelManager8addModelEPK17HIRT_MODEL_INFO_SRNS_16tagMODEL_MODEL_SEPNS_19GroupIndexContainerE_x79c
    _ZN4hirt12ModelManager8addModelEPK17HIRT_MODEL_INFO_SRNS_16tagMODEL_MODEL_SEPNS_19GroupIndexContainerE_x64c:
    /*0000064c*/ LDR         R0, [R5], #4 
    /*00000650*/ CMP         R0, #0 
    /*00000654*/ BEQ         _ZN4hirt12ModelManager8addModelEPK17HIRT_MODEL_INFO_SRNS_16tagMODEL_MODEL_SEPNS_19GroupIndexContainerE_x794
    /*00000658*/ LDR         R2, WORD_0f9c               @ LDR         R2, [PC, #2364]             @ 0x0000000000000f9c 
    /*0000065c*/ MOV         R3, #0 
    /*00000660*/ LDR         R1, WORD_0fa0               @ LDR         R1, [PC, #2360]             @ 0x0000000000000fa0 
    /*00000664*/ LDR         R2, [R4, R2] 
    /*00000668*/ LDR         R1, [R4, R1] 
    /*0000066c*/ BL          __dynamic_cast
    /*00000670*/ CMP         R0, #0 
    /*00000674*/ BEQ         _ZN4hirt12ModelManager8addModelEPK17HIRT_MODEL_INFO_SRNS_16tagMODEL_MODEL_SEPNS_19GroupIndexContainerE_x794
    /*00000678*/ LDR         R3, [R0, #84]               @ 0x54 
    /*0000067c*/ CMP         R3, #0 
    /*00000680*/ BEQ         _ZN4hirt12ModelManager8addModelEPK17HIRT_MODEL_INFO_SRNS_16tagMODEL_MODEL_SEPNS_19GroupIndexContainerE_x794
    /*00000684*/ LDR         R6, [R0, #8] 
    /*00000688*/ STR         SL, [SP, #140]              @ 0x8c 
    /*0000068c*/ LDR         FP, [R0, #4] 
    /*00000690*/ RSB         R3, R6, #0 
    /*00000694*/ CLZ         R2, FP 
    /*00000698*/ CMP         FP, R3 
    /*0000069c*/ LSR         R2, R2, #5 
    /*000006a0*/ MOVEQ       R2, #0 
    /*000006a4*/ CMP         R2, #0 
    /*000006a8*/ BEQ         _ZN4hirt12ModelManager8addModelEPK17HIRT_MODEL_INFO_SRNS_16tagMODEL_MODEL_SEPNS_19GroupIndexContainerE_x6ec
    /*000006ac*/ LDR         R0, WORD_0fa4               @ LDR         R0, [PC, #2288]             @ 0x0000000000000fa4 
    /*000006b0*/ ADD         R0, PC, R0 
    /*000006b4*/ BL          _ZSt19__throw_logic_errorPKc
    /*000006b8*/ ADD         R6, SP, #92                 @ 0x5c 
    _ZN4hirt12ModelManager8addModelEPK17HIRT_MODEL_INFO_SRNS_16tagMODEL_MODEL_SEPNS_19GroupIndexContainerE_x6bc:
    /*000006bc*/ ADD         FP, SP, #104                @ 0x68 
    _ZN4hirt12ModelManager8addModelEPK17HIRT_MODEL_INFO_SRNS_16tagMODEL_MODEL_SEPNS_19GroupIndexContainerE_x6c0:
    /*000006c0*/ MOV         R0, FP 
    /*000006c4*/ BL          _ZNSt6vectorINSt7__cxx1112basic_stringIcSt11char_traitsIcESaIcEEESaIS5_EED1Ev
    /*000006c8*/ MOV         R0, R6 
    /*000006cc*/ BL          _ZNSt6vectorINSt7__cxx1112basic_stringIcSt11char_traitsIcESaIcEEESaIS5_EED1Ev
    _ZN4hirt12ModelManager8addModelEPK17HIRT_MODEL_INFO_SRNS_16tagMODEL_MODEL_SEPNS_19GroupIndexContainerE_x6d0:
    /*000006d0*/ LDR         R3, WORD_0fa8               @ LDR         R3, [PC, #2256]             @ 0x0000000000000fa8 
    /*000006d4*/ LDR         R0, [SP, #24] 
    /*000006d8*/ ADD         R3, PC, R3 
    /*000006dc*/ ADD         R3, R3, #8 
    /*000006e0*/ STR         R3, [SP, #76]               @ 0x4c 
    /*000006e4*/ BL          _ZN4hirt11ModelLoaderD2Ev
    /*000006e8*/ BL          __cxa_end_cleanup
    _ZN4hirt12ModelManager8addModelEPK17HIRT_MODEL_INFO_SRNS_16tagMODEL_MODEL_SEPNS_19GroupIndexContainerE_x6ec:
    /*000006ec*/ STR         R6, [SP, #80]               @ 0x50 
    /*000006f0*/ CMP         R6, #15 
    /*000006f4*/ BHI         _ZN4hirt12ModelManager8addModelEPK17HIRT_MODEL_INFO_SRNS_16tagMODEL_MODEL_SEPNS_19GroupIndexContainerE_xa3c
    /*000006f8*/ CMP         R6, #1 
    /*000006fc*/ BEQ         _ZN4hirt12ModelManager8addModelEPK17HIRT_MODEL_INFO_SRNS_16tagMODEL_MODEL_SEPNS_19GroupIndexContainerE_xa9c
    /*00000700*/ CMP         R6, #0 
    /*00000704*/ MOVEQ       R3, SL 
    /*00000708*/ BNE         _ZN4hirt12ModelManager8addModelEPK17HIRT_MODEL_INFO_SRNS_16tagMODEL_MODEL_SEPNS_19GroupIndexContainerE_xaec
    _ZN4hirt12ModelManager8addModelEPK17HIRT_MODEL_INFO_SRNS_16tagMODEL_MODEL_SEPNS_19GroupIndexContainerE_x70c:
    /*0000070c*/ STR         R6, [SP, #144]              @ 0x90 
    /*00000710*/ STRB        R7, [R3, R6] 
    /*00000714*/ LDR         IP, [SP, #96]               @ 0x60 
    /*00000718*/ LDR         R3, [SP, #100]              @ 0x64 
    /*0000071c*/ CMP         IP, R3 
    /*00000720*/ BEQ         _ZN4hirt12ModelManager8addModelEPK17HIRT_MODEL_INFO_SRNS_16tagMODEL_MODEL_SEPNS_19GroupIndexContainerE_xabc
    /*00000724*/ CMP         IP, #0 
    /*00000728*/ LDREQ       R0, [SP, #140]              @ 0x8c 
    /*0000072c*/ BEQ         _ZN4hirt12ModelManager8addModelEPK17HIRT_MODEL_INFO_SRNS_16tagMODEL_MODEL_SEPNS_19GroupIndexContainerE_x77c
    /*00000730*/ ADD         LR, IP, #8 
    /*00000734*/ STR         LR, [IP] 
    /*00000738*/ LDR         R3, [SP, #140]              @ 0x8c 
    /*0000073c*/ CMP         R3, SL 
    /*00000740*/ STRNE       R3, [IP] 
    /*00000744*/ MOVEQ       R6, SL 
    /*00000748*/ LDRNE       R3, [SP, #148]              @ 0x94 
    /*0000074c*/ LDMEQ       R6!, {R0, R1, R2, R3} 
    /*00000750*/ STRNE       R3, [IP, #8] 
    /*00000754*/ STREQ       R0, [IP, #8] 
    /*00000758*/ MOV         R0, SL 
    /*0000075c*/ STREQ       R1, [IP, #12] 
    /*00000760*/ STREQ       R2, [IP, #16] 
    /*00000764*/ STREQ       R3, [IP, #20] 
    /*00000768*/ LDR         R3, [SP, #144]              @ 0x90 
    /*0000076c*/ STR         R3, [IP, #4] 
    /*00000770*/ STR         SL, [SP, #140]              @ 0x8c 
    /*00000774*/ STR         R7, [SP, #144]              @ 0x90 
    /*00000778*/ STRB        R7, [SP, #148]              @ 0x94 
    _ZN4hirt12ModelManager8addModelEPK17HIRT_MODEL_INFO_SRNS_16tagMODEL_MODEL_SEPNS_19GroupIndexContainerE_x77c:
    /*0000077c*/ ADD         IP, IP, #24 
    /*00000780*/ STR         IP, [SP, #96]               @ 0x60 
    _ZN4hirt12ModelManager8addModelEPK17HIRT_MODEL_INFO_SRNS_16tagMODEL_MODEL_SEPNS_19GroupIndexContainerE_x784:
    /*00000784*/ CMP         R0, SL 
    /*00000788*/ BEQ         _ZN4hirt12ModelManager8addModelEPK17HIRT_MODEL_INFO_SRNS_16tagMODEL_MODEL_SEPNS_19GroupIndexContainerE_x790
    /*0000078c*/ BL          _ZdlPv
    _ZN4hirt12ModelManager8addModelEPK17HIRT_MODEL_INFO_SRNS_16tagMODEL_MODEL_SEPNS_19GroupIndexContainerE_x790:
    /*00000790*/ LDR         R6, [R9, #8] 
    _ZN4hirt12ModelManager8addModelEPK17HIRT_MODEL_INFO_SRNS_16tagMODEL_MODEL_SEPNS_19GroupIndexContainerE_x794:
    /*00000794*/ CMP         R6, R5 
    /*00000798*/ BNE         _ZN4hirt12ModelManager8addModelEPK17HIRT_MODEL_INFO_SRNS_16tagMODEL_MODEL_SEPNS_19GroupIndexContainerE_x64c
    _ZN4hirt12ModelManager8addModelEPK17HIRT_MODEL_INFO_SRNS_16tagMODEL_MODEL_SEPNS_19GroupIndexContainerE_x79c:
    /*0000079c*/ LDR         R5, [R9, #16] 
    /*000007a0*/ LDR         R6, [R9, #20] 
    /*000007a4*/ CMP         R5, R6 
    /*000007a8*/ ADDNE       R3, SP, #116                @ 0x74 
    /*000007ac*/ ADDNE       SL, SP, #124                @ 0x7c 
    /*000007b0*/ STRNE       R3, [SP, #40]               @ 0x28 
    /*000007b4*/ BNE         _ZN4hirt12ModelManager8addModelEPK17HIRT_MODEL_INFO_SRNS_16tagMODEL_MODEL_SEPNS_19GroupIndexContainerE_x7c4
    /*000007b8*/ B           _ZN4hirt12ModelManager8addModelEPK17HIRT_MODEL_INFO_SRNS_16tagMODEL_MODEL_SEPNS_19GroupIndexContainerE_x8e4
    _ZN4hirt12ModelManager8addModelEPK17HIRT_MODEL_INFO_SRNS_16tagMODEL_MODEL_SEPNS_19GroupIndexContainerE_x7bc:
    /*000007bc*/ CMP         R6, R5 
    /*000007c0*/ BEQ         _ZN4hirt12ModelManager8addModelEPK17HIRT_MODEL_INFO_SRNS_16tagMODEL_MODEL_SEPNS_19GroupIndexContainerE_x8e4
    _ZN4hirt12ModelManager8addModelEPK17HIRT_MODEL_INFO_SRNS_16tagMODEL_MODEL_SEPNS_19GroupIndexContainerE_x7c4:
    /*000007c4*/ LDR         R0, [R5], #4 
    /*000007c8*/ CMP         R0, #0 
    /*000007cc*/ BEQ         _ZN4hirt12ModelManager8addModelEPK17HIRT_MODEL_INFO_SRNS_16tagMODEL_MODEL_SEPNS_19GroupIndexContainerE_x7bc
    /*000007d0*/ LDR         R2, WORD_0f9c               @ LDR         R2, [PC, #1988]             @ 0x0000000000000f9c 
    /*000007d4*/ MOV         R3, #0 
    /*000007d8*/ LDR         R1, WORD_0fa0               @ LDR         R1, [PC, #1984]             @ 0x0000000000000fa0 
    /*000007dc*/ LDR         R2, [R4, R2] 
    /*000007e0*/ LDR         R1, [R4, R1] 
    /*000007e4*/ BL          __dynamic_cast
    /*000007e8*/ CMP         R0, #0 
    /*000007ec*/ BEQ         _ZN4hirt12ModelManager8addModelEPK17HIRT_MODEL_INFO_SRNS_16tagMODEL_MODEL_SEPNS_19GroupIndexContainerE_x7bc
    /*000007f0*/ LDR         R3, [R0, #72]               @ 0x48 
    /*000007f4*/ SUB         R3, R3, #1 
    /*000007f8*/ CMP         R3, #1 
    /*000007fc*/ BHI         _ZN4hirt12ModelManager8addModelEPK17HIRT_MODEL_INFO_SRNS_16tagMODEL_MODEL_SEPNS_19GroupIndexContainerE_x7bc
    /*00000800*/ LDR         FP, [R0, #4] 
    /*00000804*/ LDR         R6, [R0, #8] 
    /*00000808*/ CLZ         R2, FP 
    /*0000080c*/ RSB         R3, R6, #0 
    /*00000810*/ CMP         FP, R3 
    /*00000814*/ LSR         R2, R2, #5 
    /*00000818*/ MOVEQ       R2, #0 
    /*0000081c*/ STR         SL, [SP, #116]              @ 0x74 
    /*00000820*/ CMP         R2, #0 
    /*00000824*/ BEQ         _ZN4hirt12ModelManager8addModelEPK17HIRT_MODEL_INFO_SRNS_16tagMODEL_MODEL_SEPNS_19GroupIndexContainerE_x834
    /*00000828*/ LDR         R0, WORD_0fac               @ LDR         R0, [PC, #1916]             @ 0x0000000000000fac 
    /*0000082c*/ ADD         R0, PC, R0 
    /*00000830*/ BL          _ZSt19__throw_logic_errorPKc
    _ZN4hirt12ModelManager8addModelEPK17HIRT_MODEL_INFO_SRNS_16tagMODEL_MODEL_SEPNS_19GroupIndexContainerE_x834:
    /*00000834*/ STR         R6, [SP, #84]               @ 0x54 
    /*00000838*/ CMP         R6, #15 
    /*0000083c*/ BHI         _ZN4hirt12ModelManager8addModelEPK17HIRT_MODEL_INFO_SRNS_16tagMODEL_MODEL_SEPNS_19GroupIndexContainerE_xa6c
    /*00000840*/ CMP         R6, #1 
    /*00000844*/ BEQ         _ZN4hirt12ModelManager8addModelEPK17HIRT_MODEL_INFO_SRNS_16tagMODEL_MODEL_SEPNS_19GroupIndexContainerE_xaac
    /*00000848*/ CMP         R6, #0 
    /*0000084c*/ MOVEQ       R3, SL 
    /*00000850*/ BNE         _ZN4hirt12ModelManager8addModelEPK17HIRT_MODEL_INFO_SRNS_16tagMODEL_MODEL_SEPNS_19GroupIndexContainerE_xaf4
    _ZN4hirt12ModelManager8addModelEPK17HIRT_MODEL_INFO_SRNS_16tagMODEL_MODEL_SEPNS_19GroupIndexContainerE_x854:
    /*00000854*/ STR         R6, [SP, #120]              @ 0x78 
    /*00000858*/ STRB        R7, [R3, R6] 
    /*0000085c*/ LDR         IP, [SP, #108]              @ 0x6c 
    /*00000860*/ LDR         R3, [SP, #112]              @ 0x70 
    /*00000864*/ CMP         IP, R3 
    /*00000868*/ BEQ         _ZN4hirt12ModelManager8addModelEPK17HIRT_MODEL_INFO_SRNS_16tagMODEL_MODEL_SEPNS_19GroupIndexContainerE_xad4
    /*0000086c*/ CMP         IP, #0 
    /*00000870*/ LDREQ       R0, [SP, #116]              @ 0x74 
    /*00000874*/ BEQ         _ZN4hirt12ModelManager8addModelEPK17HIRT_MODEL_INFO_SRNS_16tagMODEL_MODEL_SEPNS_19GroupIndexContainerE_x8c4
    /*00000878*/ ADD         LR, IP, #8 
    /*0000087c*/ STR         LR, [IP] 
    /*00000880*/ LDR         R3, [SP, #116]              @ 0x74 
    /*00000884*/ CMP         R3, SL 
    /*00000888*/ STRNE       R3, [IP] 
    /*0000088c*/ MOVEQ       R6, SL 
    /*00000890*/ LDRNE       R3, [SP, #124]              @ 0x7c 
    /*00000894*/ LDMEQ       R6!, {R0, R1, R2, R3} 
    /*00000898*/ STRNE       R3, [IP, #8] 
    /*0000089c*/ STREQ       R0, [IP, #8] 
    /*000008a0*/ MOV         R0, SL 
    /*000008a4*/ STREQ       R3, [IP, #20] 
    /*000008a8*/ LDR         R3, [SP, #120]              @ 0x78 
    /*000008ac*/ STREQ       R1, [IP, #12] 
    /*000008b0*/ STR         R3, [IP, #4] 
    /*000008b4*/ STREQ       R2, [IP, #16] 
    /*000008b8*/ STR         SL, [SP, #116]              @ 0x74 
    /*000008bc*/ STR         R7, [SP, #120]              @ 0x78 
    /*000008c0*/ STRB        R7, [SP, #124]              @ 0x7c 
    _ZN4hirt12ModelManager8addModelEPK17HIRT_MODEL_INFO_SRNS_16tagMODEL_MODEL_SEPNS_19GroupIndexContainerE_x8c4:
    /*000008c4*/ ADD         IP, IP, #24 
    /*000008c8*/ STR         IP, [SP, #108]              @ 0x6c 
    _ZN4hirt12ModelManager8addModelEPK17HIRT_MODEL_INFO_SRNS_16tagMODEL_MODEL_SEPNS_19GroupIndexContainerE_x8cc:
    /*000008cc*/ CMP         R0, SL 
    /*000008d0*/ BEQ         _ZN4hirt12ModelManager8addModelEPK17HIRT_MODEL_INFO_SRNS_16tagMODEL_MODEL_SEPNS_19GroupIndexContainerE_x8d8
    /*000008d4*/ BL          _ZdlPv
    _ZN4hirt12ModelManager8addModelEPK17HIRT_MODEL_INFO_SRNS_16tagMODEL_MODEL_SEPNS_19GroupIndexContainerE_x8d8:
    /*000008d8*/ LDR         R6, [R9, #20] 
    /*000008dc*/ CMP         R6, R5 
    /*000008e0*/ BNE         _ZN4hirt12ModelManager8addModelEPK17HIRT_MODEL_INFO_SRNS_16tagMODEL_MODEL_SEPNS_19GroupIndexContainerE_x7c4
    _ZN4hirt12ModelManager8addModelEPK17HIRT_MODEL_INFO_SRNS_16tagMODEL_MODEL_SEPNS_19GroupIndexContainerE_x8e4:
    /*000008e4*/ LDR         R3, [SP, #56]               @ 0x38 
    /*000008e8*/ LDR         R2, [SP, #48]               @ 0x30 
    /*000008ec*/ LDR         R3, [R3, #8] 
    /*000008f0*/ CMP         R3, R2 
    /*000008f4*/ BNE         _ZN4hirt12ModelManager8addModelEPK17HIRT_MODEL_INFO_SRNS_16tagMODEL_MODEL_SEPNS_19GroupIndexContainerE_x630
    _ZN4hirt12ModelManager8addModelEPK17HIRT_MODEL_INFO_SRNS_16tagMODEL_MODEL_SEPNS_19GroupIndexContainerE_x8f8:
    /*000008f8*/ LDR         R2, [SP, #96]               @ 0x60 
    /*000008fc*/ MOVW        IP, #43691                  @ 0xaaab 
    /*00000900*/ LDR         R3, [SP, #92]               @ 0x5c 
    /*00000904*/ MOVT        IP, #43690                  @ 0xaaaa 
    /*00000908*/ SUB         R2, R2, R3 
    /*0000090c*/ LDR         R0, [R8, #96]               @ 0x60 
    /*00000910*/ ASR         R2, R2, #3 
    /*00000914*/ MUL         R2, IP, R2 
    /*00000918*/ LDR         R4, [SP, #108]              @ 0x6c 
    /*0000091c*/ CMP         R0, R2 
    /*00000920*/ BEQ         _ZN4hirt12ModelManager8addModelEPK17HIRT_MODEL_INFO_SRNS_16tagMODEL_MODEL_SEPNS_19GroupIndexContainerE_xbe0
    /*00000924*/ LDR         R1, [R8, #76]               @ 0x4c 
    /*00000928*/ LDR         R3, [SP, #104]              @ 0x68 
    _ZN4hirt12ModelManager8addModelEPK17HIRT_MODEL_INFO_SRNS_16tagMODEL_MODEL_SEPNS_19GroupIndexContainerE_x92c:
    /*0000092c*/ SUB         IP, R4, R3 
    /*00000930*/ MOVW        LR, #43691                  @ 0xaaab 
    /*00000934*/ MOVT        LR, #43690                  @ 0xaaaa 
    /*00000938*/ ASR         IP, IP, #3 
    /*0000093c*/ STM         SP, {R0, R2} 
    /*00000940*/ MUL         IP, LR, IP 
    /*00000944*/ LDR         R2, WORD_0fb0               @ LDR         R2, [PC, #1636]             @ 0x0000000000000fb0 
    /*00000948*/ LDR         R0, WORD_0fb4               @ LDR         R0, [PC, #1636]             @ 0x0000000000000fb4 
    /*0000094c*/ STR         R1, [SP, #8] 
    /*00000950*/ MOV         R1, #4 
    /*00000954*/ LDR         R3, [SP, #64]               @ 0x40 
    /*00000958*/ STR         IP, [SP, #12] 
    /*0000095c*/ ADD         R2, PC, R2 
    /*00000960*/ ADD         R0, PC, R0 
    /*00000964*/ BL          _Z15HIRT_LOG_PrintfPKc19tagHIRT_LOG_LEVEL_ES0_z
    _ZN4hirt12ModelManager8addModelEPK17HIRT_MODEL_INFO_SRNS_16tagMODEL_MODEL_SEPNS_19GroupIndexContainerE_x968:
    /*00000968*/ LDR         R4, [SP, #108]              @ 0x6c 
    /*0000096c*/ MVN         R3, #0 
    /*00000970*/ STR         R3, [SP, #20] 
    /*00000974*/ LDR         R3, [SP, #104]              @ 0x68 
    _ZN4hirt12ModelManager8addModelEPK17HIRT_MODEL_INFO_SRNS_16tagMODEL_MODEL_SEPNS_19GroupIndexContainerE_x978:
    /*00000978*/ CMP         R3, R4 
    /*0000097c*/ MOV         R6, R3 
    /*00000980*/ ADDNE       R5, R3, #8 
    /*00000984*/ BEQ         _ZN4hirt12ModelManager8addModelEPK17HIRT_MODEL_INFO_SRNS_16tagMODEL_MODEL_SEPNS_19GroupIndexContainerE_x9a8
    _ZN4hirt12ModelManager8addModelEPK17HIRT_MODEL_INFO_SRNS_16tagMODEL_MODEL_SEPNS_19GroupIndexContainerE_x988:
    /*00000988*/ LDR         R0, [R5, #-8] 
    /*0000098c*/ CMP         R0, R5 
    /*00000990*/ BEQ         _ZN4hirt12ModelManager8addModelEPK17HIRT_MODEL_INFO_SRNS_16tagMODEL_MODEL_SEPNS_19GroupIndexContainerE_x998
    /*00000994*/ BL          _ZdlPv
    _ZN4hirt12ModelManager8addModelEPK17HIRT_MODEL_INFO_SRNS_16tagMODEL_MODEL_SEPNS_19GroupIndexContainerE_x998:
    /*00000998*/ ADD         R6, R6, #24 
    /*0000099c*/ ADD         R5, R5, #24 
    /*000009a0*/ CMP         R4, R6 
    /*000009a4*/ BNE         _ZN4hirt12ModelManager8addModelEPK17HIRT_MODEL_INFO_SRNS_16tagMODEL_MODEL_SEPNS_19GroupIndexContainerE_x988
    _ZN4hirt12ModelManager8addModelEPK17HIRT_MODEL_INFO_SRNS_16tagMODEL_MODEL_SEPNS_19GroupIndexContainerE_x9a8:
    /*000009a8*/ LDR         R0, [SP, #104]              @ 0x68 
    /*000009ac*/ CMP         R0, #0 
    /*000009b0*/ BEQ         _ZN4hirt12ModelManager8addModelEPK17HIRT_MODEL_INFO_SRNS_16tagMODEL_MODEL_SEPNS_19GroupIndexContainerE_x9b8
    /*000009b4*/ BL          _ZdlPv
    _ZN4hirt12ModelManager8addModelEPK17HIRT_MODEL_INFO_SRNS_16tagMODEL_MODEL_SEPNS_19GroupIndexContainerE_x9b8:
    /*000009b8*/ LDR         R5, [SP, #92]               @ 0x5c 
    /*000009bc*/ LDR         R6, [SP, #96]               @ 0x60 
    /*000009c0*/ CMP         R5, R6 
    /*000009c4*/ ADDNE       R4, R5, #8 
    /*000009c8*/ BEQ         _ZN4hirt12ModelManager8addModelEPK17HIRT_MODEL_INFO_SRNS_16tagMODEL_MODEL_SEPNS_19GroupIndexContainerE_x9ec
    _ZN4hirt12ModelManager8addModelEPK17HIRT_MODEL_INFO_SRNS_16tagMODEL_MODEL_SEPNS_19GroupIndexContainerE_x9cc:
    /*000009cc*/ LDR         R0, [R4, #-8] 
    /*000009d0*/ CMP         R4, R0 
    /*000009d4*/ BEQ         _ZN4hirt12ModelManager8addModelEPK17HIRT_MODEL_INFO_SRNS_16tagMODEL_MODEL_SEPNS_19GroupIndexContainerE_x9dc
    /*000009d8*/ BL          _ZdlPv
    _ZN4hirt12ModelManager8addModelEPK17HIRT_MODEL_INFO_SRNS_16tagMODEL_MODEL_SEPNS_19GroupIndexContainerE_x9dc:
    /*000009dc*/ ADD         R5, R5, #24 
    /*000009e0*/ ADD         R4, R4, #24 
    /*000009e4*/ CMP         R6, R5 
    /*000009e8*/ BNE         _ZN4hirt12ModelManager8addModelEPK17HIRT_MODEL_INFO_SRNS_16tagMODEL_MODEL_SEPNS_19GroupIndexContainerE_x9cc
    _ZN4hirt12ModelManager8addModelEPK17HIRT_MODEL_INFO_SRNS_16tagMODEL_MODEL_SEPNS_19GroupIndexContainerE_x9ec:
    /*000009ec*/ LDR         R0, [SP, #92]               @ 0x5c 
    /*000009f0*/ CMP         R0, #0 
    /*000009f4*/ BEQ         _ZN4hirt12ModelManager8addModelEPK17HIRT_MODEL_INFO_SRNS_16tagMODEL_MODEL_SEPNS_19GroupIndexContainerE_x9fc
    /*000009f8*/ BL          _ZdlPv
    _ZN4hirt12ModelManager8addModelEPK17HIRT_MODEL_INFO_SRNS_16tagMODEL_MODEL_SEPNS_19GroupIndexContainerE_x9fc:
    /*000009fc*/ LDR         R3, [SP, #20] 
    /*00000a00*/ CMP         R3, #0 
    /*00000a04*/ BEQ         _ZN4hirt12ModelManager8addModelEPK17HIRT_MODEL_INFO_SRNS_16tagMODEL_MODEL_SEPNS_19GroupIndexContainerE_xb70
    /*00000a08*/ LDR         R2, WORD_0fb8               @ LDR         R2, [PC, #1448]             @ 0x0000000000000fb8 
    /*00000a0c*/ MOV         R1, #4 
    /*00000a10*/ LDR         R0, WORD_0fbc               @ LDR         R0, [PC, #1444]             @ 0x0000000000000fbc 
    /*00000a14*/ ADD         R2, PC, R2 
    /*00000a18*/ ADD         R0, PC, R0 
    /*00000a1c*/ BL          _Z15HIRT_LOG_PrintfPKc19tagHIRT_LOG_LEVEL_ES0_z
    _ZN4hirt12ModelManager8addModelEPK17HIRT_MODEL_INFO_SRNS_16tagMODEL_MODEL_SEPNS_19GroupIndexContainerE_xa20:
    /*00000a20*/ LDR         R4, [SP, #68]               @ 0x44 
    _ZN4hirt12ModelManager8addModelEPK17HIRT_MODEL_INFO_SRNS_16tagMODEL_MODEL_SEPNS_19GroupIndexContainerE_xa24:
    /*00000a24*/ LDR         R3, [SP, #36]               @ 0x24 
    /*00000a28*/ CMP         R3, #0 
    /*00000a2c*/ BEQ         _ZN4hirt12ModelManager8addModelEPK17HIRT_MODEL_INFO_SRNS_16tagMODEL_MODEL_SEPNS_19GroupIndexContainerE_xb50
    /*00000a30*/ LDR         R5, [SP, #60]               @ 0x3c 
    /*00000a34*/ LDR         R6, [SP, #52]               @ 0x34 
    /*00000a38*/ B           _ZN4hirt12ModelManager8addModelEPK17HIRT_MODEL_INFO_SRNS_16tagMODEL_MODEL_SEPNS_19GroupIndexContainerE_x1ac
    _ZN4hirt12ModelManager8addModelEPK17HIRT_MODEL_INFO_SRNS_16tagMODEL_MODEL_SEPNS_19GroupIndexContainerE_xa3c:
    /*00000a3c*/ LDR         R0, [SP, #44]               @ 0x2c 
    /*00000a40*/ ADD         R1, SP, #80                 @ 0x50 
    /*00000a44*/ BL          _ZNSt7__cxx1112basic_stringIcSt11char_traitsIcESaIcEE9_M_createERjj
    /*00000a48*/ LDR         R3, [SP, #80]               @ 0x50 
    /*00000a4c*/ STR         R0, [SP, #140]              @ 0x8c 
    /*00000a50*/ STR         R3, [SP, #148]              @ 0x94 
    _ZN4hirt12ModelManager8addModelEPK17HIRT_MODEL_INFO_SRNS_16tagMODEL_MODEL_SEPNS_19GroupIndexContainerE_xa54:
    /*00000a54*/ MOV         R2, R6 
    /*00000a58*/ MOV         R1, FP 
    /*00000a5c*/ BL          memcpy
    /*00000a60*/ LDR         R6, [SP, #80]               @ 0x50 
    /*00000a64*/ LDR         R3, [SP, #140]              @ 0x8c 
    /*00000a68*/ B           _ZN4hirt12ModelManager8addModelEPK17HIRT_MODEL_INFO_SRNS_16tagMODEL_MODEL_SEPNS_19GroupIndexContainerE_x70c
    _ZN4hirt12ModelManager8addModelEPK17HIRT_MODEL_INFO_SRNS_16tagMODEL_MODEL_SEPNS_19GroupIndexContainerE_xa6c:
    /*00000a6c*/ LDR         R0, [SP, #40]               @ 0x28 
    /*00000a70*/ ADD         R1, SP, #84                 @ 0x54 
    /*00000a74*/ BL          _ZNSt7__cxx1112basic_stringIcSt11char_traitsIcESaIcEE9_M_createERjj
    /*00000a78*/ LDR         R3, [SP, #84]               @ 0x54 
    /*00000a7c*/ STR         R0, [SP, #116]              @ 0x74 
    /*00000a80*/ STR         R3, [SP, #124]              @ 0x7c 
    _ZN4hirt12ModelManager8addModelEPK17HIRT_MODEL_INFO_SRNS_16tagMODEL_MODEL_SEPNS_19GroupIndexContainerE_xa84:
    /*00000a84*/ MOV         R2, R6 
    /*00000a88*/ MOV         R1, FP 
    /*00000a8c*/ BL          memcpy
    /*00000a90*/ LDR         R6, [SP, #84]               @ 0x54 
    /*00000a94*/ LDR         R3, [SP, #116]              @ 0x74 
    /*00000a98*/ B           _ZN4hirt12ModelManager8addModelEPK17HIRT_MODEL_INFO_SRNS_16tagMODEL_MODEL_SEPNS_19GroupIndexContainerE_x854
    _ZN4hirt12ModelManager8addModelEPK17HIRT_MODEL_INFO_SRNS_16tagMODEL_MODEL_SEPNS_19GroupIndexContainerE_xa9c:
    /*00000a9c*/ LDRB        R2, [FP] 
    /*00000aa0*/ MOV         R3, SL 
    /*00000aa4*/ STRB        R2, [SP, #148]              @ 0x94 
    /*00000aa8*/ B           _ZN4hirt12ModelManager8addModelEPK17HIRT_MODEL_INFO_SRNS_16tagMODEL_MODEL_SEPNS_19GroupIndexContainerE_x70c
    _ZN4hirt12ModelManager8addModelEPK17HIRT_MODEL_INFO_SRNS_16tagMODEL_MODEL_SEPNS_19GroupIndexContainerE_xaac:
    /*00000aac*/ LDRB        R2, [FP] 
    /*00000ab0*/ MOV         R3, SL 
    /*00000ab4*/ STRB        R2, [SP, #124]              @ 0x7c 
    /*00000ab8*/ B           _ZN4hirt12ModelManager8addModelEPK17HIRT_MODEL_INFO_SRNS_16tagMODEL_MODEL_SEPNS_19GroupIndexContainerE_x854
    _ZN4hirt12ModelManager8addModelEPK17HIRT_MODEL_INFO_SRNS_16tagMODEL_MODEL_SEPNS_19GroupIndexContainerE_xabc:
    /*00000abc*/ LDR         R1, [SP, #44]               @ 0x2c 
    /*00000ac0*/ ADD         R6, SP, #92                 @ 0x5c 
    /*00000ac4*/ MOV         R0, R6 
    /*00000ac8*/ BL          _ZNSt6vectorINSt7__cxx1112basic_stringIcSt11char_traitsIcESaIcEEESaIS5_EE19_M_emplace_back_auxIJS5_EEEvDpOT_
    /*00000acc*/ LDR         R0, [SP, #140]              @ 0x8c 
    /*00000ad0*/ B           _ZN4hirt12ModelManager8addModelEPK17HIRT_MODEL_INFO_SRNS_16tagMODEL_MODEL_SEPNS_19GroupIndexContainerE_x784
    _ZN4hirt12ModelManager8addModelEPK17HIRT_MODEL_INFO_SRNS_16tagMODEL_MODEL_SEPNS_19GroupIndexContainerE_xad4:
    /*00000ad4*/ LDR         R1, [SP, #40]               @ 0x28 
    /*00000ad8*/ ADD         FP, SP, #104                @ 0x68 
    /*00000adc*/ MOV         R0, FP 
    /*00000ae0*/ BL          _ZNSt6vectorINSt7__cxx1112basic_stringIcSt11char_traitsIcESaIcEEESaIS5_EE19_M_emplace_back_auxIJS5_EEEvDpOT_
    /*00000ae4*/ LDR         R0, [SP, #116]              @ 0x74 
    /*00000ae8*/ B           _ZN4hirt12ModelManager8addModelEPK17HIRT_MODEL_INFO_SRNS_16tagMODEL_MODEL_SEPNS_19GroupIndexContainerE_x8cc
    _ZN4hirt12ModelManager8addModelEPK17HIRT_MODEL_INFO_SRNS_16tagMODEL_MODEL_SEPNS_19GroupIndexContainerE_xaec:
    /*00000aec*/ MOV         R0, SL 
    /*00000af0*/ B           _ZN4hirt12ModelManager8addModelEPK17HIRT_MODEL_INFO_SRNS_16tagMODEL_MODEL_SEPNS_19GroupIndexContainerE_xa54
    _ZN4hirt12ModelManager8addModelEPK17HIRT_MODEL_INFO_SRNS_16tagMODEL_MODEL_SEPNS_19GroupIndexContainerE_xaf4:
    /*00000af4*/ MOV         R0, SL 
    /*00000af8*/ B           _ZN4hirt12ModelManager8addModelEPK17HIRT_MODEL_INFO_SRNS_16tagMODEL_MODEL_SEPNS_19GroupIndexContainerE_xa84
    _ZN4hirt12ModelManager8addModelEPK17HIRT_MODEL_INFO_SRNS_16tagMODEL_MODEL_SEPNS_19GroupIndexContainerE_xafc:
    /*00000afc*/ LDR         R2, WORD_0fc0               @ LDR         R2, [PC, #1212]             @ 0x0000000000000fc0 
    /*00000b00*/ MOV         R1, #4 
    /*00000b04*/ LDR         R0, WORD_0fc4               @ LDR         R0, [PC, #1208]             @ 0x0000000000000fc4 
    /*00000b08*/ ADD         R2, PC, R2 
    /*00000b0c*/ ADD         R0, PC, R0 
    /*00000b10*/ BL          _Z15HIRT_LOG_PrintfPKc19tagHIRT_LOG_LEVEL_ES0_z
    /*00000b14*/ LDR         R5, [SP, #60]               @ 0x3c 
    /*00000b18*/ LDR         R6, [SP, #52]               @ 0x34 
    /*00000b1c*/ B           _ZN4hirt12ModelManager8addModelEPK17HIRT_MODEL_INFO_SRNS_16tagMODEL_MODEL_SEPNS_19GroupIndexContainerE_x190
    _ZN4hirt12ModelManager8addModelEPK17HIRT_MODEL_INFO_SRNS_16tagMODEL_MODEL_SEPNS_19GroupIndexContainerE_xb20:
    /*00000b20*/ LDR         R2, WORD_0fc8               @ LDR         R2, [PC, #1184]             @ 0x0000000000000fc8 
    /*00000b24*/ MOV         R1, #4 
    /*00000b28*/ LDR         R0, WORD_0fcc               @ LDR         R0, [PC, #1180]             @ 0x0000000000000fcc 
    /*00000b2c*/ ADD         R2, PC, R2 
    /*00000b30*/ ADD         R0, PC, R0 
    /*00000b34*/ BL          _Z15HIRT_LOG_PrintfPKc19tagHIRT_LOG_LEVEL_ES0_z
    /*00000b38*/ MOV         R4, #0 
    /*00000b3c*/ B           _ZN4hirt12ModelManager8addModelEPK17HIRT_MODEL_INFO_SRNS_16tagMODEL_MODEL_SEPNS_19GroupIndexContainerE_xa24
    _ZN4hirt12ModelManager8addModelEPK17HIRT_MODEL_INFO_SRNS_16tagMODEL_MODEL_SEPNS_19GroupIndexContainerE_xb40:
    /*00000b40*/ MOV         R0, R2 
    /*00000b44*/ ADD         R1, SP, #72                 @ 0x48 
    /*00000b48*/ BL          _ZNSt6vectorIPN4hirt17_MANAGER_ENTITY_SESaIS2_EE19_M_emplace_back_auxIJRKS2_EEEvDpOT_
    /*00000b4c*/ B           _ZN4hirt12ModelManager8addModelEPK17HIRT_MODEL_INFO_SRNS_16tagMODEL_MODEL_SEPNS_19GroupIndexContainerE_x4c0
    _ZN4hirt12ModelManager8addModelEPK17HIRT_MODEL_INFO_SRNS_16tagMODEL_MODEL_SEPNS_19GroupIndexContainerE_xb50:
    /*00000b50*/ LDR         R3, WORD_0fd0               @ LDR         R3, [PC, #1144]             @ 0x0000000000000fd0 
    /*00000b54*/ LDR         R5, [SP, #60]               @ 0x3c 
    /*00000b58*/ ADD         R3, PC, R3 
    /*00000b5c*/ LDR         R6, [SP, #52]               @ 0x34 
    /*00000b60*/ LDM         R3, {R0, IP} 
    /*00000b64*/ CMP         IP, R0 
    /*00000b68*/ BEQ         _ZN4hirt12ModelManager8addModelEPK17HIRT_MODEL_INFO_SRNS_16tagMODEL_MODEL_SEPNS_19GroupIndexContainerE_x228
    /*00000b6c*/ B           _ZN4hirt12ModelManager8addModelEPK17HIRT_MODEL_INFO_SRNS_16tagMODEL_MODEL_SEPNS_19GroupIndexContainerE_x1d4
    _ZN4hirt12ModelManager8addModelEPK17HIRT_MODEL_INFO_SRNS_16tagMODEL_MODEL_SEPNS_19GroupIndexContainerE_xb70:
    /*00000b70*/ LDR         R0, [SP, #72]               @ 0x48 
    /*00000b74*/ MOV         R2, R3 
    /*00000b78*/ LDR         R4, [SP, #68]               @ 0x44 
    /*00000b7c*/ MOV         R3, #76                     @ 0x4c 
    /*00000b80*/ LDR         IP, [R0] 
    /*00000b84*/ LDR         R1, [R8, #140]              @ 0x8c 
    /*00000b88*/ LDR         R0, [R8, #136]              @ 0x88 
    /*00000b8c*/ LDR         IP, [IP, #4] 
    /*00000b90*/ LDR         LR, [R4, #8] 
    /*00000b94*/ STR         R1, [R4, #16] 
    /*00000b98*/ MOV         R1, R3 
    /*00000b9c*/ STR         R0, [R4, #12] 
    /*00000ba0*/ LDR         R0, [SP, #32] 
    /*00000ba4*/ STR         R4, [IP, #68]               @ 0x44 
    /*00000ba8*/ STR         LR, [IP, #72]               @ 0x48 
    /*00000bac*/ BL          memset_s
    /*00000bb0*/ CMP         R0, #0 
    /*00000bb4*/ BEQ         _ZN4hirt12ModelManager8addModelEPK17HIRT_MODEL_INFO_SRNS_16tagMODEL_MODEL_SEPNS_19GroupIndexContainerE_xdf4
    /*00000bb8*/ STR         R0, [SP] 
    /*00000bbc*/ MOV         R1, #4 
    /*00000bc0*/ LDR         R3, WORD_0fd4               @ LDR         R3, [PC, #1036]             @ 0x0000000000000fd4 
    /*00000bc4*/ LDR         R2, WORD_0fd8               @ LDR         R2, [PC, #1036]             @ 0x0000000000000fd8 
    /*00000bc8*/ LDR         R0, WORD_0fdc               @ LDR         R0, [PC, #1036]             @ 0x0000000000000fdc 
    /*00000bcc*/ ADD         R3, PC, R3 
    /*00000bd0*/ ADD         R2, PC, R2 
    /*00000bd4*/ ADD         R0, PC, R0 
    /*00000bd8*/ BL          _Z15HIRT_LOG_PrintfPKc19tagHIRT_LOG_LEVEL_ES0_z
    /*00000bdc*/ B           _ZN4hirt12ModelManager8addModelEPK17HIRT_MODEL_INFO_SRNS_16tagMODEL_MODEL_SEPNS_19GroupIndexContainerE_xa20
    _ZN4hirt12ModelManager8addModelEPK17HIRT_MODEL_INFO_SRNS_16tagMODEL_MODEL_SEPNS_19GroupIndexContainerE_xbe0:
    /*00000be0*/ LDR         R3, [SP, #104]              @ 0x68 
    /*00000be4*/ LDR         R1, [R8, #76]               @ 0x4c 
    /*00000be8*/ SUB         LR, R4, R3 
    /*00000bec*/ ASR         LR, LR, #3 
    /*00000bf0*/ MUL         LR, IP, LR 
    /*00000bf4*/ CMP         R1, LR 
    /*00000bf8*/ BNE         _ZN4hirt12ModelManager8addModelEPK17HIRT_MODEL_INFO_SRNS_16tagMODEL_MODEL_SEPNS_19GroupIndexContainerE_x92c
    /*00000bfc*/ CMP         R1, #0 
    /*00000c00*/ BEQ         _ZN4hirt12ModelManager8addModelEPK17HIRT_MODEL_INFO_SRNS_16tagMODEL_MODEL_SEPNS_19GroupIndexContainerE_x978
    /*00000c04*/ LDR         R5, [R8, #80]               @ 0x50 
    /*00000c08*/ ADD         SL, SP, #148                @ 0x94 
    /*00000c0c*/ STR         SL, [SP, #140]              @ 0x8c 
    /*00000c10*/ CMP         R5, #0 
    /*00000c14*/ BEQ         _ZN4hirt12ModelManager8addModelEPK17HIRT_MODEL_INFO_SRNS_16tagMODEL_MODEL_SEPNS_19GroupIndexContainerE_xd8c
    /*00000c18*/ STR         IP, [SP, #40]               @ 0x28 
    /*00000c1c*/ MOV         R9, #0 
    /*00000c20*/ ADD         FP, SP, #140                @ 0x8c 
    /*00000c24*/ ADD         R3, SP, #88                 @ 0x58 
    /*00000c28*/ STR         R3, [SP, #44]               @ 0x2c 
    _ZN4hirt12ModelManager8addModelEPK17HIRT_MODEL_INFO_SRNS_16tagMODEL_MODEL_SEPNS_19GroupIndexContainerE_xc2c:
    /*00000c2c*/ MOV         R0, R5 
    /*00000c30*/ BL          strlen
    /*00000c34*/ STR         R0, [SP, #88]               @ 0x58 
    /*00000c38*/ CMP         R0, #15 
    /*00000c3c*/ MOV         R4, R0 
    /*00000c40*/ BHI         _ZN4hirt12ModelManager8addModelEPK17HIRT_MODEL_INFO_SRNS_16tagMODEL_MODEL_SEPNS_19GroupIndexContainerE_xdb0
    /*00000c44*/ CMP         R0, #1 
    /*00000c48*/ BEQ         _ZN4hirt12ModelManager8addModelEPK17HIRT_MODEL_INFO_SRNS_16tagMODEL_MODEL_SEPNS_19GroupIndexContainerE_xde4
    /*00000c4c*/ CMP         R0, #0 
    /*00000c50*/ MOVEQ       R3, SL 
    /*00000c54*/ BNE         _ZN4hirt12ModelManager8addModelEPK17HIRT_MODEL_INFO_SRNS_16tagMODEL_MODEL_SEPNS_19GroupIndexContainerE_xe78
    _ZN4hirt12ModelManager8addModelEPK17HIRT_MODEL_INFO_SRNS_16tagMODEL_MODEL_SEPNS_19GroupIndexContainerE_xc58:
    /*00000c58*/ STR         R4, [SP, #144]              @ 0x90 
    /*00000c5c*/ MOV         R6, #0 
    /*00000c60*/ STRB        R6, [R3, R4] 
    /*00000c64*/ MOV         R2, FP 
    /*00000c68*/ LDR         R1, [SP, #108]              @ 0x6c 
    /*00000c6c*/ MOV         R3, #0 
    /*00000c70*/ LDR         R0, [SP, #104]              @ 0x68 
    /*00000c74*/ BL          _ZSt9__find_ifIN9__gnu_cxx17__normal_iteratorIPNSt7__cxx1112basic_stringIcSt11char_traitsIcESaIcEEESt6vectorIS7_SaIS7_EEEENS0_5__ops16_Iter_equals_valIKS7_EEET_SH_SH_T0_St26random_access_iterator_tag
    /*00000c78*/ LDR         R3, [SP, #108]              @ 0x6c 
    /*00000c7c*/ CMP         R3, R0 
    /*00000c80*/ BEQ         _ZN4hirt12ModelManager8addModelEPK17HIRT_MODEL_INFO_SRNS_16tagMODEL_MODEL_SEPNS_19GroupIndexContainerE_xe44
    /*00000c84*/ ADD         R4, R0, #24 
    /*00000c88*/ CMP         R3, R4 
    /*00000c8c*/ MOV         R5, R4 
    /*00000c90*/ BEQ         _ZN4hirt12ModelManager8addModelEPK17HIRT_MODEL_INFO_SRNS_16tagMODEL_MODEL_SEPNS_19GroupIndexContainerE_xd3c
    /*00000c94*/ SUB         R7, R3, R4 
    /*00000c98*/ LDR         R1, [SP, #40]               @ 0x28 
    /*00000c9c*/ ASR         R2, R7, #3 
    /*00000ca0*/ MUL         R2, R1, R2 
    /*00000ca4*/ CMP         R2, R6 
    /*00000ca8*/ BLE         _ZN4hirt12ModelManager8addModelEPK17HIRT_MODEL_INFO_SRNS_16tagMODEL_MODEL_SEPNS_19GroupIndexContainerE_xd38
    /*00000cac*/ ADD         R7, R0, R7 
    /*00000cb0*/ B           _ZN4hirt12ModelManager8addModelEPK17HIRT_MODEL_INFO_SRNS_16tagMODEL_MODEL_SEPNS_19GroupIndexContainerE_xcf8
    _ZN4hirt12ModelManager8addModelEPK17HIRT_MODEL_INFO_SRNS_16tagMODEL_MODEL_SEPNS_19GroupIndexContainerE_xcb4:
    /*00000cb4*/ LDR         IP, [R4, #4] 
    /*00000cb8*/ CMP         R3, #0 
    /*00000cbc*/ LDR         R0, [R4, #8] 
    /*00000cc0*/ STR         R1, [R4, #-24]              @ 0xffffffe8 
    /*00000cc4*/ STR         IP, [R4, #-20]              @ 0xffffffec 
    /*00000cc8*/ LDR         R1, [R4, #-16] 
    /*00000ccc*/ STR         R0, [R4, #-16] 
    /*00000cd0*/ BEQ         _ZN4hirt12ModelManager8addModelEPK17HIRT_MODEL_INFO_SRNS_16tagMODEL_MODEL_SEPNS_19GroupIndexContainerE_xd2c
    /*00000cd4*/ STR         R3, [R4] 
    /*00000cd8*/ STR         R1, [R4, #8] 
    _ZN4hirt12ModelManager8addModelEPK17HIRT_MODEL_INFO_SRNS_16tagMODEL_MODEL_SEPNS_19GroupIndexContainerE_xcdc:
    /*00000cdc*/ CMP         R5, R7 
    /*00000ce0*/ MOV         R0, R5 
    /*00000ce4*/ STR         R6, [R4, #4] 
    /*00000ce8*/ ADD         R4, R4, #24 
    /*00000cec*/ STRB        R6, [R3] 
    /*00000cf0*/ BEQ         _ZN4hirt12ModelManager8addModelEPK17HIRT_MODEL_INFO_SRNS_16tagMODEL_MODEL_SEPNS_19GroupIndexContainerE_xd98
    /*00000cf4*/ ADD         R5, R5, #24 
    _ZN4hirt12ModelManager8addModelEPK17HIRT_MODEL_INFO_SRNS_16tagMODEL_MODEL_SEPNS_19GroupIndexContainerE_xcf8:
    /*00000cf8*/ LDR         R3, [R4, #-24]              @ 0xffffffe8 
    /*00000cfc*/ MOV         R2, R4 
    /*00000d00*/ SUB         IP, R4, #16 
    /*00000d04*/ LDR         R1, [R2], #8 
    /*00000d08*/ CMP         R1, R2 
    /*00000d0c*/ BEQ         _ZN4hirt12ModelManager8addModelEPK17HIRT_MODEL_INFO_SRNS_16tagMODEL_MODEL_SEPNS_19GroupIndexContainerE_xda0
    /*00000d10*/ CMP         IP, R3 
    /*00000d14*/ BNE         _ZN4hirt12ModelManager8addModelEPK17HIRT_MODEL_INFO_SRNS_16tagMODEL_MODEL_SEPNS_19GroupIndexContainerE_xcb4
    /*00000d18*/ LDR         R0, [R4, #4] 
    /*00000d1c*/ LDR         R3, [R4, #8] 
    /*00000d20*/ STR         R1, [R4, #-24]              @ 0xffffffe8 
    /*00000d24*/ STR         R0, [R4, #-20]              @ 0xffffffec 
    /*00000d28*/ STR         R3, [R4, #-16] 
    _ZN4hirt12ModelManager8addModelEPK17HIRT_MODEL_INFO_SRNS_16tagMODEL_MODEL_SEPNS_19GroupIndexContainerE_xd2c:
    /*00000d2c*/ STR         R2, [R4] 
    /*00000d30*/ MOV         R3, R2 
    /*00000d34*/ B           _ZN4hirt12ModelManager8addModelEPK17HIRT_MODEL_INFO_SRNS_16tagMODEL_MODEL_SEPNS_19GroupIndexContainerE_xcdc
    _ZN4hirt12ModelManager8addModelEPK17HIRT_MODEL_INFO_SRNS_16tagMODEL_MODEL_SEPNS_19GroupIndexContainerE_xd38:
    /*00000d38*/ MOV         R4, R3 
    _ZN4hirt12ModelManager8addModelEPK17HIRT_MODEL_INFO_SRNS_16tagMODEL_MODEL_SEPNS_19GroupIndexContainerE_xd3c:
    /*00000d3c*/ LDR         R0, [R4, #-24]              @ 0xffffffe8 
    /*00000d40*/ SUB         R3, R4, #16 
    /*00000d44*/ SUB         R4, R4, #24 
    /*00000d48*/ CMP         R0, R3 
    /*00000d4c*/ STR         R4, [SP, #108]              @ 0x6c 
    /*00000d50*/ BEQ         _ZN4hirt12ModelManager8addModelEPK17HIRT_MODEL_INFO_SRNS_16tagMODEL_MODEL_SEPNS_19GroupIndexContainerE_xd58
    /*00000d54*/ BL          _ZdlPv
    _ZN4hirt12ModelManager8addModelEPK17HIRT_MODEL_INFO_SRNS_16tagMODEL_MODEL_SEPNS_19GroupIndexContainerE_xd58:
    /*00000d58*/ LDR         R0, [SP, #140]              @ 0x8c 
    /*00000d5c*/ CMP         R0, SL 
    /*00000d60*/ BEQ         _ZN4hirt12ModelManager8addModelEPK17HIRT_MODEL_INFO_SRNS_16tagMODEL_MODEL_SEPNS_19GroupIndexContainerE_xd68
    /*00000d64*/ BL          _ZdlPv
    _ZN4hirt12ModelManager8addModelEPK17HIRT_MODEL_INFO_SRNS_16tagMODEL_MODEL_SEPNS_19GroupIndexContainerE_xd68:
    /*00000d68*/ LDR         R3, [R8, #76]               @ 0x4c 
    /*00000d6c*/ ADD         R9, R9, #1 
    /*00000d70*/ CMP         R3, R9 
    /*00000d74*/ BLS         _ZN4hirt12ModelManager8addModelEPK17HIRT_MODEL_INFO_SRNS_16tagMODEL_MODEL_SEPNS_19GroupIndexContainerE_xe38
    /*00000d78*/ LDR         R5, [R8, #80]               @ 0x50 
    /*00000d7c*/ MOV         R3, #130                    @ 0x82 
    /*00000d80*/ STR         SL, [SP, #140]              @ 0x8c 
    /*00000d84*/ MLAS        R5, R3, R9, R5 
    /*00000d88*/ BNE         _ZN4hirt12ModelManager8addModelEPK17HIRT_MODEL_INFO_SRNS_16tagMODEL_MODEL_SEPNS_19GroupIndexContainerE_xc2c
    _ZN4hirt12ModelManager8addModelEPK17HIRT_MODEL_INFO_SRNS_16tagMODEL_MODEL_SEPNS_19GroupIndexContainerE_xd8c:
    /*00000d8c*/ LDR         R0, WORD_0fe0               @ LDR         R0, [PC, #588]              @ 0x0000000000000fe0 
    /*00000d90*/ ADD         R0, PC, R0 
    /*00000d94*/ BL          _ZSt19__throw_logic_errorPKc
    _ZN4hirt12ModelManager8addModelEPK17HIRT_MODEL_INFO_SRNS_16tagMODEL_MODEL_SEPNS_19GroupIndexContainerE_xd98:
    /*00000d98*/ LDR         R4, [SP, #108]              @ 0x6c 
    /*00000d9c*/ B           _ZN4hirt12ModelManager8addModelEPK17HIRT_MODEL_INFO_SRNS_16tagMODEL_MODEL_SEPNS_19GroupIndexContainerE_xd3c
    _ZN4hirt12ModelManager8addModelEPK17HIRT_MODEL_INFO_SRNS_16tagMODEL_MODEL_SEPNS_19GroupIndexContainerE_xda0:
    /*00000da0*/ MOV         R1, R4 
    /*00000da4*/ BL          _ZNSt7__cxx1112basic_stringIcSt11char_traitsIcESaIcEE9_M_assignERKS4_
    /*00000da8*/ LDR         R3, [R4] 
    /*00000dac*/ B           _ZN4hirt12ModelManager8addModelEPK17HIRT_MODEL_INFO_SRNS_16tagMODEL_MODEL_SEPNS_19GroupIndexContainerE_xcdc
    _ZN4hirt12ModelManager8addModelEPK17HIRT_MODEL_INFO_SRNS_16tagMODEL_MODEL_SEPNS_19GroupIndexContainerE_xdb0:
    /*00000db0*/ LDR         R1, [SP, #44]               @ 0x2c 
    /*00000db4*/ MOV         R2, #0 
    /*00000db8*/ MOV         R0, FP 
    /*00000dbc*/ BL          _ZNSt7__cxx1112basic_stringIcSt11char_traitsIcESaIcEE9_M_createERjj
    /*00000dc0*/ LDR         R3, [SP, #88]               @ 0x58 
    /*00000dc4*/ STR         R0, [SP, #140]              @ 0x8c 
    /*00000dc8*/ STR         R3, [SP, #148]              @ 0x94 
    _ZN4hirt12ModelManager8addModelEPK17HIRT_MODEL_INFO_SRNS_16tagMODEL_MODEL_SEPNS_19GroupIndexContainerE_xdcc:
    /*00000dcc*/ MOV         R2, R4 
    /*00000dd0*/ MOV         R1, R5 
    /*00000dd4*/ BL          memcpy
    /*00000dd8*/ LDR         R4, [SP, #88]               @ 0x58 
    /*00000ddc*/ LDR         R3, [SP, #140]              @ 0x8c 
    /*00000de0*/ B           _ZN4hirt12ModelManager8addModelEPK17HIRT_MODEL_INFO_SRNS_16tagMODEL_MODEL_SEPNS_19GroupIndexContainerE_xc58
    _ZN4hirt12ModelManager8addModelEPK17HIRT_MODEL_INFO_SRNS_16tagMODEL_MODEL_SEPNS_19GroupIndexContainerE_xde4:
    /*00000de4*/ LDRB        R2, [R5] 
    /*00000de8*/ LDR         R3, [SP, #140]              @ 0x8c 
    /*00000dec*/ STRB        R2, [SP, #148]              @ 0x94 
    /*00000df0*/ B           _ZN4hirt12ModelManager8addModelEPK17HIRT_MODEL_INFO_SRNS_16tagMODEL_MODEL_SEPNS_19GroupIndexContainerE_xc58
    _ZN4hirt12ModelManager8addModelEPK17HIRT_MODEL_INFO_SRNS_16tagMODEL_MODEL_SEPNS_19GroupIndexContainerE_xdf4:
    /*00000df4*/ LDR         R0, [SP, #68]               @ 0x44 
    /*00000df8*/ LDR         R1, [SP, #32] 
    /*00000dfc*/ LDR         R3, [R0, #8] 
    /*00000e00*/ LDR         R2, [SP, #64]               @ 0x40 
    /*00000e04*/ STR         R0, [R1, #68]               @ 0x44 
    /*00000e08*/ MOV         R0, R1 
    /*00000e0c*/ STR         R3, [R1, #72]               @ 0x48 
    /*00000e10*/ MOV         R3, #64                     @ 0x40 
    /*00000e14*/ MOV         R1, #65                     @ 0x41 
    /*00000e18*/ BL          strncpy_s
    /*00000e1c*/ SUBS        R3, R0, #0 
    /*00000e20*/ STR         R3, [SP, #20] 
    /*00000e24*/ BNE         _ZN4hirt12ModelManager8addModelEPK17HIRT_MODEL_INFO_SRNS_16tagMODEL_MODEL_SEPNS_19GroupIndexContainerE_xe84
    /*00000e28*/ LDR         R3, [SP, #72]               @ 0x48 
    /*00000e2c*/ MOV         R2, #2 
    /*00000e30*/ STR         R2, [R3, #8] 
    /*00000e34*/ B           _ZN4hirt12ModelManager8addModelEPK17HIRT_MODEL_INFO_SRNS_16tagMODEL_MODEL_SEPNS_19GroupIndexContainerE_xa8
    _ZN4hirt12ModelManager8addModelEPK17HIRT_MODEL_INFO_SRNS_16tagMODEL_MODEL_SEPNS_19GroupIndexContainerE_xe38:
    /*00000e38*/ LDR         R4, [SP, #108]              @ 0x6c 
    /*00000e3c*/ LDR         R3, [SP, #104]              @ 0x68 
    /*00000e40*/ B           _ZN4hirt12ModelManager8addModelEPK17HIRT_MODEL_INFO_SRNS_16tagMODEL_MODEL_SEPNS_19GroupIndexContainerE_x978
    _ZN4hirt12ModelManager8addModelEPK17HIRT_MODEL_INFO_SRNS_16tagMODEL_MODEL_SEPNS_19GroupIndexContainerE_xe44:
    /*00000e44*/ LDR         R2, WORD_0fe4               @ LDR         R2, [PC, #408]              @ 0x0000000000000fe4 
    /*00000e48*/ MOV         R1, #4 
    /*00000e4c*/ LDR         R0, WORD_0fe8               @ LDR         R0, [PC, #404]              @ 0x0000000000000fe8 
    /*00000e50*/ STR         R5, [SP] 
    /*00000e54*/ LDR         R3, [SP, #64]               @ 0x40 
    /*00000e58*/ ADD         R2, PC, R2 
    /*00000e5c*/ ADD         R0, PC, R0 
    /*00000e60*/ BL          _Z15HIRT_LOG_PrintfPKc19tagHIRT_LOG_LEVEL_ES0_z
    /*00000e64*/ LDR         R0, [SP, #140]              @ 0x8c 
    /*00000e68*/ CMP         R0, SL 
    /*00000e6c*/ BEQ         _ZN4hirt12ModelManager8addModelEPK17HIRT_MODEL_INFO_SRNS_16tagMODEL_MODEL_SEPNS_19GroupIndexContainerE_x968
    /*00000e70*/ BL          _ZdlPv
    /*00000e74*/ B           _ZN4hirt12ModelManager8addModelEPK17HIRT_MODEL_INFO_SRNS_16tagMODEL_MODEL_SEPNS_19GroupIndexContainerE_x968
    _ZN4hirt12ModelManager8addModelEPK17HIRT_MODEL_INFO_SRNS_16tagMODEL_MODEL_SEPNS_19GroupIndexContainerE_xe78:
    /*00000e78*/ MOV         R0, SL 
    /*00000e7c*/ B           _ZN4hirt12ModelManager8addModelEPK17HIRT_MODEL_INFO_SRNS_16tagMODEL_MODEL_SEPNS_19GroupIndexContainerE_xdcc
    _ZN4hirt12ModelManager8addModelEPK17HIRT_MODEL_INFO_SRNS_16tagMODEL_MODEL_SEPNS_19GroupIndexContainerE_xe80:
    /*00000e80*/ BL          __stack_chk_fail
    _ZN4hirt12ModelManager8addModelEPK17HIRT_MODEL_INFO_SRNS_16tagMODEL_MODEL_SEPNS_19GroupIndexContainerE_xe84:
    /*00000e84*/ STR         R3, [SP] 
    /*00000e88*/ MOV         R1, #4 
    /*00000e8c*/ LDR         R3, WORD_0fec               @ LDR         R3, [PC, #344]              @ 0x0000000000000fec 
    /*00000e90*/ LDR         R2, WORD_0ff0               @ LDR         R2, [PC, #344]              @ 0x0000000000000ff0 
    /*00000e94*/ LDR         R0, WORD_0ff4               @ LDR         R0, [PC, #344]              @ 0x0000000000000ff4 
    /*00000e98*/ ADD         R3, PC, R3 
    /*00000e9c*/ ADD         R2, PC, R2 
    /*00000ea0*/ ADD         R0, PC, R0 
    /*00000ea4*/ BL          _Z15HIRT_LOG_PrintfPKc19tagHIRT_LOG_LEVEL_ES0_z
    /*00000ea8*/ B           _ZN4hirt12ModelManager8addModelEPK17HIRT_MODEL_INFO_SRNS_16tagMODEL_MODEL_SEPNS_19GroupIndexContainerE_xa20
    _ZN4hirt12ModelManager8addModelEPK17HIRT_MODEL_INFO_SRNS_16tagMODEL_MODEL_SEPNS_19GroupIndexContainerE_xeac:
    /*00000eac*/ BL          _ZSt20__throw_system_errori
    _ZN4hirt12ModelManager8addModelEPK17HIRT_MODEL_INFO_SRNS_16tagMODEL_MODEL_SEPNS_19GroupIndexContainerE_xeb0:
    /*00000eb0*/ BL          _ZSt20__throw_system_errori
    /*00000eb4*/ B           _ZN4hirt12ModelManager8addModelEPK17HIRT_MODEL_INFO_SRNS_16tagMODEL_MODEL_SEPNS_19GroupIndexContainerE_x6d0
    /*00000eb8*/ LDR         R0, [SP, #140]              @ 0x8c 
    /*00000ebc*/ ADD         FP, SP, #104                @ 0x68 
    /*00000ec0*/ CMP         R0, SL 
    /*00000ec4*/ BEQ         _ZN4hirt12ModelManager8addModelEPK17HIRT_MODEL_INFO_SRNS_16tagMODEL_MODEL_SEPNS_19GroupIndexContainerE_x6c0
    _ZN4hirt12ModelManager8addModelEPK17HIRT_MODEL_INFO_SRNS_16tagMODEL_MODEL_SEPNS_19GroupIndexContainerE_xec8:
    /*00000ec8*/ BL          _ZdlPv
    /*00000ecc*/ B           _ZN4hirt12ModelManager8addModelEPK17HIRT_MODEL_INFO_SRNS_16tagMODEL_MODEL_SEPNS_19GroupIndexContainerE_x6c0
    /*00000ed0*/ LDR         R0, [SP, #116]              @ 0x74 
    /*00000ed4*/ ADD         R6, SP, #92                 @ 0x5c 
    /*00000ed8*/ CMP         R0, SL 
    /*00000edc*/ BNE         _ZN4hirt12ModelManager8addModelEPK17HIRT_MODEL_INFO_SRNS_16tagMODEL_MODEL_SEPNS_19GroupIndexContainerE_xec8
    /*00000ee0*/ B           _ZN4hirt12ModelManager8addModelEPK17HIRT_MODEL_INFO_SRNS_16tagMODEL_MODEL_SEPNS_19GroupIndexContainerE_x6c0
    /*00000ee4*/ LDR         R0, [SP, #140]              @ 0x8c 
    /*00000ee8*/ ADD         R6, SP, #92                 @ 0x5c 
    /*00000eec*/ CMP         R0, SL 
    /*00000ef0*/ BEQ         _ZN4hirt12ModelManager8addModelEPK17HIRT_MODEL_INFO_SRNS_16tagMODEL_MODEL_SEPNS_19GroupIndexContainerE_x6bc
    /*00000ef4*/ ADD         FP, SP, #104                @ 0x68 
    /*00000ef8*/ BL          _ZdlPv
    /*00000efc*/ B           _ZN4hirt12ModelManager8addModelEPK17HIRT_MODEL_INFO_SRNS_16tagMODEL_MODEL_SEPNS_19GroupIndexContainerE_x6c0
    /*00000f00*/ WORD_0f00: .word 0x00000ed0
    /*00000f04*/ WORD_0f04: .word 0x00000000
    /*00000f08*/ WORD_0f08: .word 0x00000e6c
    /*00000f0c*/ WORD_0f0c: .word 0x00000e6c
    /*00000f10*/ WORD_0f10: .word 0x00000e58
    /*00000f14*/ WORD_0f14: .word 0x00000e20
    /*00000f18*/ WORD_0f18: .word 0x00000e20
    /*00000f1c*/ WORD_0f1c: .word 0x00000000
    /*00000f20*/ WORD_0f20: .word 0x00000e04
    /*00000f24*/ WORD_0f24: .word 0x00000df4
    /*00000f28*/ WORD_0f28: .word 0x00000da4
    /*00000f2c*/ WORD_0f2c: .word 0x00000da4
    /*00000f30*/ WORD_0f30: .word 0x00000d84
    /*00000f34*/ WORD_0f34: .word 0x00000d7c
    /*00000f38*/ WORD_0f38: .word 0x00000d6c
    /*00000f3c*/ WORD_0f3c: .word 0x00000d1c
    /*00000f40*/ WORD_0f40: .word 0x00000c9c
    /*00000f44*/ WORD_0f44: .word 0x00000c84
    /*00000f48*/ WORD_0f48: .word 0x00000bfc
    /*00000f4c*/ WORD_0f4c: .word 0x00000bfc
    /*00000f50*/ WORD_0f50: .word 0x00000000
    /*00000f54*/ WORD_0f54: .word 0x00000bac
    /*00000f58*/ WORD_0f58: .word 0x00000bac
    /*00000f5c*/ WORD_0f5c: .word 0x00000bac
    /*00000f60*/ WORD_0f60: .word 0x00000b7c
    /*00000f64*/ WORD_0f64: .word 0x00000b68
    /*00000f68*/ WORD_0f68: .word 0x00000b68
    /*00000f6c*/ WORD_0f6c: .word 0x00000b58
    /*00000f70*/ WORD_0f70: .word 0x00000adc
    /*00000f74*/ WORD_0f74: .word 0x00000ab4
    /*00000f78*/ WORD_0f78: .word 0x00000aa0
    /*00000f7c*/ WORD_0f7c: .word 0x00000a3c
    /*00000f80*/ WORD_0f80: .word 0x00000a3c
    /*00000f84*/ WORD_0f84: .word 0x00000a3c
    /*00000f88*/ WORD_0f88: .word 0x00000a2c
    /*00000f8c*/ WORD_0f8c: .word 0x00000a0c
    /*00000f90*/ WORD_0f90: .word 0x00000a0c
    /*00000f94*/ WORD_0f94: .word 0x000009b8
    /*00000f98*/ WORD_0f98: .word 0x000009b8
    /*00000f9c*/ WORD_0f9c: .word 0x00000000
    /*00000fa0*/ WORD_0fa0: .word 0x00000000
    /*00000fa4*/ WORD_0fa4: .word 0x000008ec
    /*00000fa8*/ WORD_0fa8: .word 0x000008c8
    /*00000fac*/ WORD_0fac: .word 0x00000778
    /*00000fb0*/ WORD_0fb0: .word 0x0000064c
    /*00000fb4*/ WORD_0fb4: .word 0x0000064c
    /*00000fb8*/ WORD_0fb8: .word 0x0000059c
    /*00000fbc*/ WORD_0fbc: .word 0x0000059c
    /*00000fc0*/ WORD_0fc0: .word 0x000004b0
    /*00000fc4*/ WORD_0fc4: .word 0x000004b0
    /*00000fc8*/ WORD_0fc8: .word 0x00000494
    /*00000fcc*/ WORD_0fcc: .word 0x00000494
    /*00000fd0*/ WORD_0fd0: .word 0x00000470
    /*00000fd4*/ WORD_0fd4: .word 0x00000400
    /*00000fd8*/ WORD_0fd8: .word 0x00000400
    /*00000fdc*/ WORD_0fdc: .word 0x00000400
    /*00000fe0*/ WORD_0fe0: .word 0x00000248
    /*00000fe4*/ WORD_0fe4: .word 0x00000184
    /*00000fe8*/ WORD_0fe8: .word 0x00000184
    /*00000fec*/ WORD_0fec: .word 0x0000014c
    /*00000ff0*/ WORD_0ff0: .word 0x0000014c
    /*00000ff4*/ WORD_0ff4: .word 0x0000014c
FUNC_END _ZN4hirt12ModelManager8addModelEPK17HIRT_MODEL_INFO_SRNS_16tagMODEL_MODEL_SEPNS_19GroupIndexContainerE


@ - - - - - - - - - - - - - - - - - - - - - - - - - - - - - 
@ .ARM.extab.text._ZN4hirt12ModelManager8addModelEPK17HIRT_MODEL_INFO_SRNS_16tagMODEL_MODEL_SEPNS_19GroupIndexContainerE
@ Size: 0x66
@ - - - - - - - - - - - - - - - - - - - - - - - - - - - - - 

@ - - - - - - - - - - - - - - - - - - - - - - - - - - - - - 
@ .text.startup._GLOBAL__sub_I_ModelManager.cpp
@ Size: 0x8c
@ - - - - - - - - - - - - - - - - - - - - - - - - - - - - - 

FUNC_BEGIN _GLOBAL__sub_I_ModelManager.cpp
    /*00000000*/ MOV         IP, #16384                  @ 0x4000 
    /*00000004*/ PUSH        {R4, R5, R6, LR} 
    /*00000008*/ SUB         IP, SP, IP 
    /*0000000c*/ STR         R0, [IP, #4080]             @ 0xff0 
    /*00000010*/ LDR         R5, WORD_0074               @ LDR         R5, [PC, #92]               @ 0x0000000000000074 
    /*00000014*/ LDR         R6, WORD_0078               @ LDR         R6, [PC, #92]               @ 0x0000000000000078 
    /*00000018*/ ADD         R5, PC, R5 
    /*0000001c*/ LDR         R4, WORD_007c               @ LDR         R4, [PC, #88]               @ 0x000000000000007c 
    /*00000020*/ MOV         R0, R5 
    /*00000024*/ ADD         R6, PC, R6 
    /*00000028*/ BL          _ZNSt8ios_base4InitC1Ev
    /*0000002c*/ LDR         R3, WORD_0080               @ LDR         R3, [PC, #76]               @ 0x0000000000000080 
    /*00000030*/ MOV         R0, R5 
    /*00000034*/ ADD         R4, PC, R4 
    /*00000038*/ LDR         R1, [R6, R3] 
    /*0000003c*/ MOV         R2, R4 
    /*00000040*/ BL          __aeabi_atexit
    /*00000044*/ LDR         R3, WORD_0084               @ LDR         R3, [PC, #56]               @ 0x0000000000000084 
    /*00000048*/ MOV         IP, #0 
    /*0000004c*/ LDR         R1, WORD_0088               @ LDR         R1, [PC, #52]               @ 0x0000000000000088 
    /*00000050*/ MOV         R2, R4 
    /*00000054*/ ADD         R3, PC, R3 
    /*00000058*/ ADD         R1, PC, R1 
    /*0000005c*/ MOV         R0, R3 
    /*00000060*/ STR         IP, [R3] 
    /*00000064*/ STR         IP, [R3, #4] 
    /*00000068*/ STR         IP, [R3, #8] 
    /*0000006c*/ POP         {R4, R5, R6, LR} 
    _GLOBAL__sub_I_ModelManager.cpp_x70:
    /*00000070*/ B           _GLOBAL__sub_I_ModelManager.cpp_x70@ __aeabi_atexit [R_ARM_JUMP24: +0x0] 
    /*00000074*/ WORD_0074: .word 0x00000054
    /*00000078*/ WORD_0078: .word 0x0000004c
    /*0000007c*/ WORD_007c: .word 0x00000040
    /*00000080*/ WORD_0080: .word 0x00000000
    /*00000084*/ WORD_0084: .word 0x00000028
    /*00000088*/ WORD_0088: .word 0x00000028
FUNC_END _GLOBAL__sub_I_ModelManager.cpp


