@
@ -- FILES --
@

@ ModelGroupManager.cpp


unsigned char data[0] = {
};

unsigned char bss[0];

_RODATA__ZTS17HIRT_GROUP_ITEM_S_0000: .ascii "17HIRT_GROUP_ITEM_S\0",
_RODATA__ZTS17HIRT_GROUP_ITEM_S_0014: .ascii ""


unsigned char data.rel.ro._ZTI17HIRT_GROUP_ITEM_S[8] = {
    /*0000*/ 0x08, 0x00, 0x00, 0x00, 0x00, 0x00, 0x00, 0x00, 
};

unsigned char rel.data.rel.ro._ZTI17HIRT_GROUP_ITEM_S[16] = {
    /*0000*/ 0x00, 0x00, 0x00, 0x00, 0x02, 0x6a, 0x02, 0x00, 0x04, 0x00, 0x00, 0x00, 0x02, 0x68, 0x02, 0x00, 
};

_RODATA__ZTS21HIRT_CONNECTOR_INFO_S_0000: .ascii "21HIRT_CONNECTOR_INFO_S\0",
_RODATA__ZTS21HIRT_CONNECTOR_INFO_S_0018: .ascii ""


unsigned char data.rel.ro._ZTI21HIRT_CONNECTOR_INFO_S[12] = {
    /*0000*/ 0x08, 0x00, 0x00, 0x00, 0x00, 0x00, 0x00, 0x00, 0x00, 0x00, 0x00, 0x00, 
};

unsigned char rel.data.rel.ro._ZTI21HIRT_CONNECTOR_INFO_S[24] = {
    /*0000*/ 0x00, 0x00, 0x00, 0x00, 0x02, 0x6d, 0x02, 0x00, 0x04, 0x00, 0x00, 0x00, 0x02, 0x6b, 0x02, 0x00, 
    /*0010*/ 0x08, 0x00, 0x00, 0x00, 0x02, 0x69, 0x02, 0x00, 
};

_RODATA__ZTSN4HIRT18CONNECTOROPERATIONE_0000: .ascii "N4hirt18ConnectorOperationE\0",
_RODATA__ZTSN4HIRT18CONNECTOROPERATIONE_001c: .ascii ""


unsigned char data.rel.ro._ZTIN4hirt18ConnectorOperationE[12] = {
    /*0000*/ 0x08, 0x00, 0x00, 0x00, 0x00, 0x00, 0x00, 0x00, 0x00, 0x00, 0x00, 0x00, 
};

unsigned char rel.data.rel.ro._ZTIN4hirt18ConnectorOperationE[24] = {
    /*0000*/ 0x00, 0x00, 0x00, 0x00, 0x02, 0x6d, 0x02, 0x00, 0x04, 0x00, 0x00, 0x00, 0x02, 0x6e, 0x02, 0x00, 
    /*0010*/ 0x08, 0x00, 0x00, 0x00, 0x02, 0x70, 0x02, 0x00, 
};

_RODATA__ZTSN4HIRT10GROUPGRAPHE_0000: .ascii "N4hirt10GroupGraphE\0",
_RODATA__ZTSN4HIRT10GROUPGRAPHE_0014: .ascii ""


unsigned char data.rel.ro._ZTIN4hirt10GroupGraphE[12] = {
    /*0000*/ 0x08, 0x00, 0x00, 0x00, 0x00, 0x00, 0x00, 0x00, 0x00, 0x00, 0x00, 0x00, 
};

unsigned char rel.data.rel.ro._ZTIN4hirt10GroupGraphE[24] = {
    /*0000*/ 0x00, 0x00, 0x00, 0x00, 0x02, 0x6d, 0x02, 0x00, 0x04, 0x00, 0x00, 0x00, 0x02, 0x71, 0x02, 0x00, 
    /*0010*/ 0x08, 0x00, 0x00, 0x00, 0x02, 0x73, 0x02, 0x00, 
};

_RODATA__ZTSN4HIRT14MODELGROUPTASKE_0000: .ascii "N4hirt14ModelGroupTaskE\0",
_RODATA__ZTSN4HIRT14MODELGROUPTASKE_0018: .ascii ""


unsigned char data.rel.ro._ZTIN4hirt14ModelGroupTaskE[8] = {
    /*0000*/ 0x08, 0x00, 0x00, 0x00, 0x00, 0x00, 0x00, 0x00, 
};

unsigned char rel.data.rel.ro._ZTIN4hirt14ModelGroupTaskE[16] = {
    /*0000*/ 0x00, 0x00, 0x00, 0x00, 0x02, 0x6a, 0x02, 0x00, 0x04, 0x00, 0x00, 0x00, 0x02, 0x76, 0x02, 0x00, 
};

unsigned char data.rel.ro.local._ZTV21HIRT_CONNECTOR_INFO_S[16] = {
    /*0000*/ 0x00, 0x00, 0x00, 0x00, 0x00, 0x00, 0x00, 0x00, 0x00, 0x00, 0x00, 0x00, 0x00, 0x00, 0x00, 0x00, 
};

unsigned char rel.data.rel.ro.local._ZTV21HIRT_CONNECTOR_INFO_S[24] = {
    /*0000*/ 0x04, 0x00, 0x00, 0x00, 0x02, 0x6c, 0x02, 0x00, 0x08, 0x00, 0x00, 0x00, 0x02, 0x14, 0x02, 0x00, 
    /*0010*/ 0x0c, 0x00, 0x00, 0x00, 0x02, 0x11, 0x02, 0x00, 
};

unsigned char data.rel.ro._ZTVN4hirt18ConnectorOperationE[24] = {
    /*0000*/ 0x00, 0x00, 0x00, 0x00, 0x00, 0x00, 0x00, 0x00, 0x00, 0x00, 0x00, 0x00, 0x00, 0x00, 0x00, 0x00, 
    /*0010*/ 0x00, 0x00, 0x00, 0x00, 0x00, 0x00, 0x00, 0x00, 
};

unsigned char rel.data.rel.ro._ZTVN4hirt18ConnectorOperationE[40] = {
    /*0000*/ 0x04, 0x00, 0x00, 0x00, 0x02, 0x6f, 0x02, 0x00, 0x08, 0x00, 0x00, 0x00, 0x02, 0x10, 0x02, 0x00, 
    /*0010*/ 0x0c, 0x00, 0x00, 0x00, 0x02, 0x12, 0x02, 0x00, 0x10, 0x00, 0x00, 0x00, 0x02, 0x78, 0x02, 0x00, 
    /*0020*/ 0x14, 0x00, 0x00, 0x00, 0x02, 0x79, 0x02, 0x00, 
};

unsigned char data.rel.ro.local._ZTVN4hirt10GroupGraphE[16] = {
    /*0000*/ 0x00, 0x00, 0x00, 0x00, 0x00, 0x00, 0x00, 0x00, 0x00, 0x00, 0x00, 0x00, 0x00, 0x00, 0x00, 0x00, 
};

unsigned char rel.data.rel.ro.local._ZTVN4hirt10GroupGraphE[24] = {
    /*0000*/ 0x04, 0x00, 0x00, 0x00, 0x02, 0x72, 0x02, 0x00, 0x08, 0x00, 0x00, 0x00, 0x02, 0xf3, 0x01, 0x00, 
    /*0010*/ 0x0c, 0x00, 0x00, 0x00, 0x02, 0xf9, 0x01, 0x00, 
};

unsigned char data.rel.ro.local._ZTVN4hirt14ModelGroupTaskE[16] = {
    /*0000*/ 0x00, 0x00, 0x00, 0x00, 0x00, 0x00, 0x00, 0x00, 0x00, 0x00, 0x00, 0x00, 0x00, 0x00, 0x00, 0x00, 
};

unsigned char rel.data.rel.ro.local._ZTVN4hirt14ModelGroupTaskE[24] = {
    /*0000*/ 0x04, 0x00, 0x00, 0x00, 0x02, 0x77, 0x02, 0x00, 0x08, 0x00, 0x00, 0x00, 0x02, 0x2d, 0x02, 0x00, 
    /*0010*/ 0x0c, 0x00, 0x00, 0x00, 0x02, 0x2e, 0x02, 0x00, 
};

unsigned char bss._ZGVZN4hirt17ModelGroupManager11getInstanceEvE9mInstance[4];

unsigned char bss._ZN4hirt17ModelGroupManager12mModelGroupsE[12];

unsigned char bss._ZN4hirt17ModelGroupManager4mMutE[24];

unsigned char bss._ZStL8__ioinit[1];

unsigned char bss._ZZN4hirt17ModelGroupManager11getInstanceEvE9mInstance[4];

unsigned char data.rel.ro._ZTIN4hirt17ModelGroupManagerE[8] = {
    /*0000*/ 0x08, 0x00, 0x00, 0x00, 0x00, 0x00, 0x00, 0x00, 
};

unsigned char rel.data.rel.ro._ZTIN4hirt17ModelGroupManagerE[16] = {
    /*0000*/ 0x00, 0x00, 0x00, 0x00, 0x02, 0x6a, 0x02, 0x00, 0x04, 0x00, 0x00, 0x00, 0x02, 0x74, 0x02, 0x00, 
};

unsigned char data.rel.ro.local._ZTVN4hirt17ModelGroupManagerE[16] = {
    /*0000*/ 0x00, 0x00, 0x00, 0x00, 0x00, 0x00, 0x00, 0x00, 0x00, 0x00, 0x00, 0x00, 0x00, 0x00, 0x00, 0x00, 
};

unsigned char rel.data.rel.ro.local._ZTVN4hirt17ModelGroupManagerE[24] = {
    /*0000*/ 0x04, 0x00, 0x00, 0x00, 0x02, 0x75, 0x02, 0x00, 0x08, 0x00, 0x00, 0x00, 0x02, 0xea, 0x01, 0x00, 
    /*0010*/ 0x0c, 0x00, 0x00, 0x00, 0x02, 0xeb, 0x01, 0x00, 
};

_RODATA__ZN4HIRT17MODELGROUPMANAGER12ISGROUPEXISTEPVR7HI_BOOL_STR1_4_0000: .ascii "%s: param error\n\0"


_RODATA__ZN4HIRT17MODELGROUPMANAGER13DELMODELGROUPEPV_STR1_4_0000: .ascii "delete group param error\0\0\0\0",
_RODATA__ZN4HIRT17MODELGROUPMANAGER13DELMODELGROUPEPV_STR1_4_001c: .ascii "hirt\0\0\0\0",
_RODATA__ZN4HIRT17MODELGROUPMANAGER13DELMODELGROUPEPV_STR1_4_0024: .ascii "model group is loading\0\0",
_RODATA__ZN4HIRT17MODELGROUPMANAGER13DELMODELGROUPEPV_STR1_4_003c: .ascii "delModel[%s] error\0\0",
_RODATA__ZN4HIRT17MODELGROUPMANAGER13DELMODELGROUPEPV_STR1_4_0050: .ascii "no such model group\0",
_RODATA__ZN4HIRT17MODELGROUPMANAGER13DELMODELGROUPEPV_STR1_4_0064: .ascii ""


_RODATA__ZN4HIRT17MODELGROUPMANAGER23SETFRAMEDEPENDOPERATIONEPNS_10MODELGROUPEP21HIRT_CONNECTOR_INFO_SPNS_18CONNECTOROPERATIONE_STR1_4_0000: .ascii "vector::_M_range_check: __n (which is %zu) >= this->size() (which is %zu)\0\0\0",
_RODATA__ZN4HIRT17MODELGROUPMANAGER23SETFRAMEDEPENDOPERATIONEPNS_10MODELGROUPEP21HIRT_CONNECTOR_INFO_SPNS_18CONNECTOROPERATIONE_STR1_4_004c: .ascii "%s.%s\0\0\0",
_RODATA__ZN4HIRT17MODELGROUPMANAGER23SETFRAMEDEPENDOPERATIONEPNS_10MODELGROUPEP21HIRT_CONNECTOR_INFO_SPNS_18CONNECTOROPERATIONE_STR1_4_0054: .ascii "%s:[%d] combine OwnerName & BlobName error\n\0",
_RODATA__ZN4HIRT17MODELGROUPMANAGER23SETFRAMEDEPENDOPERATIONEPNS_10MODELGROUPEP21HIRT_CONNECTOR_INFO_SPNS_18CONNECTOROPERATIONE_STR1_4_0080: .ascii "basic_string::_M_construct null not valid\0\0\0",
_RODATA__ZN4HIRT17MODELGROUPMANAGER23SETFRAMEDEPENDOPERATIONEPNS_10MODELGROUPEP21HIRT_CONNECTOR_INFO_SPNS_18CONNECTOROPERATIONE_STR1_4_00ac: .ascii "Frame depend in connector[%s].\n\0",
_RODATA__ZN4HIRT17MODELGROUPMANAGER23SETFRAMEDEPENDOPERATIONEPNS_10MODELGROUPEP21HIRT_CONNECTOR_INFO_SPNS_18CONNECTOROPERATIONE_STR1_4_00cc: .ascii "map::at\0",
_RODATA__ZN4HIRT17MODELGROUPMANAGER23SETFRAMEDEPENDOPERATIONEPNS_10MODELGROUPEP21HIRT_CONNECTOR_INFO_SPNS_18CONNECTOROPERATIONE_STR1_4_00d4: .ascii ""


_RODATA__ZN4HIRT17MODELGROUPMANAGER23SETFRAMEDEPENDOPERATIONEPNS_10MODELGROUPEPNS_12GRAPHOFFLINEEP17HIRT_MODEL_INFO_S_STR1_4_0000: .ascii "Frame depend in model[%s].\n\0",
_RODATA__ZN4HIRT17MODELGROUPMANAGER23SETFRAMEDEPENDOPERATIONEPNS_10MODELGROUPEPNS_12GRAPHOFFLINEEP17HIRT_MODEL_INFO_S_STR1_4_001c: .ascii ""


_RODATA__ZN4HIRT17MODELGROUPMANAGER8ADDGROUPEPV_STR1_4_0000: .ascii "add group(sync) param error\0",
_RODATA__ZN4HIRT17MODELGROUPMANAGER8ADDGROUPEPV_STR1_4_001c: .ascii "modelGroup already exist\0\0\0\0",
_RODATA__ZN4HIRT17MODELGROUPMANAGER8ADDGROUPEPV_STR1_4_0038: .ascii "runtime new(std::nothrow) ModelGroup error\0\0",
_RODATA__ZN4HIRT17MODELGROUPMANAGER8ADDGROUPEPV_STR1_4_0064: .ascii "load group in addGroup by sync error\0\0\0\0",
_RODATA__ZN4HIRT17MODELGROUPMANAGER8ADDGROUPEPV_STR1_4_008c: .ascii "AuxiliaryMemoryManager addGroup error\0\0\0",
_RODATA__ZN4HIRT17MODELGROUPMANAGER8ADDGROUPEPV_STR1_4_00b4: .ascii "%s:[%d] clear tmp blob error\0\0\0\0",
_RODATA__ZN4HIRT17MODELGROUPMANAGER8ADDGROUPEPV_STR1_4_00d4: .ascii "new(std::nothrow) pTmpRuntimeBlob failed\0\0\0\0",
_RODATA__ZN4HIRT17MODELGROUPMANAGER8ADDGROUPEPV_STR1_4_0100: .ascii "new(std::nothrow) pTmpGroupBlob failed\0\0",
_RODATA__ZN4HIRT17MODELGROUPMANAGER8ADDGROUPEPV_STR1_4_0128: .ascii "%s:[%d] clear group tmp blob error\0\0",
_RODATA__ZN4HIRT17MODELGROUPMANAGER8ADDGROUPEPV_STR1_4_014c: .ascii "%s:[%d] copy owner name error\0\0\0",
_RODATA__ZN4HIRT17MODELGROUPMANAGER8ADDGROUPEPV_STR1_4_016c: .ascii "%s:[%d] copy blob name error\0\0\0\0",
_RODATA__ZN4HIRT17MODELGROUPMANAGER8ADDGROUPEPV_STR1_4_018c: .ascii "alignsize from modelgroup file not match with alignsize of wk models\0\0\0\0",
_RODATA__ZN4HIRT17MODELGROUPMANAGER8ADDGROUPEPV_STR1_4_01d4: .ascii "basic_string::append\0\0\0\0",
_RODATA__ZN4HIRT17MODELGROUPMANAGER8ADDGROUPEPV_STR1_4_01ec: .ascii ".\0\0\0",
_RODATA__ZN4HIRT17MODELGROUPMANAGER8ADDGROUPEPV_STR1_4_01f0: .ascii "%s:[%d] clear tmp group blob error\0\0",
_RODATA__ZN4HIRT17MODELGROUPMANAGER8ADDGROUPEPV_STR1_4_0214: .ascii "not find %s in %s\n\0\0",
_RODATA__ZN4HIRT17MODELGROUPMANAGER8ADDGROUPEPV_STR1_4_0228: .ascii "basic_string::substr\0\0\0\0",
_RODATA__ZN4HIRT17MODELGROUPMANAGER8ADDGROUPEPV_STR1_4_0240: .ascii "%s: __pos (which is %zu) > this->size() (which is %zu)\0\0",
_RODATA__ZN4HIRT17MODELGROUPMANAGER8ADDGROUPEPV_STR1_4_0278: .ascii "invalid group item, type[%d]=%d\0",
_RODATA__ZN4HIRT17MODELGROUPMANAGER8ADDGROUPEPV_STR1_4_0298: .ascii "assemble dst for each item error\0\0\0\0",
_RODATA__ZN4HIRT17MODELGROUPMANAGER8ADDGROUPEPV_STR1_4_02bc: .ascii "type or shape of top %s of %s configured in modelgroup config not equal to the model that use it\0\0\0\0",
_RODATA__ZN4HIRT17MODELGROUPMANAGER8ADDGROUPEPV_STR1_4_0320: .ascii "top %s of connector %s has no shape info\0"


_RODATA__ZN4HIRT17MODELGROUPMANAGER8DELGROUPEPV_STR1_4_0000: .ascii "the pstGroup is not exist in mModelGroup\0"


_RODATA__ZN4HIRT17MODELGROUPMANAGER9TRANSFORMEPNS_10MODELGROUPEPV_STR1_4_0000: .ascii "%s:[%d] clear model error\n\0\0",
_RODATA__ZN4HIRT17MODELGROUPMANAGER9TRANSFORMEPNS_10MODELGROUPEPV_STR1_4_001c: .ascii "addModel error\0\0",
_RODATA__ZN4HIRT17MODELGROUPMANAGER9TRANSFORMEPNS_10MODELGROUPEPV_STR1_4_002c: .ascii "invalid group item type[%d]=%d\0\0",
_RODATA__ZN4HIRT17MODELGROUPMANAGER9TRANSFORMEPNS_10MODELGROUPEPV_STR1_4_004c: .ascii "Connetor[%s] find %s Graph[index=%d] error\0\0",
_RODATA__ZN4HIRT17MODELGROUPMANAGER9TRANSFORMEPNS_10MODELGROUPEPV_STR1_4_0078: .ascii "Producer\0\0\0\0",
_RODATA__ZN4HIRT17MODELGROUPMANAGER9TRANSFORMEPNS_10MODELGROUPEPV_STR1_4_0084: .ascii "Connector[%s]'s %s Graph[index=%d]'s config input index[%d] > wk input nums[%zu]\n\0\0\0",
_RODATA__ZN4HIRT17MODELGROUPMANAGER9TRANSFORMEPNS_10MODELGROUPEPV_STR1_4_00d8: .ascii "Consumer\0\0\0\0",
_RODATA__ZN4HIRT17MODELGROUPMANAGER9TRANSFORMEPNS_10MODELGROUPEPV_STR1_4_00e4: .ascii "Connetor[%s] find %s Connector[index=%d] error\0\0",
_RODATA__ZN4HIRT17MODELGROUPMANAGER9TRANSFORMEPNS_10MODELGROUPEPV_STR1_4_0114: .ascii "Frame depend bottom error, can not find bottom name!\n\0\0\0",
_RODATA__ZN4HIRT17MODELGROUPMANAGER9TRANSFORMEPNS_10MODELGROUPEPV_STR1_4_014c: .ascii "generateConnectorModelDepends producers error\0\0\0",
_RODATA__ZN4HIRT17MODELGROUPMANAGER9TRANSFORMEPNS_10MODELGROUPEPV_STR1_4_017c: .ascii "generateConnectorModelDepends consumers error\0\0\0",
_RODATA__ZN4HIRT17MODELGROUPMANAGER9TRANSFORMEPNS_10MODELGROUPEPV_STR1_4_01ac: .ascii "generateConnectorConnectorDepends producers error\0\0\0",
_RODATA__ZN4HIRT17MODELGROUPMANAGER9TRANSFORMEPNS_10MODELGROUPEPV_STR1_4_01e0: .ascii "generateConnectorConnectorDepends consums error\0",
_RODATA__ZN4HIRT17MODELGROUPMANAGER9TRANSFORMEPNS_10MODELGROUPEPV_STR1_4_0210: .ascii ""


_RODATA__ZNST6VECTORIPN4HIRT9OPERATIONESAIS2_EE15_M_RANGE_INSERTIN9__GNU_CXX17__NORMAL_ITERATORIPS2_S4_EEEEVS9_T_SA_ST20FORWARD_ITERATOR_TAG_STR1_4_0000: .ascii "vector::_M_range_insert\0",
_RODATA__ZNST6VECTORIPN4HIRT9OPERATIONESAIS2_EE15_M_RANGE_INSERTIN9__GNU_CXX17__NORMAL_ITERATORIPS2_S4_EEEEVS9_T_SA_ST20FORWARD_ITERATOR_TAG_STR1_4_0018: .ascii ""


_RODATA__ZTSN4HIRT17MODELGROUPMANAGERE_0000: .ascii "N4hirt17ModelGroupManagerE\0"


_RODATA__ZZL18ASSEMBLEDSTFORITEMPVPN4HIRT10MODELGROUPEE12__FUNCTION___0000: .ascii "assembleDstforItem\0"


_RODATA__ZZN4HIRT17MODELGROUPMANAGER12ISGROUPEXISTEPVR7HI_BOOLE12__FUNCTION___0000: .ascii "isGroupExist\0"


_RODATA__ZZN4HIRT17MODELGROUPMANAGER23SETFRAMEDEPENDOPERATIONEPNS_10MODELGROUPEP21HIRT_CONNECTOR_INFO_SPNS_18CONNECTOROPERATIONEE12__FUNCTION___0000: .ascii "setFrameDependOperation\0",
_RODATA__ZZN4HIRT17MODELGROUPMANAGER23SETFRAMEDEPENDOPERATIONEPNS_10MODELGROUPEP21HIRT_CONNECTOR_INFO_SPNS_18CONNECTOROPERATIONEE12__FUNCTION___0018: .ascii ""


_RODATA__ZZN4HIRT17MODELGROUPMANAGER23SETFRAMEDEPENDOPERATIONEPNS_10MODELGROUPEPNS_12GRAPHOFFLINEEP17HIRT_MODEL_INFO_SE12__FUNCTION___0000: .ascii "setFrameDependOperation\0",
_RODATA__ZZN4HIRT17MODELGROUPMANAGER23SETFRAMEDEPENDOPERATIONEPNS_10MODELGROUPEPNS_12GRAPHOFFLINEEP17HIRT_MODEL_INFO_SE12__FUNCTION___0018: .ascii ""


_RODATA__ZZN4HIRT17MODELGROUPMANAGER9TRANSFORMEPNS_10MODELGROUPEPVE12__FUNCTION___0000: .ascii "transform\0"


@ - - - - - - - - - - - - - - - - - - - - - - - - - - - - - 
@ .text._ZN4hirt17ModelGroupManagerD2Ev
@ Size: 0x4
@ - - - - - - - - - - - - - - - - - - - - - - - - - - - - - 

FUNC_BEGIN _ZN4hirt17ModelGroupManagerD2Ev
    /*00000000*/ BX          LR 
FUNC_END _ZN4hirt17ModelGroupManagerD2Ev


FUNC_BEGIN _ZN4hirt17ModelGroupManagerD1Ev
    /*00000000*/ BX          LR 
FUNC_END _ZN4hirt17ModelGroupManagerD1Ev


@ - - - - - - - - - - - - - - - - - - - - - - - - - - - - - 
@ .text._ZN4hirt17ModelGroupManagerD0Ev
@ Size: 0x24
@ - - - - - - - - - - - - - - - - - - - - - - - - - - - - - 

FUNC_BEGIN _ZN4hirt17ModelGroupManagerD0Ev
    /*00000000*/ MOV         IP, #16384                  @ 0x4000 
    /*00000004*/ PUSH        {R4, LR} 
    /*00000008*/ SUB         IP, SP, IP 
    /*0000000c*/ STR         R0, [IP, #4088]             @ 0xff8 
    /*00000010*/ MOV         R1, #4 
    /*00000014*/ MOV         R4, R0 
    /*00000018*/ BL          _ZdlPvj
    /*0000001c*/ MOV         R0, R4 
    /*00000020*/ POP         {R4, PC} 
FUNC_END _ZN4hirt17ModelGroupManagerD0Ev


@ - - - - - - - - - - - - - - - - - - - - - - - - - - - - - 
@ .text._ZNSt6vectorIPN4hirt10ModelGroupESaIS2_EED2Ev
@ Size: 0x2c
@ - - - - - - - - - - - - - - - - - - - - - - - - - - - - - 

FUNC_BEGIN _ZNSt6vectorIPN4hirt10ModelGroupESaIS2_EED2Ev
    /*00000000*/ MOV         IP, #16384                  @ 0x4000 
    /*00000004*/ PUSH        {R4, LR} 
    /*00000008*/ SUB         IP, SP, IP 
    /*0000000c*/ STR         R0, [IP, #4088]             @ 0xff8 
    /*00000010*/ MOV         R4, R0 
    /*00000014*/ LDR         R0, [R0] 
    /*00000018*/ CMP         R0, #0 
    /*0000001c*/ BEQ         _ZNSt6vectorIPN4hirt10ModelGroupESaIS2_EED2Ev_x24
    /*00000020*/ BL          _ZdlPv
    _ZNSt6vectorIPN4hirt10ModelGroupESaIS2_EED2Ev_x24:
    /*00000024*/ MOV         R0, R4 
    /*00000028*/ POP         {R4, PC} 
FUNC_END _ZNSt6vectorIPN4hirt10ModelGroupESaIS2_EED2Ev


FUNC_BEGIN _ZNSt6vectorIPN4hirt10ModelGroupESaIS2_EED1Ev
    /*00000000*/ MOV         IP, #16384                  @ 0x4000 
    /*00000004*/ PUSH        {R4, LR} 
    /*00000008*/ SUB         IP, SP, IP 
    /*0000000c*/ STR         R0, [IP, #4088]             @ 0xff8 
    /*00000010*/ MOV         R4, R0 
    /*00000014*/ LDR         R0, [R0] 
    /*00000018*/ CMP         R0, #0 
    /*0000001c*/ BEQ         _ZNSt6vectorIPN4hirt10ModelGroupESaIS2_EED1Ev_x24
    /*00000020*/ BL          _ZdlPv
    _ZNSt6vectorIPN4hirt10ModelGroupESaIS2_EED1Ev_x24:
    /*00000024*/ MOV         R0, R4 
    /*00000028*/ POP         {R4, PC} 
FUNC_END _ZNSt6vectorIPN4hirt10ModelGroupESaIS2_EED1Ev


@ - - - - - - - - - - - - - - - - - - - - - - - - - - - - - 
@ .text._ZN4hirt10GroupGraphD2Ev
@ Size: 0x48
@ - - - - - - - - - - - - - - - - - - - - - - - - - - - - - 

FUNC_BEGIN _ZN4hirt10GroupGraphD2Ev
    /*00000000*/ MOV         IP, #16384                  @ 0x4000 
    /*00000004*/ PUSH        {R4, LR} 
    /*00000008*/ SUB         IP, SP, IP 
    /*0000000c*/ STR         R0, [IP, #4088]             @ 0xff8 
    /*00000010*/ LDR         R3, WORD_0044               @ LDR         R3, [PC, #44]               @ 0x0000000000000044 
    /*00000014*/ MOV         R4, R0 
    /*00000018*/ LDR         R0, [R0, #40]               @ 0x28 
    /*0000001c*/ ADD         R3, PC, R3 
    /*00000020*/ CMP         R0, #0 
    /*00000024*/ ADD         R3, R3, #8 
    /*00000028*/ STR         R3, [R4] 
    /*0000002c*/ BEQ         _ZN4hirt10GroupGraphD2Ev_x34
    /*00000030*/ BL          _ZdlPv
    _ZN4hirt10GroupGraphD2Ev_x34:
    /*00000034*/ MOV         R0, R4 
    /*00000038*/ BL          _ZN4hirt5GraphD2Ev
    /*0000003c*/ MOV         R0, R4 
    /*00000040*/ POP         {R4, PC} 
    /*00000044*/ WORD_0044: .word 0x00000020
FUNC_END _ZN4hirt10GroupGraphD2Ev


FUNC_BEGIN _ZN4hirt10GroupGraphD1Ev
    /*00000000*/ MOV         IP, #16384                  @ 0x4000 
    /*00000004*/ PUSH        {R4, LR} 
    /*00000008*/ SUB         IP, SP, IP 
    /*0000000c*/ STR         R0, [IP, #4088]             @ 0xff8 
    /*00000010*/ LDR         R3, WORD_0044               @ LDR         R3, [PC, #44]               @ 0x0000000000000044 
    /*00000014*/ MOV         R4, R0 
    /*00000018*/ LDR         R0, [R0, #40]               @ 0x28 
    /*0000001c*/ ADD         R3, PC, R3 
    /*00000020*/ CMP         R0, #0 
    /*00000024*/ ADD         R3, R3, #8 
    /*00000028*/ STR         R3, [R4] 
    /*0000002c*/ BEQ         _ZN4hirt10GroupGraphD1Ev_x34
    /*00000030*/ BL          _ZdlPv
    _ZN4hirt10GroupGraphD1Ev_x34:
    /*00000034*/ MOV         R0, R4 
    /*00000038*/ BL          _ZN4hirt5GraphD2Ev
    /*0000003c*/ MOV         R0, R4 
    /*00000040*/ POP         {R4, PC} 
    /*00000044*/ WORD_0044: .word 0x00000020
FUNC_END _ZN4hirt10GroupGraphD1Ev


@ - - - - - - - - - - - - - - - - - - - - - - - - - - - - - 
@ .text._ZL10bFrameBlobNSt7__cxx1112basic_stringIcSt11char_traitsIcESaIcEEEPv
@ Size: 0x100
@ - - - - - - - - - - - - - - - - - - - - - - - - - - - - - 

FUNC_BEGIN _ZL10bFrameBlobNSt7__cxx1112basic_stringIcSt11char_traitsIcESaIcEEEPv
    /*00000000*/ MOV         IP, #16384                  @ 0x4000 
    /*00000004*/ PUSH        {R4, R5, R6, R7, R8, R9, SL, FP, LR} 
    /*00000008*/ SUB         IP, SP, IP 
    /*0000000c*/ STR         R0, [IP, #4048]             @ 0xfd0 
    /*00000010*/ MOV         R4, R1 
    /*00000014*/ SUB         SP, SP, #12 
    /*00000018*/ LDR         R1, [R1, #88]               @ 0x58 
    /*0000001c*/ LDR         R8, [R4, #92]               @ 0x5c 
    /*00000020*/ STR         R0, [SP, #4] 
    /*00000024*/ SUB         R8, R8, R1 
    /*00000028*/ ASRS        R9, R8, #2 
    /*0000002c*/ BEQ         _ZL10bFrameBlobNSt7__cxx1112basic_stringIcSt11char_traitsIcESaIcEEEPv_x60
    /*00000030*/ CMN         R9, #-1073741823            @ 0xc0000001 
    /*00000034*/ BHI         _ZL10bFrameBlobNSt7__cxx1112basic_stringIcSt11char_traitsIcESaIcEEEPv_xfc
    /*00000038*/ MOV         R0, R8 
    /*0000003c*/ BL          _Znwj
    /*00000040*/ LDR         R1, [R4, #88]               @ 0x58 
    /*00000044*/ MOV         R9, R0 
    /*00000048*/ LDR         R8, [R4, #92]               @ 0x5c 
    /*0000004c*/ SUB         R8, R8, R1 
    /*00000050*/ LSRS        R3, R8, #2 
    /*00000054*/ BEQ         _ZL10bFrameBlobNSt7__cxx1112basic_stringIcSt11char_traitsIcESaIcEEEPv_x60
    /*00000058*/ MOV         R2, R8 
    /*0000005c*/ BL          memmove
    _ZL10bFrameBlobNSt7__cxx1112basic_stringIcSt11char_traitsIcESaIcEEEPv_x60:
    /*00000060*/ ADD         R8, R9, R8 
    /*00000064*/ CMP         R8, R9 
    /*00000068*/ BEQ         _ZL10bFrameBlobNSt7__cxx1112basic_stringIcSt11char_traitsIcESaIcEEEPv_xf4
    /*0000006c*/ MOV         SL, R9 
    _ZL10bFrameBlobNSt7__cxx1112basic_stringIcSt11char_traitsIcESaIcEEEPv_x70:
    /*00000070*/ LDR         R7, [SL], #4 
    /*00000074*/ LDR         R5, [R7, #96]               @ 0x60 
    /*00000078*/ CMP         R5, #0 
    /*0000007c*/ BEQ         _ZL10bFrameBlobNSt7__cxx1112basic_stringIcSt11char_traitsIcESaIcEEEPv_xec
    /*00000080*/ LDR         R3, [SP, #4] 
    /*00000084*/ MOV         R4, #0 
    /*00000088*/ LDR         FP, [R7, #100]              @ 0x64 
    /*0000008c*/ LDR         R6, [R3] 
    /*00000090*/ B           _ZL10bFrameBlobNSt7__cxx1112basic_stringIcSt11char_traitsIcESaIcEEEPv_xa4
    _ZL10bFrameBlobNSt7__cxx1112basic_stringIcSt11char_traitsIcESaIcEEEPv_x94:
    /*00000094*/ ADD         R4, R4, #1 
    /*00000098*/ ADD         FP, FP, #130                @ 0x82 
    /*0000009c*/ CMP         R4, R5 
    /*000000a0*/ BEQ         _ZL10bFrameBlobNSt7__cxx1112basic_stringIcSt11char_traitsIcESaIcEEEPv_xec
    _ZL10bFrameBlobNSt7__cxx1112basic_stringIcSt11char_traitsIcESaIcEEEPv_xa4:
    /*000000a4*/ MOV         R2, #129                    @ 0x81 
    /*000000a8*/ MOV         R1, FP 
    /*000000ac*/ MOV         R0, R6 
    /*000000b0*/ BL          strncmp
    /*000000b4*/ CMP         R0, #0 
    /*000000b8*/ BNE         _ZL10bFrameBlobNSt7__cxx1112basic_stringIcSt11char_traitsIcESaIcEEEPv_x94
    /*000000bc*/ LDR         R2, [R7, #104]              @ 0x68 
    /*000000c0*/ LDR         R2, [R2, R4, LSL #2] 
    /*000000c4*/ CMP         R2, #0 
    /*000000c8*/ BEQ         _ZL10bFrameBlobNSt7__cxx1112basic_stringIcSt11char_traitsIcESaIcEEEPv_x94
    /*000000cc*/ MOV         R4, #1 
    _ZL10bFrameBlobNSt7__cxx1112basic_stringIcSt11char_traitsIcESaIcEEEPv_xd0:
    /*000000d0*/ CMP         R9, #0 
    /*000000d4*/ BEQ         _ZL10bFrameBlobNSt7__cxx1112basic_stringIcSt11char_traitsIcESaIcEEEPv_xe0
    /*000000d8*/ MOV         R0, R9 
    /*000000dc*/ BL          _ZdlPv
    _ZL10bFrameBlobNSt7__cxx1112basic_stringIcSt11char_traitsIcESaIcEEEPv_xe0:
    /*000000e0*/ MOV         R0, R4 
    /*000000e4*/ ADD         SP, SP, #12 
    /*000000e8*/ POP         {R4, R5, R6, R7, R8, R9, SL, FP, PC} 
    _ZL10bFrameBlobNSt7__cxx1112basic_stringIcSt11char_traitsIcESaIcEEEPv_xec:
    /*000000ec*/ CMP         R8, SL 
    /*000000f0*/ BNE         _ZL10bFrameBlobNSt7__cxx1112basic_stringIcSt11char_traitsIcESaIcEEEPv_x70
    _ZL10bFrameBlobNSt7__cxx1112basic_stringIcSt11char_traitsIcESaIcEEEPv_xf4:
    /*000000f4*/ MOV         R4, #0 
    /*000000f8*/ B           _ZL10bFrameBlobNSt7__cxx1112basic_stringIcSt11char_traitsIcESaIcEEEPv_xd0
    _ZL10bFrameBlobNSt7__cxx1112basic_stringIcSt11char_traitsIcESaIcEEEPv_xfc:
    /*000000fc*/ BL          _ZSt17__throw_bad_allocv
FUNC_END _ZL10bFrameBlobNSt7__cxx1112basic_stringIcSt11char_traitsIcESaIcEEEPv


@ - - - - - - - - - - - - - - - - - - - - - - - - - - - - - 
@ .text._ZN4hirt10GroupGraphD0Ev
@ Size: 0x54
@ - - - - - - - - - - - - - - - - - - - - - - - - - - - - - 

FUNC_BEGIN _ZN4hirt10GroupGraphD0Ev
    /*00000000*/ MOV         IP, #16384                  @ 0x4000 
    /*00000004*/ PUSH        {R4, LR} 
    /*00000008*/ SUB         IP, SP, IP 
    /*0000000c*/ STR         R0, [IP, #4088]             @ 0xff8 
    /*00000010*/ LDR         R3, WORD_0050               @ LDR         R3, [PC, #56]               @ 0x0000000000000050 
    /*00000014*/ MOV         R4, R0 
    /*00000018*/ LDR         R0, [R0, #40]               @ 0x28 
    /*0000001c*/ ADD         R3, PC, R3 
    /*00000020*/ CMP         R0, #0 
    /*00000024*/ ADD         R3, R3, #8 
    /*00000028*/ STR         R3, [R4] 
    /*0000002c*/ BEQ         _ZN4hirt10GroupGraphD0Ev_x34
    /*00000030*/ BL          _ZdlPv
    _ZN4hirt10GroupGraphD0Ev_x34:
    /*00000034*/ MOV         R0, R4 
    /*00000038*/ BL          _ZN4hirt5GraphD2Ev
    /*0000003c*/ MOV         R0, R4 
    /*00000040*/ MOV         R1, #52                     @ 0x34 
    /*00000044*/ BL          _ZdlPvj
    /*00000048*/ MOV         R0, R4 
    /*0000004c*/ POP         {R4, PC} 
    /*00000050*/ WORD_0050: .word 0x0000002c
FUNC_END _ZN4hirt10GroupGraphD0Ev


@ - - - - - - - - - - - - - - - - - - - - - - - - - - - - - 
@ .text._ZL9bLeafBlobNSt7__cxx1112basic_stringIcSt11char_traitsIcESaIcEEEPv
@ Size: 0xe4
@ - - - - - - - - - - - - - - - - - - - - - - - - - - - - - 

FUNC_BEGIN _ZL9bLeafBlobNSt7__cxx1112basic_stringIcSt11char_traitsIcESaIcEEEPv
    /*00000000*/ MOV         IP, #16384                  @ 0x4000 
    /*00000004*/ PUSH        {R3, R4, R5, R6, R7, R8, R9, SL, FP, LR} 
    /*00000008*/ SUB         IP, SP, IP 
    /*0000000c*/ STR         R0, [IP, #4056]             @ 0xfd8 
    /*00000010*/ MOV         R4, R1 
    /*00000014*/ MOV         FP, R0 
    /*00000018*/ LDR         R1, [R1, #88]               @ 0x58 
    /*0000001c*/ LDR         R8, [R4, #92]               @ 0x5c 
    /*00000020*/ SUB         R8, R8, R1 
    /*00000024*/ ASRS        R9, R8, #2 
    /*00000028*/ BEQ         _ZL9bLeafBlobNSt7__cxx1112basic_stringIcSt11char_traitsIcESaIcEEEPv_x5c
    /*0000002c*/ CMN         R9, #-1073741823            @ 0xc0000001 
    /*00000030*/ BHI         _ZL9bLeafBlobNSt7__cxx1112basic_stringIcSt11char_traitsIcESaIcEEEPv_xe0
    /*00000034*/ MOV         R0, R8 
    /*00000038*/ BL          _Znwj
    /*0000003c*/ LDR         R1, [R4, #88]               @ 0x58 
    /*00000040*/ MOV         R9, R0 
    /*00000044*/ LDR         R8, [R4, #92]               @ 0x5c 
    /*00000048*/ SUB         R8, R8, R1 
    /*0000004c*/ LSRS        R3, R8, #2 
    /*00000050*/ BEQ         _ZL9bLeafBlobNSt7__cxx1112basic_stringIcSt11char_traitsIcESaIcEEEPv_x5c
    /*00000054*/ MOV         R2, R8 
    /*00000058*/ BL          memmove
    _ZL9bLeafBlobNSt7__cxx1112basic_stringIcSt11char_traitsIcESaIcEEEPv_x5c:
    /*0000005c*/ ADD         R8, R9, R8 
    /*00000060*/ CMP         R8, R9 
    /*00000064*/ BEQ         _ZL9bLeafBlobNSt7__cxx1112basic_stringIcSt11char_traitsIcESaIcEEEPv_xd8
    /*00000068*/ MOV         SL, R9 
    _ZL9bLeafBlobNSt7__cxx1112basic_stringIcSt11char_traitsIcESaIcEEEPv_x6c:
    /*0000006c*/ LDR         R3, [SL], #4 
    /*00000070*/ LDR         R6, [R3, #96]               @ 0x60 
    /*00000074*/ CMP         R6, #0 
    /*00000078*/ BEQ         _ZL9bLeafBlobNSt7__cxx1112basic_stringIcSt11char_traitsIcESaIcEEEPv_xd0
    /*0000007c*/ LDR         R4, [R3, #100]              @ 0x64 
    /*00000080*/ MOV         R5, #0 
    /*00000084*/ LDR         R7, [FP] 
    /*00000088*/ B           _ZL9bLeafBlobNSt7__cxx1112basic_stringIcSt11char_traitsIcESaIcEEEPv_x9c
    _ZL9bLeafBlobNSt7__cxx1112basic_stringIcSt11char_traitsIcESaIcEEEPv_x8c:
    /*0000008c*/ ADD         R5, R5, #1 
    /*00000090*/ ADD         R4, R4, #130                @ 0x82 
    /*00000094*/ CMP         R5, R6 
    /*00000098*/ BEQ         _ZL9bLeafBlobNSt7__cxx1112basic_stringIcSt11char_traitsIcESaIcEEEPv_xd0
    _ZL9bLeafBlobNSt7__cxx1112basic_stringIcSt11char_traitsIcESaIcEEEPv_x9c:
    /*0000009c*/ MOV         R2, #129                    @ 0x81 
    /*000000a0*/ MOV         R1, R4 
    /*000000a4*/ MOV         R0, R7 
    /*000000a8*/ BL          strncmp
    /*000000ac*/ CMP         R0, #0 
    /*000000b0*/ BNE         _ZL9bLeafBlobNSt7__cxx1112basic_stringIcSt11char_traitsIcESaIcEEEPv_x8c
    /*000000b4*/ MOV         R4, R0 
    _ZL9bLeafBlobNSt7__cxx1112basic_stringIcSt11char_traitsIcESaIcEEEPv_xb8:
    /*000000b8*/ CMP         R9, #0 
    /*000000bc*/ BEQ         _ZL9bLeafBlobNSt7__cxx1112basic_stringIcSt11char_traitsIcESaIcEEEPv_xc8
    /*000000c0*/ MOV         R0, R9 
    /*000000c4*/ BL          _ZdlPv
    _ZL9bLeafBlobNSt7__cxx1112basic_stringIcSt11char_traitsIcESaIcEEEPv_xc8:
    /*000000c8*/ MOV         R0, R4 
    /*000000cc*/ POP         {R3, R4, R5, R6, R7, R8, R9, SL, FP, PC} 
    _ZL9bLeafBlobNSt7__cxx1112basic_stringIcSt11char_traitsIcESaIcEEEPv_xd0:
    /*000000d0*/ CMP         R8, SL 
    /*000000d4*/ BNE         _ZL9bLeafBlobNSt7__cxx1112basic_stringIcSt11char_traitsIcESaIcEEEPv_x6c
    _ZL9bLeafBlobNSt7__cxx1112basic_stringIcSt11char_traitsIcESaIcEEEPv_xd8:
    /*000000d8*/ MOV         R4, #1 
    /*000000dc*/ B           _ZL9bLeafBlobNSt7__cxx1112basic_stringIcSt11char_traitsIcESaIcEEEPv_xb8
    _ZL9bLeafBlobNSt7__cxx1112basic_stringIcSt11char_traitsIcESaIcEEEPv_xe0:
    /*000000e0*/ BL          _ZSt17__throw_bad_allocv
FUNC_END _ZL9bLeafBlobNSt7__cxx1112basic_stringIcSt11char_traitsIcESaIcEEEPv


@ - - - - - - - - - - - - - - - - - - - - - - - - - - - - - 
@ .text._ZNSt8_Rb_treeIP22hiRUNTIME_GROUP_BLOB_SSt4pairIKS1_7HI_BOOLESt10_Select1stIS5_ESt4lessIS1_ESaIS5_EE22_M_emplace_hint_uniqueIJRKSt21piecewise_construct_tSt5tupleIJRS3_EESG_IJEEEEESt17_Rb_tree_iteratorIS5_ESt23_Rb_tree_const_iteratorIS5_EDpOT_.isra.450
@ Size: 0x274
@ - - - - - - - - - - - - - - - - - - - - - - - - - - - - - 

FUNC_BEGIN _ZNSt8_Rb_treeIP22hiRUNTIME_GROUP_BLOB_SSt4pairIKS1_7HI_BOOLESt10_Select1stIS5_ESt4lessIS1_ESaIS5_EE22_M_emplace_hint_uniqueIJRKSt21piecewise_construct_tSt5tupleIJRS3_EESG_IJEEEEESt17_Rb_tree_iteratorIS5_ESt23_Rb_tree_const_iteratorIS5_EDpOT_.isra.450
    /*00000000*/ MOV         IP, #16384                  @ 0x4000 
    /*00000004*/ PUSH        {R4, R5, R6, R7, R8, R9, LR} 
    /*00000008*/ SUB         IP, SP, IP 
    /*0000000c*/ STR         R0, [IP, #4056]             @ 0xfd8 
    /*00000010*/ MOV         R6, R2 
    /*00000014*/ MOV         R5, R0 
    /*00000018*/ SUB         SP, SP, #12 
    /*0000001c*/ MOV         R0, #24 
    /*00000020*/ MOV         R8, R1 
    /*00000024*/ BL          _Znwj
    /*00000028*/ LDR         R3, [R6] 
    /*0000002c*/ ADD         R7, R5, #4 
    /*00000030*/ CMP         R8, R7 
    /*00000034*/ MOV         R4, R0 
    /*00000038*/ LDR         R6, [R3] 
    /*0000003c*/ MOV         R0, #0 
    /*00000040*/ STR         R0, [R4, #20] 
    /*00000044*/ STR         R6, [R4, #16] 
    /*00000048*/ BEQ         _ZNSt8_Rb_treeIP22hiRUNTIME_GROUP_BLOB_SSt4pairIKS1_7HI_BOOLESt10_Select1stIS5_ESt4lessIS1_ESaIS5_EE22_M_emplace_hint_uniqueIJRKSt21piecewise_construct_tSt5tupleIJRS3_EESG_IJEEEEESt17_Rb_tree_iteratorIS5_ESt23_Rb_tree_const_iteratorIS5_EDpOT_.isra.450_x130
    /*0000004c*/ LDR         R3, [R8, #16] 
    /*00000050*/ CMP         R6, R3 
    /*00000054*/ BCS         _ZNSt8_Rb_treeIP22hiRUNTIME_GROUP_BLOB_SSt4pairIKS1_7HI_BOOLESt10_Select1stIS5_ESt4lessIS1_ESaIS5_EE22_M_emplace_hint_uniqueIJRKSt21piecewise_construct_tSt5tupleIJRS3_EESG_IJEEEEESt17_Rb_tree_iteratorIS5_ESt23_Rb_tree_const_iteratorIS5_EDpOT_.isra.450_xdc
    /*00000058*/ LDR         R9, [R5, #12] 
    /*0000005c*/ CMP         R8, R9 
    /*00000060*/ BEQ         _ZNSt8_Rb_treeIP22hiRUNTIME_GROUP_BLOB_SSt4pairIKS1_7HI_BOOLESt10_Select1stIS5_ESt4lessIS1_ESaIS5_EE22_M_emplace_hint_uniqueIJRKSt21piecewise_construct_tSt5tupleIJRS3_EESG_IJEEEEESt17_Rb_tree_iteratorIS5_ESt23_Rb_tree_const_iteratorIS5_EDpOT_.isra.450_x88
    /*00000064*/ MOV         R0, R8 
    /*00000068*/ BL          _ZSt18_Rb_tree_decrementPSt18_Rb_tree_node_base
    /*0000006c*/ LDR         R3, [R0, #16] 
    /*00000070*/ MOV         R2, R0 
    /*00000074*/ CMP         R6, R3 
    /*00000078*/ BLS         _ZNSt8_Rb_treeIP22hiRUNTIME_GROUP_BLOB_SSt4pairIKS1_7HI_BOOLESt10_Select1stIS5_ESt4lessIS1_ESaIS5_EE22_M_emplace_hint_uniqueIJRKSt21piecewise_construct_tSt5tupleIJRS3_EESG_IJEEEEESt17_Rb_tree_iteratorIS5_ESt23_Rb_tree_const_iteratorIS5_EDpOT_.isra.450_x1b0
    /*0000007c*/ LDR         R0, [R0, #12] 
    /*00000080*/ CMP         R0, #0 
    /*00000084*/ BEQ         _ZNSt8_Rb_treeIP22hiRUNTIME_GROUP_BLOB_SSt4pairIKS1_7HI_BOOLESt10_Select1stIS5_ESt4lessIS1_ESaIS5_EE22_M_emplace_hint_uniqueIJRKSt21piecewise_construct_tSt5tupleIJRS3_EESG_IJEEEEESt17_Rb_tree_iteratorIS5_ESt23_Rb_tree_const_iteratorIS5_EDpOT_.isra.450_x90
    _ZNSt8_Rb_treeIP22hiRUNTIME_GROUP_BLOB_SSt4pairIKS1_7HI_BOOLESt10_Select1stIS5_ESt4lessIS1_ESaIS5_EE22_M_emplace_hint_uniqueIJRKSt21piecewise_construct_tSt5tupleIJRS3_EESG_IJEEEEESt17_Rb_tree_iteratorIS5_ESt23_Rb_tree_const_iteratorIS5_EDpOT_.isra.450_x88:
    /*00000088*/ MOV         R2, R8 
    /*0000008c*/ MOV         R0, R8 
    _ZNSt8_Rb_treeIP22hiRUNTIME_GROUP_BLOB_SSt4pairIKS1_7HI_BOOLESt10_Select1stIS5_ESt4lessIS1_ESaIS5_EE22_M_emplace_hint_uniqueIJRKSt21piecewise_construct_tSt5tupleIJRS3_EESG_IJEEEEESt17_Rb_tree_iteratorIS5_ESt23_Rb_tree_const_iteratorIS5_EDpOT_.isra.450_x90:
    /*00000090*/ ADDS        R0, R0, #0 
    /*00000094*/ MOVNE       R0, #1 
    /*00000098*/ CMP         R7, R2 
    /*0000009c*/ ORREQ       R0, R0, #1 
    /*000000a0*/ CMP         R0, #0 
    /*000000a4*/ BNE         _ZNSt8_Rb_treeIP22hiRUNTIME_GROUP_BLOB_SSt4pairIKS1_7HI_BOOLESt10_Select1stIS5_ESt4lessIS1_ESaIS5_EE22_M_emplace_hint_uniqueIJRKSt21piecewise_construct_tSt5tupleIJRS3_EESG_IJEEEEESt17_Rb_tree_iteratorIS5_ESt23_Rb_tree_const_iteratorIS5_EDpOT_.isra.450_xb8
    _ZNSt8_Rb_treeIP22hiRUNTIME_GROUP_BLOB_SSt4pairIKS1_7HI_BOOLESt10_Select1stIS5_ESt4lessIS1_ESaIS5_EE22_M_emplace_hint_uniqueIJRKSt21piecewise_construct_tSt5tupleIJRS3_EESG_IJEEEEESt17_Rb_tree_iteratorIS5_ESt23_Rb_tree_const_iteratorIS5_EDpOT_.isra.450_xa8:
    /*000000a8*/ LDR         R0, [R2, #16] 
    /*000000ac*/ CMP         R6, R0 
    /*000000b0*/ MOVCS       R0, #0 
    /*000000b4*/ MOVCC       R0, #1 
    _ZNSt8_Rb_treeIP22hiRUNTIME_GROUP_BLOB_SSt4pairIKS1_7HI_BOOLESt10_Select1stIS5_ESt4lessIS1_ESaIS5_EE22_M_emplace_hint_uniqueIJRKSt21piecewise_construct_tSt5tupleIJRS3_EESG_IJEEEEESt17_Rb_tree_iteratorIS5_ESt23_Rb_tree_const_iteratorIS5_EDpOT_.isra.450_xb8:
    /*000000b8*/ MOV         R3, R7 
    /*000000bc*/ MOV         R1, R4 
    /*000000c0*/ BL          _ZSt29_Rb_tree_insert_and_rebalancebPSt18_Rb_tree_node_baseS0_RS_
    /*000000c4*/ LDR         R3, [R5, #20] 
    /*000000c8*/ MOV         R0, R4 
    /*000000cc*/ ADD         R3, R3, #1 
    /*000000d0*/ STR         R3, [R5, #20] 
    /*000000d4*/ ADD         SP, SP, #12 
    /*000000d8*/ POP         {R4, R5, R6, R7, R8, R9, PC} 
    _ZNSt8_Rb_treeIP22hiRUNTIME_GROUP_BLOB_SSt4pairIKS1_7HI_BOOLESt10_Select1stIS5_ESt4lessIS1_ESaIS5_EE22_M_emplace_hint_uniqueIJRKSt21piecewise_construct_tSt5tupleIJRS3_EESG_IJEEEEESt17_Rb_tree_iteratorIS5_ESt23_Rb_tree_const_iteratorIS5_EDpOT_.isra.450_xdc:
    /*000000dc*/ BLS         _ZNSt8_Rb_treeIP22hiRUNTIME_GROUP_BLOB_SSt4pairIKS1_7HI_BOOLESt10_Select1stIS5_ESt4lessIS1_ESaIS5_EE22_M_emplace_hint_uniqueIJRKSt21piecewise_construct_tSt5tupleIJRS3_EESG_IJEEEEESt17_Rb_tree_iteratorIS5_ESt23_Rb_tree_const_iteratorIS5_EDpOT_.isra.450_x11c
    /*000000e0*/ LDR         R3, [R5, #16] 
    /*000000e4*/ CMP         R8, R3 
    /*000000e8*/ BEQ         _ZNSt8_Rb_treeIP22hiRUNTIME_GROUP_BLOB_SSt4pairIKS1_7HI_BOOLESt10_Select1stIS5_ESt4lessIS1_ESaIS5_EE22_M_emplace_hint_uniqueIJRKSt21piecewise_construct_tSt5tupleIJRS3_EESG_IJEEEEESt17_Rb_tree_iteratorIS5_ESt23_Rb_tree_const_iteratorIS5_EDpOT_.isra.450_x110
    /*000000ec*/ MOV         R0, R8 
    /*000000f0*/ BL          _ZSt18_Rb_tree_incrementPSt18_Rb_tree_node_base
    /*000000f4*/ LDR         R3, [R0, #16] 
    /*000000f8*/ CMP         R6, R3 
    /*000000fc*/ BCS         _ZNSt8_Rb_treeIP22hiRUNTIME_GROUP_BLOB_SSt4pairIKS1_7HI_BOOLESt10_Select1stIS5_ESt4lessIS1_ESaIS5_EE22_M_emplace_hint_uniqueIJRKSt21piecewise_construct_tSt5tupleIJRS3_EESG_IJEEEEESt17_Rb_tree_iteratorIS5_ESt23_Rb_tree_const_iteratorIS5_EDpOT_.isra.450_x218
    /*00000100*/ LDR         R3, [R8, #12] 
    /*00000104*/ CMP         R3, #0 
    /*00000108*/ MOVNE       R2, R0 
    /*0000010c*/ BNE         _ZNSt8_Rb_treeIP22hiRUNTIME_GROUP_BLOB_SSt4pairIKS1_7HI_BOOLESt10_Select1stIS5_ESt4lessIS1_ESaIS5_EE22_M_emplace_hint_uniqueIJRKSt21piecewise_construct_tSt5tupleIJRS3_EESG_IJEEEEESt17_Rb_tree_iteratorIS5_ESt23_Rb_tree_const_iteratorIS5_EDpOT_.isra.450_x90
    _ZNSt8_Rb_treeIP22hiRUNTIME_GROUP_BLOB_SSt4pairIKS1_7HI_BOOLESt10_Select1stIS5_ESt4lessIS1_ESaIS5_EE22_M_emplace_hint_uniqueIJRKSt21piecewise_construct_tSt5tupleIJRS3_EESG_IJEEEEESt17_Rb_tree_iteratorIS5_ESt23_Rb_tree_const_iteratorIS5_EDpOT_.isra.450_x110:
    /*00000110*/ MOV         R2, R8 
    /*00000114*/ B           _ZNSt8_Rb_treeIP22hiRUNTIME_GROUP_BLOB_SSt4pairIKS1_7HI_BOOLESt10_Select1stIS5_ESt4lessIS1_ESaIS5_EE22_M_emplace_hint_uniqueIJRKSt21piecewise_construct_tSt5tupleIJRS3_EESG_IJEEEEESt17_Rb_tree_iteratorIS5_ESt23_Rb_tree_const_iteratorIS5_EDpOT_.isra.450_xa8
    _ZNSt8_Rb_treeIP22hiRUNTIME_GROUP_BLOB_SSt4pairIKS1_7HI_BOOLESt10_Select1stIS5_ESt4lessIS1_ESaIS5_EE22_M_emplace_hint_uniqueIJRKSt21piecewise_construct_tSt5tupleIJRS3_EESG_IJEEEEESt17_Rb_tree_iteratorIS5_ESt23_Rb_tree_const_iteratorIS5_EDpOT_.isra.450_x118:
    /*00000118*/ MOV         R8, R2 
    _ZNSt8_Rb_treeIP22hiRUNTIME_GROUP_BLOB_SSt4pairIKS1_7HI_BOOLESt10_Select1stIS5_ESt4lessIS1_ESaIS5_EE22_M_emplace_hint_uniqueIJRKSt21piecewise_construct_tSt5tupleIJRS3_EESG_IJEEEEESt17_Rb_tree_iteratorIS5_ESt23_Rb_tree_const_iteratorIS5_EDpOT_.isra.450_x11c:
    /*0000011c*/ MOV         R0, R4 
    /*00000120*/ BL          _ZdlPv
    /*00000124*/ MOV         R0, R8 
    /*00000128*/ ADD         SP, SP, #12 
    /*0000012c*/ POP         {R4, R5, R6, R7, R8, R9, PC} 
    _ZNSt8_Rb_treeIP22hiRUNTIME_GROUP_BLOB_SSt4pairIKS1_7HI_BOOLESt10_Select1stIS5_ESt4lessIS1_ESaIS5_EE22_M_emplace_hint_uniqueIJRKSt21piecewise_construct_tSt5tupleIJRS3_EESG_IJEEEEESt17_Rb_tree_iteratorIS5_ESt23_Rb_tree_const_iteratorIS5_EDpOT_.isra.450_x130:
    /*00000130*/ LDR         R3, [R5, #20] 
    /*00000134*/ CMP         R3, R0 
    /*00000138*/ BEQ         _ZNSt8_Rb_treeIP22hiRUNTIME_GROUP_BLOB_SSt4pairIKS1_7HI_BOOLESt10_Select1stIS5_ESt4lessIS1_ESaIS5_EE22_M_emplace_hint_uniqueIJRKSt21piecewise_construct_tSt5tupleIJRS3_EESG_IJEEEEESt17_Rb_tree_iteratorIS5_ESt23_Rb_tree_const_iteratorIS5_EDpOT_.isra.450_x14c
    /*0000013c*/ LDR         R2, [R5, #16] 
    /*00000140*/ LDR         R3, [R2, #16] 
    /*00000144*/ CMP         R6, R3 
    /*00000148*/ BHI         _ZNSt8_Rb_treeIP22hiRUNTIME_GROUP_BLOB_SSt4pairIKS1_7HI_BOOLESt10_Select1stIS5_ESt4lessIS1_ESaIS5_EE22_M_emplace_hint_uniqueIJRKSt21piecewise_construct_tSt5tupleIJRS3_EESG_IJEEEEESt17_Rb_tree_iteratorIS5_ESt23_Rb_tree_const_iteratorIS5_EDpOT_.isra.450_x90
    _ZNSt8_Rb_treeIP22hiRUNTIME_GROUP_BLOB_SSt4pairIKS1_7HI_BOOLESt10_Select1stIS5_ESt4lessIS1_ESaIS5_EE22_M_emplace_hint_uniqueIJRKSt21piecewise_construct_tSt5tupleIJRS3_EESG_IJEEEEESt17_Rb_tree_iteratorIS5_ESt23_Rb_tree_const_iteratorIS5_EDpOT_.isra.450_x14c:
    /*0000014c*/ LDR         R2, [R5, #8] 
    /*00000150*/ CMP         R2, #0 
    /*00000154*/ BNE         _ZNSt8_Rb_treeIP22hiRUNTIME_GROUP_BLOB_SSt4pairIKS1_7HI_BOOLESt10_Select1stIS5_ESt4lessIS1_ESaIS5_EE22_M_emplace_hint_uniqueIJRKSt21piecewise_construct_tSt5tupleIJRS3_EESG_IJEEEEESt17_Rb_tree_iteratorIS5_ESt23_Rb_tree_const_iteratorIS5_EDpOT_.isra.450_x160
    /*00000158*/ B           _ZNSt8_Rb_treeIP22hiRUNTIME_GROUP_BLOB_SSt4pairIKS1_7HI_BOOLESt10_Select1stIS5_ESt4lessIS1_ESaIS5_EE22_M_emplace_hint_uniqueIJRKSt21piecewise_construct_tSt5tupleIJRS3_EESG_IJEEEEESt17_Rb_tree_iteratorIS5_ESt23_Rb_tree_const_iteratorIS5_EDpOT_.isra.450_x264
    _ZNSt8_Rb_treeIP22hiRUNTIME_GROUP_BLOB_SSt4pairIKS1_7HI_BOOLESt10_Select1stIS5_ESt4lessIS1_ESaIS5_EE22_M_emplace_hint_uniqueIJRKSt21piecewise_construct_tSt5tupleIJRS3_EESG_IJEEEEESt17_Rb_tree_iteratorIS5_ESt23_Rb_tree_const_iteratorIS5_EDpOT_.isra.450_x15c:
    /*0000015c*/ MOV         R2, R3 
    _ZNSt8_Rb_treeIP22hiRUNTIME_GROUP_BLOB_SSt4pairIKS1_7HI_BOOLESt10_Select1stIS5_ESt4lessIS1_ESaIS5_EE22_M_emplace_hint_uniqueIJRKSt21piecewise_construct_tSt5tupleIJRS3_EESG_IJEEEEESt17_Rb_tree_iteratorIS5_ESt23_Rb_tree_const_iteratorIS5_EDpOT_.isra.450_x160:
    /*00000160*/ LDR         R1, [R2, #16] 
    /*00000164*/ MOV         R0, #1 
    /*00000168*/ CMP         R6, R1 
    /*0000016c*/ MOVCS       R0, #0 
    /*00000170*/ LDRCC       R3, [R2, #8] 
    /*00000174*/ LDRCS       R3, [R2, #12] 
    /*00000178*/ CMP         R3, #0 
    /*0000017c*/ BNE         _ZNSt8_Rb_treeIP22hiRUNTIME_GROUP_BLOB_SSt4pairIKS1_7HI_BOOLESt10_Select1stIS5_ESt4lessIS1_ESaIS5_EE22_M_emplace_hint_uniqueIJRKSt21piecewise_construct_tSt5tupleIJRS3_EESG_IJEEEEESt17_Rb_tree_iteratorIS5_ESt23_Rb_tree_const_iteratorIS5_EDpOT_.isra.450_x15c
    /*00000180*/ CMP         R0, #0 
    /*00000184*/ BEQ         _ZNSt8_Rb_treeIP22hiRUNTIME_GROUP_BLOB_SSt4pairIKS1_7HI_BOOLESt10_Select1stIS5_ESt4lessIS1_ESaIS5_EE22_M_emplace_hint_uniqueIJRKSt21piecewise_construct_tSt5tupleIJRS3_EESG_IJEEEEESt17_Rb_tree_iteratorIS5_ESt23_Rb_tree_const_iteratorIS5_EDpOT_.isra.450_x1ec
    _ZNSt8_Rb_treeIP22hiRUNTIME_GROUP_BLOB_SSt4pairIKS1_7HI_BOOLESt10_Select1stIS5_ESt4lessIS1_ESaIS5_EE22_M_emplace_hint_uniqueIJRKSt21piecewise_construct_tSt5tupleIJRS3_EESG_IJEEEEESt17_Rb_tree_iteratorIS5_ESt23_Rb_tree_const_iteratorIS5_EDpOT_.isra.450_x188:
    /*00000188*/ LDR         R3, [R5, #12] 
    /*0000018c*/ CMP         R3, R2 
    /*00000190*/ BEQ         _ZNSt8_Rb_treeIP22hiRUNTIME_GROUP_BLOB_SSt4pairIKS1_7HI_BOOLESt10_Select1stIS5_ESt4lessIS1_ESaIS5_EE22_M_emplace_hint_uniqueIJRKSt21piecewise_construct_tSt5tupleIJRS3_EESG_IJEEEEESt17_Rb_tree_iteratorIS5_ESt23_Rb_tree_const_iteratorIS5_EDpOT_.isra.450_x200
    _ZNSt8_Rb_treeIP22hiRUNTIME_GROUP_BLOB_SSt4pairIKS1_7HI_BOOLESt10_Select1stIS5_ESt4lessIS1_ESaIS5_EE22_M_emplace_hint_uniqueIJRKSt21piecewise_construct_tSt5tupleIJRS3_EESG_IJEEEEESt17_Rb_tree_iteratorIS5_ESt23_Rb_tree_const_iteratorIS5_EDpOT_.isra.450_x194:
    /*00000194*/ STR         R2, [SP, #4] 
    /*00000198*/ MOV         R0, R2 
    /*0000019c*/ BL          _ZSt18_Rb_tree_decrementPSt18_Rb_tree_node_base
    /*000001a0*/ LDR         R1, [R0, #16] 
    /*000001a4*/ MOV         R8, R0 
    /*000001a8*/ LDR         R2, [SP, #4] 
    /*000001ac*/ B           _ZNSt8_Rb_treeIP22hiRUNTIME_GROUP_BLOB_SSt4pairIKS1_7HI_BOOLESt10_Select1stIS5_ESt4lessIS1_ESaIS5_EE22_M_emplace_hint_uniqueIJRKSt21piecewise_construct_tSt5tupleIJRS3_EESG_IJEEEEESt17_Rb_tree_iteratorIS5_ESt23_Rb_tree_const_iteratorIS5_EDpOT_.isra.450_x1f0
    _ZNSt8_Rb_treeIP22hiRUNTIME_GROUP_BLOB_SSt4pairIKS1_7HI_BOOLESt10_Select1stIS5_ESt4lessIS1_ESaIS5_EE22_M_emplace_hint_uniqueIJRKSt21piecewise_construct_tSt5tupleIJRS3_EESG_IJEEEEESt17_Rb_tree_iteratorIS5_ESt23_Rb_tree_const_iteratorIS5_EDpOT_.isra.450_x1b0:
    /*000001b0*/ LDR         R2, [R5, #8] 
    /*000001b4*/ CMP         R2, #0 
    /*000001b8*/ BNE         _ZNSt8_Rb_treeIP22hiRUNTIME_GROUP_BLOB_SSt4pairIKS1_7HI_BOOLESt10_Select1stIS5_ESt4lessIS1_ESaIS5_EE22_M_emplace_hint_uniqueIJRKSt21piecewise_construct_tSt5tupleIJRS3_EESG_IJEEEEESt17_Rb_tree_iteratorIS5_ESt23_Rb_tree_const_iteratorIS5_EDpOT_.isra.450_x1c4
    /*000001bc*/ B           _ZNSt8_Rb_treeIP22hiRUNTIME_GROUP_BLOB_SSt4pairIKS1_7HI_BOOLESt10_Select1stIS5_ESt4lessIS1_ESaIS5_EE22_M_emplace_hint_uniqueIJRKSt21piecewise_construct_tSt5tupleIJRS3_EESG_IJEEEEESt17_Rb_tree_iteratorIS5_ESt23_Rb_tree_const_iteratorIS5_EDpOT_.isra.450_x208
    _ZNSt8_Rb_treeIP22hiRUNTIME_GROUP_BLOB_SSt4pairIKS1_7HI_BOOLESt10_Select1stIS5_ESt4lessIS1_ESaIS5_EE22_M_emplace_hint_uniqueIJRKSt21piecewise_construct_tSt5tupleIJRS3_EESG_IJEEEEESt17_Rb_tree_iteratorIS5_ESt23_Rb_tree_const_iteratorIS5_EDpOT_.isra.450_x1c0:
    /*000001c0*/ MOV         R2, R3 
    _ZNSt8_Rb_treeIP22hiRUNTIME_GROUP_BLOB_SSt4pairIKS1_7HI_BOOLESt10_Select1stIS5_ESt4lessIS1_ESaIS5_EE22_M_emplace_hint_uniqueIJRKSt21piecewise_construct_tSt5tupleIJRS3_EESG_IJEEEEESt17_Rb_tree_iteratorIS5_ESt23_Rb_tree_const_iteratorIS5_EDpOT_.isra.450_x1c4:
    /*000001c4*/ LDR         R1, [R2, #16] 
    /*000001c8*/ MOV         R0, #1 
    /*000001cc*/ CMP         R6, R1 
    /*000001d0*/ MOVCS       R0, #0 
    /*000001d4*/ LDRCC       R3, [R2, #8] 
    /*000001d8*/ LDRCS       R3, [R2, #12] 
    /*000001dc*/ CMP         R3, #0 
    /*000001e0*/ BNE         _ZNSt8_Rb_treeIP22hiRUNTIME_GROUP_BLOB_SSt4pairIKS1_7HI_BOOLESt10_Select1stIS5_ESt4lessIS1_ESaIS5_EE22_M_emplace_hint_uniqueIJRKSt21piecewise_construct_tSt5tupleIJRS3_EESG_IJEEEEESt17_Rb_tree_iteratorIS5_ESt23_Rb_tree_const_iteratorIS5_EDpOT_.isra.450_x1c0
    /*000001e4*/ CMP         R0, #0 
    /*000001e8*/ BNE         _ZNSt8_Rb_treeIP22hiRUNTIME_GROUP_BLOB_SSt4pairIKS1_7HI_BOOLESt10_Select1stIS5_ESt4lessIS1_ESaIS5_EE22_M_emplace_hint_uniqueIJRKSt21piecewise_construct_tSt5tupleIJRS3_EESG_IJEEEEESt17_Rb_tree_iteratorIS5_ESt23_Rb_tree_const_iteratorIS5_EDpOT_.isra.450_x20c
    _ZNSt8_Rb_treeIP22hiRUNTIME_GROUP_BLOB_SSt4pairIKS1_7HI_BOOLESt10_Select1stIS5_ESt4lessIS1_ESaIS5_EE22_M_emplace_hint_uniqueIJRKSt21piecewise_construct_tSt5tupleIJRS3_EESG_IJEEEEESt17_Rb_tree_iteratorIS5_ESt23_Rb_tree_const_iteratorIS5_EDpOT_.isra.450_x1ec:
    /*000001ec*/ MOV         R8, R2 
    _ZNSt8_Rb_treeIP22hiRUNTIME_GROUP_BLOB_SSt4pairIKS1_7HI_BOOLESt10_Select1stIS5_ESt4lessIS1_ESaIS5_EE22_M_emplace_hint_uniqueIJRKSt21piecewise_construct_tSt5tupleIJRS3_EESG_IJEEEEESt17_Rb_tree_iteratorIS5_ESt23_Rb_tree_const_iteratorIS5_EDpOT_.isra.450_x1f0:
    /*000001f0*/ CMP         R6, R1 
    /*000001f4*/ BLS         _ZNSt8_Rb_treeIP22hiRUNTIME_GROUP_BLOB_SSt4pairIKS1_7HI_BOOLESt10_Select1stIS5_ESt4lessIS1_ESaIS5_EE22_M_emplace_hint_uniqueIJRKSt21piecewise_construct_tSt5tupleIJRS3_EESG_IJEEEEESt17_Rb_tree_iteratorIS5_ESt23_Rb_tree_const_iteratorIS5_EDpOT_.isra.450_x11c
    _ZNSt8_Rb_treeIP22hiRUNTIME_GROUP_BLOB_SSt4pairIKS1_7HI_BOOLESt10_Select1stIS5_ESt4lessIS1_ESaIS5_EE22_M_emplace_hint_uniqueIJRKSt21piecewise_construct_tSt5tupleIJRS3_EESG_IJEEEEESt17_Rb_tree_iteratorIS5_ESt23_Rb_tree_const_iteratorIS5_EDpOT_.isra.450_x1f8:
    /*000001f8*/ CMP         R2, #0 
    /*000001fc*/ BEQ         _ZNSt8_Rb_treeIP22hiRUNTIME_GROUP_BLOB_SSt4pairIKS1_7HI_BOOLESt10_Select1stIS5_ESt4lessIS1_ESaIS5_EE22_M_emplace_hint_uniqueIJRKSt21piecewise_construct_tSt5tupleIJRS3_EESG_IJEEEEESt17_Rb_tree_iteratorIS5_ESt23_Rb_tree_const_iteratorIS5_EDpOT_.isra.450_x118
    _ZNSt8_Rb_treeIP22hiRUNTIME_GROUP_BLOB_SSt4pairIKS1_7HI_BOOLESt10_Select1stIS5_ESt4lessIS1_ESaIS5_EE22_M_emplace_hint_uniqueIJRKSt21piecewise_construct_tSt5tupleIJRS3_EESG_IJEEEEESt17_Rb_tree_iteratorIS5_ESt23_Rb_tree_const_iteratorIS5_EDpOT_.isra.450_x200:
    /*00000200*/ MOV         R0, #0 
    /*00000204*/ B           _ZNSt8_Rb_treeIP22hiRUNTIME_GROUP_BLOB_SSt4pairIKS1_7HI_BOOLESt10_Select1stIS5_ESt4lessIS1_ESaIS5_EE22_M_emplace_hint_uniqueIJRKSt21piecewise_construct_tSt5tupleIJRS3_EESG_IJEEEEESt17_Rb_tree_iteratorIS5_ESt23_Rb_tree_const_iteratorIS5_EDpOT_.isra.450_x90
    _ZNSt8_Rb_treeIP22hiRUNTIME_GROUP_BLOB_SSt4pairIKS1_7HI_BOOLESt10_Select1stIS5_ESt4lessIS1_ESaIS5_EE22_M_emplace_hint_uniqueIJRKSt21piecewise_construct_tSt5tupleIJRS3_EESG_IJEEEEESt17_Rb_tree_iteratorIS5_ESt23_Rb_tree_const_iteratorIS5_EDpOT_.isra.450_x208:
    /*00000208*/ MOV         R2, R7 
    _ZNSt8_Rb_treeIP22hiRUNTIME_GROUP_BLOB_SSt4pairIKS1_7HI_BOOLESt10_Select1stIS5_ESt4lessIS1_ESaIS5_EE22_M_emplace_hint_uniqueIJRKSt21piecewise_construct_tSt5tupleIJRS3_EESG_IJEEEEESt17_Rb_tree_iteratorIS5_ESt23_Rb_tree_const_iteratorIS5_EDpOT_.isra.450_x20c:
    /*0000020c*/ CMP         R9, R2 
    /*00000210*/ BNE         _ZNSt8_Rb_treeIP22hiRUNTIME_GROUP_BLOB_SSt4pairIKS1_7HI_BOOLESt10_Select1stIS5_ESt4lessIS1_ESaIS5_EE22_M_emplace_hint_uniqueIJRKSt21piecewise_construct_tSt5tupleIJRS3_EESG_IJEEEEESt17_Rb_tree_iteratorIS5_ESt23_Rb_tree_const_iteratorIS5_EDpOT_.isra.450_x194
    /*00000214*/ B           _ZNSt8_Rb_treeIP22hiRUNTIME_GROUP_BLOB_SSt4pairIKS1_7HI_BOOLESt10_Select1stIS5_ESt4lessIS1_ESaIS5_EE22_M_emplace_hint_uniqueIJRKSt21piecewise_construct_tSt5tupleIJRS3_EESG_IJEEEEESt17_Rb_tree_iteratorIS5_ESt23_Rb_tree_const_iteratorIS5_EDpOT_.isra.450_x1f8
    _ZNSt8_Rb_treeIP22hiRUNTIME_GROUP_BLOB_SSt4pairIKS1_7HI_BOOLESt10_Select1stIS5_ESt4lessIS1_ESaIS5_EE22_M_emplace_hint_uniqueIJRKSt21piecewise_construct_tSt5tupleIJRS3_EESG_IJEEEEESt17_Rb_tree_iteratorIS5_ESt23_Rb_tree_const_iteratorIS5_EDpOT_.isra.450_x218:
    /*00000218*/ LDR         R2, [R5, #8] 
    /*0000021c*/ CMP         R2, #0 
    /*00000220*/ BNE         _ZNSt8_Rb_treeIP22hiRUNTIME_GROUP_BLOB_SSt4pairIKS1_7HI_BOOLESt10_Select1stIS5_ESt4lessIS1_ESaIS5_EE22_M_emplace_hint_uniqueIJRKSt21piecewise_construct_tSt5tupleIJRS3_EESG_IJEEEEESt17_Rb_tree_iteratorIS5_ESt23_Rb_tree_const_iteratorIS5_EDpOT_.isra.450_x22c
    /*00000224*/ B           _ZNSt8_Rb_treeIP22hiRUNTIME_GROUP_BLOB_SSt4pairIKS1_7HI_BOOLESt10_Select1stIS5_ESt4lessIS1_ESaIS5_EE22_M_emplace_hint_uniqueIJRKSt21piecewise_construct_tSt5tupleIJRS3_EESG_IJEEEEESt17_Rb_tree_iteratorIS5_ESt23_Rb_tree_const_iteratorIS5_EDpOT_.isra.450_x26c
    _ZNSt8_Rb_treeIP22hiRUNTIME_GROUP_BLOB_SSt4pairIKS1_7HI_BOOLESt10_Select1stIS5_ESt4lessIS1_ESaIS5_EE22_M_emplace_hint_uniqueIJRKSt21piecewise_construct_tSt5tupleIJRS3_EESG_IJEEEEESt17_Rb_tree_iteratorIS5_ESt23_Rb_tree_const_iteratorIS5_EDpOT_.isra.450_x228:
    /*00000228*/ MOV         R2, R3 
    _ZNSt8_Rb_treeIP22hiRUNTIME_GROUP_BLOB_SSt4pairIKS1_7HI_BOOLESt10_Select1stIS5_ESt4lessIS1_ESaIS5_EE22_M_emplace_hint_uniqueIJRKSt21piecewise_construct_tSt5tupleIJRS3_EESG_IJEEEEESt17_Rb_tree_iteratorIS5_ESt23_Rb_tree_const_iteratorIS5_EDpOT_.isra.450_x22c:
    /*0000022c*/ LDR         R1, [R2, #16] 
    /*00000230*/ MOV         R0, #1 
    /*00000234*/ CMP         R6, R1 
    /*00000238*/ MOVCS       R0, #0 
    /*0000023c*/ LDRCC       R3, [R2, #8] 
    /*00000240*/ LDRCS       R3, [R2, #12] 
    /*00000244*/ CMP         R3, #0 
    /*00000248*/ BNE         _ZNSt8_Rb_treeIP22hiRUNTIME_GROUP_BLOB_SSt4pairIKS1_7HI_BOOLESt10_Select1stIS5_ESt4lessIS1_ESaIS5_EE22_M_emplace_hint_uniqueIJRKSt21piecewise_construct_tSt5tupleIJRS3_EESG_IJEEEEESt17_Rb_tree_iteratorIS5_ESt23_Rb_tree_const_iteratorIS5_EDpOT_.isra.450_x228
    /*0000024c*/ CMP         R0, #0 
    /*00000250*/ BEQ         _ZNSt8_Rb_treeIP22hiRUNTIME_GROUP_BLOB_SSt4pairIKS1_7HI_BOOLESt10_Select1stIS5_ESt4lessIS1_ESaIS5_EE22_M_emplace_hint_uniqueIJRKSt21piecewise_construct_tSt5tupleIJRS3_EESG_IJEEEEESt17_Rb_tree_iteratorIS5_ESt23_Rb_tree_const_iteratorIS5_EDpOT_.isra.450_x1ec
    _ZNSt8_Rb_treeIP22hiRUNTIME_GROUP_BLOB_SSt4pairIKS1_7HI_BOOLESt10_Select1stIS5_ESt4lessIS1_ESaIS5_EE22_M_emplace_hint_uniqueIJRKSt21piecewise_construct_tSt5tupleIJRS3_EESG_IJEEEEESt17_Rb_tree_iteratorIS5_ESt23_Rb_tree_const_iteratorIS5_EDpOT_.isra.450_x254:
    /*00000254*/ LDR         R3, [R5, #12] 
    /*00000258*/ CMP         R3, R2 
    /*0000025c*/ BNE         _ZNSt8_Rb_treeIP22hiRUNTIME_GROUP_BLOB_SSt4pairIKS1_7HI_BOOLESt10_Select1stIS5_ESt4lessIS1_ESaIS5_EE22_M_emplace_hint_uniqueIJRKSt21piecewise_construct_tSt5tupleIJRS3_EESG_IJEEEEESt17_Rb_tree_iteratorIS5_ESt23_Rb_tree_const_iteratorIS5_EDpOT_.isra.450_x194
    /*00000260*/ B           _ZNSt8_Rb_treeIP22hiRUNTIME_GROUP_BLOB_SSt4pairIKS1_7HI_BOOLESt10_Select1stIS5_ESt4lessIS1_ESaIS5_EE22_M_emplace_hint_uniqueIJRKSt21piecewise_construct_tSt5tupleIJRS3_EESG_IJEEEEESt17_Rb_tree_iteratorIS5_ESt23_Rb_tree_const_iteratorIS5_EDpOT_.isra.450_x1f8
    _ZNSt8_Rb_treeIP22hiRUNTIME_GROUP_BLOB_SSt4pairIKS1_7HI_BOOLESt10_Select1stIS5_ESt4lessIS1_ESaIS5_EE22_M_emplace_hint_uniqueIJRKSt21piecewise_construct_tSt5tupleIJRS3_EESG_IJEEEEESt17_Rb_tree_iteratorIS5_ESt23_Rb_tree_const_iteratorIS5_EDpOT_.isra.450_x264:
    /*00000264*/ MOV         R2, R7 
    /*00000268*/ B           _ZNSt8_Rb_treeIP22hiRUNTIME_GROUP_BLOB_SSt4pairIKS1_7HI_BOOLESt10_Select1stIS5_ESt4lessIS1_ESaIS5_EE22_M_emplace_hint_uniqueIJRKSt21piecewise_construct_tSt5tupleIJRS3_EESG_IJEEEEESt17_Rb_tree_iteratorIS5_ESt23_Rb_tree_const_iteratorIS5_EDpOT_.isra.450_x188
    _ZNSt8_Rb_treeIP22hiRUNTIME_GROUP_BLOB_SSt4pairIKS1_7HI_BOOLESt10_Select1stIS5_ESt4lessIS1_ESaIS5_EE22_M_emplace_hint_uniqueIJRKSt21piecewise_construct_tSt5tupleIJRS3_EESG_IJEEEEESt17_Rb_tree_iteratorIS5_ESt23_Rb_tree_const_iteratorIS5_EDpOT_.isra.450_x26c:
    /*0000026c*/ MOV         R2, R7 
    /*00000270*/ B           _ZNSt8_Rb_treeIP22hiRUNTIME_GROUP_BLOB_SSt4pairIKS1_7HI_BOOLESt10_Select1stIS5_ESt4lessIS1_ESaIS5_EE22_M_emplace_hint_uniqueIJRKSt21piecewise_construct_tSt5tupleIJRS3_EESG_IJEEEEESt17_Rb_tree_iteratorIS5_ESt23_Rb_tree_const_iteratorIS5_EDpOT_.isra.450_x254
FUNC_END _ZNSt8_Rb_treeIP22hiRUNTIME_GROUP_BLOB_SSt4pairIKS1_7HI_BOOLESt10_Select1stIS5_ESt4lessIS1_ESaIS5_EE22_M_emplace_hint_uniqueIJRKSt21piecewise_construct_tSt5tupleIJRS3_EESG_IJEEEEESt17_Rb_tree_iteratorIS5_ESt23_Rb_tree_const_iteratorIS5_EDpOT_.isra.450


@ - - - - - - - - - - - - - - - - - - - - - - - - - - - - - 
@ .text._ZNSt8_Rb_treeIjSt4pairIKjPN4hirt9GroupItemEESt10_Select1stIS5_ESt4lessIjESaIS5_EE22_M_emplace_hint_uniqueIJRKSt21piecewise_construct_tSt5tupleIJRS1_EESG_IJEEEEESt17_Rb_tree_iteratorIS5_ESt23_Rb_tree_const_iteratorIS5_EDpOT_.isra.440
@ Size: 0x274
@ - - - - - - - - - - - - - - - - - - - - - - - - - - - - - 

FUNC_BEGIN _ZNSt8_Rb_treeIjSt4pairIKjPN4hirt9GroupItemEESt10_Select1stIS5_ESt4lessIjESaIS5_EE22_M_emplace_hint_uniqueIJRKSt21piecewise_construct_tSt5tupleIJRS1_EESG_IJEEEEESt17_Rb_tree_iteratorIS5_ESt23_Rb_tree_const_iteratorIS5_EDpOT_.isra.440
    /*00000000*/ MOV         IP, #16384                  @ 0x4000 
    /*00000004*/ PUSH        {R4, R5, R6, R7, R8, R9, LR} 
    /*00000008*/ SUB         IP, SP, IP 
    /*0000000c*/ STR         R0, [IP, #4056]             @ 0xfd8 
    /*00000010*/ MOV         R6, R2 
    /*00000014*/ MOV         R5, R0 
    /*00000018*/ SUB         SP, SP, #12 
    /*0000001c*/ MOV         R0, #24 
    /*00000020*/ MOV         R8, R1 
    /*00000024*/ BL          _Znwj
    /*00000028*/ LDR         R3, [R6] 
    /*0000002c*/ ADD         R7, R5, #4 
    /*00000030*/ CMP         R8, R7 
    /*00000034*/ MOV         R4, R0 
    /*00000038*/ LDR         R6, [R3] 
    /*0000003c*/ MOV         R0, #0 
    /*00000040*/ STR         R0, [R4, #20] 
    /*00000044*/ STR         R6, [R4, #16] 
    /*00000048*/ BEQ         _ZNSt8_Rb_treeIjSt4pairIKjPN4hirt9GroupItemEESt10_Select1stIS5_ESt4lessIjESaIS5_EE22_M_emplace_hint_uniqueIJRKSt21piecewise_construct_tSt5tupleIJRS1_EESG_IJEEEEESt17_Rb_tree_iteratorIS5_ESt23_Rb_tree_const_iteratorIS5_EDpOT_.isra.440_x130
    /*0000004c*/ LDR         R3, [R8, #16] 
    /*00000050*/ CMP         R6, R3 
    /*00000054*/ BCS         _ZNSt8_Rb_treeIjSt4pairIKjPN4hirt9GroupItemEESt10_Select1stIS5_ESt4lessIjESaIS5_EE22_M_emplace_hint_uniqueIJRKSt21piecewise_construct_tSt5tupleIJRS1_EESG_IJEEEEESt17_Rb_tree_iteratorIS5_ESt23_Rb_tree_const_iteratorIS5_EDpOT_.isra.440_xdc
    /*00000058*/ LDR         R9, [R5, #12] 
    /*0000005c*/ CMP         R8, R9 
    /*00000060*/ BEQ         _ZNSt8_Rb_treeIjSt4pairIKjPN4hirt9GroupItemEESt10_Select1stIS5_ESt4lessIjESaIS5_EE22_M_emplace_hint_uniqueIJRKSt21piecewise_construct_tSt5tupleIJRS1_EESG_IJEEEEESt17_Rb_tree_iteratorIS5_ESt23_Rb_tree_const_iteratorIS5_EDpOT_.isra.440_x88
    /*00000064*/ MOV         R0, R8 
    /*00000068*/ BL          _ZSt18_Rb_tree_decrementPSt18_Rb_tree_node_base
    /*0000006c*/ LDR         R3, [R0, #16] 
    /*00000070*/ MOV         R2, R0 
    /*00000074*/ CMP         R6, R3 
    /*00000078*/ BLS         _ZNSt8_Rb_treeIjSt4pairIKjPN4hirt9GroupItemEESt10_Select1stIS5_ESt4lessIjESaIS5_EE22_M_emplace_hint_uniqueIJRKSt21piecewise_construct_tSt5tupleIJRS1_EESG_IJEEEEESt17_Rb_tree_iteratorIS5_ESt23_Rb_tree_const_iteratorIS5_EDpOT_.isra.440_x1b0
    /*0000007c*/ LDR         R0, [R0, #12] 
    /*00000080*/ CMP         R0, #0 
    /*00000084*/ BEQ         _ZNSt8_Rb_treeIjSt4pairIKjPN4hirt9GroupItemEESt10_Select1stIS5_ESt4lessIjESaIS5_EE22_M_emplace_hint_uniqueIJRKSt21piecewise_construct_tSt5tupleIJRS1_EESG_IJEEEEESt17_Rb_tree_iteratorIS5_ESt23_Rb_tree_const_iteratorIS5_EDpOT_.isra.440_x90
    _ZNSt8_Rb_treeIjSt4pairIKjPN4hirt9GroupItemEESt10_Select1stIS5_ESt4lessIjESaIS5_EE22_M_emplace_hint_uniqueIJRKSt21piecewise_construct_tSt5tupleIJRS1_EESG_IJEEEEESt17_Rb_tree_iteratorIS5_ESt23_Rb_tree_const_iteratorIS5_EDpOT_.isra.440_x88:
    /*00000088*/ MOV         R2, R8 
    /*0000008c*/ MOV         R0, R8 
    _ZNSt8_Rb_treeIjSt4pairIKjPN4hirt9GroupItemEESt10_Select1stIS5_ESt4lessIjESaIS5_EE22_M_emplace_hint_uniqueIJRKSt21piecewise_construct_tSt5tupleIJRS1_EESG_IJEEEEESt17_Rb_tree_iteratorIS5_ESt23_Rb_tree_const_iteratorIS5_EDpOT_.isra.440_x90:
    /*00000090*/ ADDS        R0, R0, #0 
    /*00000094*/ MOVNE       R0, #1 
    /*00000098*/ CMP         R7, R2 
    /*0000009c*/ ORREQ       R0, R0, #1 
    /*000000a0*/ CMP         R0, #0 
    /*000000a4*/ BNE         _ZNSt8_Rb_treeIjSt4pairIKjPN4hirt9GroupItemEESt10_Select1stIS5_ESt4lessIjESaIS5_EE22_M_emplace_hint_uniqueIJRKSt21piecewise_construct_tSt5tupleIJRS1_EESG_IJEEEEESt17_Rb_tree_iteratorIS5_ESt23_Rb_tree_const_iteratorIS5_EDpOT_.isra.440_xb8
    _ZNSt8_Rb_treeIjSt4pairIKjPN4hirt9GroupItemEESt10_Select1stIS5_ESt4lessIjESaIS5_EE22_M_emplace_hint_uniqueIJRKSt21piecewise_construct_tSt5tupleIJRS1_EESG_IJEEEEESt17_Rb_tree_iteratorIS5_ESt23_Rb_tree_const_iteratorIS5_EDpOT_.isra.440_xa8:
    /*000000a8*/ LDR         R0, [R2, #16] 
    /*000000ac*/ CMP         R6, R0 
    /*000000b0*/ MOVCS       R0, #0 
    /*000000b4*/ MOVCC       R0, #1 
    _ZNSt8_Rb_treeIjSt4pairIKjPN4hirt9GroupItemEESt10_Select1stIS5_ESt4lessIjESaIS5_EE22_M_emplace_hint_uniqueIJRKSt21piecewise_construct_tSt5tupleIJRS1_EESG_IJEEEEESt17_Rb_tree_iteratorIS5_ESt23_Rb_tree_const_iteratorIS5_EDpOT_.isra.440_xb8:
    /*000000b8*/ MOV         R3, R7 
    /*000000bc*/ MOV         R1, R4 
    /*000000c0*/ BL          _ZSt29_Rb_tree_insert_and_rebalancebPSt18_Rb_tree_node_baseS0_RS_
    /*000000c4*/ LDR         R3, [R5, #20] 
    /*000000c8*/ MOV         R0, R4 
    /*000000cc*/ ADD         R3, R3, #1 
    /*000000d0*/ STR         R3, [R5, #20] 
    /*000000d4*/ ADD         SP, SP, #12 
    /*000000d8*/ POP         {R4, R5, R6, R7, R8, R9, PC} 
    _ZNSt8_Rb_treeIjSt4pairIKjPN4hirt9GroupItemEESt10_Select1stIS5_ESt4lessIjESaIS5_EE22_M_emplace_hint_uniqueIJRKSt21piecewise_construct_tSt5tupleIJRS1_EESG_IJEEEEESt17_Rb_tree_iteratorIS5_ESt23_Rb_tree_const_iteratorIS5_EDpOT_.isra.440_xdc:
    /*000000dc*/ BLS         _ZNSt8_Rb_treeIjSt4pairIKjPN4hirt9GroupItemEESt10_Select1stIS5_ESt4lessIjESaIS5_EE22_M_emplace_hint_uniqueIJRKSt21piecewise_construct_tSt5tupleIJRS1_EESG_IJEEEEESt17_Rb_tree_iteratorIS5_ESt23_Rb_tree_const_iteratorIS5_EDpOT_.isra.440_x11c
    /*000000e0*/ LDR         R3, [R5, #16] 
    /*000000e4*/ CMP         R8, R3 
    /*000000e8*/ BEQ         _ZNSt8_Rb_treeIjSt4pairIKjPN4hirt9GroupItemEESt10_Select1stIS5_ESt4lessIjESaIS5_EE22_M_emplace_hint_uniqueIJRKSt21piecewise_construct_tSt5tupleIJRS1_EESG_IJEEEEESt17_Rb_tree_iteratorIS5_ESt23_Rb_tree_const_iteratorIS5_EDpOT_.isra.440_x110
    /*000000ec*/ MOV         R0, R8 
    /*000000f0*/ BL          _ZSt18_Rb_tree_incrementPSt18_Rb_tree_node_base
    /*000000f4*/ LDR         R3, [R0, #16] 
    /*000000f8*/ CMP         R6, R3 
    /*000000fc*/ BCS         _ZNSt8_Rb_treeIjSt4pairIKjPN4hirt9GroupItemEESt10_Select1stIS5_ESt4lessIjESaIS5_EE22_M_emplace_hint_uniqueIJRKSt21piecewise_construct_tSt5tupleIJRS1_EESG_IJEEEEESt17_Rb_tree_iteratorIS5_ESt23_Rb_tree_const_iteratorIS5_EDpOT_.isra.440_x218
    /*00000100*/ LDR         R3, [R8, #12] 
    /*00000104*/ CMP         R3, #0 
    /*00000108*/ MOVNE       R2, R0 
    /*0000010c*/ BNE         _ZNSt8_Rb_treeIjSt4pairIKjPN4hirt9GroupItemEESt10_Select1stIS5_ESt4lessIjESaIS5_EE22_M_emplace_hint_uniqueIJRKSt21piecewise_construct_tSt5tupleIJRS1_EESG_IJEEEEESt17_Rb_tree_iteratorIS5_ESt23_Rb_tree_const_iteratorIS5_EDpOT_.isra.440_x90
    _ZNSt8_Rb_treeIjSt4pairIKjPN4hirt9GroupItemEESt10_Select1stIS5_ESt4lessIjESaIS5_EE22_M_emplace_hint_uniqueIJRKSt21piecewise_construct_tSt5tupleIJRS1_EESG_IJEEEEESt17_Rb_tree_iteratorIS5_ESt23_Rb_tree_const_iteratorIS5_EDpOT_.isra.440_x110:
    /*00000110*/ MOV         R2, R8 
    /*00000114*/ B           _ZNSt8_Rb_treeIjSt4pairIKjPN4hirt9GroupItemEESt10_Select1stIS5_ESt4lessIjESaIS5_EE22_M_emplace_hint_uniqueIJRKSt21piecewise_construct_tSt5tupleIJRS1_EESG_IJEEEEESt17_Rb_tree_iteratorIS5_ESt23_Rb_tree_const_iteratorIS5_EDpOT_.isra.440_xa8
    _ZNSt8_Rb_treeIjSt4pairIKjPN4hirt9GroupItemEESt10_Select1stIS5_ESt4lessIjESaIS5_EE22_M_emplace_hint_uniqueIJRKSt21piecewise_construct_tSt5tupleIJRS1_EESG_IJEEEEESt17_Rb_tree_iteratorIS5_ESt23_Rb_tree_const_iteratorIS5_EDpOT_.isra.440_x118:
    /*00000118*/ MOV         R8, R2 
    _ZNSt8_Rb_treeIjSt4pairIKjPN4hirt9GroupItemEESt10_Select1stIS5_ESt4lessIjESaIS5_EE22_M_emplace_hint_uniqueIJRKSt21piecewise_construct_tSt5tupleIJRS1_EESG_IJEEEEESt17_Rb_tree_iteratorIS5_ESt23_Rb_tree_const_iteratorIS5_EDpOT_.isra.440_x11c:
    /*0000011c*/ MOV         R0, R4 
    /*00000120*/ BL          _ZdlPv
    /*00000124*/ MOV         R0, R8 
    /*00000128*/ ADD         SP, SP, #12 
    /*0000012c*/ POP         {R4, R5, R6, R7, R8, R9, PC} 
    _ZNSt8_Rb_treeIjSt4pairIKjPN4hirt9GroupItemEESt10_Select1stIS5_ESt4lessIjESaIS5_EE22_M_emplace_hint_uniqueIJRKSt21piecewise_construct_tSt5tupleIJRS1_EESG_IJEEEEESt17_Rb_tree_iteratorIS5_ESt23_Rb_tree_const_iteratorIS5_EDpOT_.isra.440_x130:
    /*00000130*/ LDR         R3, [R5, #20] 
    /*00000134*/ CMP         R3, R0 
    /*00000138*/ BEQ         _ZNSt8_Rb_treeIjSt4pairIKjPN4hirt9GroupItemEESt10_Select1stIS5_ESt4lessIjESaIS5_EE22_M_emplace_hint_uniqueIJRKSt21piecewise_construct_tSt5tupleIJRS1_EESG_IJEEEEESt17_Rb_tree_iteratorIS5_ESt23_Rb_tree_const_iteratorIS5_EDpOT_.isra.440_x14c
    /*0000013c*/ LDR         R2, [R5, #16] 
    /*00000140*/ LDR         R3, [R2, #16] 
    /*00000144*/ CMP         R6, R3 
    /*00000148*/ BHI         _ZNSt8_Rb_treeIjSt4pairIKjPN4hirt9GroupItemEESt10_Select1stIS5_ESt4lessIjESaIS5_EE22_M_emplace_hint_uniqueIJRKSt21piecewise_construct_tSt5tupleIJRS1_EESG_IJEEEEESt17_Rb_tree_iteratorIS5_ESt23_Rb_tree_const_iteratorIS5_EDpOT_.isra.440_x90
    _ZNSt8_Rb_treeIjSt4pairIKjPN4hirt9GroupItemEESt10_Select1stIS5_ESt4lessIjESaIS5_EE22_M_emplace_hint_uniqueIJRKSt21piecewise_construct_tSt5tupleIJRS1_EESG_IJEEEEESt17_Rb_tree_iteratorIS5_ESt23_Rb_tree_const_iteratorIS5_EDpOT_.isra.440_x14c:
    /*0000014c*/ LDR         R2, [R5, #8] 
    /*00000150*/ CMP         R2, #0 
    /*00000154*/ BNE         _ZNSt8_Rb_treeIjSt4pairIKjPN4hirt9GroupItemEESt10_Select1stIS5_ESt4lessIjESaIS5_EE22_M_emplace_hint_uniqueIJRKSt21piecewise_construct_tSt5tupleIJRS1_EESG_IJEEEEESt17_Rb_tree_iteratorIS5_ESt23_Rb_tree_const_iteratorIS5_EDpOT_.isra.440_x160
    /*00000158*/ B           _ZNSt8_Rb_treeIjSt4pairIKjPN4hirt9GroupItemEESt10_Select1stIS5_ESt4lessIjESaIS5_EE22_M_emplace_hint_uniqueIJRKSt21piecewise_construct_tSt5tupleIJRS1_EESG_IJEEEEESt17_Rb_tree_iteratorIS5_ESt23_Rb_tree_const_iteratorIS5_EDpOT_.isra.440_x264
    _ZNSt8_Rb_treeIjSt4pairIKjPN4hirt9GroupItemEESt10_Select1stIS5_ESt4lessIjESaIS5_EE22_M_emplace_hint_uniqueIJRKSt21piecewise_construct_tSt5tupleIJRS1_EESG_IJEEEEESt17_Rb_tree_iteratorIS5_ESt23_Rb_tree_const_iteratorIS5_EDpOT_.isra.440_x15c:
    /*0000015c*/ MOV         R2, R3 
    _ZNSt8_Rb_treeIjSt4pairIKjPN4hirt9GroupItemEESt10_Select1stIS5_ESt4lessIjESaIS5_EE22_M_emplace_hint_uniqueIJRKSt21piecewise_construct_tSt5tupleIJRS1_EESG_IJEEEEESt17_Rb_tree_iteratorIS5_ESt23_Rb_tree_const_iteratorIS5_EDpOT_.isra.440_x160:
    /*00000160*/ LDR         R1, [R2, #16] 
    /*00000164*/ MOV         R0, #1 
    /*00000168*/ CMP         R6, R1 
    /*0000016c*/ MOVCS       R0, #0 
    /*00000170*/ LDRCC       R3, [R2, #8] 
    /*00000174*/ LDRCS       R3, [R2, #12] 
    /*00000178*/ CMP         R3, #0 
    /*0000017c*/ BNE         _ZNSt8_Rb_treeIjSt4pairIKjPN4hirt9GroupItemEESt10_Select1stIS5_ESt4lessIjESaIS5_EE22_M_emplace_hint_uniqueIJRKSt21piecewise_construct_tSt5tupleIJRS1_EESG_IJEEEEESt17_Rb_tree_iteratorIS5_ESt23_Rb_tree_const_iteratorIS5_EDpOT_.isra.440_x15c
    /*00000180*/ CMP         R0, #0 
    /*00000184*/ BEQ         _ZNSt8_Rb_treeIjSt4pairIKjPN4hirt9GroupItemEESt10_Select1stIS5_ESt4lessIjESaIS5_EE22_M_emplace_hint_uniqueIJRKSt21piecewise_construct_tSt5tupleIJRS1_EESG_IJEEEEESt17_Rb_tree_iteratorIS5_ESt23_Rb_tree_const_iteratorIS5_EDpOT_.isra.440_x1ec
    _ZNSt8_Rb_treeIjSt4pairIKjPN4hirt9GroupItemEESt10_Select1stIS5_ESt4lessIjESaIS5_EE22_M_emplace_hint_uniqueIJRKSt21piecewise_construct_tSt5tupleIJRS1_EESG_IJEEEEESt17_Rb_tree_iteratorIS5_ESt23_Rb_tree_const_iteratorIS5_EDpOT_.isra.440_x188:
    /*00000188*/ LDR         R3, [R5, #12] 
    /*0000018c*/ CMP         R3, R2 
    /*00000190*/ BEQ         _ZNSt8_Rb_treeIjSt4pairIKjPN4hirt9GroupItemEESt10_Select1stIS5_ESt4lessIjESaIS5_EE22_M_emplace_hint_uniqueIJRKSt21piecewise_construct_tSt5tupleIJRS1_EESG_IJEEEEESt17_Rb_tree_iteratorIS5_ESt23_Rb_tree_const_iteratorIS5_EDpOT_.isra.440_x200
    _ZNSt8_Rb_treeIjSt4pairIKjPN4hirt9GroupItemEESt10_Select1stIS5_ESt4lessIjESaIS5_EE22_M_emplace_hint_uniqueIJRKSt21piecewise_construct_tSt5tupleIJRS1_EESG_IJEEEEESt17_Rb_tree_iteratorIS5_ESt23_Rb_tree_const_iteratorIS5_EDpOT_.isra.440_x194:
    /*00000194*/ STR         R2, [SP, #4] 
    /*00000198*/ MOV         R0, R2 
    /*0000019c*/ BL          _ZSt18_Rb_tree_decrementPSt18_Rb_tree_node_base
    /*000001a0*/ LDR         R1, [R0, #16] 
    /*000001a4*/ MOV         R8, R0 
    /*000001a8*/ LDR         R2, [SP, #4] 
    /*000001ac*/ B           _ZNSt8_Rb_treeIjSt4pairIKjPN4hirt9GroupItemEESt10_Select1stIS5_ESt4lessIjESaIS5_EE22_M_emplace_hint_uniqueIJRKSt21piecewise_construct_tSt5tupleIJRS1_EESG_IJEEEEESt17_Rb_tree_iteratorIS5_ESt23_Rb_tree_const_iteratorIS5_EDpOT_.isra.440_x1f0
    _ZNSt8_Rb_treeIjSt4pairIKjPN4hirt9GroupItemEESt10_Select1stIS5_ESt4lessIjESaIS5_EE22_M_emplace_hint_uniqueIJRKSt21piecewise_construct_tSt5tupleIJRS1_EESG_IJEEEEESt17_Rb_tree_iteratorIS5_ESt23_Rb_tree_const_iteratorIS5_EDpOT_.isra.440_x1b0:
    /*000001b0*/ LDR         R2, [R5, #8] 
    /*000001b4*/ CMP         R2, #0 
    /*000001b8*/ BNE         _ZNSt8_Rb_treeIjSt4pairIKjPN4hirt9GroupItemEESt10_Select1stIS5_ESt4lessIjESaIS5_EE22_M_emplace_hint_uniqueIJRKSt21piecewise_construct_tSt5tupleIJRS1_EESG_IJEEEEESt17_Rb_tree_iteratorIS5_ESt23_Rb_tree_const_iteratorIS5_EDpOT_.isra.440_x1c4
    /*000001bc*/ B           _ZNSt8_Rb_treeIjSt4pairIKjPN4hirt9GroupItemEESt10_Select1stIS5_ESt4lessIjESaIS5_EE22_M_emplace_hint_uniqueIJRKSt21piecewise_construct_tSt5tupleIJRS1_EESG_IJEEEEESt17_Rb_tree_iteratorIS5_ESt23_Rb_tree_const_iteratorIS5_EDpOT_.isra.440_x208
    _ZNSt8_Rb_treeIjSt4pairIKjPN4hirt9GroupItemEESt10_Select1stIS5_ESt4lessIjESaIS5_EE22_M_emplace_hint_uniqueIJRKSt21piecewise_construct_tSt5tupleIJRS1_EESG_IJEEEEESt17_Rb_tree_iteratorIS5_ESt23_Rb_tree_const_iteratorIS5_EDpOT_.isra.440_x1c0:
    /*000001c0*/ MOV         R2, R3 
    _ZNSt8_Rb_treeIjSt4pairIKjPN4hirt9GroupItemEESt10_Select1stIS5_ESt4lessIjESaIS5_EE22_M_emplace_hint_uniqueIJRKSt21piecewise_construct_tSt5tupleIJRS1_EESG_IJEEEEESt17_Rb_tree_iteratorIS5_ESt23_Rb_tree_const_iteratorIS5_EDpOT_.isra.440_x1c4:
    /*000001c4*/ LDR         R1, [R2, #16] 
    /*000001c8*/ MOV         R0, #1 
    /*000001cc*/ CMP         R6, R1 
    /*000001d0*/ MOVCS       R0, #0 
    /*000001d4*/ LDRCC       R3, [R2, #8] 
    /*000001d8*/ LDRCS       R3, [R2, #12] 
    /*000001dc*/ CMP         R3, #0 
    /*000001e0*/ BNE         _ZNSt8_Rb_treeIjSt4pairIKjPN4hirt9GroupItemEESt10_Select1stIS5_ESt4lessIjESaIS5_EE22_M_emplace_hint_uniqueIJRKSt21piecewise_construct_tSt5tupleIJRS1_EESG_IJEEEEESt17_Rb_tree_iteratorIS5_ESt23_Rb_tree_const_iteratorIS5_EDpOT_.isra.440_x1c0
    /*000001e4*/ CMP         R0, #0 
    /*000001e8*/ BNE         _ZNSt8_Rb_treeIjSt4pairIKjPN4hirt9GroupItemEESt10_Select1stIS5_ESt4lessIjESaIS5_EE22_M_emplace_hint_uniqueIJRKSt21piecewise_construct_tSt5tupleIJRS1_EESG_IJEEEEESt17_Rb_tree_iteratorIS5_ESt23_Rb_tree_const_iteratorIS5_EDpOT_.isra.440_x20c
    _ZNSt8_Rb_treeIjSt4pairIKjPN4hirt9GroupItemEESt10_Select1stIS5_ESt4lessIjESaIS5_EE22_M_emplace_hint_uniqueIJRKSt21piecewise_construct_tSt5tupleIJRS1_EESG_IJEEEEESt17_Rb_tree_iteratorIS5_ESt23_Rb_tree_const_iteratorIS5_EDpOT_.isra.440_x1ec:
    /*000001ec*/ MOV         R8, R2 
    _ZNSt8_Rb_treeIjSt4pairIKjPN4hirt9GroupItemEESt10_Select1stIS5_ESt4lessIjESaIS5_EE22_M_emplace_hint_uniqueIJRKSt21piecewise_construct_tSt5tupleIJRS1_EESG_IJEEEEESt17_Rb_tree_iteratorIS5_ESt23_Rb_tree_const_iteratorIS5_EDpOT_.isra.440_x1f0:
    /*000001f0*/ CMP         R6, R1 
    /*000001f4*/ BLS         _ZNSt8_Rb_treeIjSt4pairIKjPN4hirt9GroupItemEESt10_Select1stIS5_ESt4lessIjESaIS5_EE22_M_emplace_hint_uniqueIJRKSt21piecewise_construct_tSt5tupleIJRS1_EESG_IJEEEEESt17_Rb_tree_iteratorIS5_ESt23_Rb_tree_const_iteratorIS5_EDpOT_.isra.440_x11c
    _ZNSt8_Rb_treeIjSt4pairIKjPN4hirt9GroupItemEESt10_Select1stIS5_ESt4lessIjESaIS5_EE22_M_emplace_hint_uniqueIJRKSt21piecewise_construct_tSt5tupleIJRS1_EESG_IJEEEEESt17_Rb_tree_iteratorIS5_ESt23_Rb_tree_const_iteratorIS5_EDpOT_.isra.440_x1f8:
    /*000001f8*/ CMP         R2, #0 
    /*000001fc*/ BEQ         _ZNSt8_Rb_treeIjSt4pairIKjPN4hirt9GroupItemEESt10_Select1stIS5_ESt4lessIjESaIS5_EE22_M_emplace_hint_uniqueIJRKSt21piecewise_construct_tSt5tupleIJRS1_EESG_IJEEEEESt17_Rb_tree_iteratorIS5_ESt23_Rb_tree_const_iteratorIS5_EDpOT_.isra.440_x118
    _ZNSt8_Rb_treeIjSt4pairIKjPN4hirt9GroupItemEESt10_Select1stIS5_ESt4lessIjESaIS5_EE22_M_emplace_hint_uniqueIJRKSt21piecewise_construct_tSt5tupleIJRS1_EESG_IJEEEEESt17_Rb_tree_iteratorIS5_ESt23_Rb_tree_const_iteratorIS5_EDpOT_.isra.440_x200:
    /*00000200*/ MOV         R0, #0 
    /*00000204*/ B           _ZNSt8_Rb_treeIjSt4pairIKjPN4hirt9GroupItemEESt10_Select1stIS5_ESt4lessIjESaIS5_EE22_M_emplace_hint_uniqueIJRKSt21piecewise_construct_tSt5tupleIJRS1_EESG_IJEEEEESt17_Rb_tree_iteratorIS5_ESt23_Rb_tree_const_iteratorIS5_EDpOT_.isra.440_x90
    _ZNSt8_Rb_treeIjSt4pairIKjPN4hirt9GroupItemEESt10_Select1stIS5_ESt4lessIjESaIS5_EE22_M_emplace_hint_uniqueIJRKSt21piecewise_construct_tSt5tupleIJRS1_EESG_IJEEEEESt17_Rb_tree_iteratorIS5_ESt23_Rb_tree_const_iteratorIS5_EDpOT_.isra.440_x208:
    /*00000208*/ MOV         R2, R7 
    _ZNSt8_Rb_treeIjSt4pairIKjPN4hirt9GroupItemEESt10_Select1stIS5_ESt4lessIjESaIS5_EE22_M_emplace_hint_uniqueIJRKSt21piecewise_construct_tSt5tupleIJRS1_EESG_IJEEEEESt17_Rb_tree_iteratorIS5_ESt23_Rb_tree_const_iteratorIS5_EDpOT_.isra.440_x20c:
    /*0000020c*/ CMP         R9, R2 
    /*00000210*/ BNE         _ZNSt8_Rb_treeIjSt4pairIKjPN4hirt9GroupItemEESt10_Select1stIS5_ESt4lessIjESaIS5_EE22_M_emplace_hint_uniqueIJRKSt21piecewise_construct_tSt5tupleIJRS1_EESG_IJEEEEESt17_Rb_tree_iteratorIS5_ESt23_Rb_tree_const_iteratorIS5_EDpOT_.isra.440_x194
    /*00000214*/ B           _ZNSt8_Rb_treeIjSt4pairIKjPN4hirt9GroupItemEESt10_Select1stIS5_ESt4lessIjESaIS5_EE22_M_emplace_hint_uniqueIJRKSt21piecewise_construct_tSt5tupleIJRS1_EESG_IJEEEEESt17_Rb_tree_iteratorIS5_ESt23_Rb_tree_const_iteratorIS5_EDpOT_.isra.440_x1f8
    _ZNSt8_Rb_treeIjSt4pairIKjPN4hirt9GroupItemEESt10_Select1stIS5_ESt4lessIjESaIS5_EE22_M_emplace_hint_uniqueIJRKSt21piecewise_construct_tSt5tupleIJRS1_EESG_IJEEEEESt17_Rb_tree_iteratorIS5_ESt23_Rb_tree_const_iteratorIS5_EDpOT_.isra.440_x218:
    /*00000218*/ LDR         R2, [R5, #8] 
    /*0000021c*/ CMP         R2, #0 
    /*00000220*/ BNE         _ZNSt8_Rb_treeIjSt4pairIKjPN4hirt9GroupItemEESt10_Select1stIS5_ESt4lessIjESaIS5_EE22_M_emplace_hint_uniqueIJRKSt21piecewise_construct_tSt5tupleIJRS1_EESG_IJEEEEESt17_Rb_tree_iteratorIS5_ESt23_Rb_tree_const_iteratorIS5_EDpOT_.isra.440_x22c
    /*00000224*/ B           _ZNSt8_Rb_treeIjSt4pairIKjPN4hirt9GroupItemEESt10_Select1stIS5_ESt4lessIjESaIS5_EE22_M_emplace_hint_uniqueIJRKSt21piecewise_construct_tSt5tupleIJRS1_EESG_IJEEEEESt17_Rb_tree_iteratorIS5_ESt23_Rb_tree_const_iteratorIS5_EDpOT_.isra.440_x26c
    _ZNSt8_Rb_treeIjSt4pairIKjPN4hirt9GroupItemEESt10_Select1stIS5_ESt4lessIjESaIS5_EE22_M_emplace_hint_uniqueIJRKSt21piecewise_construct_tSt5tupleIJRS1_EESG_IJEEEEESt17_Rb_tree_iteratorIS5_ESt23_Rb_tree_const_iteratorIS5_EDpOT_.isra.440_x228:
    /*00000228*/ MOV         R2, R3 
    _ZNSt8_Rb_treeIjSt4pairIKjPN4hirt9GroupItemEESt10_Select1stIS5_ESt4lessIjESaIS5_EE22_M_emplace_hint_uniqueIJRKSt21piecewise_construct_tSt5tupleIJRS1_EESG_IJEEEEESt17_Rb_tree_iteratorIS5_ESt23_Rb_tree_const_iteratorIS5_EDpOT_.isra.440_x22c:
    /*0000022c*/ LDR         R1, [R2, #16] 
    /*00000230*/ MOV         R0, #1 
    /*00000234*/ CMP         R6, R1 
    /*00000238*/ MOVCS       R0, #0 
    /*0000023c*/ LDRCC       R3, [R2, #8] 
    /*00000240*/ LDRCS       R3, [R2, #12] 
    /*00000244*/ CMP         R3, #0 
    /*00000248*/ BNE         _ZNSt8_Rb_treeIjSt4pairIKjPN4hirt9GroupItemEESt10_Select1stIS5_ESt4lessIjESaIS5_EE22_M_emplace_hint_uniqueIJRKSt21piecewise_construct_tSt5tupleIJRS1_EESG_IJEEEEESt17_Rb_tree_iteratorIS5_ESt23_Rb_tree_const_iteratorIS5_EDpOT_.isra.440_x228
    /*0000024c*/ CMP         R0, #0 
    /*00000250*/ BEQ         _ZNSt8_Rb_treeIjSt4pairIKjPN4hirt9GroupItemEESt10_Select1stIS5_ESt4lessIjESaIS5_EE22_M_emplace_hint_uniqueIJRKSt21piecewise_construct_tSt5tupleIJRS1_EESG_IJEEEEESt17_Rb_tree_iteratorIS5_ESt23_Rb_tree_const_iteratorIS5_EDpOT_.isra.440_x1ec
    _ZNSt8_Rb_treeIjSt4pairIKjPN4hirt9GroupItemEESt10_Select1stIS5_ESt4lessIjESaIS5_EE22_M_emplace_hint_uniqueIJRKSt21piecewise_construct_tSt5tupleIJRS1_EESG_IJEEEEESt17_Rb_tree_iteratorIS5_ESt23_Rb_tree_const_iteratorIS5_EDpOT_.isra.440_x254:
    /*00000254*/ LDR         R3, [R5, #12] 
    /*00000258*/ CMP         R3, R2 
    /*0000025c*/ BNE         _ZNSt8_Rb_treeIjSt4pairIKjPN4hirt9GroupItemEESt10_Select1stIS5_ESt4lessIjESaIS5_EE22_M_emplace_hint_uniqueIJRKSt21piecewise_construct_tSt5tupleIJRS1_EESG_IJEEEEESt17_Rb_tree_iteratorIS5_ESt23_Rb_tree_const_iteratorIS5_EDpOT_.isra.440_x194
    /*00000260*/ B           _ZNSt8_Rb_treeIjSt4pairIKjPN4hirt9GroupItemEESt10_Select1stIS5_ESt4lessIjESaIS5_EE22_M_emplace_hint_uniqueIJRKSt21piecewise_construct_tSt5tupleIJRS1_EESG_IJEEEEESt17_Rb_tree_iteratorIS5_ESt23_Rb_tree_const_iteratorIS5_EDpOT_.isra.440_x1f8
    _ZNSt8_Rb_treeIjSt4pairIKjPN4hirt9GroupItemEESt10_Select1stIS5_ESt4lessIjESaIS5_EE22_M_emplace_hint_uniqueIJRKSt21piecewise_construct_tSt5tupleIJRS1_EESG_IJEEEEESt17_Rb_tree_iteratorIS5_ESt23_Rb_tree_const_iteratorIS5_EDpOT_.isra.440_x264:
    /*00000264*/ MOV         R2, R7 
    /*00000268*/ B           _ZNSt8_Rb_treeIjSt4pairIKjPN4hirt9GroupItemEESt10_Select1stIS5_ESt4lessIjESaIS5_EE22_M_emplace_hint_uniqueIJRKSt21piecewise_construct_tSt5tupleIJRS1_EESG_IJEEEEESt17_Rb_tree_iteratorIS5_ESt23_Rb_tree_const_iteratorIS5_EDpOT_.isra.440_x188
    _ZNSt8_Rb_treeIjSt4pairIKjPN4hirt9GroupItemEESt10_Select1stIS5_ESt4lessIjESaIS5_EE22_M_emplace_hint_uniqueIJRKSt21piecewise_construct_tSt5tupleIJRS1_EESG_IJEEEEESt17_Rb_tree_iteratorIS5_ESt23_Rb_tree_const_iteratorIS5_EDpOT_.isra.440_x26c:
    /*0000026c*/ MOV         R2, R7 
    /*00000270*/ B           _ZNSt8_Rb_treeIjSt4pairIKjPN4hirt9GroupItemEESt10_Select1stIS5_ESt4lessIjESaIS5_EE22_M_emplace_hint_uniqueIJRKSt21piecewise_construct_tSt5tupleIJRS1_EESG_IJEEEEESt17_Rb_tree_iteratorIS5_ESt23_Rb_tree_const_iteratorIS5_EDpOT_.isra.440_x254
FUNC_END _ZNSt8_Rb_treeIjSt4pairIKjPN4hirt9GroupItemEESt10_Select1stIS5_ESt4lessIjESaIS5_EE22_M_emplace_hint_uniqueIJRKSt21piecewise_construct_tSt5tupleIJRS1_EESG_IJEEEEESt17_Rb_tree_iteratorIS5_ESt23_Rb_tree_const_iteratorIS5_EDpOT_.isra.440


@ - - - - - - - - - - - - - - - - - - - - - - - - - - - - - 
@ .text._ZN4hirt17ModelGroupManager11getInstanceEv
@ Size: 0x98
@ - - - - - - - - - - - - - - - - - - - - - - - - - - - - - 

FUNC_BEGIN _ZN4hirt17ModelGroupManager11getInstanceEv
    /*00000000*/ MOV         IP, #16384                  @ 0x4000 
    /*00000004*/ PUSH        {R4, LR} 
    /*00000008*/ SUB         IP, SP, IP 
    /*0000000c*/ STR         R0, [IP, #4088]             @ 0xff8 
    /*00000010*/ LDR         R4, WORD_0080               @ LDR         R4, [PC, #104]              @ 0x0000000000000080 
    /*00000014*/ ADD         R4, PC, R4 
    /*00000018*/ LDRB        R3, [R4] 
    /*0000001c*/ DMB         ISH 
    /*00000020*/ TST         R3, #1 
    /*00000024*/ BEQ         _ZN4hirt17ModelGroupManager11getInstanceEv_x34
    _ZN4hirt17ModelGroupManager11getInstanceEv_x28:
    /*00000028*/ LDR         R0, WORD_0084               @ LDR         R0, [PC, #84]               @ 0x0000000000000084 
    /*0000002c*/ ADD         R0, PC, R0 
    /*00000030*/ POP         {R4, PC} 
    _ZN4hirt17ModelGroupManager11getInstanceEv_x34:
    /*00000034*/ MOV         R0, R4 
    /*00000038*/ BL          __cxa_guard_acquire
    /*0000003c*/ CMP         R0, #0 
    /*00000040*/ BEQ         _ZN4hirt17ModelGroupManager11getInstanceEv_x28
    /*00000044*/ LDR         R3, WORD_0088               @ LDR         R3, [PC, #60]               @ 0x0000000000000088 
    /*00000048*/ MOV         R0, R4 
    /*0000004c*/ LDR         R4, WORD_008c               @ LDR         R4, [PC, #56]               @ 0x000000000000008c 
    /*00000050*/ ADD         R3, PC, R3 
    /*00000054*/ ADD         R4, PC, R4 
    /*00000058*/ ADD         R3, R3, #8 
    /*0000005c*/ STR         R3, [R4] 
    /*00000060*/ BL          __cxa_guard_release
    /*00000064*/ LDR         R2, WORD_0090               @ LDR         R2, [PC, #36]               @ 0x0000000000000090 
    /*00000068*/ MOV         R0, R4 
    /*0000006c*/ LDR         R1, WORD_0094               @ LDR         R1, [PC, #32]               @ 0x0000000000000094 
    /*00000070*/ ADD         R2, PC, R2 
    /*00000074*/ ADD         R1, PC, R1 
    /*00000078*/ BL          __aeabi_atexit
    /*0000007c*/ B           _ZN4hirt17ModelGroupManager11getInstanceEv_x28
    /*00000080*/ WORD_0080: .word 0x00000064
    /*00000084*/ WORD_0084: .word 0x00000050
    /*00000088*/ WORD_0088: .word 0x00000030
    /*0000008c*/ WORD_008c: .word 0x00000030
    /*00000090*/ WORD_0090: .word 0x00000018
    /*00000094*/ WORD_0094: .word 0x00000018
FUNC_END _ZN4hirt17ModelGroupManager11getInstanceEv


@ - - - - - - - - - - - - - - - - - - - - - - - - - - - - - 
@ .text._ZN4hirt17ModelGroupManagerC2Ev
@ Size: 0x18
@ - - - - - - - - - - - - - - - - - - - - - - - - - - - - - 

FUNC_BEGIN _ZN4hirt17ModelGroupManagerC2Ev
    /*00000000*/ LDR         R3, WORD_0014               @ LDR         R3, [PC, #12]               @ 0x0000000000000014 
    /*00000004*/ ADD         R3, PC, R3 
    /*00000008*/ ADD         R3, R3, #8 
    /*0000000c*/ STR         R3, [R0] 
    /*00000010*/ BX          LR 
    /*00000014*/ WORD_0014: .word 0x00000008
FUNC_END _ZN4hirt17ModelGroupManagerC2Ev


FUNC_BEGIN _ZN4hirt17ModelGroupManagerC1Ev
    /*00000000*/ LDR         R3, WORD_0014               @ LDR         R3, [PC, #12]               @ 0x0000000000000014 
    /*00000004*/ ADD         R3, PC, R3 
    /*00000008*/ ADD         R3, R3, #8 
    /*0000000c*/ STR         R3, [R0] 
    /*00000010*/ BX          LR 
    /*00000014*/ WORD_0014: .word 0x00000008
FUNC_END _ZN4hirt17ModelGroupManagerC1Ev


@ - - - - - - - - - - - - - - - - - - - - - - - - - - - - - 
@ .text._ZNSt6vectorIPN4hirt9OperationESaIS2_EEaSERKS4_
@ Size: 0x140
@ - - - - - - - - - - - - - - - - - - - - - - - - - - - - - 

FUNC_BEGIN _ZNSt6vectorIPN4hirt9OperationESaIS2_EEaSERKS4_
    /*00000000*/ MOV         IP, #16384                  @ 0x4000 
    /*00000004*/ PUSH        {R4, R5, R6, R7, R8, R9, SL, LR} 
    /*00000008*/ SUB         IP, SP, IP 
    /*0000000c*/ STR         R0, [IP, #4064]             @ 0xfe0 
    /*00000010*/ CMP         R1, R0 
    /*00000014*/ MOV         R4, R0 
    /*00000018*/ BEQ         _ZNSt6vectorIPN4hirt9OperationESaIS2_EEaSERKS4__x74
    /*0000001c*/ LDM         R1, {R9, IP} 
    /*00000020*/ LDR         R7, [R0] 
    /*00000024*/ MOV         R6, R1 
    /*00000028*/ LDR         R3, [R0, #8] 
    /*0000002c*/ SUB         R5, IP, R9 
    /*00000030*/ SUB         R3, R3, R7 
    /*00000034*/ ASR         R8, R5, #2 
    /*00000038*/ CMP         R8, R3, ASR #2 
    /*0000003c*/ BHI         _ZNSt6vectorIPN4hirt9OperationESaIS2_EEaSERKS4__xa0
    /*00000040*/ LDR         R0, [R0, #4] 
    /*00000044*/ SUB         R1, R0, R7 
    /*00000048*/ ASR         R3, R1, #2 
    /*0000004c*/ CMP         R8, R3 
    /*00000050*/ BLS         _ZNSt6vectorIPN4hirt9OperationESaIS2_EEaSERKS4__x7c
    /*00000054*/ CMP         R3, #0 
    /*00000058*/ BNE         _ZNSt6vectorIPN4hirt9OperationESaIS2_EEaSERKS4__x114
    _ZNSt6vectorIPN4hirt9OperationESaIS2_EEaSERKS4__x5c:
    /*0000005c*/ ADD         R1, R9, R1 
    /*00000060*/ SUB         R2, IP, R1 
    /*00000064*/ LSRS        R3, R2, #2 
    /*00000068*/ BNE         _ZNSt6vectorIPN4hirt9OperationESaIS2_EEaSERKS4__x104
    _ZNSt6vectorIPN4hirt9OperationESaIS2_EEaSERKS4__x6c:
    /*0000006c*/ ADD         R5, R7, R5 
    _ZNSt6vectorIPN4hirt9OperationESaIS2_EEaSERKS4__x70:
    /*00000070*/ STR         R5, [R4, #4] 
    _ZNSt6vectorIPN4hirt9OperationESaIS2_EEaSERKS4__x74:
    /*00000074*/ MOV         R0, R4 
    /*00000078*/ POP         {R4, R5, R6, R7, R8, R9, SL, PC} 
    _ZNSt6vectorIPN4hirt9OperationESaIS2_EEaSERKS4__x7c:
    /*0000007c*/ CMP         R8, #0 
    /*00000080*/ BEQ         _ZNSt6vectorIPN4hirt9OperationESaIS2_EEaSERKS4__x6c
    /*00000084*/ MOV         R2, R5 
    /*00000088*/ MOV         R1, R9 
    /*0000008c*/ MOV         R0, R7 
    /*00000090*/ BL          memmove
    /*00000094*/ LDR         R3, [R4] 
    /*00000098*/ ADD         R5, R3, R5 
    /*0000009c*/ B           _ZNSt6vectorIPN4hirt9OperationESaIS2_EEaSERKS4__x70
    _ZNSt6vectorIPN4hirt9OperationESaIS2_EEaSERKS4__xa0:
    /*000000a0*/ CMP         R8, #0 
    /*000000a4*/ MOVEQ       R6, R8 
    /*000000a8*/ BEQ         _ZNSt6vectorIPN4hirt9OperationESaIS2_EEaSERKS4__xcc
    /*000000ac*/ CMN         R8, #-1073741823            @ 0xc0000001 
    /*000000b0*/ BHI         _ZNSt6vectorIPN4hirt9OperationESaIS2_EEaSERKS4__x13c
    /*000000b4*/ MOV         R0, R5 
    /*000000b8*/ BL          _Znwj
    /*000000bc*/ LDR         R7, [R4] 
    /*000000c0*/ CMP         R8, #0 
    /*000000c4*/ MOV         R6, R0 
    /*000000c8*/ BNE         _ZNSt6vectorIPN4hirt9OperationESaIS2_EEaSERKS4__xec
    _ZNSt6vectorIPN4hirt9OperationESaIS2_EEaSERKS4__xcc:
    /*000000cc*/ CMP         R7, #0 
    /*000000d0*/ BEQ         _ZNSt6vectorIPN4hirt9OperationESaIS2_EEaSERKS4__xdc
    _ZNSt6vectorIPN4hirt9OperationESaIS2_EEaSERKS4__xd4:
    /*000000d4*/ MOV         R0, R7 
    /*000000d8*/ BL          _ZdlPv
    _ZNSt6vectorIPN4hirt9OperationESaIS2_EEaSERKS4__xdc:
    /*000000dc*/ ADD         R5, R6, R5 
    /*000000e0*/ STR         R5, [R4, #8] 
    /*000000e4*/ STR         R6, [R4] 
    /*000000e8*/ B           _ZNSt6vectorIPN4hirt9OperationESaIS2_EEaSERKS4__x70
    _ZNSt6vectorIPN4hirt9OperationESaIS2_EEaSERKS4__xec:
    /*000000ec*/ MOV         R1, R9 
    /*000000f0*/ MOV         R2, R5 
    /*000000f4*/ BL          memmove
    /*000000f8*/ CMP         R7, #0 
    /*000000fc*/ BNE         _ZNSt6vectorIPN4hirt9OperationESaIS2_EEaSERKS4__xd4
    /*00000100*/ B           _ZNSt6vectorIPN4hirt9OperationESaIS2_EEaSERKS4__xdc
    _ZNSt6vectorIPN4hirt9OperationESaIS2_EEaSERKS4__x104:
    /*00000104*/ BL          memmove
    /*00000108*/ LDR         R3, [R4] 
    /*0000010c*/ ADD         R5, R3, R5 
    /*00000110*/ B           _ZNSt6vectorIPN4hirt9OperationESaIS2_EEaSERKS4__x70
    _ZNSt6vectorIPN4hirt9OperationESaIS2_EEaSERKS4__x114:
    /*00000114*/ MOV         R2, R1 
    /*00000118*/ MOV         R0, R7 
    /*0000011c*/ MOV         R1, R9 
    /*00000120*/ BL          memmove
    /*00000124*/ LDR         R0, [R4, #4] 
    /*00000128*/ LDR         R7, [R4] 
    /*0000012c*/ LDR         R9, [R6] 
    /*00000130*/ SUB         R1, R0, R7 
    /*00000134*/ LDR         IP, [R6, #4] 
    /*00000138*/ B           _ZNSt6vectorIPN4hirt9OperationESaIS2_EEaSERKS4__x5c
    _ZNSt6vectorIPN4hirt9OperationESaIS2_EEaSERKS4__x13c:
    /*0000013c*/ BL          _ZSt17__throw_bad_allocv
FUNC_END _ZNSt6vectorIPN4hirt9OperationESaIS2_EEaSERKS4_


@ - - - - - - - - - - - - - - - - - - - - - - - - - - - - - 
@ .text._ZNSt6vectorIPN4hirt14ModelGroupTaskESaIS2_EEaSERKS4_
@ Size: 0x140
@ - - - - - - - - - - - - - - - - - - - - - - - - - - - - - 

FUNC_BEGIN _ZNSt6vectorIPN4hirt14ModelGroupTaskESaIS2_EEaSERKS4_
    /*00000000*/ MOV         IP, #16384                  @ 0x4000 
    /*00000004*/ PUSH        {R4, R5, R6, R7, R8, R9, SL, LR} 
    /*00000008*/ SUB         IP, SP, IP 
    /*0000000c*/ STR         R0, [IP, #4064]             @ 0xfe0 
    /*00000010*/ CMP         R1, R0 
    /*00000014*/ MOV         R4, R0 
    /*00000018*/ BEQ         _ZNSt6vectorIPN4hirt14ModelGroupTaskESaIS2_EEaSERKS4__x74
    /*0000001c*/ LDM         R1, {R9, IP} 
    /*00000020*/ LDR         R7, [R0] 
    /*00000024*/ MOV         R6, R1 
    /*00000028*/ LDR         R3, [R0, #8] 
    /*0000002c*/ SUB         R5, IP, R9 
    /*00000030*/ SUB         R3, R3, R7 
    /*00000034*/ ASR         R8, R5, #2 
    /*00000038*/ CMP         R8, R3, ASR #2 
    /*0000003c*/ BHI         _ZNSt6vectorIPN4hirt14ModelGroupTaskESaIS2_EEaSERKS4__xa0
    /*00000040*/ LDR         R0, [R0, #4] 
    /*00000044*/ SUB         R1, R0, R7 
    /*00000048*/ ASR         R3, R1, #2 
    /*0000004c*/ CMP         R8, R3 
    /*00000050*/ BLS         _ZNSt6vectorIPN4hirt14ModelGroupTaskESaIS2_EEaSERKS4__x7c
    /*00000054*/ CMP         R3, #0 
    /*00000058*/ BNE         _ZNSt6vectorIPN4hirt14ModelGroupTaskESaIS2_EEaSERKS4__x114
    _ZNSt6vectorIPN4hirt14ModelGroupTaskESaIS2_EEaSERKS4__x5c:
    /*0000005c*/ ADD         R1, R9, R1 
    /*00000060*/ SUB         R2, IP, R1 
    /*00000064*/ LSRS        R3, R2, #2 
    /*00000068*/ BNE         _ZNSt6vectorIPN4hirt14ModelGroupTaskESaIS2_EEaSERKS4__x104
    _ZNSt6vectorIPN4hirt14ModelGroupTaskESaIS2_EEaSERKS4__x6c:
    /*0000006c*/ ADD         R5, R7, R5 
    _ZNSt6vectorIPN4hirt14ModelGroupTaskESaIS2_EEaSERKS4__x70:
    /*00000070*/ STR         R5, [R4, #4] 
    _ZNSt6vectorIPN4hirt14ModelGroupTaskESaIS2_EEaSERKS4__x74:
    /*00000074*/ MOV         R0, R4 
    /*00000078*/ POP         {R4, R5, R6, R7, R8, R9, SL, PC} 
    _ZNSt6vectorIPN4hirt14ModelGroupTaskESaIS2_EEaSERKS4__x7c:
    /*0000007c*/ CMP         R8, #0 
    /*00000080*/ BEQ         _ZNSt6vectorIPN4hirt14ModelGroupTaskESaIS2_EEaSERKS4__x6c
    /*00000084*/ MOV         R2, R5 
    /*00000088*/ MOV         R1, R9 
    /*0000008c*/ MOV         R0, R7 
    /*00000090*/ BL          memmove
    /*00000094*/ LDR         R3, [R4] 
    /*00000098*/ ADD         R5, R3, R5 
    /*0000009c*/ B           _ZNSt6vectorIPN4hirt14ModelGroupTaskESaIS2_EEaSERKS4__x70
    _ZNSt6vectorIPN4hirt14ModelGroupTaskESaIS2_EEaSERKS4__xa0:
    /*000000a0*/ CMP         R8, #0 
    /*000000a4*/ MOVEQ       R6, R8 
    /*000000a8*/ BEQ         _ZNSt6vectorIPN4hirt14ModelGroupTaskESaIS2_EEaSERKS4__xcc
    /*000000ac*/ CMN         R8, #-1073741823            @ 0xc0000001 
    /*000000b0*/ BHI         _ZNSt6vectorIPN4hirt14ModelGroupTaskESaIS2_EEaSERKS4__x13c
    /*000000b4*/ MOV         R0, R5 
    /*000000b8*/ BL          _Znwj
    /*000000bc*/ LDR         R7, [R4] 
    /*000000c0*/ CMP         R8, #0 
    /*000000c4*/ MOV         R6, R0 
    /*000000c8*/ BNE         _ZNSt6vectorIPN4hirt14ModelGroupTaskESaIS2_EEaSERKS4__xec
    _ZNSt6vectorIPN4hirt14ModelGroupTaskESaIS2_EEaSERKS4__xcc:
    /*000000cc*/ CMP         R7, #0 
    /*000000d0*/ BEQ         _ZNSt6vectorIPN4hirt14ModelGroupTaskESaIS2_EEaSERKS4__xdc
    _ZNSt6vectorIPN4hirt14ModelGroupTaskESaIS2_EEaSERKS4__xd4:
    /*000000d4*/ MOV         R0, R7 
    /*000000d8*/ BL          _ZdlPv
    _ZNSt6vectorIPN4hirt14ModelGroupTaskESaIS2_EEaSERKS4__xdc:
    /*000000dc*/ ADD         R5, R6, R5 
    /*000000e0*/ STR         R5, [R4, #8] 
    /*000000e4*/ STR         R6, [R4] 
    /*000000e8*/ B           _ZNSt6vectorIPN4hirt14ModelGroupTaskESaIS2_EEaSERKS4__x70
    _ZNSt6vectorIPN4hirt14ModelGroupTaskESaIS2_EEaSERKS4__xec:
    /*000000ec*/ MOV         R1, R9 
    /*000000f0*/ MOV         R2, R5 
    /*000000f4*/ BL          memmove
    /*000000f8*/ CMP         R7, #0 
    /*000000fc*/ BNE         _ZNSt6vectorIPN4hirt14ModelGroupTaskESaIS2_EEaSERKS4__xd4
    /*00000100*/ B           _ZNSt6vectorIPN4hirt14ModelGroupTaskESaIS2_EEaSERKS4__xdc
    _ZNSt6vectorIPN4hirt14ModelGroupTaskESaIS2_EEaSERKS4__x104:
    /*00000104*/ BL          memmove
    /*00000108*/ LDR         R3, [R4] 
    /*0000010c*/ ADD         R5, R3, R5 
    /*00000110*/ B           _ZNSt6vectorIPN4hirt14ModelGroupTaskESaIS2_EEaSERKS4__x70
    _ZNSt6vectorIPN4hirt14ModelGroupTaskESaIS2_EEaSERKS4__x114:
    /*00000114*/ MOV         R2, R1 
    /*00000118*/ MOV         R0, R7 
    /*0000011c*/ MOV         R1, R9 
    /*00000120*/ BL          memmove
    /*00000124*/ LDR         R7, [R4] 
    /*00000128*/ LDR         R0, [R4, #4] 
    /*0000012c*/ LDR         R9, [R6] 
    /*00000130*/ SUB         R1, R0, R7 
    /*00000134*/ LDR         IP, [R6, #4] 
    /*00000138*/ B           _ZNSt6vectorIPN4hirt14ModelGroupTaskESaIS2_EEaSERKS4__x5c
    _ZNSt6vectorIPN4hirt14ModelGroupTaskESaIS2_EEaSERKS4__x13c:
    /*0000013c*/ BL          _ZSt17__throw_bad_allocv
FUNC_END _ZNSt6vectorIPN4hirt14ModelGroupTaskESaIS2_EEaSERKS4_


@ - - - - - - - - - - - - - - - - - - - - - - - - - - - - - 
@ .text._ZNSt8_Rb_treeIjjSt9_IdentityIjESt4lessIjESaIjEE16_M_insert_uniqueIRKjEESt4pairISt17_Rb_tree_iteratorIjEbEOT_
@ Size: 0x120
@ - - - - - - - - - - - - - - - - - - - - - - - - - - - - - 

FUNC_BEGIN _ZNSt8_Rb_treeIjjSt9_IdentityIjESt4lessIjESaIjEE16_M_insert_uniqueIRKjEESt4pairISt17_Rb_tree_iteratorIjEbEOT_
    /*00000000*/ MOV         IP, #16384                  @ 0x4000 
    /*00000004*/ PUSH        {R4, R5, R6, R7, R8, R9, SL, LR} 
    /*00000008*/ SUB         IP, SP, IP 
    /*0000000c*/ STR         R0, [IP, #4064]             @ 0xfe0 
    /*00000010*/ MOV         R6, R0 
    /*00000014*/ MOV         R5, R1 
    /*00000018*/ LDR         R0, [R1, #8] 
    /*0000001c*/ MOV         R8, R2 
    /*00000020*/ ADD         R7, R1, #4 
    /*00000024*/ CMP         R0, #0 
    /*00000028*/ BEQ         _ZNSt8_Rb_treeIjjSt9_IdentityIjESt4lessIjESaIjEE16_M_insert_uniqueIRKjEESt4pairISt17_Rb_tree_iteratorIjEbEOT__x80
    /*0000002c*/ LDR         LR, [R2] 
    /*00000030*/ B           _ZNSt8_Rb_treeIjjSt9_IdentityIjESt4lessIjESaIjEE16_M_insert_uniqueIRKjEESt4pairISt17_Rb_tree_iteratorIjEbEOT__x38
    _ZNSt8_Rb_treeIjjSt9_IdentityIjESt4lessIjESaIjEE16_M_insert_uniqueIRKjEESt4pairISt17_Rb_tree_iteratorIjEbEOT__x34:
    /*00000034*/ MOV         R0, R3 
    _ZNSt8_Rb_treeIjjSt9_IdentityIjESt4lessIjESaIjEE16_M_insert_uniqueIRKjEESt4pairISt17_Rb_tree_iteratorIjEbEOT__x38:
    /*00000038*/ LDR         R1, [R0, #16] 
    /*0000003c*/ MOV         IP, #1 
    /*00000040*/ CMP         R1, LR 
    /*00000044*/ MOVLS       IP, #0 
    /*00000048*/ LDRHI       R3, [R0, #8] 
    /*0000004c*/ LDRLS       R3, [R0, #12] 
    /*00000050*/ CMP         R3, #0 
    /*00000054*/ BNE         _ZNSt8_Rb_treeIjjSt9_IdentityIjESt4lessIjESaIjEE16_M_insert_uniqueIRKjEESt4pairISt17_Rb_tree_iteratorIjEbEOT__x34
    /*00000058*/ CMP         IP, #0 
    /*0000005c*/ MOV         R4, R0 
    /*00000060*/ BNE         _ZNSt8_Rb_treeIjjSt9_IdentityIjESt4lessIjESaIjEE16_M_insert_uniqueIRKjEESt4pairISt17_Rb_tree_iteratorIjEbEOT__x84
    /*00000064*/ CMP         R1, LR 
    /*00000068*/ BCC         _ZNSt8_Rb_treeIjjSt9_IdentityIjESt4lessIjESaIjEE16_M_insert_uniqueIRKjEESt4pairISt17_Rb_tree_iteratorIjEbEOT__xa8
    _ZNSt8_Rb_treeIjjSt9_IdentityIjESt4lessIjESaIjEE16_M_insert_uniqueIRKjEESt4pairISt17_Rb_tree_iteratorIjEbEOT__x6c:
    /*0000006c*/ STR         R0, [R6] 
    /*00000070*/ MOV         R3, #0 
    /*00000074*/ STRB        R3, [R6, #4] 
    /*00000078*/ MOV         R0, R6 
    /*0000007c*/ POP         {R4, R5, R6, R7, R8, R9, SL, PC} 
    _ZNSt8_Rb_treeIjjSt9_IdentityIjESt4lessIjESaIjEE16_M_insert_uniqueIRKjEESt4pairISt17_Rb_tree_iteratorIjEbEOT__x80:
    /*00000080*/ MOV         R4, R7 
    _ZNSt8_Rb_treeIjjSt9_IdentityIjESt4lessIjESaIjEE16_M_insert_uniqueIRKjEESt4pairISt17_Rb_tree_iteratorIjEbEOT__x84:
    /*00000084*/ LDR         R3, [R5, #12] 
    /*00000088*/ CMP         R3, R4 
    /*0000008c*/ BEQ         _ZNSt8_Rb_treeIjjSt9_IdentityIjESt4lessIjESaIjEE16_M_insert_uniqueIRKjEESt4pairISt17_Rb_tree_iteratorIjEbEOT__xb0
    /*00000090*/ MOV         R0, R4 
    /*00000094*/ BL          _ZSt18_Rb_tree_decrementPSt18_Rb_tree_node_base
    /*00000098*/ LDR         R1, [R0, #16] 
    /*0000009c*/ LDR         LR, [R8] 
    /*000000a0*/ CMP         R1, LR 
    /*000000a4*/ BCS         _ZNSt8_Rb_treeIjjSt9_IdentityIjESt4lessIjESaIjEE16_M_insert_uniqueIRKjEESt4pairISt17_Rb_tree_iteratorIjEbEOT__x6c
    _ZNSt8_Rb_treeIjjSt9_IdentityIjESt4lessIjESaIjEE16_M_insert_uniqueIRKjEESt4pairISt17_Rb_tree_iteratorIjEbEOT__xa8:
    /*000000a8*/ CMP         R4, #0 
    /*000000ac*/ BEQ         _ZNSt8_Rb_treeIjjSt9_IdentityIjESt4lessIjESaIjEE16_M_insert_uniqueIRKjEESt4pairISt17_Rb_tree_iteratorIjEbEOT__x118
    _ZNSt8_Rb_treeIjjSt9_IdentityIjESt4lessIjESaIjEE16_M_insert_uniqueIRKjEESt4pairISt17_Rb_tree_iteratorIjEbEOT__xb0:
    /*000000b0*/ CMP         R7, R4 
    /*000000b4*/ MOVEQ       SL, #1 
    /*000000b8*/ BEQ         _ZNSt8_Rb_treeIjjSt9_IdentityIjESt4lessIjESaIjEE16_M_insert_uniqueIRKjEESt4pairISt17_Rb_tree_iteratorIjEbEOT__xd0
    /*000000bc*/ LDR         SL, [R8] 
    /*000000c0*/ LDR         R3, [R4, #16] 
    /*000000c4*/ CMP         SL, R3 
    /*000000c8*/ MOVCS       SL, #0 
    /*000000cc*/ MOVCC       SL, #1 
    _ZNSt8_Rb_treeIjjSt9_IdentityIjESt4lessIjESaIjEE16_M_insert_uniqueIRKjEESt4pairISt17_Rb_tree_iteratorIjEbEOT__xd0:
    /*000000d0*/ MOV         R0, #20 
    /*000000d4*/ BL          _Znwj
    /*000000d8*/ LDR         R2, [R8] 
    /*000000dc*/ MOV         R9, R0 
    /*000000e0*/ MOV         R3, R7 
    /*000000e4*/ MOV         R0, SL 
    /*000000e8*/ STR         R2, [R9, #16] 
    /*000000ec*/ MOV         R1, R9 
    /*000000f0*/ MOV         R2, R4 
    /*000000f4*/ BL          _ZSt29_Rb_tree_insert_and_rebalancebPSt18_Rb_tree_node_baseS0_RS_
    /*000000f8*/ LDR         R3, [R5, #20] 
    /*000000fc*/ MOV         R2, #1 
    /*00000100*/ STR         R9, [R6] 
    /*00000104*/ MOV         R0, R6 
    /*00000108*/ ADD         R3, R3, R2 
    /*0000010c*/ STRB        R2, [R6, #4] 
    /*00000110*/ STR         R3, [R5, #20] 
    /*00000114*/ POP         {R4, R5, R6, R7, R8, R9, SL, PC} 
    _ZNSt8_Rb_treeIjjSt9_IdentityIjESt4lessIjESaIjEE16_M_insert_uniqueIRKjEESt4pairISt17_Rb_tree_iteratorIjEbEOT__x118:
    /*00000118*/ MOV         R0, R4 
    /*0000011c*/ B           _ZNSt8_Rb_treeIjjSt9_IdentityIjESt4lessIjESaIjEE16_M_insert_uniqueIRKjEESt4pairISt17_Rb_tree_iteratorIjEbEOT__x6c
FUNC_END _ZNSt8_Rb_treeIjjSt9_IdentityIjESt4lessIjESaIjEE16_M_insert_uniqueIRKjEESt4pairISt17_Rb_tree_iteratorIjEbEOT_


@ - - - - - - - - - - - - - - - - - - - - - - - - - - - - - 
@ .text._ZNSt6vectorIPN4hirt22OPERATION_FRAME_DEPENDESaIS2_EE19_M_emplace_back_auxIJRKS2_EEEvDpOT_
@ Size: 0xd4
@ - - - - - - - - - - - - - - - - - - - - - - - - - - - - - 

FUNC_BEGIN _ZNSt6vectorIPN4hirt22OPERATION_FRAME_DEPENDESaIS2_EE19_M_emplace_back_auxIJRKS2_EEEvDpOT_
    /*00000000*/ MOV         IP, #16384                  @ 0x4000 
    /*00000004*/ PUSH        {R4, R5, R6, R7, R8, R9, SL, LR} 
    /*00000008*/ SUB         IP, SP, IP 
    /*0000000c*/ STR         R0, [IP, #4064]             @ 0xfe0 
    /*00000010*/ LDM         R0, {R2, R3} 
    /*00000014*/ MOV         R6, R0 
    /*00000018*/ MOV         R9, R1 
    /*0000001c*/ SUB         R3, R3, R2 
    /*00000020*/ ASRS        R3, R3, #2 
    /*00000024*/ BEQ         _ZNSt6vectorIPN4hirt22OPERATION_FRAME_DEPENDESaIS2_EE19_M_emplace_back_auxIJRKS2_EEEvDpOT__x3c
    /*00000028*/ LSL         R5, R3, #1 
    /*0000002c*/ CMP         R3, R5 
    /*00000030*/ BLS         _ZNSt6vectorIPN4hirt22OPERATION_FRAME_DEPENDESaIS2_EE19_M_emplace_back_auxIJRKS2_EEEvDpOT__xb8
    _ZNSt6vectorIPN4hirt22OPERATION_FRAME_DEPENDESaIS2_EE19_M_emplace_back_auxIJRKS2_EEEvDpOT__x34:
    /*00000034*/ MVN         R5, #3 
    /*00000038*/ B           _ZNSt6vectorIPN4hirt22OPERATION_FRAME_DEPENDESaIS2_EE19_M_emplace_back_auxIJRKS2_EEEvDpOT__x40
    _ZNSt6vectorIPN4hirt22OPERATION_FRAME_DEPENDESaIS2_EE19_M_emplace_back_auxIJRKS2_EEEvDpOT__x3c:
    /*0000003c*/ MOV         R5, #4 
    _ZNSt6vectorIPN4hirt22OPERATION_FRAME_DEPENDESaIS2_EE19_M_emplace_back_auxIJRKS2_EEEvDpOT__x40:
    /*00000040*/ MOV         R0, R5 
    /*00000044*/ BL          _Znwj
    /*00000048*/ MOV         R7, R0 
    _ZNSt6vectorIPN4hirt22OPERATION_FRAME_DEPENDESaIS2_EE19_M_emplace_back_auxIJRKS2_EEEvDpOT__x4c:
    /*0000004c*/ LDR         R8, [R6] 
    /*00000050*/ LDR         R4, [R6, #4] 
    /*00000054*/ LDR         R2, [R9] 
    /*00000058*/ SUB         R4, R4, R8 
    /*0000005c*/ CMN         R7, R4 
    /*00000060*/ ASR         R3, R4, #2 
    /*00000064*/ STRNE       R2, [R7, R4] 
    /*00000068*/ CMP         R3, #0 
    /*0000006c*/ BNE         _ZNSt6vectorIPN4hirt22OPERATION_FRAME_DEPENDESaIS2_EE19_M_emplace_back_auxIJRKS2_EEEvDpOT__x9c
    /*00000070*/ CMP         R8, #0 
    /*00000074*/ ADD         R4, R4, #4 
    /*00000078*/ ADD         R4, R7, R4 
    /*0000007c*/ BEQ         _ZNSt6vectorIPN4hirt22OPERATION_FRAME_DEPENDESaIS2_EE19_M_emplace_back_auxIJRKS2_EEEvDpOT__x88
    _ZNSt6vectorIPN4hirt22OPERATION_FRAME_DEPENDESaIS2_EE19_M_emplace_back_auxIJRKS2_EEEvDpOT__x80:
    /*00000080*/ MOV         R0, R8 
    /*00000084*/ BL          _ZdlPv
    _ZNSt6vectorIPN4hirt22OPERATION_FRAME_DEPENDESaIS2_EE19_M_emplace_back_auxIJRKS2_EEEvDpOT__x88:
    /*00000088*/ ADD         R5, R7, R5 
    /*0000008c*/ STR         R5, [R6, #8] 
    /*00000090*/ STR         R7, [R6] 
    /*00000094*/ STR         R4, [R6, #4] 
    /*00000098*/ POP         {R4, R5, R6, R7, R8, R9, SL, PC} 
    _ZNSt6vectorIPN4hirt22OPERATION_FRAME_DEPENDESaIS2_EE19_M_emplace_back_auxIJRKS2_EEEvDpOT__x9c:
    /*0000009c*/ MOV         R2, R4 
    /*000000a0*/ MOV         R1, R8 
    /*000000a4*/ MOV         R0, R7 
    /*000000a8*/ ADD         R4, R4, #4 
    /*000000ac*/ ADD         R4, R7, R4 
    /*000000b0*/ BL          memmove
    /*000000b4*/ B           _ZNSt6vectorIPN4hirt22OPERATION_FRAME_DEPENDESaIS2_EE19_M_emplace_back_auxIJRKS2_EEEvDpOT__x80
    _ZNSt6vectorIPN4hirt22OPERATION_FRAME_DEPENDESaIS2_EE19_M_emplace_back_auxIJRKS2_EEEvDpOT__xb8:
    /*000000b8*/ CMN         R5, #-1073741823            @ 0xc0000001 
    /*000000bc*/ BHI         _ZNSt6vectorIPN4hirt22OPERATION_FRAME_DEPENDESaIS2_EE19_M_emplace_back_auxIJRKS2_EEEvDpOT__x34
    /*000000c0*/ CMP         R5, #0 
    /*000000c4*/ LSLNE       R5, R3, #3 
    /*000000c8*/ BNE         _ZNSt6vectorIPN4hirt22OPERATION_FRAME_DEPENDESaIS2_EE19_M_emplace_back_auxIJRKS2_EEEvDpOT__x40
    /*000000cc*/ MOV         R7, R5 
    /*000000d0*/ B           _ZNSt6vectorIPN4hirt22OPERATION_FRAME_DEPENDESaIS2_EE19_M_emplace_back_auxIJRKS2_EEEvDpOT__x4c
FUNC_END _ZNSt6vectorIPN4hirt22OPERATION_FRAME_DEPENDESaIS2_EE19_M_emplace_back_auxIJRKS2_EEEvDpOT_


@ - - - - - - - - - - - - - - - - - - - - - - - - - - - - - 
@ .text._ZNSt6vectorIPN4hirt22OPERATION_FRAME_NOTIFYESaIS2_EE19_M_emplace_back_auxIJRKS2_EEEvDpOT_
@ Size: 0xd4
@ - - - - - - - - - - - - - - - - - - - - - - - - - - - - - 

FUNC_BEGIN _ZNSt6vectorIPN4hirt22OPERATION_FRAME_NOTIFYESaIS2_EE19_M_emplace_back_auxIJRKS2_EEEvDpOT_
    /*00000000*/ MOV         IP, #16384                  @ 0x4000 
    /*00000004*/ PUSH        {R4, R5, R6, R7, R8, R9, SL, LR} 
    /*00000008*/ SUB         IP, SP, IP 
    /*0000000c*/ STR         R0, [IP, #4064]             @ 0xfe0 
    /*00000010*/ LDM         R0, {R2, R3} 
    /*00000014*/ MOV         R6, R0 
    /*00000018*/ MOV         R9, R1 
    /*0000001c*/ SUB         R3, R3, R2 
    /*00000020*/ ASRS        R3, R3, #2 
    /*00000024*/ BEQ         _ZNSt6vectorIPN4hirt22OPERATION_FRAME_NOTIFYESaIS2_EE19_M_emplace_back_auxIJRKS2_EEEvDpOT__x3c
    /*00000028*/ LSL         R5, R3, #1 
    /*0000002c*/ CMP         R3, R5 
    /*00000030*/ BLS         _ZNSt6vectorIPN4hirt22OPERATION_FRAME_NOTIFYESaIS2_EE19_M_emplace_back_auxIJRKS2_EEEvDpOT__xb8
    _ZNSt6vectorIPN4hirt22OPERATION_FRAME_NOTIFYESaIS2_EE19_M_emplace_back_auxIJRKS2_EEEvDpOT__x34:
    /*00000034*/ MVN         R5, #3 
    /*00000038*/ B           _ZNSt6vectorIPN4hirt22OPERATION_FRAME_NOTIFYESaIS2_EE19_M_emplace_back_auxIJRKS2_EEEvDpOT__x40
    _ZNSt6vectorIPN4hirt22OPERATION_FRAME_NOTIFYESaIS2_EE19_M_emplace_back_auxIJRKS2_EEEvDpOT__x3c:
    /*0000003c*/ MOV         R5, #4 
    _ZNSt6vectorIPN4hirt22OPERATION_FRAME_NOTIFYESaIS2_EE19_M_emplace_back_auxIJRKS2_EEEvDpOT__x40:
    /*00000040*/ MOV         R0, R5 
    /*00000044*/ BL          _Znwj
    /*00000048*/ MOV         R7, R0 
    _ZNSt6vectorIPN4hirt22OPERATION_FRAME_NOTIFYESaIS2_EE19_M_emplace_back_auxIJRKS2_EEEvDpOT__x4c:
    /*0000004c*/ LDR         R8, [R6] 
    /*00000050*/ LDR         R4, [R6, #4] 
    /*00000054*/ LDR         R2, [R9] 
    /*00000058*/ SUB         R4, R4, R8 
    /*0000005c*/ CMN         R7, R4 
    /*00000060*/ ASR         R3, R4, #2 
    /*00000064*/ STRNE       R2, [R7, R4] 
    /*00000068*/ CMP         R3, #0 
    /*0000006c*/ BNE         _ZNSt6vectorIPN4hirt22OPERATION_FRAME_NOTIFYESaIS2_EE19_M_emplace_back_auxIJRKS2_EEEvDpOT__x9c
    /*00000070*/ CMP         R8, #0 
    /*00000074*/ ADD         R4, R4, #4 
    /*00000078*/ ADD         R4, R7, R4 
    /*0000007c*/ BEQ         _ZNSt6vectorIPN4hirt22OPERATION_FRAME_NOTIFYESaIS2_EE19_M_emplace_back_auxIJRKS2_EEEvDpOT__x88
    _ZNSt6vectorIPN4hirt22OPERATION_FRAME_NOTIFYESaIS2_EE19_M_emplace_back_auxIJRKS2_EEEvDpOT__x80:
    /*00000080*/ MOV         R0, R8 
    /*00000084*/ BL          _ZdlPv
    _ZNSt6vectorIPN4hirt22OPERATION_FRAME_NOTIFYESaIS2_EE19_M_emplace_back_auxIJRKS2_EEEvDpOT__x88:
    /*00000088*/ ADD         R5, R7, R5 
    /*0000008c*/ STR         R5, [R6, #8] 
    /*00000090*/ STR         R7, [R6] 
    /*00000094*/ STR         R4, [R6, #4] 
    /*00000098*/ POP         {R4, R5, R6, R7, R8, R9, SL, PC} 
    _ZNSt6vectorIPN4hirt22OPERATION_FRAME_NOTIFYESaIS2_EE19_M_emplace_back_auxIJRKS2_EEEvDpOT__x9c:
    /*0000009c*/ MOV         R2, R4 
    /*000000a0*/ MOV         R1, R8 
    /*000000a4*/ MOV         R0, R7 
    /*000000a8*/ ADD         R4, R4, #4 
    /*000000ac*/ ADD         R4, R7, R4 
    /*000000b0*/ BL          memmove
    /*000000b4*/ B           _ZNSt6vectorIPN4hirt22OPERATION_FRAME_NOTIFYESaIS2_EE19_M_emplace_back_auxIJRKS2_EEEvDpOT__x80
    _ZNSt6vectorIPN4hirt22OPERATION_FRAME_NOTIFYESaIS2_EE19_M_emplace_back_auxIJRKS2_EEEvDpOT__xb8:
    /*000000b8*/ CMN         R5, #-1073741823            @ 0xc0000001 
    /*000000bc*/ BHI         _ZNSt6vectorIPN4hirt22OPERATION_FRAME_NOTIFYESaIS2_EE19_M_emplace_back_auxIJRKS2_EEEvDpOT__x34
    /*000000c0*/ CMP         R5, #0 
    /*000000c4*/ LSLNE       R5, R3, #3 
    /*000000c8*/ BNE         _ZNSt6vectorIPN4hirt22OPERATION_FRAME_NOTIFYESaIS2_EE19_M_emplace_back_auxIJRKS2_EEEvDpOT__x40
    /*000000cc*/ MOV         R7, R5 
    /*000000d0*/ B           _ZNSt6vectorIPN4hirt22OPERATION_FRAME_NOTIFYESaIS2_EE19_M_emplace_back_auxIJRKS2_EEEvDpOT__x4c
FUNC_END _ZNSt6vectorIPN4hirt22OPERATION_FRAME_NOTIFYESaIS2_EE19_M_emplace_back_auxIJRKS2_EEEvDpOT_


@ - - - - - - - - - - - - - - - - - - - - - - - - - - - - - 
@ .text._ZNSt8_Rb_treeIjSt4pairIKjNSt7__cxx114listIjSaIjEEEESt10_Select1stIS6_ESt4lessIjESaIS6_EE8_M_eraseEPSt13_Rb_tree_nodeIS6_E
@ Size: 0x2e0
@ - - - - - - - - - - - - - - - - - - - - - - - - - - - - - 

FUNC_BEGIN _ZNSt8_Rb_treeIjSt4pairIKjNSt7__cxx114listIjSaIjEEEESt10_Select1stIS6_ESt4lessIjESaIS6_EE8_M_eraseEPSt13_Rb_tree_nodeIS6_E
    /*00000000*/ MOV         IP, #16384                  @ 0x4000 
    /*00000004*/ PUSH        {R4, R5, R6, R7, R8, R9, SL, FP, LR} 
    /*00000008*/ SUB         IP, SP, IP 
    /*0000000c*/ STR         R0, [IP, #4032]             @ 0xfc0 
    /*00000010*/ SUB         SP, SP, #28 
    /*00000014*/ SUBS        R3, R1, #0 
    /*00000018*/ STR         R3, [SP, #20] 
    /*0000001c*/ BEQ         _ZNSt8_Rb_treeIjSt4pairIKjNSt7__cxx114listIjSaIjEEEESt10_Select1stIS6_ESt4lessIjESaIS6_EE8_M_eraseEPSt13_Rb_tree_nodeIS6_E_x2d8
    /*00000020*/ MOV         R7, R0 
    _ZNSt8_Rb_treeIjSt4pairIKjNSt7__cxx114listIjSaIjEEEESt10_Select1stIS6_ESt4lessIjESaIS6_EE8_M_eraseEPSt13_Rb_tree_nodeIS6_E_x24:
    /*00000024*/ LDR         R3, [R3, #12] 
    /*00000028*/ CMP         R3, #0 
    /*0000002c*/ STRNE       R3, [SP, #16] 
    /*00000030*/ BEQ         _ZNSt8_Rb_treeIjSt4pairIKjNSt7__cxx114listIjSaIjEEEESt10_Select1stIS6_ESt4lessIjESaIS6_EE8_M_eraseEPSt13_Rb_tree_nodeIS6_E_x294
    _ZNSt8_Rb_treeIjSt4pairIKjNSt7__cxx114listIjSaIjEEEESt10_Select1stIS6_ESt4lessIjESaIS6_EE8_M_eraseEPSt13_Rb_tree_nodeIS6_E_x34:
    /*00000034*/ LDR         R3, [R3, #12] 
    /*00000038*/ CMP         R3, #0 
    /*0000003c*/ STRNE       R3, [SP, #12] 
    /*00000040*/ BEQ         _ZNSt8_Rb_treeIjSt4pairIKjNSt7__cxx114listIjSaIjEEEESt10_Select1stIS6_ESt4lessIjESaIS6_EE8_M_eraseEPSt13_Rb_tree_nodeIS6_E_x250
    _ZNSt8_Rb_treeIjSt4pairIKjNSt7__cxx114listIjSaIjEEEESt10_Select1stIS6_ESt4lessIjESaIS6_EE8_M_eraseEPSt13_Rb_tree_nodeIS6_E_x44:
    /*00000044*/ LDR         R3, [R3, #12] 
    /*00000048*/ CMP         R3, #0 
    /*0000004c*/ STRNE       R3, [SP, #8] 
    /*00000050*/ BEQ         _ZNSt8_Rb_treeIjSt4pairIKjNSt7__cxx114listIjSaIjEEEESt10_Select1stIS6_ESt4lessIjESaIS6_EE8_M_eraseEPSt13_Rb_tree_nodeIS6_E_x20c
    _ZNSt8_Rb_treeIjSt4pairIKjNSt7__cxx114listIjSaIjEEEESt10_Select1stIS6_ESt4lessIjESaIS6_EE8_M_eraseEPSt13_Rb_tree_nodeIS6_E_x54:
    /*00000054*/ LDR         R9, [R3, #12] 
    /*00000058*/ CMP         R9, #0 
    /*0000005c*/ STRNE       R9, [SP, #4] 
    /*00000060*/ MOVNE       R3, R9 
    /*00000064*/ BEQ         _ZNSt8_Rb_treeIjSt4pairIKjNSt7__cxx114listIjSaIjEEEESt10_Select1stIS6_ESt4lessIjESaIS6_EE8_M_eraseEPSt13_Rb_tree_nodeIS6_E_x1cc
    _ZNSt8_Rb_treeIjSt4pairIKjNSt7__cxx114listIjSaIjEEEESt10_Select1stIS6_ESt4lessIjESaIS6_EE8_M_eraseEPSt13_Rb_tree_nodeIS6_E_x68:
    /*00000068*/ LDR         R9, [R3, #12] 
    /*0000006c*/ CMP         R9, #0 
    /*00000070*/ BEQ         _ZNSt8_Rb_treeIjSt4pairIKjNSt7__cxx114listIjSaIjEEEESt10_Select1stIS6_ESt4lessIjESaIS6_EE8_M_eraseEPSt13_Rb_tree_nodeIS6_E_x188
    _ZNSt8_Rb_treeIjSt4pairIKjNSt7__cxx114listIjSaIjEEEESt10_Select1stIS6_ESt4lessIjESaIS6_EE8_M_eraseEPSt13_Rb_tree_nodeIS6_E_x74:
    /*00000074*/ LDR         SL, [R9, #12] 
    /*00000078*/ CMP         SL, #0 
    /*0000007c*/ BEQ         _ZNSt8_Rb_treeIjSt4pairIKjNSt7__cxx114listIjSaIjEEEESt10_Select1stIS6_ESt4lessIjESaIS6_EE8_M_eraseEPSt13_Rb_tree_nodeIS6_E_x14c
    _ZNSt8_Rb_treeIjSt4pairIKjNSt7__cxx114listIjSaIjEEEESt10_Select1stIS6_ESt4lessIjESaIS6_EE8_M_eraseEPSt13_Rb_tree_nodeIS6_E_x80:
    /*00000080*/ LDR         R8, [SL, #12] 
    /*00000084*/ CMP         R8, #0 
    /*00000088*/ BEQ         _ZNSt8_Rb_treeIjSt4pairIKjNSt7__cxx114listIjSaIjEEEESt10_Select1stIS6_ESt4lessIjESaIS6_EE8_M_eraseEPSt13_Rb_tree_nodeIS6_E_x114
    _ZNSt8_Rb_treeIjSt4pairIKjNSt7__cxx114listIjSaIjEEEESt10_Select1stIS6_ESt4lessIjESaIS6_EE8_M_eraseEPSt13_Rb_tree_nodeIS6_E_x8c:
    /*0000008c*/ LDR         R5, [R8, #12] 
    /*00000090*/ CMP         R5, #0 
    /*00000094*/ BEQ         _ZNSt8_Rb_treeIjSt4pairIKjNSt7__cxx114listIjSaIjEEEESt10_Select1stIS6_ESt4lessIjESaIS6_EE8_M_eraseEPSt13_Rb_tree_nodeIS6_E_xdc
    _ZNSt8_Rb_treeIjSt4pairIKjNSt7__cxx114listIjSaIjEEEESt10_Select1stIS6_ESt4lessIjESaIS6_EE8_M_eraseEPSt13_Rb_tree_nodeIS6_E_x98:
    /*00000098*/ LDR         R1, [R5, #12] 
    /*0000009c*/ MOV         R4, R5 
    /*000000a0*/ MOV         R0, R7 
    /*000000a4*/ BL          _ZNSt8_Rb_treeIjSt4pairIKjNSt7__cxx114listIjSaIjEEEESt10_Select1stIS6_ESt4lessIjESaIS6_EE8_M_eraseEPSt13_Rb_tree_nodeIS6_E
    /*000000a8*/ LDR         R0, [R4, #20]! 
    /*000000ac*/ LDR         R6, [R5, #8] 
    /*000000b0*/ CMP         R0, R4 
    /*000000b4*/ BEQ         _ZNSt8_Rb_treeIjSt4pairIKjNSt7__cxx114listIjSaIjEEEESt10_Select1stIS6_ESt4lessIjESaIS6_EE8_M_eraseEPSt13_Rb_tree_nodeIS6_E_xcc
    _ZNSt8_Rb_treeIjSt4pairIKjNSt7__cxx114listIjSaIjEEEESt10_Select1stIS6_ESt4lessIjESaIS6_EE8_M_eraseEPSt13_Rb_tree_nodeIS6_E_xb8:
    /*000000b8*/ LDR         FP, [R0] 
    /*000000bc*/ BL          _ZdlPv
    /*000000c0*/ CMP         FP, R4 
    /*000000c4*/ MOV         R0, FP 
    /*000000c8*/ BNE         _ZNSt8_Rb_treeIjSt4pairIKjNSt7__cxx114listIjSaIjEEEESt10_Select1stIS6_ESt4lessIjESaIS6_EE8_M_eraseEPSt13_Rb_tree_nodeIS6_E_xb8
    _ZNSt8_Rb_treeIjSt4pairIKjNSt7__cxx114listIjSaIjEEEESt10_Select1stIS6_ESt4lessIjESaIS6_EE8_M_eraseEPSt13_Rb_tree_nodeIS6_E_xcc:
    /*000000cc*/ MOV         R0, R5 
    /*000000d0*/ BL          _ZdlPv
    /*000000d4*/ SUBS        R5, R6, #0 
    /*000000d8*/ BNE         _ZNSt8_Rb_treeIjSt4pairIKjNSt7__cxx114listIjSaIjEEEESt10_Select1stIS6_ESt4lessIjESaIS6_EE8_M_eraseEPSt13_Rb_tree_nodeIS6_E_x98
    _ZNSt8_Rb_treeIjSt4pairIKjNSt7__cxx114listIjSaIjEEEESt10_Select1stIS6_ESt4lessIjESaIS6_EE8_M_eraseEPSt13_Rb_tree_nodeIS6_E_xdc:
    /*000000dc*/ LDR         R6, [R8, #8] 
    /*000000e0*/ MOV         R5, R8 
    /*000000e4*/ LDR         R0, [R5, #20]! 
    /*000000e8*/ CMP         R0, R5 
    /*000000ec*/ BEQ         _ZNSt8_Rb_treeIjSt4pairIKjNSt7__cxx114listIjSaIjEEEESt10_Select1stIS6_ESt4lessIjESaIS6_EE8_M_eraseEPSt13_Rb_tree_nodeIS6_E_x104
    _ZNSt8_Rb_treeIjSt4pairIKjNSt7__cxx114listIjSaIjEEEESt10_Select1stIS6_ESt4lessIjESaIS6_EE8_M_eraseEPSt13_Rb_tree_nodeIS6_E_xf0:
    /*000000f0*/ LDR         R4, [R0] 
    /*000000f4*/ BL          _ZdlPv
    /*000000f8*/ CMP         R4, R5 
    /*000000fc*/ MOV         R0, R4 
    /*00000100*/ BNE         _ZNSt8_Rb_treeIjSt4pairIKjNSt7__cxx114listIjSaIjEEEESt10_Select1stIS6_ESt4lessIjESaIS6_EE8_M_eraseEPSt13_Rb_tree_nodeIS6_E_xf0
    _ZNSt8_Rb_treeIjSt4pairIKjNSt7__cxx114listIjSaIjEEEESt10_Select1stIS6_ESt4lessIjESaIS6_EE8_M_eraseEPSt13_Rb_tree_nodeIS6_E_x104:
    /*00000104*/ MOV         R0, R8 
    /*00000108*/ BL          _ZdlPv
    /*0000010c*/ SUBS        R8, R6, #0 
    /*00000110*/ BNE         _ZNSt8_Rb_treeIjSt4pairIKjNSt7__cxx114listIjSaIjEEEESt10_Select1stIS6_ESt4lessIjESaIS6_EE8_M_eraseEPSt13_Rb_tree_nodeIS6_E_x8c
    _ZNSt8_Rb_treeIjSt4pairIKjNSt7__cxx114listIjSaIjEEEESt10_Select1stIS6_ESt4lessIjESaIS6_EE8_M_eraseEPSt13_Rb_tree_nodeIS6_E_x114:
    /*00000114*/ LDR         R6, [SL, #8] 
    /*00000118*/ MOV         R5, SL 
    /*0000011c*/ LDR         R0, [R5, #20]! 
    /*00000120*/ CMP         R0, R5 
    /*00000124*/ BEQ         _ZNSt8_Rb_treeIjSt4pairIKjNSt7__cxx114listIjSaIjEEEESt10_Select1stIS6_ESt4lessIjESaIS6_EE8_M_eraseEPSt13_Rb_tree_nodeIS6_E_x13c
    _ZNSt8_Rb_treeIjSt4pairIKjNSt7__cxx114listIjSaIjEEEESt10_Select1stIS6_ESt4lessIjESaIS6_EE8_M_eraseEPSt13_Rb_tree_nodeIS6_E_x128:
    /*00000128*/ LDR         R4, [R0] 
    /*0000012c*/ BL          _ZdlPv
    /*00000130*/ CMP         R4, R5 
    /*00000134*/ MOV         R0, R4 
    /*00000138*/ BNE         _ZNSt8_Rb_treeIjSt4pairIKjNSt7__cxx114listIjSaIjEEEESt10_Select1stIS6_ESt4lessIjESaIS6_EE8_M_eraseEPSt13_Rb_tree_nodeIS6_E_x128
    _ZNSt8_Rb_treeIjSt4pairIKjNSt7__cxx114listIjSaIjEEEESt10_Select1stIS6_ESt4lessIjESaIS6_EE8_M_eraseEPSt13_Rb_tree_nodeIS6_E_x13c:
    /*0000013c*/ MOV         R0, SL 
    /*00000140*/ BL          _ZdlPv
    /*00000144*/ SUBS        SL, R6, #0 
    /*00000148*/ BNE         _ZNSt8_Rb_treeIjSt4pairIKjNSt7__cxx114listIjSaIjEEEESt10_Select1stIS6_ESt4lessIjESaIS6_EE8_M_eraseEPSt13_Rb_tree_nodeIS6_E_x80
    _ZNSt8_Rb_treeIjSt4pairIKjNSt7__cxx114listIjSaIjEEEESt10_Select1stIS6_ESt4lessIjESaIS6_EE8_M_eraseEPSt13_Rb_tree_nodeIS6_E_x14c:
    /*0000014c*/ LDR         R5, [R9, #8] 
    /*00000150*/ MOV         R4, R9 
    /*00000154*/ LDR         R0, [R4, #20]! 
    /*00000158*/ CMP         R0, R4 
    /*0000015c*/ BEQ         _ZNSt8_Rb_treeIjSt4pairIKjNSt7__cxx114listIjSaIjEEEESt10_Select1stIS6_ESt4lessIjESaIS6_EE8_M_eraseEPSt13_Rb_tree_nodeIS6_E_x174
    _ZNSt8_Rb_treeIjSt4pairIKjNSt7__cxx114listIjSaIjEEEESt10_Select1stIS6_ESt4lessIjESaIS6_EE8_M_eraseEPSt13_Rb_tree_nodeIS6_E_x160:
    /*00000160*/ LDR         R6, [R0] 
    /*00000164*/ BL          _ZdlPv
    /*00000168*/ CMP         R6, R4 
    /*0000016c*/ MOV         R0, R6 
    /*00000170*/ BNE         _ZNSt8_Rb_treeIjSt4pairIKjNSt7__cxx114listIjSaIjEEEESt10_Select1stIS6_ESt4lessIjESaIS6_EE8_M_eraseEPSt13_Rb_tree_nodeIS6_E_x160
    _ZNSt8_Rb_treeIjSt4pairIKjNSt7__cxx114listIjSaIjEEEESt10_Select1stIS6_ESt4lessIjESaIS6_EE8_M_eraseEPSt13_Rb_tree_nodeIS6_E_x174:
    /*00000174*/ MOV         R0, R9 
    /*00000178*/ BL          _ZdlPv
    /*0000017c*/ SUBS        R9, R5, #0 
    /*00000180*/ BNE         _ZNSt8_Rb_treeIjSt4pairIKjNSt7__cxx114listIjSaIjEEEESt10_Select1stIS6_ESt4lessIjESaIS6_EE8_M_eraseEPSt13_Rb_tree_nodeIS6_E_x74
    /*00000184*/ LDR         R3, [SP, #4] 
    _ZNSt8_Rb_treeIjSt4pairIKjNSt7__cxx114listIjSaIjEEEESt10_Select1stIS6_ESt4lessIjESaIS6_EE8_M_eraseEPSt13_Rb_tree_nodeIS6_E_x188:
    /*00000188*/ LDR         R5, [R3, #8] 
    /*0000018c*/ MOV         R4, R3 
    /*00000190*/ LDR         R0, [R4, #20]! 
    /*00000194*/ CMP         R4, R0 
    /*00000198*/ MOVEQ       R0, R3 
    /*0000019c*/ BEQ         _ZNSt8_Rb_treeIjSt4pairIKjNSt7__cxx114listIjSaIjEEEESt10_Select1stIS6_ESt4lessIjESaIS6_EE8_M_eraseEPSt13_Rb_tree_nodeIS6_E_x1b8
    _ZNSt8_Rb_treeIjSt4pairIKjNSt7__cxx114listIjSaIjEEEESt10_Select1stIS6_ESt4lessIjESaIS6_EE8_M_eraseEPSt13_Rb_tree_nodeIS6_E_x1a0:
    /*000001a0*/ LDR         R6, [R0] 
    /*000001a4*/ BL          _ZdlPv
    /*000001a8*/ CMP         R4, R6 
    /*000001ac*/ MOV         R0, R6 
    /*000001b0*/ BNE         _ZNSt8_Rb_treeIjSt4pairIKjNSt7__cxx114listIjSaIjEEEESt10_Select1stIS6_ESt4lessIjESaIS6_EE8_M_eraseEPSt13_Rb_tree_nodeIS6_E_x1a0
    /*000001b4*/ LDR         R0, [SP, #4] 
    _ZNSt8_Rb_treeIjSt4pairIKjNSt7__cxx114listIjSaIjEEEESt10_Select1stIS6_ESt4lessIjESaIS6_EE8_M_eraseEPSt13_Rb_tree_nodeIS6_E_x1b8:
    /*000001b8*/ BL          _ZdlPv
    /*000001bc*/ SUBS        R3, R5, #0 
    /*000001c0*/ STR         R3, [SP, #4] 
    /*000001c4*/ BNE         _ZNSt8_Rb_treeIjSt4pairIKjNSt7__cxx114listIjSaIjEEEESt10_Select1stIS6_ESt4lessIjESaIS6_EE8_M_eraseEPSt13_Rb_tree_nodeIS6_E_x68
    /*000001c8*/ LDR         R3, [SP, #8] 
    _ZNSt8_Rb_treeIjSt4pairIKjNSt7__cxx114listIjSaIjEEEESt10_Select1stIS6_ESt4lessIjESaIS6_EE8_M_eraseEPSt13_Rb_tree_nodeIS6_E_x1cc:
    /*000001cc*/ LDR         R5, [R3, #8] 
    /*000001d0*/ MOV         R4, R3 
    /*000001d4*/ LDR         R0, [R4, #20]! 
    /*000001d8*/ CMP         R0, R4 
    /*000001dc*/ MOVEQ       R0, R3 
    /*000001e0*/ BEQ         _ZNSt8_Rb_treeIjSt4pairIKjNSt7__cxx114listIjSaIjEEEESt10_Select1stIS6_ESt4lessIjESaIS6_EE8_M_eraseEPSt13_Rb_tree_nodeIS6_E_x1fc
    _ZNSt8_Rb_treeIjSt4pairIKjNSt7__cxx114listIjSaIjEEEESt10_Select1stIS6_ESt4lessIjESaIS6_EE8_M_eraseEPSt13_Rb_tree_nodeIS6_E_x1e4:
    /*000001e4*/ LDR         R6, [R0] 
    /*000001e8*/ BL          _ZdlPv
    /*000001ec*/ CMP         R6, R4 
    /*000001f0*/ MOV         R0, R6 
    /*000001f4*/ BNE         _ZNSt8_Rb_treeIjSt4pairIKjNSt7__cxx114listIjSaIjEEEESt10_Select1stIS6_ESt4lessIjESaIS6_EE8_M_eraseEPSt13_Rb_tree_nodeIS6_E_x1e4
    /*000001f8*/ LDR         R0, [SP, #8] 
    _ZNSt8_Rb_treeIjSt4pairIKjNSt7__cxx114listIjSaIjEEEESt10_Select1stIS6_ESt4lessIjESaIS6_EE8_M_eraseEPSt13_Rb_tree_nodeIS6_E_x1fc:
    /*000001fc*/ BL          _ZdlPv
    /*00000200*/ SUBS        R3, R5, #0 
    /*00000204*/ STR         R3, [SP, #8] 
    /*00000208*/ BNE         _ZNSt8_Rb_treeIjSt4pairIKjNSt7__cxx114listIjSaIjEEEESt10_Select1stIS6_ESt4lessIjESaIS6_EE8_M_eraseEPSt13_Rb_tree_nodeIS6_E_x54
    _ZNSt8_Rb_treeIjSt4pairIKjNSt7__cxx114listIjSaIjEEEESt10_Select1stIS6_ESt4lessIjESaIS6_EE8_M_eraseEPSt13_Rb_tree_nodeIS6_E_x20c:
    /*0000020c*/ LDR         R3, [SP, #12] 
    /*00000210*/ LDR         R5, [R3, #8] 
    /*00000214*/ MOV         R4, R3 
    /*00000218*/ LDR         R0, [R4, #20]! 
    /*0000021c*/ CMP         R0, R4 
    /*00000220*/ MOVEQ       R0, R3 
    /*00000224*/ BEQ         _ZNSt8_Rb_treeIjSt4pairIKjNSt7__cxx114listIjSaIjEEEESt10_Select1stIS6_ESt4lessIjESaIS6_EE8_M_eraseEPSt13_Rb_tree_nodeIS6_E_x240
    _ZNSt8_Rb_treeIjSt4pairIKjNSt7__cxx114listIjSaIjEEEESt10_Select1stIS6_ESt4lessIjESaIS6_EE8_M_eraseEPSt13_Rb_tree_nodeIS6_E_x228:
    /*00000228*/ LDR         R6, [R0] 
    /*0000022c*/ BL          _ZdlPv
    /*00000230*/ CMP         R6, R4 
    /*00000234*/ MOV         R0, R6 
    /*00000238*/ BNE         _ZNSt8_Rb_treeIjSt4pairIKjNSt7__cxx114listIjSaIjEEEESt10_Select1stIS6_ESt4lessIjESaIS6_EE8_M_eraseEPSt13_Rb_tree_nodeIS6_E_x228
    /*0000023c*/ LDR         R0, [SP, #12] 
    _ZNSt8_Rb_treeIjSt4pairIKjNSt7__cxx114listIjSaIjEEEESt10_Select1stIS6_ESt4lessIjESaIS6_EE8_M_eraseEPSt13_Rb_tree_nodeIS6_E_x240:
    /*00000240*/ BL          _ZdlPv
    /*00000244*/ SUBS        R3, R5, #0 
    /*00000248*/ STR         R3, [SP, #12] 
    /*0000024c*/ BNE         _ZNSt8_Rb_treeIjSt4pairIKjNSt7__cxx114listIjSaIjEEEESt10_Select1stIS6_ESt4lessIjESaIS6_EE8_M_eraseEPSt13_Rb_tree_nodeIS6_E_x44
    _ZNSt8_Rb_treeIjSt4pairIKjNSt7__cxx114listIjSaIjEEEESt10_Select1stIS6_ESt4lessIjESaIS6_EE8_M_eraseEPSt13_Rb_tree_nodeIS6_E_x250:
    /*00000250*/ LDR         R3, [SP, #16] 
    /*00000254*/ LDR         R5, [R3, #8] 
    /*00000258*/ MOV         R4, R3 
    /*0000025c*/ LDR         R0, [R4, #20]! 
    /*00000260*/ CMP         R0, R4 
    /*00000264*/ MOVEQ       R0, R3 
    /*00000268*/ BEQ         _ZNSt8_Rb_treeIjSt4pairIKjNSt7__cxx114listIjSaIjEEEESt10_Select1stIS6_ESt4lessIjESaIS6_EE8_M_eraseEPSt13_Rb_tree_nodeIS6_E_x284
    _ZNSt8_Rb_treeIjSt4pairIKjNSt7__cxx114listIjSaIjEEEESt10_Select1stIS6_ESt4lessIjESaIS6_EE8_M_eraseEPSt13_Rb_tree_nodeIS6_E_x26c:
    /*0000026c*/ LDR         R6, [R0] 
    /*00000270*/ BL          _ZdlPv
    /*00000274*/ CMP         R6, R4 
    /*00000278*/ MOV         R0, R6 
    /*0000027c*/ BNE         _ZNSt8_Rb_treeIjSt4pairIKjNSt7__cxx114listIjSaIjEEEESt10_Select1stIS6_ESt4lessIjESaIS6_EE8_M_eraseEPSt13_Rb_tree_nodeIS6_E_x26c
    /*00000280*/ LDR         R0, [SP, #16] 
    _ZNSt8_Rb_treeIjSt4pairIKjNSt7__cxx114listIjSaIjEEEESt10_Select1stIS6_ESt4lessIjESaIS6_EE8_M_eraseEPSt13_Rb_tree_nodeIS6_E_x284:
    /*00000284*/ BL          _ZdlPv
    /*00000288*/ SUBS        R3, R5, #0 
    /*0000028c*/ STR         R3, [SP, #16] 
    /*00000290*/ BNE         _ZNSt8_Rb_treeIjSt4pairIKjNSt7__cxx114listIjSaIjEEEESt10_Select1stIS6_ESt4lessIjESaIS6_EE8_M_eraseEPSt13_Rb_tree_nodeIS6_E_x34
    _ZNSt8_Rb_treeIjSt4pairIKjNSt7__cxx114listIjSaIjEEEESt10_Select1stIS6_ESt4lessIjESaIS6_EE8_M_eraseEPSt13_Rb_tree_nodeIS6_E_x294:
    /*00000294*/ LDR         R3, [SP, #20] 
    /*00000298*/ LDR         R5, [R3, #8] 
    /*0000029c*/ MOV         R4, R3 
    /*000002a0*/ LDR         R0, [R4, #20]! 
    /*000002a4*/ CMP         R0, R4 
    /*000002a8*/ MOVEQ       R0, R3 
    /*000002ac*/ BEQ         _ZNSt8_Rb_treeIjSt4pairIKjNSt7__cxx114listIjSaIjEEEESt10_Select1stIS6_ESt4lessIjESaIS6_EE8_M_eraseEPSt13_Rb_tree_nodeIS6_E_x2c8
    _ZNSt8_Rb_treeIjSt4pairIKjNSt7__cxx114listIjSaIjEEEESt10_Select1stIS6_ESt4lessIjESaIS6_EE8_M_eraseEPSt13_Rb_tree_nodeIS6_E_x2b0:
    /*000002b0*/ LDR         R6, [R0] 
    /*000002b4*/ BL          _ZdlPv
    /*000002b8*/ CMP         R6, R4 
    /*000002bc*/ MOV         R0, R6 
    /*000002c0*/ BNE         _ZNSt8_Rb_treeIjSt4pairIKjNSt7__cxx114listIjSaIjEEEESt10_Select1stIS6_ESt4lessIjESaIS6_EE8_M_eraseEPSt13_Rb_tree_nodeIS6_E_x2b0
    /*000002c4*/ LDR         R0, [SP, #20] 
    _ZNSt8_Rb_treeIjSt4pairIKjNSt7__cxx114listIjSaIjEEEESt10_Select1stIS6_ESt4lessIjESaIS6_EE8_M_eraseEPSt13_Rb_tree_nodeIS6_E_x2c8:
    /*000002c8*/ BL          _ZdlPv
    /*000002cc*/ SUBS        R3, R5, #0 
    /*000002d0*/ STR         R3, [SP, #20] 
    /*000002d4*/ BNE         _ZNSt8_Rb_treeIjSt4pairIKjNSt7__cxx114listIjSaIjEEEESt10_Select1stIS6_ESt4lessIjESaIS6_EE8_M_eraseEPSt13_Rb_tree_nodeIS6_E_x24
    _ZNSt8_Rb_treeIjSt4pairIKjNSt7__cxx114listIjSaIjEEEESt10_Select1stIS6_ESt4lessIjESaIS6_EE8_M_eraseEPSt13_Rb_tree_nodeIS6_E_x2d8:
    /*000002d8*/ ADD         SP, SP, #28 
    /*000002dc*/ POP         {R4, R5, R6, R7, R8, R9, SL, FP, PC} 
FUNC_END _ZNSt8_Rb_treeIjSt4pairIKjNSt7__cxx114listIjSaIjEEEESt10_Select1stIS6_ESt4lessIjESaIS6_EE8_M_eraseEPSt13_Rb_tree_nodeIS6_E


@ - - - - - - - - - - - - - - - - - - - - - - - - - - - - - 
@ .text._ZN4hirt18ConnectorOperationD2Ev
@ Size: 0x1d0
@ - - - - - - - - - - - - - - - - - - - - - - - - - - - - - 

FUNC_BEGIN _ZN4hirt18ConnectorOperationD2Ev
    /*00000000*/ MOV         IP, #16384                  @ 0x4000 
    /*00000004*/ PUSH        {R4, R5, R6, R7, R8, R9, SL, LR} 
    /*00000008*/ SUB         IP, SP, IP 
    /*0000000c*/ STR         R0, [IP, #4064]             @ 0xfe0 
    /*00000010*/ LDR         R2, WORD_01c0               @ LDR         R2, [PC, #424]              @ 0x00000000000001c0 
    /*00000014*/ MOV         R5, R0 
    /*00000018*/ LDR         R3, WORD_01c4               @ LDR         R3, [PC, #420]              @ 0x00000000000001c4 
    /*0000001c*/ LDR         R8, [R0, #384]              @ 0x180 
    /*00000020*/ ADD         R2, PC, R2 
    /*00000024*/ ADD         R3, PC, R3 
    /*00000028*/ CMP         R8, #0 
    /*0000002c*/ LDR         R6, WORD_01c8               @ LDR         R6, [PC, #404]              @ 0x00000000000001c8 
    /*00000030*/ ADD         R2, R2, #8 
    /*00000034*/ STR         R2, [R0] 
    /*00000038*/ ADD         R3, R3, #8 
    /*0000003c*/ ADD         R6, PC, R6 
    /*00000040*/ ADDNE       R9, R0, #376                @ 0x178 
    /*00000044*/ STR         R3, [R0, #188]              @ 0xbc 
    /*00000048*/ BEQ         _ZN4hirt18ConnectorOperationD2Ev_x90
    _ZN4hirt18ConnectorOperationD2Ev_x4c:
    /*0000004c*/ LDR         R1, [R8, #12] 
    /*00000050*/ MOV         R7, R8 
    /*00000054*/ MOV         R0, R9 
    /*00000058*/ BL          _ZNSt8_Rb_treeIjSt4pairIKjNSt7__cxx114listIjSaIjEEEESt10_Select1stIS6_ESt4lessIjESaIS6_EE8_M_eraseEPSt13_Rb_tree_nodeIS6_E
    /*0000005c*/ LDR         R0, [R7, #20]! 
    /*00000060*/ LDR         SL, [R8, #8] 
    /*00000064*/ CMP         R0, R7 
    /*00000068*/ BEQ         _ZN4hirt18ConnectorOperationD2Ev_x80
    _ZN4hirt18ConnectorOperationD2Ev_x6c:
    /*0000006c*/ LDR         R4, [R0] 
    /*00000070*/ BL          _ZdlPv
    /*00000074*/ CMP         R4, R7 
    /*00000078*/ MOV         R0, R4 
    /*0000007c*/ BNE         _ZN4hirt18ConnectorOperationD2Ev_x6c
    _ZN4hirt18ConnectorOperationD2Ev_x80:
    /*00000080*/ MOV         R0, R8 
    /*00000084*/ BL          _ZdlPv
    /*00000088*/ SUBS        R8, SL, #0 
    /*0000008c*/ BNE         _ZN4hirt18ConnectorOperationD2Ev_x4c
    _ZN4hirt18ConnectorOperationD2Ev_x90:
    /*00000090*/ LDR         R8, [R5, #360]              @ 0x168 
    /*00000094*/ ADD         R9, R5, #352                @ 0x160 
    /*00000098*/ CMP         R8, #0 
    /*0000009c*/ BEQ         _ZN4hirt18ConnectorOperationD2Ev_xe4
    _ZN4hirt18ConnectorOperationD2Ev_xa0:
    /*000000a0*/ LDR         R1, [R8, #12] 
    /*000000a4*/ MOV         R7, R8 
    /*000000a8*/ MOV         R0, R9 
    /*000000ac*/ BL          _ZNSt8_Rb_treeIjSt4pairIKjNSt7__cxx114listIjSaIjEEEESt10_Select1stIS6_ESt4lessIjESaIS6_EE8_M_eraseEPSt13_Rb_tree_nodeIS6_E
    /*000000b0*/ LDR         R0, [R7, #20]! 
    /*000000b4*/ LDR         SL, [R8, #8] 
    /*000000b8*/ CMP         R7, R0 
    /*000000bc*/ BEQ         _ZN4hirt18ConnectorOperationD2Ev_xd4
    _ZN4hirt18ConnectorOperationD2Ev_xc0:
    /*000000c0*/ LDR         R4, [R0] 
    /*000000c4*/ BL          _ZdlPv
    /*000000c8*/ CMP         R7, R4 
    /*000000cc*/ MOV         R0, R4 
    /*000000d0*/ BNE         _ZN4hirt18ConnectorOperationD2Ev_xc0
    _ZN4hirt18ConnectorOperationD2Ev_xd4:
    /*000000d4*/ MOV         R0, R8 
    /*000000d8*/ BL          _ZdlPv
    /*000000dc*/ SUBS        R8, SL, #0 
    /*000000e0*/ BNE         _ZN4hirt18ConnectorOperationD2Ev_xa0
    _ZN4hirt18ConnectorOperationD2Ev_xe4:
    /*000000e4*/ LDR         R8, [R5, #336]              @ 0x150 
    /*000000e8*/ ADD         R9, R5, #328                @ 0x148 
    /*000000ec*/ CMP         R8, #0 
    /*000000f0*/ BEQ         _ZN4hirt18ConnectorOperationD2Ev_x138
    _ZN4hirt18ConnectorOperationD2Ev_xf4:
    /*000000f4*/ LDR         R1, [R8, #12] 
    /*000000f8*/ MOV         R7, R8 
    /*000000fc*/ MOV         R0, R9 
    /*00000100*/ BL          _ZNSt8_Rb_treeIjSt4pairIKjNSt7__cxx114listIjSaIjEEEESt10_Select1stIS6_ESt4lessIjESaIS6_EE8_M_eraseEPSt13_Rb_tree_nodeIS6_E
    /*00000104*/ LDR         R0, [R7, #20]! 
    /*00000108*/ LDR         SL, [R8, #8] 
    /*0000010c*/ CMP         R0, R7 
    /*00000110*/ BEQ         _ZN4hirt18ConnectorOperationD2Ev_x128
    _ZN4hirt18ConnectorOperationD2Ev_x114:
    /*00000114*/ LDR         R4, [R0] 
    /*00000118*/ BL          _ZdlPv
    /*0000011c*/ CMP         R4, R7 
    /*00000120*/ MOV         R0, R4 
    /*00000124*/ BNE         _ZN4hirt18ConnectorOperationD2Ev_x114
    _ZN4hirt18ConnectorOperationD2Ev_x128:
    /*00000128*/ MOV         R0, R8 
    /*0000012c*/ BL          _ZdlPv
    /*00000130*/ SUBS        R8, SL, #0 
    /*00000134*/ BNE         _ZN4hirt18ConnectorOperationD2Ev_xf4
    _ZN4hirt18ConnectorOperationD2Ev_x138:
    /*00000138*/ LDR         R8, [R5, #312]              @ 0x138 
    /*0000013c*/ ADD         R9, R5, #304                @ 0x130 
    /*00000140*/ CMP         R8, #0 
    /*00000144*/ BEQ         _ZN4hirt18ConnectorOperationD2Ev_x18c
    _ZN4hirt18ConnectorOperationD2Ev_x148:
    /*00000148*/ LDR         R1, [R8, #12] 
    /*0000014c*/ MOV         R7, R8 
    /*00000150*/ MOV         R0, R9 
    /*00000154*/ BL          _ZNSt8_Rb_treeIjSt4pairIKjNSt7__cxx114listIjSaIjEEEESt10_Select1stIS6_ESt4lessIjESaIS6_EE8_M_eraseEPSt13_Rb_tree_nodeIS6_E
    /*00000158*/ LDR         R0, [R7, #20]! 
    /*0000015c*/ LDR         SL, [R8, #8] 
    /*00000160*/ CMP         R0, R7 
    /*00000164*/ BEQ         _ZN4hirt18ConnectorOperationD2Ev_x17c
    _ZN4hirt18ConnectorOperationD2Ev_x168:
    /*00000168*/ LDR         R4, [R0] 
    /*0000016c*/ BL          _ZdlPv
    /*00000170*/ CMP         R4, R7 
    /*00000174*/ MOV         R0, R4 
    /*00000178*/ BNE         _ZN4hirt18ConnectorOperationD2Ev_x168
    _ZN4hirt18ConnectorOperationD2Ev_x17c:
    /*0000017c*/ MOV         R0, R8 
    /*00000180*/ BL          _ZdlPv
    /*00000184*/ SUBS        R8, SL, #0 
    /*00000188*/ BNE         _ZN4hirt18ConnectorOperationD2Ev_x148
    _ZN4hirt18ConnectorOperationD2Ev_x18c:
    /*0000018c*/ LDR         R3, WORD_01cc               @ LDR         R3, [PC, #56]               @ 0x00000000000001cc 
    /*00000190*/ ADD         R2, R5, #160                @ 0xa0 
    /*00000194*/ LDR         R0, [R5, #152]              @ 0x98 
    /*00000198*/ LDR         R3, [R6, R3] 
    /*0000019c*/ CMP         R0, R2 
    /*000001a0*/ ADD         R3, R3, #8 
    /*000001a4*/ STR         R3, [R5] 
    /*000001a8*/ BEQ         _ZN4hirt18ConnectorOperationD2Ev_x1b0
    /*000001ac*/ BL          _ZdlPv
    _ZN4hirt18ConnectorOperationD2Ev_x1b0:
    /*000001b0*/ MOV         R0, R5 
    /*000001b4*/ BL          _ZN4hirt9OperationD2Ev
    /*000001b8*/ MOV         R0, R5 
    /*000001bc*/ POP         {R4, R5, R6, R7, R8, R9, SL, PC} 
    /*000001c0*/ WORD_01c0: .word 0x00000198
    /*000001c4*/ WORD_01c4: .word 0x00000198
    /*000001c8*/ WORD_01c8: .word 0x00000184
    /*000001cc*/ WORD_01cc: .word 0x00000000
FUNC_END _ZN4hirt18ConnectorOperationD2Ev


FUNC_BEGIN _ZN4hirt18ConnectorOperationD1Ev
    /*00000000*/ MOV         IP, #16384                  @ 0x4000 
    /*00000004*/ PUSH        {R4, R5, R6, R7, R8, R9, SL, LR} 
    /*00000008*/ SUB         IP, SP, IP 
    /*0000000c*/ STR         R0, [IP, #4064]             @ 0xfe0 
    /*00000010*/ LDR         R2, WORD_01c0               @ LDR         R2, [PC, #424]              @ 0x00000000000001c0 
    /*00000014*/ MOV         R5, R0 
    /*00000018*/ LDR         R3, WORD_01c4               @ LDR         R3, [PC, #420]              @ 0x00000000000001c4 
    /*0000001c*/ LDR         R8, [R0, #384]              @ 0x180 
    /*00000020*/ ADD         R2, PC, R2 
    /*00000024*/ ADD         R3, PC, R3 
    /*00000028*/ CMP         R8, #0 
    /*0000002c*/ LDR         R6, WORD_01c8               @ LDR         R6, [PC, #404]              @ 0x00000000000001c8 
    /*00000030*/ ADD         R2, R2, #8 
    /*00000034*/ STR         R2, [R0] 
    /*00000038*/ ADD         R3, R3, #8 
    /*0000003c*/ ADD         R6, PC, R6 
    /*00000040*/ ADDNE       R9, R0, #376                @ 0x178 
    /*00000044*/ STR         R3, [R0, #188]              @ 0xbc 
    /*00000048*/ BEQ         _ZN4hirt18ConnectorOperationD1Ev_x90
    _ZN4hirt18ConnectorOperationD1Ev_x4c:
    /*0000004c*/ LDR         R1, [R8, #12] 
    /*00000050*/ MOV         R7, R8 
    /*00000054*/ MOV         R0, R9 
    /*00000058*/ BL          _ZNSt8_Rb_treeIjSt4pairIKjNSt7__cxx114listIjSaIjEEEESt10_Select1stIS6_ESt4lessIjESaIS6_EE8_M_eraseEPSt13_Rb_tree_nodeIS6_E
    /*0000005c*/ LDR         R0, [R7, #20]! 
    /*00000060*/ LDR         SL, [R8, #8] 
    /*00000064*/ CMP         R0, R7 
    /*00000068*/ BEQ         _ZN4hirt18ConnectorOperationD1Ev_x80
    _ZN4hirt18ConnectorOperationD1Ev_x6c:
    /*0000006c*/ LDR         R4, [R0] 
    /*00000070*/ BL          _ZdlPv
    /*00000074*/ CMP         R4, R7 
    /*00000078*/ MOV         R0, R4 
    /*0000007c*/ BNE         _ZN4hirt18ConnectorOperationD1Ev_x6c
    _ZN4hirt18ConnectorOperationD1Ev_x80:
    /*00000080*/ MOV         R0, R8 
    /*00000084*/ BL          _ZdlPv
    /*00000088*/ SUBS        R8, SL, #0 
    /*0000008c*/ BNE         _ZN4hirt18ConnectorOperationD1Ev_x4c
    _ZN4hirt18ConnectorOperationD1Ev_x90:
    /*00000090*/ LDR         R8, [R5, #360]              @ 0x168 
    /*00000094*/ ADD         R9, R5, #352                @ 0x160 
    /*00000098*/ CMP         R8, #0 
    /*0000009c*/ BEQ         _ZN4hirt18ConnectorOperationD1Ev_xe4
    _ZN4hirt18ConnectorOperationD1Ev_xa0:
    /*000000a0*/ LDR         R1, [R8, #12] 
    /*000000a4*/ MOV         R7, R8 
    /*000000a8*/ MOV         R0, R9 
    /*000000ac*/ BL          _ZNSt8_Rb_treeIjSt4pairIKjNSt7__cxx114listIjSaIjEEEESt10_Select1stIS6_ESt4lessIjESaIS6_EE8_M_eraseEPSt13_Rb_tree_nodeIS6_E
    /*000000b0*/ LDR         R0, [R7, #20]! 
    /*000000b4*/ LDR         SL, [R8, #8] 
    /*000000b8*/ CMP         R7, R0 
    /*000000bc*/ BEQ         _ZN4hirt18ConnectorOperationD1Ev_xd4
    _ZN4hirt18ConnectorOperationD1Ev_xc0:
    /*000000c0*/ LDR         R4, [R0] 
    /*000000c4*/ BL          _ZdlPv
    /*000000c8*/ CMP         R7, R4 
    /*000000cc*/ MOV         R0, R4 
    /*000000d0*/ BNE         _ZN4hirt18ConnectorOperationD1Ev_xc0
    _ZN4hirt18ConnectorOperationD1Ev_xd4:
    /*000000d4*/ MOV         R0, R8 
    /*000000d8*/ BL          _ZdlPv
    /*000000dc*/ SUBS        R8, SL, #0 
    /*000000e0*/ BNE         _ZN4hirt18ConnectorOperationD1Ev_xa0
    _ZN4hirt18ConnectorOperationD1Ev_xe4:
    /*000000e4*/ LDR         R8, [R5, #336]              @ 0x150 
    /*000000e8*/ ADD         R9, R5, #328                @ 0x148 
    /*000000ec*/ CMP         R8, #0 
    /*000000f0*/ BEQ         _ZN4hirt18ConnectorOperationD1Ev_x138
    _ZN4hirt18ConnectorOperationD1Ev_xf4:
    /*000000f4*/ LDR         R1, [R8, #12] 
    /*000000f8*/ MOV         R7, R8 
    /*000000fc*/ MOV         R0, R9 
    /*00000100*/ BL          _ZNSt8_Rb_treeIjSt4pairIKjNSt7__cxx114listIjSaIjEEEESt10_Select1stIS6_ESt4lessIjESaIS6_EE8_M_eraseEPSt13_Rb_tree_nodeIS6_E
    /*00000104*/ LDR         R0, [R7, #20]! 
    /*00000108*/ LDR         SL, [R8, #8] 
    /*0000010c*/ CMP         R0, R7 
    /*00000110*/ BEQ         _ZN4hirt18ConnectorOperationD1Ev_x128
    _ZN4hirt18ConnectorOperationD1Ev_x114:
    /*00000114*/ LDR         R4, [R0] 
    /*00000118*/ BL          _ZdlPv
    /*0000011c*/ CMP         R4, R7 
    /*00000120*/ MOV         R0, R4 
    /*00000124*/ BNE         _ZN4hirt18ConnectorOperationD1Ev_x114
    _ZN4hirt18ConnectorOperationD1Ev_x128:
    /*00000128*/ MOV         R0, R8 
    /*0000012c*/ BL          _ZdlPv
    /*00000130*/ SUBS        R8, SL, #0 
    /*00000134*/ BNE         _ZN4hirt18ConnectorOperationD1Ev_xf4
    _ZN4hirt18ConnectorOperationD1Ev_x138:
    /*00000138*/ LDR         R8, [R5, #312]              @ 0x138 
    /*0000013c*/ ADD         R9, R5, #304                @ 0x130 
    /*00000140*/ CMP         R8, #0 
    /*00000144*/ BEQ         _ZN4hirt18ConnectorOperationD1Ev_x18c
    _ZN4hirt18ConnectorOperationD1Ev_x148:
    /*00000148*/ LDR         R1, [R8, #12] 
    /*0000014c*/ MOV         R7, R8 
    /*00000150*/ MOV         R0, R9 
    /*00000154*/ BL          _ZNSt8_Rb_treeIjSt4pairIKjNSt7__cxx114listIjSaIjEEEESt10_Select1stIS6_ESt4lessIjESaIS6_EE8_M_eraseEPSt13_Rb_tree_nodeIS6_E
    /*00000158*/ LDR         R0, [R7, #20]! 
    /*0000015c*/ LDR         SL, [R8, #8] 
    /*00000160*/ CMP         R0, R7 
    /*00000164*/ BEQ         _ZN4hirt18ConnectorOperationD1Ev_x17c
    _ZN4hirt18ConnectorOperationD1Ev_x168:
    /*00000168*/ LDR         R4, [R0] 
    /*0000016c*/ BL          _ZdlPv
    /*00000170*/ CMP         R4, R7 
    /*00000174*/ MOV         R0, R4 
    /*00000178*/ BNE         _ZN4hirt18ConnectorOperationD1Ev_x168
    _ZN4hirt18ConnectorOperationD1Ev_x17c:
    /*0000017c*/ MOV         R0, R8 
    /*00000180*/ BL          _ZdlPv
    /*00000184*/ SUBS        R8, SL, #0 
    /*00000188*/ BNE         _ZN4hirt18ConnectorOperationD1Ev_x148
    _ZN4hirt18ConnectorOperationD1Ev_x18c:
    /*0000018c*/ LDR         R3, WORD_01cc               @ LDR         R3, [PC, #56]               @ 0x00000000000001cc 
    /*00000190*/ ADD         R2, R5, #160                @ 0xa0 
    /*00000194*/ LDR         R0, [R5, #152]              @ 0x98 
    /*00000198*/ LDR         R3, [R6, R3] 
    /*0000019c*/ CMP         R0, R2 
    /*000001a0*/ ADD         R3, R3, #8 
    /*000001a4*/ STR         R3, [R5] 
    /*000001a8*/ BEQ         _ZN4hirt18ConnectorOperationD1Ev_x1b0
    /*000001ac*/ BL          _ZdlPv
    _ZN4hirt18ConnectorOperationD1Ev_x1b0:
    /*000001b0*/ MOV         R0, R5 
    /*000001b4*/ BL          _ZN4hirt9OperationD2Ev
    /*000001b8*/ MOV         R0, R5 
    /*000001bc*/ POP         {R4, R5, R6, R7, R8, R9, SL, PC} 
    /*000001c0*/ WORD_01c0: .word 0x00000198
    /*000001c4*/ WORD_01c4: .word 0x00000198
    /*000001c8*/ WORD_01c8: .word 0x00000184
    /*000001cc*/ WORD_01cc: .word 0x00000000
FUNC_END _ZN4hirt18ConnectorOperationD1Ev


@ - - - - - - - - - - - - - - - - - - - - - - - - - - - - - 
@ .text._ZN21HIRT_CONNECTOR_INFO_SD0Ev
@ Size: 0x18c
@ - - - - - - - - - - - - - - - - - - - - - - - - - - - - - 

FUNC_BEGIN _ZN21HIRT_CONNECTOR_INFO_SD0Ev
    /*00000000*/ MOV         IP, #16384                  @ 0x4000 
    /*00000004*/ PUSH        {R4, R5, R6, R7, R8, R9, SL, LR} 
    /*00000008*/ SUB         IP, SP, IP 
    /*0000000c*/ STR         R0, [IP, #4064]             @ 0xfe0 
    /*00000010*/ LDR         R3, WORD_0188               @ LDR         R3, [PC, #368]              @ 0x0000000000000188 
    /*00000014*/ MOV         R9, R0 
    /*00000018*/ LDR         R7, [R0, #196]              @ 0xc4 
    /*0000001c*/ MOV         R5, R0 
    /*00000020*/ ADD         R3, PC, R3 
    /*00000024*/ CMP         R7, #0 
    /*00000028*/ ADD         R3, R3, #8 
    /*0000002c*/ STR         R3, [R9], #188              @ 0xbc 
    /*00000030*/ BEQ         _ZN21HIRT_CONNECTOR_INFO_SD0Ev_x78
    _ZN21HIRT_CONNECTOR_INFO_SD0Ev_x34:
    /*00000034*/ LDR         R1, [R7, #12] 
    /*00000038*/ MOV         R6, R7 
    /*0000003c*/ MOV         R0, R9 
    /*00000040*/ BL          _ZNSt8_Rb_treeIjSt4pairIKjNSt7__cxx114listIjSaIjEEEESt10_Select1stIS6_ESt4lessIjESaIS6_EE8_M_eraseEPSt13_Rb_tree_nodeIS6_E
    /*00000044*/ LDR         R0, [R6, #20]! 
    /*00000048*/ LDR         R8, [R7, #8] 
    /*0000004c*/ CMP         R0, R6 
    /*00000050*/ BEQ         _ZN21HIRT_CONNECTOR_INFO_SD0Ev_x68
    _ZN21HIRT_CONNECTOR_INFO_SD0Ev_x54:
    /*00000054*/ LDR         R4, [R0] 
    /*00000058*/ BL          _ZdlPv
    /*0000005c*/ CMP         R4, R6 
    /*00000060*/ MOV         R0, R4 
    /*00000064*/ BNE         _ZN21HIRT_CONNECTOR_INFO_SD0Ev_x54
    _ZN21HIRT_CONNECTOR_INFO_SD0Ev_x68:
    /*00000068*/ MOV         R0, R7 
    /*0000006c*/ BL          _ZdlPv
    /*00000070*/ SUBS        R7, R8, #0 
    /*00000074*/ BNE         _ZN21HIRT_CONNECTOR_INFO_SD0Ev_x34
    _ZN21HIRT_CONNECTOR_INFO_SD0Ev_x78:
    /*00000078*/ LDR         R7, [R5, #172]              @ 0xac 
    /*0000007c*/ ADD         R9, R5, #164                @ 0xa4 
    /*00000080*/ CMP         R7, #0 
    /*00000084*/ BEQ         _ZN21HIRT_CONNECTOR_INFO_SD0Ev_xcc
    _ZN21HIRT_CONNECTOR_INFO_SD0Ev_x88:
    /*00000088*/ LDR         R1, [R7, #12] 
    /*0000008c*/ MOV         R6, R7 
    /*00000090*/ MOV         R0, R9 
    /*00000094*/ BL          _ZNSt8_Rb_treeIjSt4pairIKjNSt7__cxx114listIjSaIjEEEESt10_Select1stIS6_ESt4lessIjESaIS6_EE8_M_eraseEPSt13_Rb_tree_nodeIS6_E
    /*00000098*/ LDR         R0, [R6, #20]! 
    /*0000009c*/ LDR         R8, [R7, #8] 
    /*000000a0*/ CMP         R0, R6 
    /*000000a4*/ BEQ         _ZN21HIRT_CONNECTOR_INFO_SD0Ev_xbc
    _ZN21HIRT_CONNECTOR_INFO_SD0Ev_xa8:
    /*000000a8*/ LDR         R4, [R0] 
    /*000000ac*/ BL          _ZdlPv
    /*000000b0*/ CMP         R4, R6 
    /*000000b4*/ MOV         R0, R4 
    /*000000b8*/ BNE         _ZN21HIRT_CONNECTOR_INFO_SD0Ev_xa8
    _ZN21HIRT_CONNECTOR_INFO_SD0Ev_xbc:
    /*000000bc*/ MOV         R0, R7 
    /*000000c0*/ BL          _ZdlPv
    /*000000c4*/ SUBS        R7, R8, #0 
    /*000000c8*/ BNE         _ZN21HIRT_CONNECTOR_INFO_SD0Ev_x88
    _ZN21HIRT_CONNECTOR_INFO_SD0Ev_xcc:
    /*000000cc*/ LDR         R7, [R5, #148]              @ 0x94 
    /*000000d0*/ ADD         R9, R5, #140                @ 0x8c 
    /*000000d4*/ CMP         R7, #0 
    /*000000d8*/ BEQ         _ZN21HIRT_CONNECTOR_INFO_SD0Ev_x120
    _ZN21HIRT_CONNECTOR_INFO_SD0Ev_xdc:
    /*000000dc*/ LDR         R1, [R7, #12] 
    /*000000e0*/ MOV         R6, R7 
    /*000000e4*/ MOV         R0, R9 
    /*000000e8*/ BL          _ZNSt8_Rb_treeIjSt4pairIKjNSt7__cxx114listIjSaIjEEEESt10_Select1stIS6_ESt4lessIjESaIS6_EE8_M_eraseEPSt13_Rb_tree_nodeIS6_E
    /*000000ec*/ LDR         R0, [R6, #20]! 
    /*000000f0*/ LDR         R8, [R7, #8] 
    /*000000f4*/ CMP         R6, R0 
    /*000000f8*/ BEQ         _ZN21HIRT_CONNECTOR_INFO_SD0Ev_x110
    _ZN21HIRT_CONNECTOR_INFO_SD0Ev_xfc:
    /*000000fc*/ LDR         R4, [R0] 
    /*00000100*/ BL          _ZdlPv
    /*00000104*/ CMP         R6, R4 
    /*00000108*/ MOV         R0, R4 
    /*0000010c*/ BNE         _ZN21HIRT_CONNECTOR_INFO_SD0Ev_xfc
    _ZN21HIRT_CONNECTOR_INFO_SD0Ev_x110:
    /*00000110*/ MOV         R0, R7 
    /*00000114*/ BL          _ZdlPv
    /*00000118*/ SUBS        R7, R8, #0 
    /*0000011c*/ BNE         _ZN21HIRT_CONNECTOR_INFO_SD0Ev_xdc
    _ZN21HIRT_CONNECTOR_INFO_SD0Ev_x120:
    /*00000120*/ LDR         R7, [R5, #124]              @ 0x7c 
    /*00000124*/ ADD         R9, R5, #116                @ 0x74 
    /*00000128*/ CMP         R7, #0 
    /*0000012c*/ BEQ         _ZN21HIRT_CONNECTOR_INFO_SD0Ev_x174
    _ZN21HIRT_CONNECTOR_INFO_SD0Ev_x130:
    /*00000130*/ LDR         R1, [R7, #12] 
    /*00000134*/ MOV         R6, R7 
    /*00000138*/ MOV         R0, R9 
    /*0000013c*/ BL          _ZNSt8_Rb_treeIjSt4pairIKjNSt7__cxx114listIjSaIjEEEESt10_Select1stIS6_ESt4lessIjESaIS6_EE8_M_eraseEPSt13_Rb_tree_nodeIS6_E
    /*00000140*/ LDR         R0, [R6, #20]! 
    /*00000144*/ LDR         R8, [R7, #8] 
    /*00000148*/ CMP         R0, R6 
    /*0000014c*/ BEQ         _ZN21HIRT_CONNECTOR_INFO_SD0Ev_x164
    _ZN21HIRT_CONNECTOR_INFO_SD0Ev_x150:
    /*00000150*/ LDR         R4, [R0] 
    /*00000154*/ BL          _ZdlPv
    /*00000158*/ CMP         R4, R6 
    /*0000015c*/ MOV         R0, R4 
    /*00000160*/ BNE         _ZN21HIRT_CONNECTOR_INFO_SD0Ev_x150
    _ZN21HIRT_CONNECTOR_INFO_SD0Ev_x164:
    /*00000164*/ MOV         R0, R7 
    /*00000168*/ BL          _ZdlPv
    /*0000016c*/ SUBS        R7, R8, #0 
    /*00000170*/ BNE         _ZN21HIRT_CONNECTOR_INFO_SD0Ev_x130
    _ZN21HIRT_CONNECTOR_INFO_SD0Ev_x174:
    /*00000174*/ MOV         R0, R5 
    /*00000178*/ MOV         R1, #212                    @ 0xd4 
    /*0000017c*/ BL          _ZdlPvj
    /*00000180*/ MOV         R0, R5 
    /*00000184*/ POP         {R4, R5, R6, R7, R8, R9, SL, PC} 
    /*00000188*/ WORD_0188: .word 0x00000160
FUNC_END _ZN21HIRT_CONNECTOR_INFO_SD0Ev


@ - - - - - - - - - - - - - - - - - - - - - - - - - - - - - 
@ .text._ZN4hirt18ConnectorOperationD0Ev
@ Size: 0x1dc
@ - - - - - - - - - - - - - - - - - - - - - - - - - - - - - 

FUNC_BEGIN _ZN4hirt18ConnectorOperationD0Ev
    /*00000000*/ MOV         IP, #16384                  @ 0x4000 
    /*00000004*/ PUSH        {R4, R5, R6, R7, R8, R9, SL, LR} 
    /*00000008*/ SUB         IP, SP, IP 
    /*0000000c*/ STR         R0, [IP, #4064]             @ 0xfe0 
    /*00000010*/ LDR         R2, WORD_01cc               @ LDR         R2, [PC, #436]              @ 0x00000000000001cc 
    /*00000014*/ MOV         R5, R0 
    /*00000018*/ LDR         R3, WORD_01d0               @ LDR         R3, [PC, #432]              @ 0x00000000000001d0 
    /*0000001c*/ LDR         R8, [R0, #384]              @ 0x180 
    /*00000020*/ ADD         R2, PC, R2 
    /*00000024*/ ADD         R3, PC, R3 
    /*00000028*/ CMP         R8, #0 
    /*0000002c*/ LDR         R6, WORD_01d4               @ LDR         R6, [PC, #416]              @ 0x00000000000001d4 
    /*00000030*/ ADD         R2, R2, #8 
    /*00000034*/ STR         R2, [R0] 
    /*00000038*/ ADD         R3, R3, #8 
    /*0000003c*/ ADD         R6, PC, R6 
    /*00000040*/ ADDNE       R9, R0, #376                @ 0x178 
    /*00000044*/ STR         R3, [R0, #188]              @ 0xbc 
    /*00000048*/ BEQ         _ZN4hirt18ConnectorOperationD0Ev_x90
    _ZN4hirt18ConnectorOperationD0Ev_x4c:
    /*0000004c*/ LDR         R1, [R8, #12] 
    /*00000050*/ MOV         R7, R8 
    /*00000054*/ MOV         R0, R9 
    /*00000058*/ BL          _ZNSt8_Rb_treeIjSt4pairIKjNSt7__cxx114listIjSaIjEEEESt10_Select1stIS6_ESt4lessIjESaIS6_EE8_M_eraseEPSt13_Rb_tree_nodeIS6_E
    /*0000005c*/ LDR         R0, [R7, #20]! 
    /*00000060*/ LDR         SL, [R8, #8] 
    /*00000064*/ CMP         R0, R7 
    /*00000068*/ BEQ         _ZN4hirt18ConnectorOperationD0Ev_x80
    _ZN4hirt18ConnectorOperationD0Ev_x6c:
    /*0000006c*/ LDR         R4, [R0] 
    /*00000070*/ BL          _ZdlPv
    /*00000074*/ CMP         R4, R7 
    /*00000078*/ MOV         R0, R4 
    /*0000007c*/ BNE         _ZN4hirt18ConnectorOperationD0Ev_x6c
    _ZN4hirt18ConnectorOperationD0Ev_x80:
    /*00000080*/ MOV         R0, R8 
    /*00000084*/ BL          _ZdlPv
    /*00000088*/ SUBS        R8, SL, #0 
    /*0000008c*/ BNE         _ZN4hirt18ConnectorOperationD0Ev_x4c
    _ZN4hirt18ConnectorOperationD0Ev_x90:
    /*00000090*/ LDR         R8, [R5, #360]              @ 0x168 
    /*00000094*/ ADD         R9, R5, #352                @ 0x160 
    /*00000098*/ CMP         R8, #0 
    /*0000009c*/ BEQ         _ZN4hirt18ConnectorOperationD0Ev_xe4
    _ZN4hirt18ConnectorOperationD0Ev_xa0:
    /*000000a0*/ LDR         R1, [R8, #12] 
    /*000000a4*/ MOV         R7, R8 
    /*000000a8*/ MOV         R0, R9 
    /*000000ac*/ BL          _ZNSt8_Rb_treeIjSt4pairIKjNSt7__cxx114listIjSaIjEEEESt10_Select1stIS6_ESt4lessIjESaIS6_EE8_M_eraseEPSt13_Rb_tree_nodeIS6_E
    /*000000b0*/ LDR         R0, [R7, #20]! 
    /*000000b4*/ LDR         SL, [R8, #8] 
    /*000000b8*/ CMP         R7, R0 
    /*000000bc*/ BEQ         _ZN4hirt18ConnectorOperationD0Ev_xd4
    _ZN4hirt18ConnectorOperationD0Ev_xc0:
    /*000000c0*/ LDR         R4, [R0] 
    /*000000c4*/ BL          _ZdlPv
    /*000000c8*/ CMP         R7, R4 
    /*000000cc*/ MOV         R0, R4 
    /*000000d0*/ BNE         _ZN4hirt18ConnectorOperationD0Ev_xc0
    _ZN4hirt18ConnectorOperationD0Ev_xd4:
    /*000000d4*/ MOV         R0, R8 
    /*000000d8*/ BL          _ZdlPv
    /*000000dc*/ SUBS        R8, SL, #0 
    /*000000e0*/ BNE         _ZN4hirt18ConnectorOperationD0Ev_xa0
    _ZN4hirt18ConnectorOperationD0Ev_xe4:
    /*000000e4*/ LDR         R8, [R5, #336]              @ 0x150 
    /*000000e8*/ ADD         R9, R5, #328                @ 0x148 
    /*000000ec*/ CMP         R8, #0 
    /*000000f0*/ BEQ         _ZN4hirt18ConnectorOperationD0Ev_x138
    _ZN4hirt18ConnectorOperationD0Ev_xf4:
    /*000000f4*/ LDR         R1, [R8, #12] 
    /*000000f8*/ MOV         R7, R8 
    /*000000fc*/ MOV         R0, R9 
    /*00000100*/ BL          _ZNSt8_Rb_treeIjSt4pairIKjNSt7__cxx114listIjSaIjEEEESt10_Select1stIS6_ESt4lessIjESaIS6_EE8_M_eraseEPSt13_Rb_tree_nodeIS6_E
    /*00000104*/ LDR         R0, [R7, #20]! 
    /*00000108*/ LDR         SL, [R8, #8] 
    /*0000010c*/ CMP         R0, R7 
    /*00000110*/ BEQ         _ZN4hirt18ConnectorOperationD0Ev_x128
    _ZN4hirt18ConnectorOperationD0Ev_x114:
    /*00000114*/ LDR         R4, [R0] 
    /*00000118*/ BL          _ZdlPv
    /*0000011c*/ CMP         R4, R7 
    /*00000120*/ MOV         R0, R4 
    /*00000124*/ BNE         _ZN4hirt18ConnectorOperationD0Ev_x114
    _ZN4hirt18ConnectorOperationD0Ev_x128:
    /*00000128*/ MOV         R0, R8 
    /*0000012c*/ BL          _ZdlPv
    /*00000130*/ SUBS        R8, SL, #0 
    /*00000134*/ BNE         _ZN4hirt18ConnectorOperationD0Ev_xf4
    _ZN4hirt18ConnectorOperationD0Ev_x138:
    /*00000138*/ LDR         R8, [R5, #312]              @ 0x138 
    /*0000013c*/ ADD         R9, R5, #304                @ 0x130 
    /*00000140*/ CMP         R8, #0 
    /*00000144*/ BEQ         _ZN4hirt18ConnectorOperationD0Ev_x18c
    _ZN4hirt18ConnectorOperationD0Ev_x148:
    /*00000148*/ LDR         R1, [R8, #12] 
    /*0000014c*/ MOV         R7, R8 
    /*00000150*/ MOV         R0, R9 
    /*00000154*/ BL          _ZNSt8_Rb_treeIjSt4pairIKjNSt7__cxx114listIjSaIjEEEESt10_Select1stIS6_ESt4lessIjESaIS6_EE8_M_eraseEPSt13_Rb_tree_nodeIS6_E
    /*00000158*/ LDR         R0, [R7, #20]! 
    /*0000015c*/ LDR         SL, [R8, #8] 
    /*00000160*/ CMP         R0, R7 
    /*00000164*/ BEQ         _ZN4hirt18ConnectorOperationD0Ev_x17c
    _ZN4hirt18ConnectorOperationD0Ev_x168:
    /*00000168*/ LDR         R4, [R0] 
    /*0000016c*/ BL          _ZdlPv
    /*00000170*/ CMP         R4, R7 
    /*00000174*/ MOV         R0, R4 
    /*00000178*/ BNE         _ZN4hirt18ConnectorOperationD0Ev_x168
    _ZN4hirt18ConnectorOperationD0Ev_x17c:
    /*0000017c*/ MOV         R0, R8 
    /*00000180*/ BL          _ZdlPv
    /*00000184*/ SUBS        R8, SL, #0 
    /*00000188*/ BNE         _ZN4hirt18ConnectorOperationD0Ev_x148
    _ZN4hirt18ConnectorOperationD0Ev_x18c:
    /*0000018c*/ LDR         R3, WORD_01d8               @ LDR         R3, [PC, #68]               @ 0x00000000000001d8 
    /*00000190*/ ADD         R2, R5, #160                @ 0xa0 
    /*00000194*/ LDR         R0, [R5, #152]              @ 0x98 
    /*00000198*/ LDR         R3, [R6, R3] 
    /*0000019c*/ CMP         R0, R2 
    /*000001a0*/ ADD         R3, R3, #8 
    /*000001a4*/ STR         R3, [R5] 
    /*000001a8*/ BEQ         _ZN4hirt18ConnectorOperationD0Ev_x1b0
    /*000001ac*/ BL          _ZdlPv
    _ZN4hirt18ConnectorOperationD0Ev_x1b0:
    /*000001b0*/ MOV         R0, R5 
    /*000001b4*/ BL          _ZN4hirt9OperationD2Ev
    /*000001b8*/ MOV         R0, R5 
    /*000001bc*/ MOV         R1, #400                    @ 0x190 
    /*000001c0*/ BL          _ZdlPvj
    /*000001c4*/ MOV         R0, R5 
    /*000001c8*/ POP         {R4, R5, R6, R7, R8, R9, SL, PC} 
    /*000001cc*/ WORD_01cc: .word 0x000001a4
    /*000001d0*/ WORD_01d0: .word 0x000001a4
    /*000001d4*/ WORD_01d4: .word 0x00000190
    /*000001d8*/ WORD_01d8: .word 0x00000000
FUNC_END _ZN4hirt18ConnectorOperationD0Ev


@ - - - - - - - - - - - - - - - - - - - - - - - - - - - - - 
@ .text._ZN21HIRT_CONNECTOR_INFO_SD2Ev
@ Size: 0x180
@ - - - - - - - - - - - - - - - - - - - - - - - - - - - - - 

FUNC_BEGIN _ZN21HIRT_CONNECTOR_INFO_SD2Ev
    /*00000000*/ MOV         IP, #16384                  @ 0x4000 
    /*00000004*/ PUSH        {R4, R5, R6, R7, R8, R9, SL, LR} 
    /*00000008*/ SUB         IP, SP, IP 
    /*0000000c*/ STR         R0, [IP, #4064]             @ 0xfe0 
    /*00000010*/ LDR         R3, WORD_017c               @ LDR         R3, [PC, #356]              @ 0x000000000000017c 
    /*00000014*/ MOV         R9, R0 
    /*00000018*/ LDR         R7, [R0, #196]              @ 0xc4 
    /*0000001c*/ MOV         R5, R0 
    /*00000020*/ ADD         R3, PC, R3 
    /*00000024*/ CMP         R7, #0 
    /*00000028*/ ADD         R3, R3, #8 
    /*0000002c*/ STR         R3, [R9], #188              @ 0xbc 
    /*00000030*/ BEQ         _ZN21HIRT_CONNECTOR_INFO_SD2Ev_x78
    _ZN21HIRT_CONNECTOR_INFO_SD2Ev_x34:
    /*00000034*/ LDR         R1, [R7, #12] 
    /*00000038*/ MOV         R6, R7 
    /*0000003c*/ MOV         R0, R9 
    /*00000040*/ BL          _ZNSt8_Rb_treeIjSt4pairIKjNSt7__cxx114listIjSaIjEEEESt10_Select1stIS6_ESt4lessIjESaIS6_EE8_M_eraseEPSt13_Rb_tree_nodeIS6_E
    /*00000044*/ LDR         R0, [R6, #20]! 
    /*00000048*/ LDR         R8, [R7, #8] 
    /*0000004c*/ CMP         R0, R6 
    /*00000050*/ BEQ         _ZN21HIRT_CONNECTOR_INFO_SD2Ev_x68
    _ZN21HIRT_CONNECTOR_INFO_SD2Ev_x54:
    /*00000054*/ LDR         R4, [R0] 
    /*00000058*/ BL          _ZdlPv
    /*0000005c*/ CMP         R4, R6 
    /*00000060*/ MOV         R0, R4 
    /*00000064*/ BNE         _ZN21HIRT_CONNECTOR_INFO_SD2Ev_x54
    _ZN21HIRT_CONNECTOR_INFO_SD2Ev_x68:
    /*00000068*/ MOV         R0, R7 
    /*0000006c*/ BL          _ZdlPv
    /*00000070*/ SUBS        R7, R8, #0 
    /*00000074*/ BNE         _ZN21HIRT_CONNECTOR_INFO_SD2Ev_x34
    _ZN21HIRT_CONNECTOR_INFO_SD2Ev_x78:
    /*00000078*/ LDR         R7, [R5, #172]              @ 0xac 
    /*0000007c*/ ADD         R9, R5, #164                @ 0xa4 
    /*00000080*/ CMP         R7, #0 
    /*00000084*/ BEQ         _ZN21HIRT_CONNECTOR_INFO_SD2Ev_xcc
    _ZN21HIRT_CONNECTOR_INFO_SD2Ev_x88:
    /*00000088*/ LDR         R1, [R7, #12] 
    /*0000008c*/ MOV         R6, R7 
    /*00000090*/ MOV         R0, R9 
    /*00000094*/ BL          _ZNSt8_Rb_treeIjSt4pairIKjNSt7__cxx114listIjSaIjEEEESt10_Select1stIS6_ESt4lessIjESaIS6_EE8_M_eraseEPSt13_Rb_tree_nodeIS6_E
    /*00000098*/ LDR         R0, [R6, #20]! 
    /*0000009c*/ LDR         R8, [R7, #8] 
    /*000000a0*/ CMP         R0, R6 
    /*000000a4*/ BEQ         _ZN21HIRT_CONNECTOR_INFO_SD2Ev_xbc
    _ZN21HIRT_CONNECTOR_INFO_SD2Ev_xa8:
    /*000000a8*/ LDR         R4, [R0] 
    /*000000ac*/ BL          _ZdlPv
    /*000000b0*/ CMP         R4, R6 
    /*000000b4*/ MOV         R0, R4 
    /*000000b8*/ BNE         _ZN21HIRT_CONNECTOR_INFO_SD2Ev_xa8
    _ZN21HIRT_CONNECTOR_INFO_SD2Ev_xbc:
    /*000000bc*/ MOV         R0, R7 
    /*000000c0*/ BL          _ZdlPv
    /*000000c4*/ SUBS        R7, R8, #0 
    /*000000c8*/ BNE         _ZN21HIRT_CONNECTOR_INFO_SD2Ev_x88
    _ZN21HIRT_CONNECTOR_INFO_SD2Ev_xcc:
    /*000000cc*/ LDR         R7, [R5, #148]              @ 0x94 
    /*000000d0*/ ADD         R9, R5, #140                @ 0x8c 
    /*000000d4*/ CMP         R7, #0 
    /*000000d8*/ BEQ         _ZN21HIRT_CONNECTOR_INFO_SD2Ev_x120
    _ZN21HIRT_CONNECTOR_INFO_SD2Ev_xdc:
    /*000000dc*/ LDR         R1, [R7, #12] 
    /*000000e0*/ MOV         R6, R7 
    /*000000e4*/ MOV         R0, R9 
    /*000000e8*/ BL          _ZNSt8_Rb_treeIjSt4pairIKjNSt7__cxx114listIjSaIjEEEESt10_Select1stIS6_ESt4lessIjESaIS6_EE8_M_eraseEPSt13_Rb_tree_nodeIS6_E
    /*000000ec*/ LDR         R0, [R6, #20]! 
    /*000000f0*/ LDR         R8, [R7, #8] 
    /*000000f4*/ CMP         R6, R0 
    /*000000f8*/ BEQ         _ZN21HIRT_CONNECTOR_INFO_SD2Ev_x110
    _ZN21HIRT_CONNECTOR_INFO_SD2Ev_xfc:
    /*000000fc*/ LDR         R4, [R0] 
    /*00000100*/ BL          _ZdlPv
    /*00000104*/ CMP         R6, R4 
    /*00000108*/ MOV         R0, R4 
    /*0000010c*/ BNE         _ZN21HIRT_CONNECTOR_INFO_SD2Ev_xfc
    _ZN21HIRT_CONNECTOR_INFO_SD2Ev_x110:
    /*00000110*/ MOV         R0, R7 
    /*00000114*/ BL          _ZdlPv
    /*00000118*/ SUBS        R7, R8, #0 
    /*0000011c*/ BNE         _ZN21HIRT_CONNECTOR_INFO_SD2Ev_xdc
    _ZN21HIRT_CONNECTOR_INFO_SD2Ev_x120:
    /*00000120*/ LDR         R7, [R5, #124]              @ 0x7c 
    /*00000124*/ ADD         R9, R5, #116                @ 0x74 
    /*00000128*/ CMP         R7, #0 
    /*0000012c*/ BEQ         _ZN21HIRT_CONNECTOR_INFO_SD2Ev_x174
    _ZN21HIRT_CONNECTOR_INFO_SD2Ev_x130:
    /*00000130*/ LDR         R1, [R7, #12] 
    /*00000134*/ MOV         R6, R7 
    /*00000138*/ MOV         R0, R9 
    /*0000013c*/ BL          _ZNSt8_Rb_treeIjSt4pairIKjNSt7__cxx114listIjSaIjEEEESt10_Select1stIS6_ESt4lessIjESaIS6_EE8_M_eraseEPSt13_Rb_tree_nodeIS6_E
    /*00000140*/ LDR         R0, [R6, #20]! 
    /*00000144*/ LDR         R8, [R7, #8] 
    /*00000148*/ CMP         R0, R6 
    /*0000014c*/ BEQ         _ZN21HIRT_CONNECTOR_INFO_SD2Ev_x164
    _ZN21HIRT_CONNECTOR_INFO_SD2Ev_x150:
    /*00000150*/ LDR         R4, [R0] 
    /*00000154*/ BL          _ZdlPv
    /*00000158*/ CMP         R4, R6 
    /*0000015c*/ MOV         R0, R4 
    /*00000160*/ BNE         _ZN21HIRT_CONNECTOR_INFO_SD2Ev_x150
    _ZN21HIRT_CONNECTOR_INFO_SD2Ev_x164:
    /*00000164*/ MOV         R0, R7 
    /*00000168*/ BL          _ZdlPv
    /*0000016c*/ SUBS        R7, R8, #0 
    /*00000170*/ BNE         _ZN21HIRT_CONNECTOR_INFO_SD2Ev_x130
    _ZN21HIRT_CONNECTOR_INFO_SD2Ev_x174:
    /*00000174*/ MOV         R0, R5 
    /*00000178*/ POP         {R4, R5, R6, R7, R8, R9, SL, PC} 
    /*0000017c*/ WORD_017c: .word 0x00000154
FUNC_END _ZN21HIRT_CONNECTOR_INFO_SD2Ev


FUNC_BEGIN _ZN21HIRT_CONNECTOR_INFO_SD1Ev
    /*00000000*/ MOV         IP, #16384                  @ 0x4000 
    /*00000004*/ PUSH        {R4, R5, R6, R7, R8, R9, SL, LR} 
    /*00000008*/ SUB         IP, SP, IP 
    /*0000000c*/ STR         R0, [IP, #4064]             @ 0xfe0 
    /*00000010*/ LDR         R3, WORD_017c               @ LDR         R3, [PC, #356]              @ 0x000000000000017c 
    /*00000014*/ MOV         R9, R0 
    /*00000018*/ LDR         R7, [R0, #196]              @ 0xc4 
    /*0000001c*/ MOV         R5, R0 
    /*00000020*/ ADD         R3, PC, R3 
    /*00000024*/ CMP         R7, #0 
    /*00000028*/ ADD         R3, R3, #8 
    /*0000002c*/ STR         R3, [R9], #188              @ 0xbc 
    /*00000030*/ BEQ         _ZN21HIRT_CONNECTOR_INFO_SD1Ev_x78
    _ZN21HIRT_CONNECTOR_INFO_SD1Ev_x34:
    /*00000034*/ LDR         R1, [R7, #12] 
    /*00000038*/ MOV         R6, R7 
    /*0000003c*/ MOV         R0, R9 
    /*00000040*/ BL          _ZNSt8_Rb_treeIjSt4pairIKjNSt7__cxx114listIjSaIjEEEESt10_Select1stIS6_ESt4lessIjESaIS6_EE8_M_eraseEPSt13_Rb_tree_nodeIS6_E
    /*00000044*/ LDR         R0, [R6, #20]! 
    /*00000048*/ LDR         R8, [R7, #8] 
    /*0000004c*/ CMP         R0, R6 
    /*00000050*/ BEQ         _ZN21HIRT_CONNECTOR_INFO_SD1Ev_x68
    _ZN21HIRT_CONNECTOR_INFO_SD1Ev_x54:
    /*00000054*/ LDR         R4, [R0] 
    /*00000058*/ BL          _ZdlPv
    /*0000005c*/ CMP         R4, R6 
    /*00000060*/ MOV         R0, R4 
    /*00000064*/ BNE         _ZN21HIRT_CONNECTOR_INFO_SD1Ev_x54
    _ZN21HIRT_CONNECTOR_INFO_SD1Ev_x68:
    /*00000068*/ MOV         R0, R7 
    /*0000006c*/ BL          _ZdlPv
    /*00000070*/ SUBS        R7, R8, #0 
    /*00000074*/ BNE         _ZN21HIRT_CONNECTOR_INFO_SD1Ev_x34
    _ZN21HIRT_CONNECTOR_INFO_SD1Ev_x78:
    /*00000078*/ LDR         R7, [R5, #172]              @ 0xac 
    /*0000007c*/ ADD         R9, R5, #164                @ 0xa4 
    /*00000080*/ CMP         R7, #0 
    /*00000084*/ BEQ         _ZN21HIRT_CONNECTOR_INFO_SD1Ev_xcc
    _ZN21HIRT_CONNECTOR_INFO_SD1Ev_x88:
    /*00000088*/ LDR         R1, [R7, #12] 
    /*0000008c*/ MOV         R6, R7 
    /*00000090*/ MOV         R0, R9 
    /*00000094*/ BL          _ZNSt8_Rb_treeIjSt4pairIKjNSt7__cxx114listIjSaIjEEEESt10_Select1stIS6_ESt4lessIjESaIS6_EE8_M_eraseEPSt13_Rb_tree_nodeIS6_E
    /*00000098*/ LDR         R0, [R6, #20]! 
    /*0000009c*/ LDR         R8, [R7, #8] 
    /*000000a0*/ CMP         R0, R6 
    /*000000a4*/ BEQ         _ZN21HIRT_CONNECTOR_INFO_SD1Ev_xbc
    _ZN21HIRT_CONNECTOR_INFO_SD1Ev_xa8:
    /*000000a8*/ LDR         R4, [R0] 
    /*000000ac*/ BL          _ZdlPv
    /*000000b0*/ CMP         R4, R6 
    /*000000b4*/ MOV         R0, R4 
    /*000000b8*/ BNE         _ZN21HIRT_CONNECTOR_INFO_SD1Ev_xa8
    _ZN21HIRT_CONNECTOR_INFO_SD1Ev_xbc:
    /*000000bc*/ MOV         R0, R7 
    /*000000c0*/ BL          _ZdlPv
    /*000000c4*/ SUBS        R7, R8, #0 
    /*000000c8*/ BNE         _ZN21HIRT_CONNECTOR_INFO_SD1Ev_x88
    _ZN21HIRT_CONNECTOR_INFO_SD1Ev_xcc:
    /*000000cc*/ LDR         R7, [R5, #148]              @ 0x94 
    /*000000d0*/ ADD         R9, R5, #140                @ 0x8c 
    /*000000d4*/ CMP         R7, #0 
    /*000000d8*/ BEQ         _ZN21HIRT_CONNECTOR_INFO_SD1Ev_x120
    _ZN21HIRT_CONNECTOR_INFO_SD1Ev_xdc:
    /*000000dc*/ LDR         R1, [R7, #12] 
    /*000000e0*/ MOV         R6, R7 
    /*000000e4*/ MOV         R0, R9 
    /*000000e8*/ BL          _ZNSt8_Rb_treeIjSt4pairIKjNSt7__cxx114listIjSaIjEEEESt10_Select1stIS6_ESt4lessIjESaIS6_EE8_M_eraseEPSt13_Rb_tree_nodeIS6_E
    /*000000ec*/ LDR         R0, [R6, #20]! 
    /*000000f0*/ LDR         R8, [R7, #8] 
    /*000000f4*/ CMP         R6, R0 
    /*000000f8*/ BEQ         _ZN21HIRT_CONNECTOR_INFO_SD1Ev_x110
    _ZN21HIRT_CONNECTOR_INFO_SD1Ev_xfc:
    /*000000fc*/ LDR         R4, [R0] 
    /*00000100*/ BL          _ZdlPv
    /*00000104*/ CMP         R6, R4 
    /*00000108*/ MOV         R0, R4 
    /*0000010c*/ BNE         _ZN21HIRT_CONNECTOR_INFO_SD1Ev_xfc
    _ZN21HIRT_CONNECTOR_INFO_SD1Ev_x110:
    /*00000110*/ MOV         R0, R7 
    /*00000114*/ BL          _ZdlPv
    /*00000118*/ SUBS        R7, R8, #0 
    /*0000011c*/ BNE         _ZN21HIRT_CONNECTOR_INFO_SD1Ev_xdc
    _ZN21HIRT_CONNECTOR_INFO_SD1Ev_x120:
    /*00000120*/ LDR         R7, [R5, #124]              @ 0x7c 
    /*00000124*/ ADD         R9, R5, #116                @ 0x74 
    /*00000128*/ CMP         R7, #0 
    /*0000012c*/ BEQ         _ZN21HIRT_CONNECTOR_INFO_SD1Ev_x174
    _ZN21HIRT_CONNECTOR_INFO_SD1Ev_x130:
    /*00000130*/ LDR         R1, [R7, #12] 
    /*00000134*/ MOV         R6, R7 
    /*00000138*/ MOV         R0, R9 
    /*0000013c*/ BL          _ZNSt8_Rb_treeIjSt4pairIKjNSt7__cxx114listIjSaIjEEEESt10_Select1stIS6_ESt4lessIjESaIS6_EE8_M_eraseEPSt13_Rb_tree_nodeIS6_E
    /*00000140*/ LDR         R0, [R6, #20]! 
    /*00000144*/ LDR         R8, [R7, #8] 
    /*00000148*/ CMP         R0, R6 
    /*0000014c*/ BEQ         _ZN21HIRT_CONNECTOR_INFO_SD1Ev_x164
    _ZN21HIRT_CONNECTOR_INFO_SD1Ev_x150:
    /*00000150*/ LDR         R4, [R0] 
    /*00000154*/ BL          _ZdlPv
    /*00000158*/ CMP         R4, R6 
    /*0000015c*/ MOV         R0, R4 
    /*00000160*/ BNE         _ZN21HIRT_CONNECTOR_INFO_SD1Ev_x150
    _ZN21HIRT_CONNECTOR_INFO_SD1Ev_x164:
    /*00000164*/ MOV         R0, R7 
    /*00000168*/ BL          _ZdlPv
    /*0000016c*/ SUBS        R7, R8, #0 
    /*00000170*/ BNE         _ZN21HIRT_CONNECTOR_INFO_SD1Ev_x130
    _ZN21HIRT_CONNECTOR_INFO_SD1Ev_x174:
    /*00000174*/ MOV         R0, R5 
    /*00000178*/ POP         {R4, R5, R6, R7, R8, R9, SL, PC} 
    /*0000017c*/ WORD_017c: .word 0x00000154
FUNC_END _ZN21HIRT_CONNECTOR_INFO_SD1Ev


@ - - - - - - - - - - - - - - - - - - - - - - - - - - - - - 
@ .text._ZNSt6vectorIPN4hirt7OperandESaIS2_EE19_M_emplace_back_auxIJRKS2_EEEvDpOT_
@ Size: 0xd4
@ - - - - - - - - - - - - - - - - - - - - - - - - - - - - - 

FUNC_BEGIN _ZNSt6vectorIPN4hirt7OperandESaIS2_EE19_M_emplace_back_auxIJRKS2_EEEvDpOT_
    /*00000000*/ MOV         IP, #16384                  @ 0x4000 
    /*00000004*/ PUSH        {R4, R5, R6, R7, R8, R9, SL, LR} 
    /*00000008*/ SUB         IP, SP, IP 
    /*0000000c*/ STR         R0, [IP, #4064]             @ 0xfe0 
    /*00000010*/ LDM         R0, {R2, R3} 
    /*00000014*/ MOV         R6, R0 
    /*00000018*/ MOV         R9, R1 
    /*0000001c*/ SUB         R3, R3, R2 
    /*00000020*/ ASRS        R3, R3, #2 
    /*00000024*/ BEQ         _ZNSt6vectorIPN4hirt7OperandESaIS2_EE19_M_emplace_back_auxIJRKS2_EEEvDpOT__x3c
    /*00000028*/ LSL         R5, R3, #1 
    /*0000002c*/ CMP         R3, R5 
    /*00000030*/ BLS         _ZNSt6vectorIPN4hirt7OperandESaIS2_EE19_M_emplace_back_auxIJRKS2_EEEvDpOT__xb8
    _ZNSt6vectorIPN4hirt7OperandESaIS2_EE19_M_emplace_back_auxIJRKS2_EEEvDpOT__x34:
    /*00000034*/ MVN         R5, #3 
    /*00000038*/ B           _ZNSt6vectorIPN4hirt7OperandESaIS2_EE19_M_emplace_back_auxIJRKS2_EEEvDpOT__x40
    _ZNSt6vectorIPN4hirt7OperandESaIS2_EE19_M_emplace_back_auxIJRKS2_EEEvDpOT__x3c:
    /*0000003c*/ MOV         R5, #4 
    _ZNSt6vectorIPN4hirt7OperandESaIS2_EE19_M_emplace_back_auxIJRKS2_EEEvDpOT__x40:
    /*00000040*/ MOV         R0, R5 
    /*00000044*/ BL          _Znwj
    /*00000048*/ MOV         R7, R0 
    _ZNSt6vectorIPN4hirt7OperandESaIS2_EE19_M_emplace_back_auxIJRKS2_EEEvDpOT__x4c:
    /*0000004c*/ LDR         R8, [R6] 
    /*00000050*/ LDR         R4, [R6, #4] 
    /*00000054*/ LDR         R2, [R9] 
    /*00000058*/ SUB         R4, R4, R8 
    /*0000005c*/ CMN         R7, R4 
    /*00000060*/ ASR         R3, R4, #2 
    /*00000064*/ STRNE       R2, [R7, R4] 
    /*00000068*/ CMP         R3, #0 
    /*0000006c*/ BNE         _ZNSt6vectorIPN4hirt7OperandESaIS2_EE19_M_emplace_back_auxIJRKS2_EEEvDpOT__x9c
    /*00000070*/ CMP         R8, #0 
    /*00000074*/ ADD         R4, R4, #4 
    /*00000078*/ ADD         R4, R7, R4 
    /*0000007c*/ BEQ         _ZNSt6vectorIPN4hirt7OperandESaIS2_EE19_M_emplace_back_auxIJRKS2_EEEvDpOT__x88
    _ZNSt6vectorIPN4hirt7OperandESaIS2_EE19_M_emplace_back_auxIJRKS2_EEEvDpOT__x80:
    /*00000080*/ MOV         R0, R8 
    /*00000084*/ BL          _ZdlPv
    _ZNSt6vectorIPN4hirt7OperandESaIS2_EE19_M_emplace_back_auxIJRKS2_EEEvDpOT__x88:
    /*00000088*/ ADD         R5, R7, R5 
    /*0000008c*/ STR         R5, [R6, #8] 
    /*00000090*/ STR         R7, [R6] 
    /*00000094*/ STR         R4, [R6, #4] 
    /*00000098*/ POP         {R4, R5, R6, R7, R8, R9, SL, PC} 
    _ZNSt6vectorIPN4hirt7OperandESaIS2_EE19_M_emplace_back_auxIJRKS2_EEEvDpOT__x9c:
    /*0000009c*/ MOV         R2, R4 
    /*000000a0*/ MOV         R1, R8 
    /*000000a4*/ MOV         R0, R7 
    /*000000a8*/ ADD         R4, R4, #4 
    /*000000ac*/ ADD         R4, R7, R4 
    /*000000b0*/ BL          memmove
    /*000000b4*/ B           _ZNSt6vectorIPN4hirt7OperandESaIS2_EE19_M_emplace_back_auxIJRKS2_EEEvDpOT__x80
    _ZNSt6vectorIPN4hirt7OperandESaIS2_EE19_M_emplace_back_auxIJRKS2_EEEvDpOT__xb8:
    /*000000b8*/ CMN         R5, #-1073741823            @ 0xc0000001 
    /*000000bc*/ BHI         _ZNSt6vectorIPN4hirt7OperandESaIS2_EE19_M_emplace_back_auxIJRKS2_EEEvDpOT__x34
    /*000000c0*/ CMP         R5, #0 
    /*000000c4*/ LSLNE       R5, R3, #3 
    /*000000c8*/ BNE         _ZNSt6vectorIPN4hirt7OperandESaIS2_EE19_M_emplace_back_auxIJRKS2_EEEvDpOT__x40
    /*000000cc*/ MOV         R7, R5 
    /*000000d0*/ B           _ZNSt6vectorIPN4hirt7OperandESaIS2_EE19_M_emplace_back_auxIJRKS2_EEEvDpOT__x4c
FUNC_END _ZNSt6vectorIPN4hirt7OperandESaIS2_EE19_M_emplace_back_auxIJRKS2_EEEvDpOT_


@ - - - - - - - - - - - - - - - - - - - - - - - - - - - - - 
@ .text._ZNSt6vectorIPN4hirt9OperationESaIS2_EE19_M_emplace_back_auxIJRKS2_EEEvDpOT_
@ Size: 0xd4
@ - - - - - - - - - - - - - - - - - - - - - - - - - - - - - 

FUNC_BEGIN _ZNSt6vectorIPN4hirt9OperationESaIS2_EE19_M_emplace_back_auxIJRKS2_EEEvDpOT_
    /*00000000*/ MOV         IP, #16384                  @ 0x4000 
    /*00000004*/ PUSH        {R4, R5, R6, R7, R8, R9, SL, LR} 
    /*00000008*/ SUB         IP, SP, IP 
    /*0000000c*/ STR         R0, [IP, #4064]             @ 0xfe0 
    /*00000010*/ LDM         R0, {R2, R3} 
    /*00000014*/ MOV         R6, R0 
    /*00000018*/ MOV         R9, R1 
    /*0000001c*/ SUB         R3, R3, R2 
    /*00000020*/ ASRS        R3, R3, #2 
    /*00000024*/ BEQ         _ZNSt6vectorIPN4hirt9OperationESaIS2_EE19_M_emplace_back_auxIJRKS2_EEEvDpOT__x3c
    /*00000028*/ LSL         R5, R3, #1 
    /*0000002c*/ CMP         R3, R5 
    /*00000030*/ BLS         _ZNSt6vectorIPN4hirt9OperationESaIS2_EE19_M_emplace_back_auxIJRKS2_EEEvDpOT__xb8
    _ZNSt6vectorIPN4hirt9OperationESaIS2_EE19_M_emplace_back_auxIJRKS2_EEEvDpOT__x34:
    /*00000034*/ MVN         R5, #3 
    /*00000038*/ B           _ZNSt6vectorIPN4hirt9OperationESaIS2_EE19_M_emplace_back_auxIJRKS2_EEEvDpOT__x40
    _ZNSt6vectorIPN4hirt9OperationESaIS2_EE19_M_emplace_back_auxIJRKS2_EEEvDpOT__x3c:
    /*0000003c*/ MOV         R5, #4 
    _ZNSt6vectorIPN4hirt9OperationESaIS2_EE19_M_emplace_back_auxIJRKS2_EEEvDpOT__x40:
    /*00000040*/ MOV         R0, R5 
    /*00000044*/ BL          _Znwj
    /*00000048*/ MOV         R7, R0 
    _ZNSt6vectorIPN4hirt9OperationESaIS2_EE19_M_emplace_back_auxIJRKS2_EEEvDpOT__x4c:
    /*0000004c*/ LDR         R8, [R6] 
    /*00000050*/ LDR         R4, [R6, #4] 
    /*00000054*/ LDR         R2, [R9] 
    /*00000058*/ SUB         R4, R4, R8 
    /*0000005c*/ CMN         R7, R4 
    /*00000060*/ ASR         R3, R4, #2 
    /*00000064*/ STRNE       R2, [R7, R4] 
    /*00000068*/ CMP         R3, #0 
    /*0000006c*/ BNE         _ZNSt6vectorIPN4hirt9OperationESaIS2_EE19_M_emplace_back_auxIJRKS2_EEEvDpOT__x9c
    /*00000070*/ CMP         R8, #0 
    /*00000074*/ ADD         R4, R4, #4 
    /*00000078*/ ADD         R4, R7, R4 
    /*0000007c*/ BEQ         _ZNSt6vectorIPN4hirt9OperationESaIS2_EE19_M_emplace_back_auxIJRKS2_EEEvDpOT__x88
    _ZNSt6vectorIPN4hirt9OperationESaIS2_EE19_M_emplace_back_auxIJRKS2_EEEvDpOT__x80:
    /*00000080*/ MOV         R0, R8 
    /*00000084*/ BL          _ZdlPv
    _ZNSt6vectorIPN4hirt9OperationESaIS2_EE19_M_emplace_back_auxIJRKS2_EEEvDpOT__x88:
    /*00000088*/ ADD         R5, R7, R5 
    /*0000008c*/ STR         R5, [R6, #8] 
    /*00000090*/ STR         R7, [R6] 
    /*00000094*/ STR         R4, [R6, #4] 
    /*00000098*/ POP         {R4, R5, R6, R7, R8, R9, SL, PC} 
    _ZNSt6vectorIPN4hirt9OperationESaIS2_EE19_M_emplace_back_auxIJRKS2_EEEvDpOT__x9c:
    /*0000009c*/ MOV         R2, R4 
    /*000000a0*/ MOV         R1, R8 
    /*000000a4*/ MOV         R0, R7 
    /*000000a8*/ ADD         R4, R4, #4 
    /*000000ac*/ ADD         R4, R7, R4 
    /*000000b0*/ BL          memmove
    /*000000b4*/ B           _ZNSt6vectorIPN4hirt9OperationESaIS2_EE19_M_emplace_back_auxIJRKS2_EEEvDpOT__x80
    _ZNSt6vectorIPN4hirt9OperationESaIS2_EE19_M_emplace_back_auxIJRKS2_EEEvDpOT__xb8:
    /*000000b8*/ CMN         R5, #-1073741823            @ 0xc0000001 
    /*000000bc*/ BHI         _ZNSt6vectorIPN4hirt9OperationESaIS2_EE19_M_emplace_back_auxIJRKS2_EEEvDpOT__x34
    /*000000c0*/ CMP         R5, #0 
    /*000000c4*/ LSLNE       R5, R3, #3 
    /*000000c8*/ BNE         _ZNSt6vectorIPN4hirt9OperationESaIS2_EE19_M_emplace_back_auxIJRKS2_EEEvDpOT__x40
    /*000000cc*/ MOV         R7, R5 
    /*000000d0*/ B           _ZNSt6vectorIPN4hirt9OperationESaIS2_EE19_M_emplace_back_auxIJRKS2_EEEvDpOT__x4c
FUNC_END _ZNSt6vectorIPN4hirt9OperationESaIS2_EE19_M_emplace_back_auxIJRKS2_EEEvDpOT_


@ - - - - - - - - - - - - - - - - - - - - - - - - - - - - - 
@ .text._ZNSt8_Rb_treeIP22hiRUNTIME_GROUP_BLOB_SSt4pairIKS1_7HI_BOOLESt10_Select1stIS5_ESt4lessIS1_ESaIS5_EE8_M_eraseEPSt13_Rb_tree_nodeIS5_E
@ Size: 0x178
@ - - - - - - - - - - - - - - - - - - - - - - - - - - - - - 

FUNC_BEGIN _ZNSt8_Rb_treeIP22hiRUNTIME_GROUP_BLOB_SSt4pairIKS1_7HI_BOOLESt10_Select1stIS5_ESt4lessIS1_ESaIS5_EE8_M_eraseEPSt13_Rb_tree_nodeIS5_E
    /*00000000*/ MOV         IP, #16384                  @ 0x4000 
    /*00000004*/ PUSH        {R4, R5, R6, R7, R8, R9, SL, FP, LR} 
    /*00000008*/ SUB         IP, SP, IP 
    /*0000000c*/ STR         R0, [IP, #4040]             @ 0xfc8 
    /*00000010*/ SUB         SP, SP, #20 
    /*00000014*/ SUBS        R3, R1, #0 
    /*00000018*/ STR         R3, [SP, #12] 
    /*0000001c*/ BEQ         _ZNSt8_Rb_treeIP22hiRUNTIME_GROUP_BLOB_SSt4pairIKS1_7HI_BOOLESt10_Select1stIS5_ESt4lessIS1_ESaIS5_EE8_M_eraseEPSt13_Rb_tree_nodeIS5_E_x170
    /*00000020*/ MOV         R4, R0 
    _ZNSt8_Rb_treeIP22hiRUNTIME_GROUP_BLOB_SSt4pairIKS1_7HI_BOOLESt10_Select1stIS5_ESt4lessIS1_ESaIS5_EE8_M_eraseEPSt13_Rb_tree_nodeIS5_E_x24:
    /*00000024*/ LDR         R7, [R3, #12] 
    /*00000028*/ CMP         R7, #0 
    /*0000002c*/ STRNE       R7, [SP, #4] 
    /*00000030*/ MOVNE       R3, R7 
    /*00000034*/ BEQ         _ZNSt8_Rb_treeIP22hiRUNTIME_GROUP_BLOB_SSt4pairIKS1_7HI_BOOLESt10_Select1stIS5_ESt4lessIS1_ESaIS5_EE8_M_eraseEPSt13_Rb_tree_nodeIS5_E_x158
    _ZNSt8_Rb_treeIP22hiRUNTIME_GROUP_BLOB_SSt4pairIKS1_7HI_BOOLESt10_Select1stIS5_ESt4lessIS1_ESaIS5_EE8_M_eraseEPSt13_Rb_tree_nodeIS5_E_x38:
    /*00000038*/ LDR         R8, [R3, #12] 
    /*0000003c*/ CMP         R8, #0 
    /*00000040*/ STRNE       R8, [SP, #8] 
    /*00000044*/ MOVNE       R3, R8 
    /*00000048*/ BEQ         _ZNSt8_Rb_treeIP22hiRUNTIME_GROUP_BLOB_SSt4pairIKS1_7HI_BOOLESt10_Select1stIS5_ESt4lessIS1_ESaIS5_EE8_M_eraseEPSt13_Rb_tree_nodeIS5_E_x13c
    _ZNSt8_Rb_treeIP22hiRUNTIME_GROUP_BLOB_SSt4pairIKS1_7HI_BOOLESt10_Select1stIS5_ESt4lessIS1_ESaIS5_EE8_M_eraseEPSt13_Rb_tree_nodeIS5_E_x4c:
    /*0000004c*/ LDR         R9, [R3, #12] 
    /*00000050*/ CMP         R9, #0 
    /*00000054*/ BEQ         _ZNSt8_Rb_treeIP22hiRUNTIME_GROUP_BLOB_SSt4pairIKS1_7HI_BOOLESt10_Select1stIS5_ESt4lessIS1_ESaIS5_EE8_M_eraseEPSt13_Rb_tree_nodeIS5_E_x120
    _ZNSt8_Rb_treeIP22hiRUNTIME_GROUP_BLOB_SSt4pairIKS1_7HI_BOOLESt10_Select1stIS5_ESt4lessIS1_ESaIS5_EE8_M_eraseEPSt13_Rb_tree_nodeIS5_E_x58:
    /*00000058*/ LDR         SL, [R9, #12] 
    /*0000005c*/ CMP         SL, #0 
    /*00000060*/ BEQ         _ZNSt8_Rb_treeIP22hiRUNTIME_GROUP_BLOB_SSt4pairIKS1_7HI_BOOLESt10_Select1stIS5_ESt4lessIS1_ESaIS5_EE8_M_eraseEPSt13_Rb_tree_nodeIS5_E_x108
    _ZNSt8_Rb_treeIP22hiRUNTIME_GROUP_BLOB_SSt4pairIKS1_7HI_BOOLESt10_Select1stIS5_ESt4lessIS1_ESaIS5_EE8_M_eraseEPSt13_Rb_tree_nodeIS5_E_x64:
    /*00000064*/ LDR         FP, [SL, #12] 
    /*00000068*/ CMP         FP, #0 
    /*0000006c*/ BEQ         _ZNSt8_Rb_treeIP22hiRUNTIME_GROUP_BLOB_SSt4pairIKS1_7HI_BOOLESt10_Select1stIS5_ESt4lessIS1_ESaIS5_EE8_M_eraseEPSt13_Rb_tree_nodeIS5_E_xf4
    _ZNSt8_Rb_treeIP22hiRUNTIME_GROUP_BLOB_SSt4pairIKS1_7HI_BOOLESt10_Select1stIS5_ESt4lessIS1_ESaIS5_EE8_M_eraseEPSt13_Rb_tree_nodeIS5_E_x70:
    /*00000070*/ LDR         R6, [FP, #12] 
    /*00000074*/ CMP         R6, #0 
    /*00000078*/ BEQ         _ZNSt8_Rb_treeIP22hiRUNTIME_GROUP_BLOB_SSt4pairIKS1_7HI_BOOLESt10_Select1stIS5_ESt4lessIS1_ESaIS5_EE8_M_eraseEPSt13_Rb_tree_nodeIS5_E_xe0
    _ZNSt8_Rb_treeIP22hiRUNTIME_GROUP_BLOB_SSt4pairIKS1_7HI_BOOLESt10_Select1stIS5_ESt4lessIS1_ESaIS5_EE8_M_eraseEPSt13_Rb_tree_nodeIS5_E_x7c:
    /*0000007c*/ LDR         R5, [R6, #12] 
    /*00000080*/ CMP         R5, #0 
    /*00000084*/ BEQ         _ZNSt8_Rb_treeIP22hiRUNTIME_GROUP_BLOB_SSt4pairIKS1_7HI_BOOLESt10_Select1stIS5_ESt4lessIS1_ESaIS5_EE8_M_eraseEPSt13_Rb_tree_nodeIS5_E_xcc
    _ZNSt8_Rb_treeIP22hiRUNTIME_GROUP_BLOB_SSt4pairIKS1_7HI_BOOLESt10_Select1stIS5_ESt4lessIS1_ESaIS5_EE8_M_eraseEPSt13_Rb_tree_nodeIS5_E_x88:
    /*00000088*/ LDR         R3, [R5, #12] 
    /*0000008c*/ CMP         R3, #0 
    /*00000090*/ MOVNE       R7, R3 
    /*00000094*/ BEQ         _ZNSt8_Rb_treeIP22hiRUNTIME_GROUP_BLOB_SSt4pairIKS1_7HI_BOOLESt10_Select1stIS5_ESt4lessIS1_ESaIS5_EE8_M_eraseEPSt13_Rb_tree_nodeIS5_E_xb8
    _ZNSt8_Rb_treeIP22hiRUNTIME_GROUP_BLOB_SSt4pairIKS1_7HI_BOOLESt10_Select1stIS5_ESt4lessIS1_ESaIS5_EE8_M_eraseEPSt13_Rb_tree_nodeIS5_E_x98:
    /*00000098*/ LDR         R1, [R7, #12] 
    /*0000009c*/ MOV         R0, R4 
    /*000000a0*/ BL          _ZNSt8_Rb_treeIP22hiRUNTIME_GROUP_BLOB_SSt4pairIKS1_7HI_BOOLESt10_Select1stIS5_ESt4lessIS1_ESaIS5_EE8_M_eraseEPSt13_Rb_tree_nodeIS5_E
    /*000000a4*/ LDR         R8, [R7, #8] 
    /*000000a8*/ MOV         R0, R7 
    /*000000ac*/ BL          _ZdlPv
    /*000000b0*/ SUBS        R7, R8, #0 
    /*000000b4*/ BNE         _ZNSt8_Rb_treeIP22hiRUNTIME_GROUP_BLOB_SSt4pairIKS1_7HI_BOOLESt10_Select1stIS5_ESt4lessIS1_ESaIS5_EE8_M_eraseEPSt13_Rb_tree_nodeIS5_E_x98
    _ZNSt8_Rb_treeIP22hiRUNTIME_GROUP_BLOB_SSt4pairIKS1_7HI_BOOLESt10_Select1stIS5_ESt4lessIS1_ESaIS5_EE8_M_eraseEPSt13_Rb_tree_nodeIS5_E_xb8:
    /*000000b8*/ LDR         R7, [R5, #8] 
    /*000000bc*/ MOV         R0, R5 
    /*000000c0*/ BL          _ZdlPv
    /*000000c4*/ SUBS        R5, R7, #0 
    /*000000c8*/ BNE         _ZNSt8_Rb_treeIP22hiRUNTIME_GROUP_BLOB_SSt4pairIKS1_7HI_BOOLESt10_Select1stIS5_ESt4lessIS1_ESaIS5_EE8_M_eraseEPSt13_Rb_tree_nodeIS5_E_x88
    _ZNSt8_Rb_treeIP22hiRUNTIME_GROUP_BLOB_SSt4pairIKS1_7HI_BOOLESt10_Select1stIS5_ESt4lessIS1_ESaIS5_EE8_M_eraseEPSt13_Rb_tree_nodeIS5_E_xcc:
    /*000000cc*/ LDR         R5, [R6, #8] 
    /*000000d0*/ MOV         R0, R6 
    /*000000d4*/ BL          _ZdlPv
    /*000000d8*/ SUBS        R6, R5, #0 
    /*000000dc*/ BNE         _ZNSt8_Rb_treeIP22hiRUNTIME_GROUP_BLOB_SSt4pairIKS1_7HI_BOOLESt10_Select1stIS5_ESt4lessIS1_ESaIS5_EE8_M_eraseEPSt13_Rb_tree_nodeIS5_E_x7c
    _ZNSt8_Rb_treeIP22hiRUNTIME_GROUP_BLOB_SSt4pairIKS1_7HI_BOOLESt10_Select1stIS5_ESt4lessIS1_ESaIS5_EE8_M_eraseEPSt13_Rb_tree_nodeIS5_E_xe0:
    /*000000e0*/ LDR         R5, [FP, #8] 
    /*000000e4*/ MOV         R0, FP 
    /*000000e8*/ BL          _ZdlPv
    /*000000ec*/ SUBS        FP, R5, #0 
    /*000000f0*/ BNE         _ZNSt8_Rb_treeIP22hiRUNTIME_GROUP_BLOB_SSt4pairIKS1_7HI_BOOLESt10_Select1stIS5_ESt4lessIS1_ESaIS5_EE8_M_eraseEPSt13_Rb_tree_nodeIS5_E_x70
    _ZNSt8_Rb_treeIP22hiRUNTIME_GROUP_BLOB_SSt4pairIKS1_7HI_BOOLESt10_Select1stIS5_ESt4lessIS1_ESaIS5_EE8_M_eraseEPSt13_Rb_tree_nodeIS5_E_xf4:
    /*000000f4*/ LDR         R5, [SL, #8] 
    /*000000f8*/ MOV         R0, SL 
    /*000000fc*/ BL          _ZdlPv
    /*00000100*/ SUBS        SL, R5, #0 
    /*00000104*/ BNE         _ZNSt8_Rb_treeIP22hiRUNTIME_GROUP_BLOB_SSt4pairIKS1_7HI_BOOLESt10_Select1stIS5_ESt4lessIS1_ESaIS5_EE8_M_eraseEPSt13_Rb_tree_nodeIS5_E_x64
    _ZNSt8_Rb_treeIP22hiRUNTIME_GROUP_BLOB_SSt4pairIKS1_7HI_BOOLESt10_Select1stIS5_ESt4lessIS1_ESaIS5_EE8_M_eraseEPSt13_Rb_tree_nodeIS5_E_x108:
    /*00000108*/ LDR         R5, [R9, #8] 
    /*0000010c*/ MOV         R0, R9 
    /*00000110*/ BL          _ZdlPv
    /*00000114*/ SUBS        R9, R5, #0 
    /*00000118*/ BNE         _ZNSt8_Rb_treeIP22hiRUNTIME_GROUP_BLOB_SSt4pairIKS1_7HI_BOOLESt10_Select1stIS5_ESt4lessIS1_ESaIS5_EE8_M_eraseEPSt13_Rb_tree_nodeIS5_E_x58
    /*0000011c*/ LDR         R3, [SP, #8] 
    _ZNSt8_Rb_treeIP22hiRUNTIME_GROUP_BLOB_SSt4pairIKS1_7HI_BOOLESt10_Select1stIS5_ESt4lessIS1_ESaIS5_EE8_M_eraseEPSt13_Rb_tree_nodeIS5_E_x120:
    /*00000120*/ LDR         R5, [R3, #8] 
    /*00000124*/ MOV         R0, R3 
    /*00000128*/ BL          _ZdlPv
    /*0000012c*/ SUBS        R3, R5, #0 
    /*00000130*/ STR         R3, [SP, #8] 
    /*00000134*/ BNE         _ZNSt8_Rb_treeIP22hiRUNTIME_GROUP_BLOB_SSt4pairIKS1_7HI_BOOLESt10_Select1stIS5_ESt4lessIS1_ESaIS5_EE8_M_eraseEPSt13_Rb_tree_nodeIS5_E_x4c
    /*00000138*/ LDR         R3, [SP, #4] 
    _ZNSt8_Rb_treeIP22hiRUNTIME_GROUP_BLOB_SSt4pairIKS1_7HI_BOOLESt10_Select1stIS5_ESt4lessIS1_ESaIS5_EE8_M_eraseEPSt13_Rb_tree_nodeIS5_E_x13c:
    /*0000013c*/ LDR         R5, [R3, #8] 
    /*00000140*/ MOV         R0, R3 
    /*00000144*/ BL          _ZdlPv
    /*00000148*/ SUBS        R3, R5, #0 
    /*0000014c*/ STR         R3, [SP, #4] 
    /*00000150*/ BNE         _ZNSt8_Rb_treeIP22hiRUNTIME_GROUP_BLOB_SSt4pairIKS1_7HI_BOOLESt10_Select1stIS5_ESt4lessIS1_ESaIS5_EE8_M_eraseEPSt13_Rb_tree_nodeIS5_E_x38
    /*00000154*/ LDR         R3, [SP, #12] 
    _ZNSt8_Rb_treeIP22hiRUNTIME_GROUP_BLOB_SSt4pairIKS1_7HI_BOOLESt10_Select1stIS5_ESt4lessIS1_ESaIS5_EE8_M_eraseEPSt13_Rb_tree_nodeIS5_E_x158:
    /*00000158*/ LDR         R5, [R3, #8] 
    /*0000015c*/ MOV         R0, R3 
    /*00000160*/ BL          _ZdlPv
    /*00000164*/ SUBS        R3, R5, #0 
    /*00000168*/ STR         R3, [SP, #12] 
    /*0000016c*/ BNE         _ZNSt8_Rb_treeIP22hiRUNTIME_GROUP_BLOB_SSt4pairIKS1_7HI_BOOLESt10_Select1stIS5_ESt4lessIS1_ESaIS5_EE8_M_eraseEPSt13_Rb_tree_nodeIS5_E_x24
    _ZNSt8_Rb_treeIP22hiRUNTIME_GROUP_BLOB_SSt4pairIKS1_7HI_BOOLESt10_Select1stIS5_ESt4lessIS1_ESaIS5_EE8_M_eraseEPSt13_Rb_tree_nodeIS5_E_x170:
    /*00000170*/ ADD         SP, SP, #20 
    /*00000174*/ POP         {R4, R5, R6, R7, R8, R9, SL, FP, PC} 
FUNC_END _ZNSt8_Rb_treeIP22hiRUNTIME_GROUP_BLOB_SSt4pairIKS1_7HI_BOOLESt10_Select1stIS5_ESt4lessIS1_ESaIS5_EE8_M_eraseEPSt13_Rb_tree_nodeIS5_E


@ - - - - - - - - - - - - - - - - - - - - - - - - - - - - - 
@ .text._ZNSt8_Rb_treeINSt7__cxx1112basic_stringIcSt11char_traitsIcESaIcEEESt4pairIKS5_St6vectorIN4hirt13_FRAME_DEPENDESaISA_EEESt10_Select1stISD_ESt4lessIS5_ESaISD_EE8_M_eraseEPSt13_Rb_tree_nodeISD_E
@ Size: 0x508
@ - - - - - - - - - - - - - - - - - - - - - - - - - - - - - 

FUNC_BEGIN _ZNSt8_Rb_treeINSt7__cxx1112basic_stringIcSt11char_traitsIcESaIcEEESt4pairIKS5_St6vectorIN4hirt13_FRAME_DEPENDESaISA_EEESt10_Select1stISD_ESt4lessIS5_ESaISD_EE8_M_eraseEPSt13_Rb_tree_nodeISD_E
    /*00000000*/ MOV         IP, #16384                  @ 0x4000 
    /*00000004*/ PUSH        {R4, R5, R6, R7, R8, R9, SL, FP, LR} 
    /*00000008*/ SUB         IP, SP, IP 
    /*0000000c*/ STR         R0, [IP, #4032]             @ 0xfc0 
    /*00000010*/ SUB         SP, SP, #28 
    /*00000014*/ SUBS        R3, R1, #0 
    /*00000018*/ STR         R3, [SP, #20] 
    /*0000001c*/ BEQ         _ZNSt8_Rb_treeINSt7__cxx1112basic_stringIcSt11char_traitsIcESaIcEEESt4pairIKS5_St6vectorIN4hirt13_FRAME_DEPENDESaISA_EEESt10_Select1stISD_ESt4lessIS5_ESaISD_EE8_M_eraseEPSt13_Rb_tree_nodeISD_E_x500
    /*00000020*/ MOV         R8, R0 
    _ZNSt8_Rb_treeINSt7__cxx1112basic_stringIcSt11char_traitsIcESaIcEEESt4pairIKS5_St6vectorIN4hirt13_FRAME_DEPENDESaISA_EEESt10_Select1stISD_ESt4lessIS5_ESaISD_EE8_M_eraseEPSt13_Rb_tree_nodeISD_E_x24:
    /*00000024*/ LDR         R3, [R3, #12] 
    /*00000028*/ CMP         R3, #0 
    /*0000002c*/ STRNE       R3, [SP, #16] 
    /*00000030*/ BEQ         _ZNSt8_Rb_treeINSt7__cxx1112basic_stringIcSt11char_traitsIcESaIcEEESt4pairIKS5_St6vectorIN4hirt13_FRAME_DEPENDESaISA_EEESt10_Select1stISD_ESt4lessIS5_ESaISD_EE8_M_eraseEPSt13_Rb_tree_nodeISD_E_x480
    _ZNSt8_Rb_treeINSt7__cxx1112basic_stringIcSt11char_traitsIcESaIcEEESt4pairIKS5_St6vectorIN4hirt13_FRAME_DEPENDESaISA_EEESt10_Select1stISD_ESt4lessIS5_ESaISD_EE8_M_eraseEPSt13_Rb_tree_nodeISD_E_x34:
    /*00000034*/ LDR         R3, [R3, #12] 
    /*00000038*/ CMP         R3, #0 
    /*0000003c*/ STRNE       R3, [SP, #12] 
    /*00000040*/ BEQ         _ZNSt8_Rb_treeINSt7__cxx1112basic_stringIcSt11char_traitsIcESaIcEEESt4pairIKS5_St6vectorIN4hirt13_FRAME_DEPENDESaISA_EEESt10_Select1stISD_ESt4lessIS5_ESaISD_EE8_M_eraseEPSt13_Rb_tree_nodeISD_E_x400
    _ZNSt8_Rb_treeINSt7__cxx1112basic_stringIcSt11char_traitsIcESaIcEEESt4pairIKS5_St6vectorIN4hirt13_FRAME_DEPENDESaISA_EEESt10_Select1stISD_ESt4lessIS5_ESaISD_EE8_M_eraseEPSt13_Rb_tree_nodeISD_E_x44:
    /*00000044*/ LDR         R7, [R3, #12] 
    /*00000048*/ CMP         R7, #0 
    /*0000004c*/ STRNE       R7, [SP, #8] 
    /*00000050*/ MOVNE       R3, R7 
    /*00000054*/ BEQ         _ZNSt8_Rb_treeINSt7__cxx1112basic_stringIcSt11char_traitsIcESaIcEEESt4pairIKS5_St6vectorIN4hirt13_FRAME_DEPENDESaISA_EEESt10_Select1stISD_ESt4lessIS5_ESaISD_EE8_M_eraseEPSt13_Rb_tree_nodeISD_E_x384
    _ZNSt8_Rb_treeINSt7__cxx1112basic_stringIcSt11char_traitsIcESaIcEEESt4pairIKS5_St6vectorIN4hirt13_FRAME_DEPENDESaISA_EEESt10_Select1stISD_ESt4lessIS5_ESaISD_EE8_M_eraseEPSt13_Rb_tree_nodeISD_E_x58:
    /*00000058*/ LDR         R7, [R3, #12] 
    /*0000005c*/ CMP         R7, #0 
    /*00000060*/ STRNE       R7, [SP, #4] 
    /*00000064*/ MOVNE       R3, R7 
    /*00000068*/ BEQ         _ZNSt8_Rb_treeINSt7__cxx1112basic_stringIcSt11char_traitsIcESaIcEEESt4pairIKS5_St6vectorIN4hirt13_FRAME_DEPENDESaISA_EEESt10_Select1stISD_ESt4lessIS5_ESaISD_EE8_M_eraseEPSt13_Rb_tree_nodeISD_E_x304
    _ZNSt8_Rb_treeINSt7__cxx1112basic_stringIcSt11char_traitsIcESaIcEEESt4pairIKS5_St6vectorIN4hirt13_FRAME_DEPENDESaISA_EEESt10_Select1stISD_ESt4lessIS5_ESaISD_EE8_M_eraseEPSt13_Rb_tree_nodeISD_E_x6c:
    /*0000006c*/ LDR         R9, [R3, #12] 
    /*00000070*/ CMP         R9, #0 
    /*00000074*/ STRNE       R9, [SP] 
    /*00000078*/ MOVNE       R3, R9 
    /*0000007c*/ BEQ         _ZNSt8_Rb_treeINSt7__cxx1112basic_stringIcSt11char_traitsIcESaIcEEESt4pairIKS5_St6vectorIN4hirt13_FRAME_DEPENDESaISA_EEESt10_Select1stISD_ESt4lessIS5_ESaISD_EE8_M_eraseEPSt13_Rb_tree_nodeISD_E_x284
    _ZNSt8_Rb_treeINSt7__cxx1112basic_stringIcSt11char_traitsIcESaIcEEESt4pairIKS5_St6vectorIN4hirt13_FRAME_DEPENDESaISA_EEESt10_Select1stISD_ESt4lessIS5_ESaISD_EE8_M_eraseEPSt13_Rb_tree_nodeISD_E_x80:
    /*00000080*/ LDR         SL, [R3, #12] 
    /*00000084*/ CMP         SL, #0 
    /*00000088*/ BEQ         _ZNSt8_Rb_treeINSt7__cxx1112basic_stringIcSt11char_traitsIcESaIcEEESt4pairIKS5_St6vectorIN4hirt13_FRAME_DEPENDESaISA_EEESt10_Select1stISD_ESt4lessIS5_ESaISD_EE8_M_eraseEPSt13_Rb_tree_nodeISD_E_x204
    _ZNSt8_Rb_treeINSt7__cxx1112basic_stringIcSt11char_traitsIcESaIcEEESt4pairIKS5_St6vectorIN4hirt13_FRAME_DEPENDESaISA_EEESt10_Select1stISD_ESt4lessIS5_ESaISD_EE8_M_eraseEPSt13_Rb_tree_nodeISD_E_x8c:
    /*0000008c*/ LDR         R9, [SL, #12] 
    /*00000090*/ CMP         R9, #0 
    /*00000094*/ BEQ         _ZNSt8_Rb_treeINSt7__cxx1112basic_stringIcSt11char_traitsIcESaIcEEESt4pairIKS5_St6vectorIN4hirt13_FRAME_DEPENDESaISA_EEESt10_Select1stISD_ESt4lessIS5_ESaISD_EE8_M_eraseEPSt13_Rb_tree_nodeISD_E_x190
    _ZNSt8_Rb_treeINSt7__cxx1112basic_stringIcSt11char_traitsIcESaIcEEESt4pairIKS5_St6vectorIN4hirt13_FRAME_DEPENDESaISA_EEESt10_Select1stISD_ESt4lessIS5_ESaISD_EE8_M_eraseEPSt13_Rb_tree_nodeISD_E_x98:
    /*00000098*/ LDR         R6, [R9, #12] 
    /*0000009c*/ CMP         R6, #0 
    /*000000a0*/ BEQ         _ZNSt8_Rb_treeINSt7__cxx1112basic_stringIcSt11char_traitsIcESaIcEEESt4pairIKS5_St6vectorIN4hirt13_FRAME_DEPENDESaISA_EEESt10_Select1stISD_ESt4lessIS5_ESaISD_EE8_M_eraseEPSt13_Rb_tree_nodeISD_E_x120
    _ZNSt8_Rb_treeINSt7__cxx1112basic_stringIcSt11char_traitsIcESaIcEEESt4pairIKS5_St6vectorIN4hirt13_FRAME_DEPENDESaISA_EEESt10_Select1stISD_ESt4lessIS5_ESaISD_EE8_M_eraseEPSt13_Rb_tree_nodeISD_E_xa4:
    /*000000a4*/ LDR         R1, [R6, #12] 
    /*000000a8*/ MOV         R0, R8 
    /*000000ac*/ BL          _ZNSt8_Rb_treeINSt7__cxx1112basic_stringIcSt11char_traitsIcESaIcEEESt4pairIKS5_St6vectorIN4hirt13_FRAME_DEPENDESaISA_EEESt10_Select1stISD_ESt4lessIS5_ESaISD_EE8_M_eraseEPSt13_Rb_tree_nodeISD_E
    /*000000b0*/ LDR         R5, [R6, #40]               @ 0x28 
    /*000000b4*/ LDR         FP, [R6, #44]               @ 0x2c 
    /*000000b8*/ LDR         R7, [R6, #8] 
    /*000000bc*/ CMP         R5, FP 
    /*000000c0*/ BEQ         _ZNSt8_Rb_treeINSt7__cxx1112basic_stringIcSt11char_traitsIcESaIcEEESt4pairIKS5_St6vectorIN4hirt13_FRAME_DEPENDESaISA_EEESt10_Select1stISD_ESt4lessIS5_ESaISD_EE8_M_eraseEPSt13_Rb_tree_nodeISD_E_xec
    /*000000c4*/ ADD         R4, R5, #8 
    _ZNSt8_Rb_treeINSt7__cxx1112basic_stringIcSt11char_traitsIcESaIcEEESt4pairIKS5_St6vectorIN4hirt13_FRAME_DEPENDESaISA_EEESt10_Select1stISD_ESt4lessIS5_ESaISD_EE8_M_eraseEPSt13_Rb_tree_nodeISD_E_xc8:
    /*000000c8*/ LDR         R0, [R4, #-8] 
    /*000000cc*/ ADD         R5, R5, #28 
    /*000000d0*/ CMP         R0, R4 
    /*000000d4*/ ADD         R4, R4, #28 
    /*000000d8*/ BEQ         _ZNSt8_Rb_treeINSt7__cxx1112basic_stringIcSt11char_traitsIcESaIcEEESt4pairIKS5_St6vectorIN4hirt13_FRAME_DEPENDESaISA_EEESt10_Select1stISD_ESt4lessIS5_ESaISD_EE8_M_eraseEPSt13_Rb_tree_nodeISD_E_xe0
    /*000000dc*/ BL          _ZdlPv
    _ZNSt8_Rb_treeINSt7__cxx1112basic_stringIcSt11char_traitsIcESaIcEEESt4pairIKS5_St6vectorIN4hirt13_FRAME_DEPENDESaISA_EEESt10_Select1stISD_ESt4lessIS5_ESaISD_EE8_M_eraseEPSt13_Rb_tree_nodeISD_E_xe0:
    /*000000e0*/ CMP         FP, R5 
    /*000000e4*/ BNE         _ZNSt8_Rb_treeINSt7__cxx1112basic_stringIcSt11char_traitsIcESaIcEEESt4pairIKS5_St6vectorIN4hirt13_FRAME_DEPENDESaISA_EEESt10_Select1stISD_ESt4lessIS5_ESaISD_EE8_M_eraseEPSt13_Rb_tree_nodeISD_E_xc8
    /*000000e8*/ LDR         FP, [R6, #40]               @ 0x28 
    _ZNSt8_Rb_treeINSt7__cxx1112basic_stringIcSt11char_traitsIcESaIcEEESt4pairIKS5_St6vectorIN4hirt13_FRAME_DEPENDESaISA_EEESt10_Select1stISD_ESt4lessIS5_ESaISD_EE8_M_eraseEPSt13_Rb_tree_nodeISD_E_xec:
    /*000000ec*/ CMP         FP, #0 
    /*000000f0*/ BEQ         _ZNSt8_Rb_treeINSt7__cxx1112basic_stringIcSt11char_traitsIcESaIcEEESt4pairIKS5_St6vectorIN4hirt13_FRAME_DEPENDESaISA_EEESt10_Select1stISD_ESt4lessIS5_ESaISD_EE8_M_eraseEPSt13_Rb_tree_nodeISD_E_xfc
    /*000000f4*/ MOV         R0, FP 
    /*000000f8*/ BL          _ZdlPv
    _ZNSt8_Rb_treeINSt7__cxx1112basic_stringIcSt11char_traitsIcESaIcEEESt4pairIKS5_St6vectorIN4hirt13_FRAME_DEPENDESaISA_EEESt10_Select1stISD_ESt4lessIS5_ESaISD_EE8_M_eraseEPSt13_Rb_tree_nodeISD_E_xfc:
    /*000000fc*/ LDR         R0, [R6, #16] 
    /*00000100*/ ADD         R3, R6, #24 
    /*00000104*/ CMP         R0, R3 
    /*00000108*/ BEQ         _ZNSt8_Rb_treeINSt7__cxx1112basic_stringIcSt11char_traitsIcESaIcEEESt4pairIKS5_St6vectorIN4hirt13_FRAME_DEPENDESaISA_EEESt10_Select1stISD_ESt4lessIS5_ESaISD_EE8_M_eraseEPSt13_Rb_tree_nodeISD_E_x110
    /*0000010c*/ BL          _ZdlPv
    _ZNSt8_Rb_treeINSt7__cxx1112basic_stringIcSt11char_traitsIcESaIcEEESt4pairIKS5_St6vectorIN4hirt13_FRAME_DEPENDESaISA_EEESt10_Select1stISD_ESt4lessIS5_ESaISD_EE8_M_eraseEPSt13_Rb_tree_nodeISD_E_x110:
    /*00000110*/ MOV         R0, R6 
    /*00000114*/ BL          _ZdlPv
    /*00000118*/ SUBS        R6, R7, #0 
    /*0000011c*/ BNE         _ZNSt8_Rb_treeINSt7__cxx1112basic_stringIcSt11char_traitsIcESaIcEEESt4pairIKS5_St6vectorIN4hirt13_FRAME_DEPENDESaISA_EEESt10_Select1stISD_ESt4lessIS5_ESaISD_EE8_M_eraseEPSt13_Rb_tree_nodeISD_E_xa4
    _ZNSt8_Rb_treeINSt7__cxx1112basic_stringIcSt11char_traitsIcESaIcEEESt4pairIKS5_St6vectorIN4hirt13_FRAME_DEPENDESaISA_EEESt10_Select1stISD_ESt4lessIS5_ESaISD_EE8_M_eraseEPSt13_Rb_tree_nodeISD_E_x120:
    /*00000120*/ LDR         R5, [R9, #40]               @ 0x28 
    /*00000124*/ LDR         R6, [R9, #44]               @ 0x2c 
    /*00000128*/ LDR         R7, [R9, #8] 
    /*0000012c*/ CMP         R5, R6 
    /*00000130*/ ADDNE       R4, R5, #8 
    /*00000134*/ BEQ         _ZNSt8_Rb_treeINSt7__cxx1112basic_stringIcSt11char_traitsIcESaIcEEESt4pairIKS5_St6vectorIN4hirt13_FRAME_DEPENDESaISA_EEESt10_Select1stISD_ESt4lessIS5_ESaISD_EE8_M_eraseEPSt13_Rb_tree_nodeISD_E_x15c
    _ZNSt8_Rb_treeINSt7__cxx1112basic_stringIcSt11char_traitsIcESaIcEEESt4pairIKS5_St6vectorIN4hirt13_FRAME_DEPENDESaISA_EEESt10_Select1stISD_ESt4lessIS5_ESaISD_EE8_M_eraseEPSt13_Rb_tree_nodeISD_E_x138:
    /*00000138*/ LDR         R0, [R4, #-8] 
    /*0000013c*/ ADD         R5, R5, #28 
    /*00000140*/ CMP         R0, R4 
    /*00000144*/ ADD         R4, R4, #28 
    /*00000148*/ BEQ         _ZNSt8_Rb_treeINSt7__cxx1112basic_stringIcSt11char_traitsIcESaIcEEESt4pairIKS5_St6vectorIN4hirt13_FRAME_DEPENDESaISA_EEESt10_Select1stISD_ESt4lessIS5_ESaISD_EE8_M_eraseEPSt13_Rb_tree_nodeISD_E_x150
    /*0000014c*/ BL          _ZdlPv
    _ZNSt8_Rb_treeINSt7__cxx1112basic_stringIcSt11char_traitsIcESaIcEEESt4pairIKS5_St6vectorIN4hirt13_FRAME_DEPENDESaISA_EEESt10_Select1stISD_ESt4lessIS5_ESaISD_EE8_M_eraseEPSt13_Rb_tree_nodeISD_E_x150:
    /*00000150*/ CMP         R6, R5 
    /*00000154*/ BNE         _ZNSt8_Rb_treeINSt7__cxx1112basic_stringIcSt11char_traitsIcESaIcEEESt4pairIKS5_St6vectorIN4hirt13_FRAME_DEPENDESaISA_EEESt10_Select1stISD_ESt4lessIS5_ESaISD_EE8_M_eraseEPSt13_Rb_tree_nodeISD_E_x138
    /*00000158*/ LDR         R6, [R9, #40]               @ 0x28 
    _ZNSt8_Rb_treeINSt7__cxx1112basic_stringIcSt11char_traitsIcESaIcEEESt4pairIKS5_St6vectorIN4hirt13_FRAME_DEPENDESaISA_EEESt10_Select1stISD_ESt4lessIS5_ESaISD_EE8_M_eraseEPSt13_Rb_tree_nodeISD_E_x15c:
    /*0000015c*/ CMP         R6, #0 
    /*00000160*/ BEQ         _ZNSt8_Rb_treeINSt7__cxx1112basic_stringIcSt11char_traitsIcESaIcEEESt4pairIKS5_St6vectorIN4hirt13_FRAME_DEPENDESaISA_EEESt10_Select1stISD_ESt4lessIS5_ESaISD_EE8_M_eraseEPSt13_Rb_tree_nodeISD_E_x16c
    /*00000164*/ MOV         R0, R6 
    /*00000168*/ BL          _ZdlPv
    _ZNSt8_Rb_treeINSt7__cxx1112basic_stringIcSt11char_traitsIcESaIcEEESt4pairIKS5_St6vectorIN4hirt13_FRAME_DEPENDESaISA_EEESt10_Select1stISD_ESt4lessIS5_ESaISD_EE8_M_eraseEPSt13_Rb_tree_nodeISD_E_x16c:
    /*0000016c*/ LDR         R0, [R9, #16] 
    /*00000170*/ ADD         R3, R9, #24 
    /*00000174*/ CMP         R0, R3 
    /*00000178*/ BEQ         _ZNSt8_Rb_treeINSt7__cxx1112basic_stringIcSt11char_traitsIcESaIcEEESt4pairIKS5_St6vectorIN4hirt13_FRAME_DEPENDESaISA_EEESt10_Select1stISD_ESt4lessIS5_ESaISD_EE8_M_eraseEPSt13_Rb_tree_nodeISD_E_x180
    /*0000017c*/ BL          _ZdlPv
    _ZNSt8_Rb_treeINSt7__cxx1112basic_stringIcSt11char_traitsIcESaIcEEESt4pairIKS5_St6vectorIN4hirt13_FRAME_DEPENDESaISA_EEESt10_Select1stISD_ESt4lessIS5_ESaISD_EE8_M_eraseEPSt13_Rb_tree_nodeISD_E_x180:
    /*00000180*/ MOV         R0, R9 
    /*00000184*/ BL          _ZdlPv
    /*00000188*/ SUBS        R9, R7, #0 
    /*0000018c*/ BNE         _ZNSt8_Rb_treeINSt7__cxx1112basic_stringIcSt11char_traitsIcESaIcEEESt4pairIKS5_St6vectorIN4hirt13_FRAME_DEPENDESaISA_EEESt10_Select1stISD_ESt4lessIS5_ESaISD_EE8_M_eraseEPSt13_Rb_tree_nodeISD_E_x98
    _ZNSt8_Rb_treeINSt7__cxx1112basic_stringIcSt11char_traitsIcESaIcEEESt4pairIKS5_St6vectorIN4hirt13_FRAME_DEPENDESaISA_EEESt10_Select1stISD_ESt4lessIS5_ESaISD_EE8_M_eraseEPSt13_Rb_tree_nodeISD_E_x190:
    /*00000190*/ LDR         R5, [SL, #40]               @ 0x28 
    /*00000194*/ LDR         R6, [SL, #44]               @ 0x2c 
    /*00000198*/ LDR         R7, [SL, #8] 
    /*0000019c*/ CMP         R5, R6 
    /*000001a0*/ ADDNE       R4, R5, #8 
    /*000001a4*/ BEQ         _ZNSt8_Rb_treeINSt7__cxx1112basic_stringIcSt11char_traitsIcESaIcEEESt4pairIKS5_St6vectorIN4hirt13_FRAME_DEPENDESaISA_EEESt10_Select1stISD_ESt4lessIS5_ESaISD_EE8_M_eraseEPSt13_Rb_tree_nodeISD_E_x1cc
    _ZNSt8_Rb_treeINSt7__cxx1112basic_stringIcSt11char_traitsIcESaIcEEESt4pairIKS5_St6vectorIN4hirt13_FRAME_DEPENDESaISA_EEESt10_Select1stISD_ESt4lessIS5_ESaISD_EE8_M_eraseEPSt13_Rb_tree_nodeISD_E_x1a8:
    /*000001a8*/ LDR         R0, [R4, #-8] 
    /*000001ac*/ ADD         R5, R5, #28 
    /*000001b0*/ CMP         R4, R0 
    /*000001b4*/ ADD         R4, R4, #28 
    /*000001b8*/ BEQ         _ZNSt8_Rb_treeINSt7__cxx1112basic_stringIcSt11char_traitsIcESaIcEEESt4pairIKS5_St6vectorIN4hirt13_FRAME_DEPENDESaISA_EEESt10_Select1stISD_ESt4lessIS5_ESaISD_EE8_M_eraseEPSt13_Rb_tree_nodeISD_E_x1c0
    /*000001bc*/ BL          _ZdlPv
    _ZNSt8_Rb_treeINSt7__cxx1112basic_stringIcSt11char_traitsIcESaIcEEESt4pairIKS5_St6vectorIN4hirt13_FRAME_DEPENDESaISA_EEESt10_Select1stISD_ESt4lessIS5_ESaISD_EE8_M_eraseEPSt13_Rb_tree_nodeISD_E_x1c0:
    /*000001c0*/ CMP         R6, R5 
    /*000001c4*/ BNE         _ZNSt8_Rb_treeINSt7__cxx1112basic_stringIcSt11char_traitsIcESaIcEEESt4pairIKS5_St6vectorIN4hirt13_FRAME_DEPENDESaISA_EEESt10_Select1stISD_ESt4lessIS5_ESaISD_EE8_M_eraseEPSt13_Rb_tree_nodeISD_E_x1a8
    /*000001c8*/ LDR         R6, [SL, #40]               @ 0x28 
    _ZNSt8_Rb_treeINSt7__cxx1112basic_stringIcSt11char_traitsIcESaIcEEESt4pairIKS5_St6vectorIN4hirt13_FRAME_DEPENDESaISA_EEESt10_Select1stISD_ESt4lessIS5_ESaISD_EE8_M_eraseEPSt13_Rb_tree_nodeISD_E_x1cc:
    /*000001cc*/ CMP         R6, #0 
    /*000001d0*/ BEQ         _ZNSt8_Rb_treeINSt7__cxx1112basic_stringIcSt11char_traitsIcESaIcEEESt4pairIKS5_St6vectorIN4hirt13_FRAME_DEPENDESaISA_EEESt10_Select1stISD_ESt4lessIS5_ESaISD_EE8_M_eraseEPSt13_Rb_tree_nodeISD_E_x1dc
    /*000001d4*/ MOV         R0, R6 
    /*000001d8*/ BL          _ZdlPv
    _ZNSt8_Rb_treeINSt7__cxx1112basic_stringIcSt11char_traitsIcESaIcEEESt4pairIKS5_St6vectorIN4hirt13_FRAME_DEPENDESaISA_EEESt10_Select1stISD_ESt4lessIS5_ESaISD_EE8_M_eraseEPSt13_Rb_tree_nodeISD_E_x1dc:
    /*000001dc*/ LDR         R0, [SL, #16] 
    /*000001e0*/ ADD         R3, SL, #24 
    /*000001e4*/ CMP         R0, R3 
    /*000001e8*/ BEQ         _ZNSt8_Rb_treeINSt7__cxx1112basic_stringIcSt11char_traitsIcESaIcEEESt4pairIKS5_St6vectorIN4hirt13_FRAME_DEPENDESaISA_EEESt10_Select1stISD_ESt4lessIS5_ESaISD_EE8_M_eraseEPSt13_Rb_tree_nodeISD_E_x1f0
    /*000001ec*/ BL          _ZdlPv
    _ZNSt8_Rb_treeINSt7__cxx1112basic_stringIcSt11char_traitsIcESaIcEEESt4pairIKS5_St6vectorIN4hirt13_FRAME_DEPENDESaISA_EEESt10_Select1stISD_ESt4lessIS5_ESaISD_EE8_M_eraseEPSt13_Rb_tree_nodeISD_E_x1f0:
    /*000001f0*/ MOV         R0, SL 
    /*000001f4*/ BL          _ZdlPv
    /*000001f8*/ SUBS        SL, R7, #0 
    /*000001fc*/ BNE         _ZNSt8_Rb_treeINSt7__cxx1112basic_stringIcSt11char_traitsIcESaIcEEESt4pairIKS5_St6vectorIN4hirt13_FRAME_DEPENDESaISA_EEESt10_Select1stISD_ESt4lessIS5_ESaISD_EE8_M_eraseEPSt13_Rb_tree_nodeISD_E_x8c
    /*00000200*/ LDR         R3, [SP] 
    _ZNSt8_Rb_treeINSt7__cxx1112basic_stringIcSt11char_traitsIcESaIcEEESt4pairIKS5_St6vectorIN4hirt13_FRAME_DEPENDESaISA_EEESt10_Select1stISD_ESt4lessIS5_ESaISD_EE8_M_eraseEPSt13_Rb_tree_nodeISD_E_x204:
    /*00000204*/ LDR         R5, [R3, #40]               @ 0x28 
    /*00000208*/ LDR         R4, [R3, #44]               @ 0x2c 
    /*0000020c*/ LDR         R7, [R3, #8] 
    /*00000210*/ CMP         R5, R4 
    /*00000214*/ ADDNE       R6, R5, #8 
    /*00000218*/ BEQ         _ZNSt8_Rb_treeINSt7__cxx1112basic_stringIcSt11char_traitsIcESaIcEEESt4pairIKS5_St6vectorIN4hirt13_FRAME_DEPENDESaISA_EEESt10_Select1stISD_ESt4lessIS5_ESaISD_EE8_M_eraseEPSt13_Rb_tree_nodeISD_E_x244
    _ZNSt8_Rb_treeINSt7__cxx1112basic_stringIcSt11char_traitsIcESaIcEEESt4pairIKS5_St6vectorIN4hirt13_FRAME_DEPENDESaISA_EEESt10_Select1stISD_ESt4lessIS5_ESaISD_EE8_M_eraseEPSt13_Rb_tree_nodeISD_E_x21c:
    /*0000021c*/ LDR         R0, [R6, #-8] 
    /*00000220*/ ADD         R5, R5, #28 
    /*00000224*/ CMP         R6, R0 
    /*00000228*/ ADD         R6, R6, #28 
    /*0000022c*/ BEQ         _ZNSt8_Rb_treeINSt7__cxx1112basic_stringIcSt11char_traitsIcESaIcEEESt4pairIKS5_St6vectorIN4hirt13_FRAME_DEPENDESaISA_EEESt10_Select1stISD_ESt4lessIS5_ESaISD_EE8_M_eraseEPSt13_Rb_tree_nodeISD_E_x234
    /*00000230*/ BL          _ZdlPv
    _ZNSt8_Rb_treeINSt7__cxx1112basic_stringIcSt11char_traitsIcESaIcEEESt4pairIKS5_St6vectorIN4hirt13_FRAME_DEPENDESaISA_EEESt10_Select1stISD_ESt4lessIS5_ESaISD_EE8_M_eraseEPSt13_Rb_tree_nodeISD_E_x234:
    /*00000234*/ CMP         R4, R5 
    /*00000238*/ BNE         _ZNSt8_Rb_treeINSt7__cxx1112basic_stringIcSt11char_traitsIcESaIcEEESt4pairIKS5_St6vectorIN4hirt13_FRAME_DEPENDESaISA_EEESt10_Select1stISD_ESt4lessIS5_ESaISD_EE8_M_eraseEPSt13_Rb_tree_nodeISD_E_x21c
    /*0000023c*/ LDR         R3, [SP] 
    /*00000240*/ LDR         R4, [R3, #40]               @ 0x28 
    _ZNSt8_Rb_treeINSt7__cxx1112basic_stringIcSt11char_traitsIcESaIcEEESt4pairIKS5_St6vectorIN4hirt13_FRAME_DEPENDESaISA_EEESt10_Select1stISD_ESt4lessIS5_ESaISD_EE8_M_eraseEPSt13_Rb_tree_nodeISD_E_x244:
    /*00000244*/ CMP         R4, #0 
    /*00000248*/ BEQ         _ZNSt8_Rb_treeINSt7__cxx1112basic_stringIcSt11char_traitsIcESaIcEEESt4pairIKS5_St6vectorIN4hirt13_FRAME_DEPENDESaISA_EEESt10_Select1stISD_ESt4lessIS5_ESaISD_EE8_M_eraseEPSt13_Rb_tree_nodeISD_E_x254
    /*0000024c*/ MOV         R0, R4 
    /*00000250*/ BL          _ZdlPv
    _ZNSt8_Rb_treeINSt7__cxx1112basic_stringIcSt11char_traitsIcESaIcEEESt4pairIKS5_St6vectorIN4hirt13_FRAME_DEPENDESaISA_EEESt10_Select1stISD_ESt4lessIS5_ESaISD_EE8_M_eraseEPSt13_Rb_tree_nodeISD_E_x254:
    /*00000254*/ LDR         R3, [SP] 
    /*00000258*/ LDR         R0, [R3, #16] 
    /*0000025c*/ ADD         R3, R3, #24 
    /*00000260*/ CMP         R0, R3 
    /*00000264*/ BEQ         _ZNSt8_Rb_treeINSt7__cxx1112basic_stringIcSt11char_traitsIcESaIcEEESt4pairIKS5_St6vectorIN4hirt13_FRAME_DEPENDESaISA_EEESt10_Select1stISD_ESt4lessIS5_ESaISD_EE8_M_eraseEPSt13_Rb_tree_nodeISD_E_x26c
    /*00000268*/ BL          _ZdlPv
    _ZNSt8_Rb_treeINSt7__cxx1112basic_stringIcSt11char_traitsIcESaIcEEESt4pairIKS5_St6vectorIN4hirt13_FRAME_DEPENDESaISA_EEESt10_Select1stISD_ESt4lessIS5_ESaISD_EE8_M_eraseEPSt13_Rb_tree_nodeISD_E_x26c:
    /*0000026c*/ LDR         R0, [SP] 
    /*00000270*/ BL          _ZdlPv
    /*00000274*/ SUBS        R3, R7, #0 
    /*00000278*/ STR         R3, [SP] 
    /*0000027c*/ BNE         _ZNSt8_Rb_treeINSt7__cxx1112basic_stringIcSt11char_traitsIcESaIcEEESt4pairIKS5_St6vectorIN4hirt13_FRAME_DEPENDESaISA_EEESt10_Select1stISD_ESt4lessIS5_ESaISD_EE8_M_eraseEPSt13_Rb_tree_nodeISD_E_x80
    /*00000280*/ LDR         R3, [SP, #4] 
    _ZNSt8_Rb_treeINSt7__cxx1112basic_stringIcSt11char_traitsIcESaIcEEESt4pairIKS5_St6vectorIN4hirt13_FRAME_DEPENDESaISA_EEESt10_Select1stISD_ESt4lessIS5_ESaISD_EE8_M_eraseEPSt13_Rb_tree_nodeISD_E_x284:
    /*00000284*/ LDR         R5, [R3, #40]               @ 0x28 
    /*00000288*/ LDR         R4, [R3, #44]               @ 0x2c 
    /*0000028c*/ LDR         R7, [R3, #8] 
    /*00000290*/ CMP         R5, R4 
    /*00000294*/ ADDNE       R6, R5, #8 
    /*00000298*/ BEQ         _ZNSt8_Rb_treeINSt7__cxx1112basic_stringIcSt11char_traitsIcESaIcEEESt4pairIKS5_St6vectorIN4hirt13_FRAME_DEPENDESaISA_EEESt10_Select1stISD_ESt4lessIS5_ESaISD_EE8_M_eraseEPSt13_Rb_tree_nodeISD_E_x2c4
    _ZNSt8_Rb_treeINSt7__cxx1112basic_stringIcSt11char_traitsIcESaIcEEESt4pairIKS5_St6vectorIN4hirt13_FRAME_DEPENDESaISA_EEESt10_Select1stISD_ESt4lessIS5_ESaISD_EE8_M_eraseEPSt13_Rb_tree_nodeISD_E_x29c:
    /*0000029c*/ LDR         R0, [R6, #-8] 
    /*000002a0*/ ADD         R5, R5, #28 
    /*000002a4*/ CMP         R6, R0 
    /*000002a8*/ ADD         R6, R6, #28 
    /*000002ac*/ BEQ         _ZNSt8_Rb_treeINSt7__cxx1112basic_stringIcSt11char_traitsIcESaIcEEESt4pairIKS5_St6vectorIN4hirt13_FRAME_DEPENDESaISA_EEESt10_Select1stISD_ESt4lessIS5_ESaISD_EE8_M_eraseEPSt13_Rb_tree_nodeISD_E_x2b4
    /*000002b0*/ BL          _ZdlPv
    _ZNSt8_Rb_treeINSt7__cxx1112basic_stringIcSt11char_traitsIcESaIcEEESt4pairIKS5_St6vectorIN4hirt13_FRAME_DEPENDESaISA_EEESt10_Select1stISD_ESt4lessIS5_ESaISD_EE8_M_eraseEPSt13_Rb_tree_nodeISD_E_x2b4:
    /*000002b4*/ CMP         R4, R5 
    /*000002b8*/ BNE         _ZNSt8_Rb_treeINSt7__cxx1112basic_stringIcSt11char_traitsIcESaIcEEESt4pairIKS5_St6vectorIN4hirt13_FRAME_DEPENDESaISA_EEESt10_Select1stISD_ESt4lessIS5_ESaISD_EE8_M_eraseEPSt13_Rb_tree_nodeISD_E_x29c
    /*000002bc*/ LDR         R3, [SP, #4] 
    /*000002c0*/ LDR         R4, [R3, #40]               @ 0x28 
    _ZNSt8_Rb_treeINSt7__cxx1112basic_stringIcSt11char_traitsIcESaIcEEESt4pairIKS5_St6vectorIN4hirt13_FRAME_DEPENDESaISA_EEESt10_Select1stISD_ESt4lessIS5_ESaISD_EE8_M_eraseEPSt13_Rb_tree_nodeISD_E_x2c4:
    /*000002c4*/ CMP         R4, #0 
    /*000002c8*/ BEQ         _ZNSt8_Rb_treeINSt7__cxx1112basic_stringIcSt11char_traitsIcESaIcEEESt4pairIKS5_St6vectorIN4hirt13_FRAME_DEPENDESaISA_EEESt10_Select1stISD_ESt4lessIS5_ESaISD_EE8_M_eraseEPSt13_Rb_tree_nodeISD_E_x2d4
    /*000002cc*/ MOV         R0, R4 
    /*000002d0*/ BL          _ZdlPv
    _ZNSt8_Rb_treeINSt7__cxx1112basic_stringIcSt11char_traitsIcESaIcEEESt4pairIKS5_St6vectorIN4hirt13_FRAME_DEPENDESaISA_EEESt10_Select1stISD_ESt4lessIS5_ESaISD_EE8_M_eraseEPSt13_Rb_tree_nodeISD_E_x2d4:
    /*000002d4*/ LDR         R3, [SP, #4] 
    /*000002d8*/ LDR         R0, [R3, #16] 
    /*000002dc*/ ADD         R3, R3, #24 
    /*000002e0*/ CMP         R0, R3 
    /*000002e4*/ BEQ         _ZNSt8_Rb_treeINSt7__cxx1112basic_stringIcSt11char_traitsIcESaIcEEESt4pairIKS5_St6vectorIN4hirt13_FRAME_DEPENDESaISA_EEESt10_Select1stISD_ESt4lessIS5_ESaISD_EE8_M_eraseEPSt13_Rb_tree_nodeISD_E_x2ec
    /*000002e8*/ BL          _ZdlPv
    _ZNSt8_Rb_treeINSt7__cxx1112basic_stringIcSt11char_traitsIcESaIcEEESt4pairIKS5_St6vectorIN4hirt13_FRAME_DEPENDESaISA_EEESt10_Select1stISD_ESt4lessIS5_ESaISD_EE8_M_eraseEPSt13_Rb_tree_nodeISD_E_x2ec:
    /*000002ec*/ LDR         R0, [SP, #4] 
    /*000002f0*/ BL          _ZdlPv
    /*000002f4*/ SUBS        R3, R7, #0 
    /*000002f8*/ STR         R3, [SP, #4] 
    /*000002fc*/ BNE         _ZNSt8_Rb_treeINSt7__cxx1112basic_stringIcSt11char_traitsIcESaIcEEESt4pairIKS5_St6vectorIN4hirt13_FRAME_DEPENDESaISA_EEESt10_Select1stISD_ESt4lessIS5_ESaISD_EE8_M_eraseEPSt13_Rb_tree_nodeISD_E_x6c
    /*00000300*/ LDR         R3, [SP, #8] 
    _ZNSt8_Rb_treeINSt7__cxx1112basic_stringIcSt11char_traitsIcESaIcEEESt4pairIKS5_St6vectorIN4hirt13_FRAME_DEPENDESaISA_EEESt10_Select1stISD_ESt4lessIS5_ESaISD_EE8_M_eraseEPSt13_Rb_tree_nodeISD_E_x304:
    /*00000304*/ LDR         R5, [R3, #40]               @ 0x28 
    /*00000308*/ LDR         R4, [R3, #44]               @ 0x2c 
    /*0000030c*/ LDR         R7, [R3, #8] 
    /*00000310*/ CMP         R5, R4 
    /*00000314*/ ADDNE       R6, R5, #8 
    /*00000318*/ BEQ         _ZNSt8_Rb_treeINSt7__cxx1112basic_stringIcSt11char_traitsIcESaIcEEESt4pairIKS5_St6vectorIN4hirt13_FRAME_DEPENDESaISA_EEESt10_Select1stISD_ESt4lessIS5_ESaISD_EE8_M_eraseEPSt13_Rb_tree_nodeISD_E_x344
    _ZNSt8_Rb_treeINSt7__cxx1112basic_stringIcSt11char_traitsIcESaIcEEESt4pairIKS5_St6vectorIN4hirt13_FRAME_DEPENDESaISA_EEESt10_Select1stISD_ESt4lessIS5_ESaISD_EE8_M_eraseEPSt13_Rb_tree_nodeISD_E_x31c:
    /*0000031c*/ LDR         R0, [R6, #-8] 
    /*00000320*/ ADD         R5, R5, #28 
    /*00000324*/ CMP         R0, R6 
    /*00000328*/ ADD         R6, R6, #28 
    /*0000032c*/ BEQ         _ZNSt8_Rb_treeINSt7__cxx1112basic_stringIcSt11char_traitsIcESaIcEEESt4pairIKS5_St6vectorIN4hirt13_FRAME_DEPENDESaISA_EEESt10_Select1stISD_ESt4lessIS5_ESaISD_EE8_M_eraseEPSt13_Rb_tree_nodeISD_E_x334
    /*00000330*/ BL          _ZdlPv
    _ZNSt8_Rb_treeINSt7__cxx1112basic_stringIcSt11char_traitsIcESaIcEEESt4pairIKS5_St6vectorIN4hirt13_FRAME_DEPENDESaISA_EEESt10_Select1stISD_ESt4lessIS5_ESaISD_EE8_M_eraseEPSt13_Rb_tree_nodeISD_E_x334:
    /*00000334*/ CMP         R4, R5 
    /*00000338*/ BNE         _ZNSt8_Rb_treeINSt7__cxx1112basic_stringIcSt11char_traitsIcESaIcEEESt4pairIKS5_St6vectorIN4hirt13_FRAME_DEPENDESaISA_EEESt10_Select1stISD_ESt4lessIS5_ESaISD_EE8_M_eraseEPSt13_Rb_tree_nodeISD_E_x31c
    /*0000033c*/ LDR         R3, [SP, #8] 
    /*00000340*/ LDR         R4, [R3, #40]               @ 0x28 
    _ZNSt8_Rb_treeINSt7__cxx1112basic_stringIcSt11char_traitsIcESaIcEEESt4pairIKS5_St6vectorIN4hirt13_FRAME_DEPENDESaISA_EEESt10_Select1stISD_ESt4lessIS5_ESaISD_EE8_M_eraseEPSt13_Rb_tree_nodeISD_E_x344:
    /*00000344*/ CMP         R4, #0 
    /*00000348*/ BEQ         _ZNSt8_Rb_treeINSt7__cxx1112basic_stringIcSt11char_traitsIcESaIcEEESt4pairIKS5_St6vectorIN4hirt13_FRAME_DEPENDESaISA_EEESt10_Select1stISD_ESt4lessIS5_ESaISD_EE8_M_eraseEPSt13_Rb_tree_nodeISD_E_x354
    /*0000034c*/ MOV         R0, R4 
    /*00000350*/ BL          _ZdlPv
    _ZNSt8_Rb_treeINSt7__cxx1112basic_stringIcSt11char_traitsIcESaIcEEESt4pairIKS5_St6vectorIN4hirt13_FRAME_DEPENDESaISA_EEESt10_Select1stISD_ESt4lessIS5_ESaISD_EE8_M_eraseEPSt13_Rb_tree_nodeISD_E_x354:
    /*00000354*/ LDR         R3, [SP, #8] 
    /*00000358*/ LDR         R0, [R3, #16] 
    /*0000035c*/ ADD         R3, R3, #24 
    /*00000360*/ CMP         R0, R3 
    /*00000364*/ BEQ         _ZNSt8_Rb_treeINSt7__cxx1112basic_stringIcSt11char_traitsIcESaIcEEESt4pairIKS5_St6vectorIN4hirt13_FRAME_DEPENDESaISA_EEESt10_Select1stISD_ESt4lessIS5_ESaISD_EE8_M_eraseEPSt13_Rb_tree_nodeISD_E_x36c
    /*00000368*/ BL          _ZdlPv
    _ZNSt8_Rb_treeINSt7__cxx1112basic_stringIcSt11char_traitsIcESaIcEEESt4pairIKS5_St6vectorIN4hirt13_FRAME_DEPENDESaISA_EEESt10_Select1stISD_ESt4lessIS5_ESaISD_EE8_M_eraseEPSt13_Rb_tree_nodeISD_E_x36c:
    /*0000036c*/ LDR         R0, [SP, #8] 
    /*00000370*/ BL          _ZdlPv
    /*00000374*/ SUBS        R3, R7, #0 
    /*00000378*/ STR         R3, [SP, #8] 
    /*0000037c*/ BNE         _ZNSt8_Rb_treeINSt7__cxx1112basic_stringIcSt11char_traitsIcESaIcEEESt4pairIKS5_St6vectorIN4hirt13_FRAME_DEPENDESaISA_EEESt10_Select1stISD_ESt4lessIS5_ESaISD_EE8_M_eraseEPSt13_Rb_tree_nodeISD_E_x58
    /*00000380*/ LDR         R3, [SP, #12] 
    _ZNSt8_Rb_treeINSt7__cxx1112basic_stringIcSt11char_traitsIcESaIcEEESt4pairIKS5_St6vectorIN4hirt13_FRAME_DEPENDESaISA_EEESt10_Select1stISD_ESt4lessIS5_ESaISD_EE8_M_eraseEPSt13_Rb_tree_nodeISD_E_x384:
    /*00000384*/ LDR         R5, [R3, #40]               @ 0x28 
    /*00000388*/ LDR         R4, [R3, #44]               @ 0x2c 
    /*0000038c*/ LDR         R7, [R3, #8] 
    /*00000390*/ CMP         R5, R4 
    /*00000394*/ ADDNE       R6, R5, #8 
    /*00000398*/ BEQ         _ZNSt8_Rb_treeINSt7__cxx1112basic_stringIcSt11char_traitsIcESaIcEEESt4pairIKS5_St6vectorIN4hirt13_FRAME_DEPENDESaISA_EEESt10_Select1stISD_ESt4lessIS5_ESaISD_EE8_M_eraseEPSt13_Rb_tree_nodeISD_E_x3c4
    _ZNSt8_Rb_treeINSt7__cxx1112basic_stringIcSt11char_traitsIcESaIcEEESt4pairIKS5_St6vectorIN4hirt13_FRAME_DEPENDESaISA_EEESt10_Select1stISD_ESt4lessIS5_ESaISD_EE8_M_eraseEPSt13_Rb_tree_nodeISD_E_x39c:
    /*0000039c*/ LDR         R0, [R6, #-8] 
    /*000003a0*/ ADD         R5, R5, #28 
    /*000003a4*/ CMP         R0, R6 
    /*000003a8*/ ADD         R6, R6, #28 
    /*000003ac*/ BEQ         _ZNSt8_Rb_treeINSt7__cxx1112basic_stringIcSt11char_traitsIcESaIcEEESt4pairIKS5_St6vectorIN4hirt13_FRAME_DEPENDESaISA_EEESt10_Select1stISD_ESt4lessIS5_ESaISD_EE8_M_eraseEPSt13_Rb_tree_nodeISD_E_x3b4
    /*000003b0*/ BL          _ZdlPv
    _ZNSt8_Rb_treeINSt7__cxx1112basic_stringIcSt11char_traitsIcESaIcEEESt4pairIKS5_St6vectorIN4hirt13_FRAME_DEPENDESaISA_EEESt10_Select1stISD_ESt4lessIS5_ESaISD_EE8_M_eraseEPSt13_Rb_tree_nodeISD_E_x3b4:
    /*000003b4*/ CMP         R4, R5 
    /*000003b8*/ BNE         _ZNSt8_Rb_treeINSt7__cxx1112basic_stringIcSt11char_traitsIcESaIcEEESt4pairIKS5_St6vectorIN4hirt13_FRAME_DEPENDESaISA_EEESt10_Select1stISD_ESt4lessIS5_ESaISD_EE8_M_eraseEPSt13_Rb_tree_nodeISD_E_x39c
    /*000003bc*/ LDR         R3, [SP, #12] 
    /*000003c0*/ LDR         R4, [R3, #40]               @ 0x28 
    _ZNSt8_Rb_treeINSt7__cxx1112basic_stringIcSt11char_traitsIcESaIcEEESt4pairIKS5_St6vectorIN4hirt13_FRAME_DEPENDESaISA_EEESt10_Select1stISD_ESt4lessIS5_ESaISD_EE8_M_eraseEPSt13_Rb_tree_nodeISD_E_x3c4:
    /*000003c4*/ CMP         R4, #0 
    /*000003c8*/ BEQ         _ZNSt8_Rb_treeINSt7__cxx1112basic_stringIcSt11char_traitsIcESaIcEEESt4pairIKS5_St6vectorIN4hirt13_FRAME_DEPENDESaISA_EEESt10_Select1stISD_ESt4lessIS5_ESaISD_EE8_M_eraseEPSt13_Rb_tree_nodeISD_E_x3d4
    /*000003cc*/ MOV         R0, R4 
    /*000003d0*/ BL          _ZdlPv
    _ZNSt8_Rb_treeINSt7__cxx1112basic_stringIcSt11char_traitsIcESaIcEEESt4pairIKS5_St6vectorIN4hirt13_FRAME_DEPENDESaISA_EEESt10_Select1stISD_ESt4lessIS5_ESaISD_EE8_M_eraseEPSt13_Rb_tree_nodeISD_E_x3d4:
    /*000003d4*/ LDR         R3, [SP, #12] 
    /*000003d8*/ LDR         R0, [R3, #16] 
    /*000003dc*/ ADD         R3, R3, #24 
    /*000003e0*/ CMP         R0, R3 
    /*000003e4*/ BEQ         _ZNSt8_Rb_treeINSt7__cxx1112basic_stringIcSt11char_traitsIcESaIcEEESt4pairIKS5_St6vectorIN4hirt13_FRAME_DEPENDESaISA_EEESt10_Select1stISD_ESt4lessIS5_ESaISD_EE8_M_eraseEPSt13_Rb_tree_nodeISD_E_x3ec
    /*000003e8*/ BL          _ZdlPv
    _ZNSt8_Rb_treeINSt7__cxx1112basic_stringIcSt11char_traitsIcESaIcEEESt4pairIKS5_St6vectorIN4hirt13_FRAME_DEPENDESaISA_EEESt10_Select1stISD_ESt4lessIS5_ESaISD_EE8_M_eraseEPSt13_Rb_tree_nodeISD_E_x3ec:
    /*000003ec*/ LDR         R0, [SP, #12] 
    /*000003f0*/ BL          _ZdlPv
    /*000003f4*/ SUBS        R3, R7, #0 
    /*000003f8*/ STR         R3, [SP, #12] 
    /*000003fc*/ BNE         _ZNSt8_Rb_treeINSt7__cxx1112basic_stringIcSt11char_traitsIcESaIcEEESt4pairIKS5_St6vectorIN4hirt13_FRAME_DEPENDESaISA_EEESt10_Select1stISD_ESt4lessIS5_ESaISD_EE8_M_eraseEPSt13_Rb_tree_nodeISD_E_x44
    _ZNSt8_Rb_treeINSt7__cxx1112basic_stringIcSt11char_traitsIcESaIcEEESt4pairIKS5_St6vectorIN4hirt13_FRAME_DEPENDESaISA_EEESt10_Select1stISD_ESt4lessIS5_ESaISD_EE8_M_eraseEPSt13_Rb_tree_nodeISD_E_x400:
    /*00000400*/ LDR         R3, [SP, #16] 
    /*00000404*/ LDR         R5, [R3, #40]               @ 0x28 
    /*00000408*/ LDR         R4, [R3, #44]               @ 0x2c 
    /*0000040c*/ LDR         R7, [R3, #8] 
    /*00000410*/ CMP         R5, R4 
    /*00000414*/ ADDNE       R6, R5, #8 
    /*00000418*/ BEQ         _ZNSt8_Rb_treeINSt7__cxx1112basic_stringIcSt11char_traitsIcESaIcEEESt4pairIKS5_St6vectorIN4hirt13_FRAME_DEPENDESaISA_EEESt10_Select1stISD_ESt4lessIS5_ESaISD_EE8_M_eraseEPSt13_Rb_tree_nodeISD_E_x444
    _ZNSt8_Rb_treeINSt7__cxx1112basic_stringIcSt11char_traitsIcESaIcEEESt4pairIKS5_St6vectorIN4hirt13_FRAME_DEPENDESaISA_EEESt10_Select1stISD_ESt4lessIS5_ESaISD_EE8_M_eraseEPSt13_Rb_tree_nodeISD_E_x41c:
    /*0000041c*/ LDR         R0, [R6, #-8] 
    /*00000420*/ ADD         R5, R5, #28 
    /*00000424*/ CMP         R0, R6 
    /*00000428*/ ADD         R6, R6, #28 
    /*0000042c*/ BEQ         _ZNSt8_Rb_treeINSt7__cxx1112basic_stringIcSt11char_traitsIcESaIcEEESt4pairIKS5_St6vectorIN4hirt13_FRAME_DEPENDESaISA_EEESt10_Select1stISD_ESt4lessIS5_ESaISD_EE8_M_eraseEPSt13_Rb_tree_nodeISD_E_x434
    /*00000430*/ BL          _ZdlPv
    _ZNSt8_Rb_treeINSt7__cxx1112basic_stringIcSt11char_traitsIcESaIcEEESt4pairIKS5_St6vectorIN4hirt13_FRAME_DEPENDESaISA_EEESt10_Select1stISD_ESt4lessIS5_ESaISD_EE8_M_eraseEPSt13_Rb_tree_nodeISD_E_x434:
    /*00000434*/ CMP         R4, R5 
    /*00000438*/ BNE         _ZNSt8_Rb_treeINSt7__cxx1112basic_stringIcSt11char_traitsIcESaIcEEESt4pairIKS5_St6vectorIN4hirt13_FRAME_DEPENDESaISA_EEESt10_Select1stISD_ESt4lessIS5_ESaISD_EE8_M_eraseEPSt13_Rb_tree_nodeISD_E_x41c
    /*0000043c*/ LDR         R3, [SP, #16] 
    /*00000440*/ LDR         R4, [R3, #40]               @ 0x28 
    _ZNSt8_Rb_treeINSt7__cxx1112basic_stringIcSt11char_traitsIcESaIcEEESt4pairIKS5_St6vectorIN4hirt13_FRAME_DEPENDESaISA_EEESt10_Select1stISD_ESt4lessIS5_ESaISD_EE8_M_eraseEPSt13_Rb_tree_nodeISD_E_x444:
    /*00000444*/ CMP         R4, #0 
    /*00000448*/ BEQ         _ZNSt8_Rb_treeINSt7__cxx1112basic_stringIcSt11char_traitsIcESaIcEEESt4pairIKS5_St6vectorIN4hirt13_FRAME_DEPENDESaISA_EEESt10_Select1stISD_ESt4lessIS5_ESaISD_EE8_M_eraseEPSt13_Rb_tree_nodeISD_E_x454
    /*0000044c*/ MOV         R0, R4 
    /*00000450*/ BL          _ZdlPv
    _ZNSt8_Rb_treeINSt7__cxx1112basic_stringIcSt11char_traitsIcESaIcEEESt4pairIKS5_St6vectorIN4hirt13_FRAME_DEPENDESaISA_EEESt10_Select1stISD_ESt4lessIS5_ESaISD_EE8_M_eraseEPSt13_Rb_tree_nodeISD_E_x454:
    /*00000454*/ LDR         R3, [SP, #16] 
    /*00000458*/ LDR         R0, [R3, #16] 
    /*0000045c*/ ADD         R3, R3, #24 
    /*00000460*/ CMP         R0, R3 
    /*00000464*/ BEQ         _ZNSt8_Rb_treeINSt7__cxx1112basic_stringIcSt11char_traitsIcESaIcEEESt4pairIKS5_St6vectorIN4hirt13_FRAME_DEPENDESaISA_EEESt10_Select1stISD_ESt4lessIS5_ESaISD_EE8_M_eraseEPSt13_Rb_tree_nodeISD_E_x46c
    /*00000468*/ BL          _ZdlPv
    _ZNSt8_Rb_treeINSt7__cxx1112basic_stringIcSt11char_traitsIcESaIcEEESt4pairIKS5_St6vectorIN4hirt13_FRAME_DEPENDESaISA_EEESt10_Select1stISD_ESt4lessIS5_ESaISD_EE8_M_eraseEPSt13_Rb_tree_nodeISD_E_x46c:
    /*0000046c*/ LDR         R0, [SP, #16] 
    /*00000470*/ BL          _ZdlPv
    /*00000474*/ SUBS        R3, R7, #0 
    /*00000478*/ STR         R3, [SP, #16] 
    /*0000047c*/ BNE         _ZNSt8_Rb_treeINSt7__cxx1112basic_stringIcSt11char_traitsIcESaIcEEESt4pairIKS5_St6vectorIN4hirt13_FRAME_DEPENDESaISA_EEESt10_Select1stISD_ESt4lessIS5_ESaISD_EE8_M_eraseEPSt13_Rb_tree_nodeISD_E_x34
    _ZNSt8_Rb_treeINSt7__cxx1112basic_stringIcSt11char_traitsIcESaIcEEESt4pairIKS5_St6vectorIN4hirt13_FRAME_DEPENDESaISA_EEESt10_Select1stISD_ESt4lessIS5_ESaISD_EE8_M_eraseEPSt13_Rb_tree_nodeISD_E_x480:
    /*00000480*/ LDR         R3, [SP, #20] 
    /*00000484*/ LDR         R5, [R3, #40]               @ 0x28 
    /*00000488*/ LDR         R4, [R3, #44]               @ 0x2c 
    /*0000048c*/ LDR         R7, [R3, #8] 
    /*00000490*/ CMP         R5, R4 
    /*00000494*/ ADDNE       R6, R5, #8 
    /*00000498*/ BEQ         _ZNSt8_Rb_treeINSt7__cxx1112basic_stringIcSt11char_traitsIcESaIcEEESt4pairIKS5_St6vectorIN4hirt13_FRAME_DEPENDESaISA_EEESt10_Select1stISD_ESt4lessIS5_ESaISD_EE8_M_eraseEPSt13_Rb_tree_nodeISD_E_x4c4
    _ZNSt8_Rb_treeINSt7__cxx1112basic_stringIcSt11char_traitsIcESaIcEEESt4pairIKS5_St6vectorIN4hirt13_FRAME_DEPENDESaISA_EEESt10_Select1stISD_ESt4lessIS5_ESaISD_EE8_M_eraseEPSt13_Rb_tree_nodeISD_E_x49c:
    /*0000049c*/ LDR         R0, [R6, #-8] 
    /*000004a0*/ ADD         R5, R5, #28 
    /*000004a4*/ CMP         R6, R0 
    /*000004a8*/ ADD         R6, R6, #28 
    /*000004ac*/ BEQ         _ZNSt8_Rb_treeINSt7__cxx1112basic_stringIcSt11char_traitsIcESaIcEEESt4pairIKS5_St6vectorIN4hirt13_FRAME_DEPENDESaISA_EEESt10_Select1stISD_ESt4lessIS5_ESaISD_EE8_M_eraseEPSt13_Rb_tree_nodeISD_E_x4b4
    /*000004b0*/ BL          _ZdlPv
    _ZNSt8_Rb_treeINSt7__cxx1112basic_stringIcSt11char_traitsIcESaIcEEESt4pairIKS5_St6vectorIN4hirt13_FRAME_DEPENDESaISA_EEESt10_Select1stISD_ESt4lessIS5_ESaISD_EE8_M_eraseEPSt13_Rb_tree_nodeISD_E_x4b4:
    /*000004b4*/ CMP         R4, R5 
    /*000004b8*/ BNE         _ZNSt8_Rb_treeINSt7__cxx1112basic_stringIcSt11char_traitsIcESaIcEEESt4pairIKS5_St6vectorIN4hirt13_FRAME_DEPENDESaISA_EEESt10_Select1stISD_ESt4lessIS5_ESaISD_EE8_M_eraseEPSt13_Rb_tree_nodeISD_E_x49c
    /*000004bc*/ LDR         R3, [SP, #20] 
    /*000004c0*/ LDR         R4, [R3, #40]               @ 0x28 
    _ZNSt8_Rb_treeINSt7__cxx1112basic_stringIcSt11char_traitsIcESaIcEEESt4pairIKS5_St6vectorIN4hirt13_FRAME_DEPENDESaISA_EEESt10_Select1stISD_ESt4lessIS5_ESaISD_EE8_M_eraseEPSt13_Rb_tree_nodeISD_E_x4c4:
    /*000004c4*/ CMP         R4, #0 
    /*000004c8*/ BEQ         _ZNSt8_Rb_treeINSt7__cxx1112basic_stringIcSt11char_traitsIcESaIcEEESt4pairIKS5_St6vectorIN4hirt13_FRAME_DEPENDESaISA_EEESt10_Select1stISD_ESt4lessIS5_ESaISD_EE8_M_eraseEPSt13_Rb_tree_nodeISD_E_x4d4
    /*000004cc*/ MOV         R0, R4 
    /*000004d0*/ BL          _ZdlPv
    _ZNSt8_Rb_treeINSt7__cxx1112basic_stringIcSt11char_traitsIcESaIcEEESt4pairIKS5_St6vectorIN4hirt13_FRAME_DEPENDESaISA_EEESt10_Select1stISD_ESt4lessIS5_ESaISD_EE8_M_eraseEPSt13_Rb_tree_nodeISD_E_x4d4:
    /*000004d4*/ LDR         R3, [SP, #20] 
    /*000004d8*/ LDR         R0, [R3, #16] 
    /*000004dc*/ ADD         R3, R3, #24 
    /*000004e0*/ CMP         R0, R3 
    /*000004e4*/ BEQ         _ZNSt8_Rb_treeINSt7__cxx1112basic_stringIcSt11char_traitsIcESaIcEEESt4pairIKS5_St6vectorIN4hirt13_FRAME_DEPENDESaISA_EEESt10_Select1stISD_ESt4lessIS5_ESaISD_EE8_M_eraseEPSt13_Rb_tree_nodeISD_E_x4ec
    /*000004e8*/ BL          _ZdlPv
    _ZNSt8_Rb_treeINSt7__cxx1112basic_stringIcSt11char_traitsIcESaIcEEESt4pairIKS5_St6vectorIN4hirt13_FRAME_DEPENDESaISA_EEESt10_Select1stISD_ESt4lessIS5_ESaISD_EE8_M_eraseEPSt13_Rb_tree_nodeISD_E_x4ec:
    /*000004ec*/ LDR         R0, [SP, #20] 
    /*000004f0*/ BL          _ZdlPv
    /*000004f4*/ SUBS        R3, R7, #0 
    /*000004f8*/ STR         R3, [SP, #20] 
    /*000004fc*/ BNE         _ZNSt8_Rb_treeINSt7__cxx1112basic_stringIcSt11char_traitsIcESaIcEEESt4pairIKS5_St6vectorIN4hirt13_FRAME_DEPENDESaISA_EEESt10_Select1stISD_ESt4lessIS5_ESaISD_EE8_M_eraseEPSt13_Rb_tree_nodeISD_E_x24
    _ZNSt8_Rb_treeINSt7__cxx1112basic_stringIcSt11char_traitsIcESaIcEEESt4pairIKS5_St6vectorIN4hirt13_FRAME_DEPENDESaISA_EEESt10_Select1stISD_ESt4lessIS5_ESaISD_EE8_M_eraseEPSt13_Rb_tree_nodeISD_E_x500:
    /*00000500*/ ADD         SP, SP, #28 
    /*00000504*/ POP         {R4, R5, R6, R7, R8, R9, SL, FP, PC} 
FUNC_END _ZNSt8_Rb_treeINSt7__cxx1112basic_stringIcSt11char_traitsIcESaIcEEESt4pairIKS5_St6vectorIN4hirt13_FRAME_DEPENDESaISA_EEESt10_Select1stISD_ESt4lessIS5_ESaISD_EE8_M_eraseEPSt13_Rb_tree_nodeISD_E


@ - - - - - - - - - - - - - - - - - - - - - - - - - - - - - 
@ .text._ZN4hirt17ModelGroupManager13delModelGroupEPv
@ Size: 0x850
@ - - - - - - - - - - - - - - - - - - - - - - - - - - - - - 

FUNC_BEGIN _ZN4hirt17ModelGroupManager13delModelGroupEPv
    /*00000000*/ MOV         IP, #16384                  @ 0x4000 
    /*00000004*/ PUSH        {R4, R5, R6, R7, R8, R9, SL, FP, LR} 
    /*00000008*/ SUB         IP, SP, IP 
    /*0000000c*/ STR         R0, [IP, #4032]             @ 0xfc0 
    /*00000010*/ LDR         R3, WORD_0800               @ LDR         R3, [PC, #2024]             @ 0x0000000000000800 
    /*00000014*/ SUBS        R7, R1, #0 
    /*00000018*/ SUB         SP, SP, #28 
    /*0000001c*/ ADD         R3, PC, R3 
    /*00000020*/ BEQ         _ZN4hirt17ModelGroupManager13delModelGroupEPv_x7b0
    /*00000024*/ LDR         R2, WORD_0804               @ LDR         R2, [PC, #2008]             @ 0x0000000000000804 
    /*00000028*/ LDR         R3, [R3, R2] 
    /*0000002c*/ STR         R3, [SP, #16] 
    /*00000030*/ CMP         R3, #0 
    /*00000034*/ BEQ         _ZN4hirt17ModelGroupManager13delModelGroupEPv_x4c
    /*00000038*/ LDR         R0, WORD_0808               @ LDR         R0, [PC, #1992]             @ 0x0000000000000808 
    /*0000003c*/ ADD         R0, PC, R0 
    /*00000040*/ BL          pthread_mutex_lock
    /*00000044*/ CMP         R0, #0 
    /*00000048*/ BNE         _ZN4hirt17ModelGroupManager13delModelGroupEPv_x7d4
    _ZN4hirt17ModelGroupManager13delModelGroupEPv_x4c:
    /*0000004c*/ LDR         R3, WORD_080c               @ LDR         R3, [PC, #1976]             @ 0x000000000000080c 
    /*00000050*/ ADD         R3, PC, R3 
    /*00000054*/ LDR         R2, [R3] 
    /*00000058*/ LDR         R1, [R3, #4] 
    /*0000005c*/ STR         R2, [SP, #12] 
    /*00000060*/ CMP         R2, R1 
    /*00000064*/ BEQ         _ZN4hirt17ModelGroupManager13delModelGroupEPv_x9c
    /*00000068*/ LDR         R3, [R2] 
    /*0000006c*/ CMP         R7, R3 
    /*00000070*/ MOVNE       R3, R2 
    /*00000074*/ ADDNE       R3, R3, #4 
    /*00000078*/ BNE         _ZN4hirt17ModelGroupManager13delModelGroupEPv_x90
    /*0000007c*/ B           _ZN4hirt17ModelGroupManager13delModelGroupEPv_xe0
    _ZN4hirt17ModelGroupManager13delModelGroupEPv_x80:
    /*00000080*/ LDR         R0, [R2] 
    /*00000084*/ ADD         R3, R3, #4 
    /*00000088*/ CMP         R7, R0 
    /*0000008c*/ BEQ         _ZN4hirt17ModelGroupManager13delModelGroupEPv_xdc
    _ZN4hirt17ModelGroupManager13delModelGroupEPv_x90:
    /*00000090*/ CMP         R3, R1 
    /*00000094*/ MOV         R2, R3 
    /*00000098*/ BNE         _ZN4hirt17ModelGroupManager13delModelGroupEPv_x80
    _ZN4hirt17ModelGroupManager13delModelGroupEPv_x9c:
    /*0000009c*/ LDR         R2, WORD_0810               @ LDR         R2, [PC, #1900]             @ 0x0000000000000810 
    /*000000a0*/ MOV         R1, #4 
    /*000000a4*/ LDR         R0, WORD_0814               @ LDR         R0, [PC, #1896]             @ 0x0000000000000814 
    /*000000a8*/ ADD         R2, PC, R2 
    /*000000ac*/ ADD         R0, PC, R0 
    /*000000b0*/ BL          _Z15HIRT_LOG_PrintfPKc19tagHIRT_LOG_LEVEL_ES0_z
    _ZN4hirt17ModelGroupManager13delModelGroupEPv_xb4:
    /*000000b4*/ LDR         R3, [SP, #16] 
    /*000000b8*/ CMP         R3, #0 
    /*000000bc*/ MVNEQ       R0, #0 
    /*000000c0*/ BEQ         _ZN4hirt17ModelGroupManager13delModelGroupEPv_xd4
    /*000000c4*/ LDR         R0, WORD_0818               @ LDR         R0, [PC, #1868]             @ 0x0000000000000818 
    /*000000c8*/ ADD         R0, PC, R0 
    /*000000cc*/ BL          pthread_mutex_unlock
    /*000000d0*/ MVN         R0, #0 
    _ZN4hirt17ModelGroupManager13delModelGroupEPv_xd4:
    /*000000d4*/ ADD         SP, SP, #28 
    /*000000d8*/ POP         {R4, R5, R6, R7, R8, R9, SL, FP, PC} 
    _ZN4hirt17ModelGroupManager13delModelGroupEPv_xdc:
    /*000000dc*/ STR         R2, [SP, #12] 
    _ZN4hirt17ModelGroupManager13delModelGroupEPv_xe0:
    /*000000e0*/ LDR         R3, [R7, #164]              @ 0xa4 
    /*000000e4*/ CMP         R3, #1 
    /*000000e8*/ BEQ         _ZN4hirt17ModelGroupManager13delModelGroupEPv_x730
    /*000000ec*/ LDR         R5, [R7, #52]               @ 0x34 
    /*000000f0*/ LDR         R1, [R5, #40]               @ 0x28 
    /*000000f4*/ LDR         R4, [R5, #44]               @ 0x2c 
    /*000000f8*/ SUB         R4, R4, R1 
    /*000000fc*/ ASRS        R3, R4, #2 
    /*00000100*/ BEQ         _ZN4hirt17ModelGroupManager13delModelGroupEPv_x7a8
    /*00000104*/ CMN         R3, #-1073741823            @ 0xc0000001 
    /*00000108*/ BHI         _ZN4hirt17ModelGroupManager13delModelGroupEPv_x7fc
    /*0000010c*/ MOV         R0, R4 
    /*00000110*/ BL          _Znwj
    /*00000114*/ LDR         R1, [R5, #40]               @ 0x28 
    /*00000118*/ LDR         R4, [R5, #44]               @ 0x2c 
    /*0000011c*/ STR         R0, [SP, #8] 
    /*00000120*/ SUB         R4, R4, R1 
    /*00000124*/ LSRS        R3, R4, #2 
    /*00000128*/ BEQ         _ZN4hirt17ModelGroupManager13delModelGroupEPv_x134
    /*0000012c*/ MOV         R2, R4 
    /*00000130*/ BL          memmove
    _ZN4hirt17ModelGroupManager13delModelGroupEPv_x134:
    /*00000134*/ LDR         R3, [SP, #8] 
    /*00000138*/ ADD         R4, R3, R4 
    /*0000013c*/ CMP         R4, R3 
    /*00000140*/ MOVNE       R5, R3 
    /*00000144*/ BNE         _ZN4hirt17ModelGroupManager13delModelGroupEPv_x154
    /*00000148*/ B           _ZN4hirt17ModelGroupManager13delModelGroupEPv_x178
    _ZN4hirt17ModelGroupManager13delModelGroupEPv_x14c:
    /*0000014c*/ CMP         R4, R5 
    /*00000150*/ BEQ         _ZN4hirt17ModelGroupManager13delModelGroupEPv_x178
    _ZN4hirt17ModelGroupManager13delModelGroupEPv_x154:
    /*00000154*/ LDR         R0, [R5], #4 
    /*00000158*/ LDR         R3, [R0, #144]              @ 0x90 
    /*0000015c*/ CMP         R3, #4 
    /*00000160*/ BNE         _ZN4hirt17ModelGroupManager13delModelGroupEPv_x14c
    /*00000164*/ LDR         R3, [R0] 
    /*00000168*/ LDR         R3, [R3, #4] 
    /*0000016c*/ BLX         R3 
    /*00000170*/ CMP         R4, R5 
    /*00000174*/ BNE         _ZN4hirt17ModelGroupManager13delModelGroupEPv_x154
    _ZN4hirt17ModelGroupManager13delModelGroupEPv_x178:
    /*00000178*/ LDR         R6, [R7, #12] 
    /*0000017c*/ LDR         R3, [R7, #16] 
    /*00000180*/ CMP         R6, R3 
    /*00000184*/ BEQ         _ZN4hirt17ModelGroupManager13delModelGroupEPv_x344
    /*00000188*/ LDR         R3, WORD_081c               @ LDR         R3, [PC, #1676]             @ 0x000000000000081c 
    /*0000018c*/ LDR         R2, WORD_0820               @ LDR         R2, [PC, #1676]             @ 0x0000000000000820 
    /*00000190*/ ADD         R3, PC, R3 
    /*00000194*/ ADD         R2, PC, R2 
    /*00000198*/ ADD         R3, R3, #8 
    /*0000019c*/ STR         R2, [SP, #20] 
    /*000001a0*/ STR         R3, [SP, #4] 
    _ZN4hirt17ModelGroupManager13delModelGroupEPv_x1a4:
    /*000001a4*/ LDR         R5, [R6] 
    /*000001a8*/ LDR         R3, [R5, #288]              @ 0x120 
    /*000001ac*/ CMP         R3, #0 
    /*000001b0*/ BEQ         _ZN4hirt17ModelGroupManager13delModelGroupEPv_x74c
    _ZN4hirt17ModelGroupManager13delModelGroupEPv_x1b4:
    /*000001b4*/ LDR         R0, [R5, #296]              @ 0x128 
    /*000001b8*/ ADD         R3, R5, #304                @ 0x130 
    /*000001bc*/ CMP         R0, R3 
    /*000001c0*/ BEQ         _ZN4hirt17ModelGroupManager13delModelGroupEPv_x1c8
    /*000001c4*/ BL          _ZdlPv
    _ZN4hirt17ModelGroupManager13delModelGroupEPv_x1c8:
    /*000001c8*/ LDR         R9, [R5, #272]              @ 0x110 
    /*000001cc*/ ADD         FP, R5, #264                @ 0x108 
    /*000001d0*/ LDR         R3, [SP, #4] 
    /*000001d4*/ CMP         R9, #0 
    /*000001d8*/ STR         R3, [R5, #76]               @ 0x4c 
    /*000001dc*/ BEQ         _ZN4hirt17ModelGroupManager13delModelGroupEPv_x224
    _ZN4hirt17ModelGroupManager13delModelGroupEPv_x1e0:
    /*000001e0*/ LDR         R1, [R9, #12] 
    /*000001e4*/ MOV         R4, R9 
    /*000001e8*/ MOV         R0, FP 
    /*000001ec*/ BL          _ZNSt8_Rb_treeIjSt4pairIKjNSt7__cxx114listIjSaIjEEEESt10_Select1stIS6_ESt4lessIjESaIS6_EE8_M_eraseEPSt13_Rb_tree_nodeIS6_E
    /*000001f0*/ LDR         R0, [R4, #20]! 
    /*000001f4*/ LDR         R8, [R9, #8] 
    /*000001f8*/ CMP         R0, R4 
    /*000001fc*/ BEQ         _ZN4hirt17ModelGroupManager13delModelGroupEPv_x214
    _ZN4hirt17ModelGroupManager13delModelGroupEPv_x200:
    /*00000200*/ LDR         SL, [R0] 
    /*00000204*/ BL          _ZdlPv
    /*00000208*/ CMP         SL, R4 
    /*0000020c*/ MOV         R0, SL 
    /*00000210*/ BNE         _ZN4hirt17ModelGroupManager13delModelGroupEPv_x200
    _ZN4hirt17ModelGroupManager13delModelGroupEPv_x214:
    /*00000214*/ MOV         R0, R9 
    /*00000218*/ BL          _ZdlPv
    /*0000021c*/ SUBS        R9, R8, #0 
    /*00000220*/ BNE         _ZN4hirt17ModelGroupManager13delModelGroupEPv_x1e0
    _ZN4hirt17ModelGroupManager13delModelGroupEPv_x224:
    /*00000224*/ LDR         R9, [R5, #248]              @ 0xf8 
    /*00000228*/ ADD         FP, R5, #240                @ 0xf0 
    /*0000022c*/ CMP         R9, #0 
    /*00000230*/ BEQ         _ZN4hirt17ModelGroupManager13delModelGroupEPv_x278
    _ZN4hirt17ModelGroupManager13delModelGroupEPv_x234:
    /*00000234*/ LDR         R1, [R9, #12] 
    /*00000238*/ MOV         R4, R9 
    /*0000023c*/ MOV         R0, FP 
    /*00000240*/ BL          _ZNSt8_Rb_treeIjSt4pairIKjNSt7__cxx114listIjSaIjEEEESt10_Select1stIS6_ESt4lessIjESaIS6_EE8_M_eraseEPSt13_Rb_tree_nodeIS6_E
    /*00000244*/ LDR         R0, [R4, #20]! 
    /*00000248*/ LDR         R8, [R9, #8] 
    /*0000024c*/ CMP         R0, R4 
    /*00000250*/ BEQ         _ZN4hirt17ModelGroupManager13delModelGroupEPv_x268
    _ZN4hirt17ModelGroupManager13delModelGroupEPv_x254:
    /*00000254*/ LDR         SL, [R0] 
    /*00000258*/ BL          _ZdlPv
    /*0000025c*/ CMP         SL, R4 
    /*00000260*/ MOV         R0, SL 
    /*00000264*/ BNE         _ZN4hirt17ModelGroupManager13delModelGroupEPv_x254
    _ZN4hirt17ModelGroupManager13delModelGroupEPv_x268:
    /*00000268*/ MOV         R0, R9 
    /*0000026c*/ BL          _ZdlPv
    /*00000270*/ SUBS        R9, R8, #0 
    /*00000274*/ BNE         _ZN4hirt17ModelGroupManager13delModelGroupEPv_x234
    _ZN4hirt17ModelGroupManager13delModelGroupEPv_x278:
    /*00000278*/ LDR         R9, [R5, #224]              @ 0xe0 
    /*0000027c*/ ADD         FP, R5, #216                @ 0xd8 
    /*00000280*/ CMP         R9, #0 
    /*00000284*/ BEQ         _ZN4hirt17ModelGroupManager13delModelGroupEPv_x2cc
    _ZN4hirt17ModelGroupManager13delModelGroupEPv_x288:
    /*00000288*/ LDR         R1, [R9, #12] 
    /*0000028c*/ MOV         R4, R9 
    /*00000290*/ MOV         R0, FP 
    /*00000294*/ BL          _ZNSt8_Rb_treeIjSt4pairIKjNSt7__cxx114listIjSaIjEEEESt10_Select1stIS6_ESt4lessIjESaIS6_EE8_M_eraseEPSt13_Rb_tree_nodeIS6_E
    /*00000298*/ LDR         R0, [R4, #20]! 
    /*0000029c*/ LDR         R8, [R9, #8] 
    /*000002a0*/ CMP         R0, R4 
    /*000002a4*/ BEQ         _ZN4hirt17ModelGroupManager13delModelGroupEPv_x2bc
    _ZN4hirt17ModelGroupManager13delModelGroupEPv_x2a8:
    /*000002a8*/ LDR         SL, [R0] 
    /*000002ac*/ BL          _ZdlPv
    /*000002b0*/ CMP         SL, R4 
    /*000002b4*/ MOV         R0, SL 
    /*000002b8*/ BNE         _ZN4hirt17ModelGroupManager13delModelGroupEPv_x2a8
    _ZN4hirt17ModelGroupManager13delModelGroupEPv_x2bc:
    /*000002bc*/ MOV         R0, R9 
    /*000002c0*/ BL          _ZdlPv
    /*000002c4*/ SUBS        R9, R8, #0 
    /*000002c8*/ BNE         _ZN4hirt17ModelGroupManager13delModelGroupEPv_x288
    _ZN4hirt17ModelGroupManager13delModelGroupEPv_x2cc:
    /*000002cc*/ LDR         R9, [R5, #200]              @ 0xc8 
    /*000002d0*/ ADD         FP, R5, #192                @ 0xc0 
    /*000002d4*/ CMP         R9, #0 
    /*000002d8*/ BEQ         _ZN4hirt17ModelGroupManager13delModelGroupEPv_x320
    _ZN4hirt17ModelGroupManager13delModelGroupEPv_x2dc:
    /*000002dc*/ LDR         R1, [R9, #12] 
    /*000002e0*/ MOV         R4, R9 
    /*000002e4*/ MOV         R0, FP 
    /*000002e8*/ BL          _ZNSt8_Rb_treeIjSt4pairIKjNSt7__cxx114listIjSaIjEEEESt10_Select1stIS6_ESt4lessIjESaIS6_EE8_M_eraseEPSt13_Rb_tree_nodeIS6_E
    /*000002ec*/ LDR         R0, [R4, #20]! 
    /*000002f0*/ LDR         R8, [R9, #8] 
    /*000002f4*/ CMP         R4, R0 
    /*000002f8*/ BEQ         _ZN4hirt17ModelGroupManager13delModelGroupEPv_x310
    _ZN4hirt17ModelGroupManager13delModelGroupEPv_x2fc:
    /*000002fc*/ LDR         SL, [R0] 
    /*00000300*/ BL          _ZdlPv
    /*00000304*/ CMP         R4, SL 
    /*00000308*/ MOV         R0, SL 
    /*0000030c*/ BNE         _ZN4hirt17ModelGroupManager13delModelGroupEPv_x2fc
    _ZN4hirt17ModelGroupManager13delModelGroupEPv_x310:
    /*00000310*/ MOV         R0, R9 
    /*00000314*/ BL          _ZdlPv
    /*00000318*/ SUBS        R9, R8, #0 
    /*0000031c*/ BNE         _ZN4hirt17ModelGroupManager13delModelGroupEPv_x2dc
    _ZN4hirt17ModelGroupManager13delModelGroupEPv_x320:
    /*00000320*/ MOV         R0, R5 
    /*00000324*/ MOV         R1, #320                    @ 0x140 
    /*00000328*/ BL          _ZdlPvj
    /*0000032c*/ MOV         R3, #0 
    /*00000330*/ STR         R3, [R6] 
    _ZN4hirt17ModelGroupManager13delModelGroupEPv_x334:
    /*00000334*/ LDR         R3, [R7, #16] 
    /*00000338*/ ADD         R6, R6, #4 
    /*0000033c*/ CMP         R3, R6 
    /*00000340*/ BNE         _ZN4hirt17ModelGroupManager13delModelGroupEPv_x1a4
    _ZN4hirt17ModelGroupManager13delModelGroupEPv_x344:
    /*00000344*/ LDR         R0, [R7, #48]               @ 0x30 
    /*00000348*/ CMP         R0, #0 
    /*0000034c*/ BEQ         _ZN4hirt17ModelGroupManager13delModelGroupEPv_x364
    /*00000350*/ LDR         R3, [R0] 
    /*00000354*/ LDR         R3, [R3, #8] 
    /*00000358*/ BLX         R3 
    /*0000035c*/ MOV         R3, #0 
    /*00000360*/ STR         R3, [R7, #48]               @ 0x30 
    _ZN4hirt17ModelGroupManager13delModelGroupEPv_x364:
    /*00000364*/ BL          _ZN4hirt22AuxiliaryMemoryManager11getInstanceEv
    /*00000368*/ MOV         R1, R7 
    /*0000036c*/ BL          _ZN4hirt22AuxiliaryMemoryManager8delGroupEPv
    /*00000370*/ LDR         R4, [R7, #36]               @ 0x24 
    /*00000374*/ ADD         R5, R7, #28 
    /*00000378*/ CMP         R4, R5 
    /*0000037c*/ MOVNE       R6, #0 
    /*00000380*/ BEQ         _ZN4hirt17ModelGroupManager13delModelGroupEPv_x3e4
    _ZN4hirt17ModelGroupManager13delModelGroupEPv_x384:
    /*00000384*/ LDR         R0, [R4, #16] 
    /*00000388*/ LDR         R3, [R0] 
    /*0000038c*/ CMP         R3, #0 
    /*00000390*/ BEQ         _ZN4hirt17ModelGroupManager13delModelGroupEPv_x3a8
    /*00000394*/ MOV         R0, R3 
    /*00000398*/ MOV         R1, #48                     @ 0x30 
    /*0000039c*/ BL          _ZdlPvj
    /*000003a0*/ LDR         R0, [R4, #16] 
    /*000003a4*/ STR         R6, [R0] 
    _ZN4hirt17ModelGroupManager13delModelGroupEPv_x3a8:
    /*000003a8*/ MOV         R1, #136                    @ 0x88 
    /*000003ac*/ BL          _ZdlPvj
    /*000003b0*/ MOV         R0, R4 
    /*000003b4*/ BL          _ZSt18_Rb_tree_incrementPSt18_Rb_tree_node_base
    /*000003b8*/ MOV         R3, R0 
    /*000003bc*/ MOV         R1, R5 
    /*000003c0*/ MOV         R0, R4 
    /*000003c4*/ MOV         R4, R3 
    /*000003c8*/ BL          _ZSt28_Rb_tree_rebalance_for_erasePSt18_Rb_tree_node_baseRS_
    /*000003cc*/ BL          _ZdlPv
    /*000003d0*/ LDR         R3, [R7, #44]               @ 0x2c 
    /*000003d4*/ CMP         R4, R5 
    /*000003d8*/ SUB         R3, R3, #1 
    /*000003dc*/ STR         R3, [R7, #44]               @ 0x2c 
    /*000003e0*/ BNE         _ZN4hirt17ModelGroupManager13delModelGroupEPv_x384
    _ZN4hirt17ModelGroupManager13delModelGroupEPv_x3e4:
    /*000003e4*/ LDR         R4, [R7, #52]               @ 0x34 
    /*000003e8*/ CMP         R4, #0 
    /*000003ec*/ BEQ         _ZN4hirt17ModelGroupManager13delModelGroupEPv_x444
    /*000003f0*/ LDR         R2, [R4] 
    /*000003f4*/ LDR         R3, WORD_0824               @ LDR         R3, [PC, #1064]             @ 0x0000000000000824 
    /*000003f8*/ LDR         R2, [R2, #4] 
    /*000003fc*/ ADD         R3, PC, R3 
    /*00000400*/ CMP         R2, R3 
    /*00000404*/ BNE         _ZN4hirt17ModelGroupManager13delModelGroupEPv_x7d8
    /*00000408*/ LDR         R0, [R4, #40]               @ 0x28 
    /*0000040c*/ LDR         R3, WORD_0828               @ LDR         R3, [PC, #1044]             @ 0x0000000000000828 
    /*00000410*/ CMP         R0, #0 
    /*00000414*/ ADD         R3, PC, R3 
    /*00000418*/ ADD         R3, R3, #8 
    /*0000041c*/ STR         R3, [R4] 
    /*00000420*/ BEQ         _ZN4hirt17ModelGroupManager13delModelGroupEPv_x428
    /*00000424*/ BL          _ZdlPv
    _ZN4hirt17ModelGroupManager13delModelGroupEPv_x428:
    /*00000428*/ MOV         R0, R4 
    /*0000042c*/ BL          _ZN4hirt5GraphD2Ev
    /*00000430*/ MOV         R0, R4 
    /*00000434*/ MOV         R1, #52                     @ 0x34 
    /*00000438*/ BL          _ZdlPvj
    _ZN4hirt17ModelGroupManager13delModelGroupEPv_x43c:
    /*0000043c*/ MOV         R3, #0 
    /*00000440*/ STR         R3, [R7, #52]               @ 0x34 
    _ZN4hirt17ModelGroupManager13delModelGroupEPv_x444:
    /*00000444*/ LDR         R6, [R7, #12] 
    /*00000448*/ LDR         R3, [R7, #16] 
    /*0000044c*/ CMP         R3, R6 
    /*00000450*/ BEQ         _ZN4hirt17ModelGroupManager13delModelGroupEPv_x624
    /*00000454*/ LDR         R2, WORD_082c               @ LDR         R2, [PC, #976]              @ 0x000000000000082c 
    /*00000458*/ ADD         R1, R6, #4 
    /*0000045c*/ STR         R1, [SP, #4] 
    /*00000460*/ ADD         R2, PC, R2 
    /*00000464*/ ADD         R2, R2, #8 
    /*00000468*/ STR         R2, [SP, #20] 
    _ZN4hirt17ModelGroupManager13delModelGroupEPv_x46c:
    /*0000046c*/ LDR         R5, [R6] 
    /*00000470*/ CMP         R5, #0 
    /*00000474*/ BEQ         _ZN4hirt17ModelGroupManager13delModelGroupEPv_x5fc
    /*00000478*/ LDR         R0, [R5, #296]              @ 0x128 
    /*0000047c*/ ADD         R3, R5, #304                @ 0x130 
    /*00000480*/ CMP         R0, R3 
    /*00000484*/ BEQ         _ZN4hirt17ModelGroupManager13delModelGroupEPv_x48c
    /*00000488*/ BL          _ZdlPv
    _ZN4hirt17ModelGroupManager13delModelGroupEPv_x48c:
    /*0000048c*/ LDR         R9, [R5, #272]              @ 0x110 
    /*00000490*/ ADD         FP, R5, #264                @ 0x108 
    /*00000494*/ LDR         R3, [SP, #20] 
    /*00000498*/ CMP         R9, #0 
    /*0000049c*/ STR         R3, [R5, #76]               @ 0x4c 
    /*000004a0*/ BEQ         _ZN4hirt17ModelGroupManager13delModelGroupEPv_x4e8
    _ZN4hirt17ModelGroupManager13delModelGroupEPv_x4a4:
    /*000004a4*/ LDR         R1, [R9, #12] 
    /*000004a8*/ MOV         R4, R9 
    /*000004ac*/ MOV         R0, FP 
    /*000004b0*/ BL          _ZNSt8_Rb_treeIjSt4pairIKjNSt7__cxx114listIjSaIjEEEESt10_Select1stIS6_ESt4lessIjESaIS6_EE8_M_eraseEPSt13_Rb_tree_nodeIS6_E
    /*000004b4*/ LDR         R0, [R4, #20]! 
    /*000004b8*/ LDR         R8, [R9, #8] 
    /*000004bc*/ CMP         R4, R0 
    /*000004c0*/ BEQ         _ZN4hirt17ModelGroupManager13delModelGroupEPv_x4d8
    _ZN4hirt17ModelGroupManager13delModelGroupEPv_x4c4:
    /*000004c4*/ LDR         SL, [R0] 
    /*000004c8*/ BL          _ZdlPv
    /*000004cc*/ CMP         R4, SL 
    /*000004d0*/ MOV         R0, SL 
    /*000004d4*/ BNE         _ZN4hirt17ModelGroupManager13delModelGroupEPv_x4c4
    _ZN4hirt17ModelGroupManager13delModelGroupEPv_x4d8:
    /*000004d8*/ MOV         R0, R9 
    /*000004dc*/ BL          _ZdlPv
    /*000004e0*/ SUBS        R9, R8, #0 
    /*000004e4*/ BNE         _ZN4hirt17ModelGroupManager13delModelGroupEPv_x4a4
    _ZN4hirt17ModelGroupManager13delModelGroupEPv_x4e8:
    /*000004e8*/ LDR         R9, [R5, #248]              @ 0xf8 
    /*000004ec*/ ADD         FP, R5, #240                @ 0xf0 
    /*000004f0*/ CMP         R9, #0 
    /*000004f4*/ BEQ         _ZN4hirt17ModelGroupManager13delModelGroupEPv_x53c
    _ZN4hirt17ModelGroupManager13delModelGroupEPv_x4f8:
    /*000004f8*/ LDR         R1, [R9, #12] 
    /*000004fc*/ MOV         R4, R9 
    /*00000500*/ MOV         R0, FP 
    /*00000504*/ BL          _ZNSt8_Rb_treeIjSt4pairIKjNSt7__cxx114listIjSaIjEEEESt10_Select1stIS6_ESt4lessIjESaIS6_EE8_M_eraseEPSt13_Rb_tree_nodeIS6_E
    /*00000508*/ LDR         R0, [R4, #20]! 
    /*0000050c*/ LDR         R8, [R9, #8] 
    /*00000510*/ CMP         R0, R4 
    /*00000514*/ BEQ         _ZN4hirt17ModelGroupManager13delModelGroupEPv_x52c
    _ZN4hirt17ModelGroupManager13delModelGroupEPv_x518:
    /*00000518*/ LDR         SL, [R0] 
    /*0000051c*/ BL          _ZdlPv
    /*00000520*/ CMP         SL, R4 
    /*00000524*/ MOV         R0, SL 
    /*00000528*/ BNE         _ZN4hirt17ModelGroupManager13delModelGroupEPv_x518
    _ZN4hirt17ModelGroupManager13delModelGroupEPv_x52c:
    /*0000052c*/ MOV         R0, R9 
    /*00000530*/ BL          _ZdlPv
    /*00000534*/ SUBS        R9, R8, #0 
    /*00000538*/ BNE         _ZN4hirt17ModelGroupManager13delModelGroupEPv_x4f8
    _ZN4hirt17ModelGroupManager13delModelGroupEPv_x53c:
    /*0000053c*/ LDR         R9, [R5, #224]              @ 0xe0 
    /*00000540*/ ADD         FP, R5, #216                @ 0xd8 
    /*00000544*/ CMP         R9, #0 
    /*00000548*/ BEQ         _ZN4hirt17ModelGroupManager13delModelGroupEPv_x590
    _ZN4hirt17ModelGroupManager13delModelGroupEPv_x54c:
    /*0000054c*/ LDR         R1, [R9, #12] 
    /*00000550*/ MOV         R4, R9 
    /*00000554*/ MOV         R0, FP 
    /*00000558*/ BL          _ZNSt8_Rb_treeIjSt4pairIKjNSt7__cxx114listIjSaIjEEEESt10_Select1stIS6_ESt4lessIjESaIS6_EE8_M_eraseEPSt13_Rb_tree_nodeIS6_E
    /*0000055c*/ LDR         R0, [R4, #20]! 
    /*00000560*/ LDR         R8, [R9, #8] 
    /*00000564*/ CMP         R0, R4 
    /*00000568*/ BEQ         _ZN4hirt17ModelGroupManager13delModelGroupEPv_x580
    _ZN4hirt17ModelGroupManager13delModelGroupEPv_x56c:
    /*0000056c*/ LDR         SL, [R0] 
    /*00000570*/ BL          _ZdlPv
    /*00000574*/ CMP         SL, R4 
    /*00000578*/ MOV         R0, SL 
    /*0000057c*/ BNE         _ZN4hirt17ModelGroupManager13delModelGroupEPv_x56c
    _ZN4hirt17ModelGroupManager13delModelGroupEPv_x580:
    /*00000580*/ MOV         R0, R9 
    /*00000584*/ BL          _ZdlPv
    /*00000588*/ SUBS        R9, R8, #0 
    /*0000058c*/ BNE         _ZN4hirt17ModelGroupManager13delModelGroupEPv_x54c
    _ZN4hirt17ModelGroupManager13delModelGroupEPv_x590:
    /*00000590*/ LDR         R9, [R5, #200]              @ 0xc8 
    /*00000594*/ ADD         FP, R5, #192                @ 0xc0 
    /*00000598*/ CMP         R9, #0 
    /*0000059c*/ BEQ         _ZN4hirt17ModelGroupManager13delModelGroupEPv_x5e4
    _ZN4hirt17ModelGroupManager13delModelGroupEPv_x5a0:
    /*000005a0*/ LDR         R1, [R9, #12] 
    /*000005a4*/ MOV         R4, R9 
    /*000005a8*/ MOV         R0, FP 
    /*000005ac*/ BL          _ZNSt8_Rb_treeIjSt4pairIKjNSt7__cxx114listIjSaIjEEEESt10_Select1stIS6_ESt4lessIjESaIS6_EE8_M_eraseEPSt13_Rb_tree_nodeIS6_E
    /*000005b0*/ LDR         R0, [R4, #20]! 
    /*000005b4*/ LDR         R8, [R9, #8] 
    /*000005b8*/ CMP         R0, R4 
    /*000005bc*/ BEQ         _ZN4hirt17ModelGroupManager13delModelGroupEPv_x5d4
    _ZN4hirt17ModelGroupManager13delModelGroupEPv_x5c0:
    /*000005c0*/ LDR         SL, [R0] 
    /*000005c4*/ BL          _ZdlPv
    /*000005c8*/ CMP         SL, R4 
    /*000005cc*/ MOV         R0, SL 
    /*000005d0*/ BNE         _ZN4hirt17ModelGroupManager13delModelGroupEPv_x5c0
    _ZN4hirt17ModelGroupManager13delModelGroupEPv_x5d4:
    /*000005d4*/ MOV         R0, R9 
    /*000005d8*/ BL          _ZdlPv
    /*000005dc*/ SUBS        R9, R8, #0 
    /*000005e0*/ BNE         _ZN4hirt17ModelGroupManager13delModelGroupEPv_x5a0
    _ZN4hirt17ModelGroupManager13delModelGroupEPv_x5e4:
    /*000005e4*/ MOV         R0, R5 
    /*000005e8*/ MOV         R1, #320                    @ 0x140 
    /*000005ec*/ BL          _ZdlPvj
    /*000005f0*/ LDR         R3, [R7, #16] 
    /*000005f4*/ MOV         R2, #0 
    /*000005f8*/ STR         R2, [R6] 
    _ZN4hirt17ModelGroupManager13delModelGroupEPv_x5fc:
    /*000005fc*/ LDR         R2, [SP, #4] 
    /*00000600*/ CMP         R3, R2 
    /*00000604*/ BEQ         _ZN4hirt17ModelGroupManager13delModelGroupEPv_x614
    /*00000608*/ SUB         R2, R3, R2 
    /*0000060c*/ LSRS        R1, R2, #2 
    /*00000610*/ BNE         _ZN4hirt17ModelGroupManager13delModelGroupEPv_x778
    _ZN4hirt17ModelGroupManager13delModelGroupEPv_x614:
    /*00000614*/ SUB         R3, R3, #4 
    /*00000618*/ CMP         R6, R3 
    /*0000061c*/ STR         R3, [R7, #16] 
    /*00000620*/ BNE         _ZN4hirt17ModelGroupManager13delModelGroupEPv_x46c
    _ZN4hirt17ModelGroupManager13delModelGroupEPv_x624:
    /*00000624*/ LDR         R1, [R7, #64]               @ 0x40 
    /*00000628*/ ADD         R4, R7, #56                 @ 0x38 
    /*0000062c*/ MOV         R0, R4 
    /*00000630*/ BL          _ZNSt8_Rb_treeINSt7__cxx1112basic_stringIcSt11char_traitsIcESaIcEEESt4pairIKS5_St6vectorIN4hirt13_FRAME_DEPENDESaISA_EEESt10_Select1stISD_ESt4lessIS5_ESaISD_EE8_M_eraseEPSt13_Rb_tree_nodeISD_E
    /*00000634*/ LDR         R0, [R7, #108]              @ 0x6c 
    /*00000638*/ ADD         R3, R7, #116                @ 0x74 
    /*0000063c*/ MOV         R2, #0 
    /*00000640*/ CMP         R0, R3 
    /*00000644*/ ADD         R3, R7, #60                 @ 0x3c 
    /*00000648*/ STR         R2, [R7, #64]               @ 0x40 
    /*0000064c*/ STR         R2, [R7, #76]               @ 0x4c 
    /*00000650*/ STR         R3, [R7, #68]               @ 0x44 
    /*00000654*/ STR         R3, [R7, #72]               @ 0x48 
    /*00000658*/ BEQ         _ZN4hirt17ModelGroupManager13delModelGroupEPv_x660
    /*0000065c*/ BL          _ZdlPv
    _ZN4hirt17ModelGroupManager13delModelGroupEPv_x660:
    /*00000660*/ LDR         R0, [R7, #92]               @ 0x5c 
    /*00000664*/ CMP         R0, #0 
    /*00000668*/ BEQ         _ZN4hirt17ModelGroupManager13delModelGroupEPv_x670
    /*0000066c*/ BL          _ZdlPv
    _ZN4hirt17ModelGroupManager13delModelGroupEPv_x670:
    /*00000670*/ LDR         R0, [R7, #80]               @ 0x50 
    /*00000674*/ CMP         R0, #0 
    /*00000678*/ BEQ         _ZN4hirt17ModelGroupManager13delModelGroupEPv_x680
    /*0000067c*/ BL          _ZdlPv
    _ZN4hirt17ModelGroupManager13delModelGroupEPv_x680:
    /*00000680*/ LDR         R1, [R7, #64]               @ 0x40 
    /*00000684*/ MOV         R0, R4 
    /*00000688*/ BL          _ZNSt8_Rb_treeINSt7__cxx1112basic_stringIcSt11char_traitsIcESaIcEEESt4pairIKS5_St6vectorIN4hirt13_FRAME_DEPENDESaISA_EEESt10_Select1stISD_ESt4lessIS5_ESaISD_EE8_M_eraseEPSt13_Rb_tree_nodeISD_E
    /*0000068c*/ LDR         R1, [R7, #32] 
    /*00000690*/ ADD         R0, R7, #24 
    /*00000694*/ BL          _ZNSt8_Rb_treeIP22hiRUNTIME_GROUP_BLOB_SSt4pairIKS1_7HI_BOOLESt10_Select1stIS5_ESt4lessIS1_ESaIS5_EE8_M_eraseEPSt13_Rb_tree_nodeIS5_E
    /*00000698*/ LDR         R0, [R7, #12] 
    /*0000069c*/ CMP         R0, #0 
    /*000006a0*/ BEQ         _ZN4hirt17ModelGroupManager13delModelGroupEPv_x6a8
    /*000006a4*/ BL          _ZdlPv
    _ZN4hirt17ModelGroupManager13delModelGroupEPv_x6a8:
    /*000006a8*/ LDR         R4, WORD_0830               @ LDR         R4, [PC, #384]              @ 0x0000000000000830 
    /*000006ac*/ MOV         R1, #168                    @ 0xa8 
    /*000006b0*/ MOV         R0, R7 
    /*000006b4*/ ADD         R4, PC, R4 
    /*000006b8*/ BL          _ZdlPvj
    /*000006bc*/ LDR         R2, [SP, #12] 
    /*000006c0*/ LDR         R3, [R4, #4] 
    /*000006c4*/ ADD         R1, R2, #4 
    /*000006c8*/ CMP         R1, R3 
    /*000006cc*/ BEQ         _ZN4hirt17ModelGroupManager13delModelGroupEPv_x6e8
    /*000006d0*/ SUB         R2, R3, R1 
    /*000006d4*/ LSRS        R0, R2, #2 
    /*000006d8*/ BEQ         _ZN4hirt17ModelGroupManager13delModelGroupEPv_x6e8
    /*000006dc*/ LDR         R0, [SP, #12] 
    /*000006e0*/ BL          memmove
    /*000006e4*/ LDR         R3, [R4, #4] 
    _ZN4hirt17ModelGroupManager13delModelGroupEPv_x6e8:
    /*000006e8*/ LDR         R2, WORD_0834               @ LDR         R2, [PC, #324]              @ 0x0000000000000834 
    /*000006ec*/ SUB         R3, R3, #4 
    /*000006f0*/ LDR         R1, [SP, #8] 
    /*000006f4*/ ADD         R2, PC, R2 
    /*000006f8*/ CMP         R1, #0 
    /*000006fc*/ STR         R3, [R2, #4] 
    /*00000700*/ BEQ         _ZN4hirt17ModelGroupManager13delModelGroupEPv_x70c
    /*00000704*/ MOV         R0, R1 
    /*00000708*/ BL          _ZdlPv
    _ZN4hirt17ModelGroupManager13delModelGroupEPv_x70c:
    /*0000070c*/ LDR         R3, [SP, #16] 
    /*00000710*/ CMP         R3, #0 
    /*00000714*/ BEQ         _ZN4hirt17ModelGroupManager13delModelGroupEPv_x724
    /*00000718*/ LDR         R0, WORD_0838               @ LDR         R0, [PC, #280]              @ 0x0000000000000838 
    /*0000071c*/ ADD         R0, PC, R0 
    /*00000720*/ BL          pthread_mutex_unlock
    _ZN4hirt17ModelGroupManager13delModelGroupEPv_x724:
    /*00000724*/ MOV         R0, #0 
    /*00000728*/ ADD         SP, SP, #28 
    /*0000072c*/ POP         {R4, R5, R6, R7, R8, R9, SL, FP, PC} 
    _ZN4hirt17ModelGroupManager13delModelGroupEPv_x730:
    /*00000730*/ LDR         R2, WORD_083c               @ LDR         R2, [PC, #260]              @ 0x000000000000083c 
    /*00000734*/ MOV         R1, #4 
    /*00000738*/ LDR         R0, WORD_0840               @ LDR         R0, [PC, #256]              @ 0x0000000000000840 
    /*0000073c*/ ADD         R2, PC, R2 
    /*00000740*/ ADD         R0, PC, R0 
    /*00000744*/ BL          _Z15HIRT_LOG_PrintfPKc19tagHIRT_LOG_LEVEL_ES0_z
    /*00000748*/ B           _ZN4hirt17ModelGroupManager13delModelGroupEPv_xb4
    _ZN4hirt17ModelGroupManager13delModelGroupEPv_x74c:
    /*0000074c*/ BL          _ZN4hirt12ModelManager11getInstanceEv
    /*00000750*/ LDR         R1, [R6] 
    /*00000754*/ BL          _ZN4hirt12ModelManager8delModelEPNS_16tagMODEL_MODEL_SE
    /*00000758*/ CMN         R0, #2 
    /*0000075c*/ BEQ         _ZN4hirt17ModelGroupManager13delModelGroupEPv_x334
    /*00000760*/ CMP         R0, #0 
    /*00000764*/ BNE         _ZN4hirt17ModelGroupManager13delModelGroupEPv_x78c
    _ZN4hirt17ModelGroupManager13delModelGroupEPv_x768:
    /*00000768*/ LDR         R5, [R6] 
    /*0000076c*/ CMP         R5, #0 
    /*00000770*/ BEQ         _ZN4hirt17ModelGroupManager13delModelGroupEPv_x334
    /*00000774*/ B           _ZN4hirt17ModelGroupManager13delModelGroupEPv_x1b4
    _ZN4hirt17ModelGroupManager13delModelGroupEPv_x778:
    /*00000778*/ LDR         R1, [SP, #4] 
    /*0000077c*/ MOV         R0, R6 
    /*00000780*/ BL          memmove
    /*00000784*/ LDR         R3, [R7, #16] 
    /*00000788*/ B           _ZN4hirt17ModelGroupManager13delModelGroupEPv_x614
    _ZN4hirt17ModelGroupManager13delModelGroupEPv_x78c:
    /*0000078c*/ LDR         R0, WORD_0844               @ LDR         R0, [PC, #176]              @ 0x0000000000000844 
    /*00000790*/ MOV         R1, #4 
    /*00000794*/ LDR         R3, [R6] 
    /*00000798*/ LDR         R2, [SP, #20] 
    /*0000079c*/ ADD         R0, PC, R0 
    /*000007a0*/ BL          _Z15HIRT_LOG_PrintfPKc19tagHIRT_LOG_LEVEL_ES0_z
    /*000007a4*/ B           _ZN4hirt17ModelGroupManager13delModelGroupEPv_x768
    _ZN4hirt17ModelGroupManager13delModelGroupEPv_x7a8:
    /*000007a8*/ STR         R3, [SP, #8] 
    /*000007ac*/ B           _ZN4hirt17ModelGroupManager13delModelGroupEPv_x134
    _ZN4hirt17ModelGroupManager13delModelGroupEPv_x7b0:
    /*000007b0*/ LDR         R2, WORD_0848               @ LDR         R2, [PC, #144]              @ 0x0000000000000848 
    /*000007b4*/ MOV         R1, #4 
    /*000007b8*/ LDR         R0, WORD_084c               @ LDR         R0, [PC, #140]              @ 0x000000000000084c 
    /*000007bc*/ ADD         R2, PC, R2 
    /*000007c0*/ ADD         R0, PC, R0 
    /*000007c4*/ BL          _Z15HIRT_LOG_PrintfPKc19tagHIRT_LOG_LEVEL_ES0_z
    /*000007c8*/ MVN         R0, #0 
    /*000007cc*/ ADD         SP, SP, #28 
    /*000007d0*/ POP         {R4, R5, R6, R7, R8, R9, SL, FP, PC} 
    _ZN4hirt17ModelGroupManager13delModelGroupEPv_x7d4:
    /*000007d4*/ BL          _ZSt20__throw_system_errori
    _ZN4hirt17ModelGroupManager13delModelGroupEPv_x7d8:
    /*000007d8*/ MOV         R0, R4 
    /*000007dc*/ BLX         R2 
    /*000007e0*/ B           _ZN4hirt17ModelGroupManager13delModelGroupEPv_x43c
    /*000007e4*/ LDR         R3, [SP, #8] 
    /*000007e8*/ CMP         R3, #0 
    /*000007ec*/ BEQ         _ZN4hirt17ModelGroupManager13delModelGroupEPv_x7f8
    /*000007f0*/ MOV         R0, R3 
    /*000007f4*/ BL          _ZdlPv
    _ZN4hirt17ModelGroupManager13delModelGroupEPv_x7f8:
    /*000007f8*/ BL          __cxa_end_cleanup
    _ZN4hirt17ModelGroupManager13delModelGroupEPv_x7fc:
    /*000007fc*/ BL          _ZSt17__throw_bad_allocv
    /*00000800*/ WORD_0800: .word 0x000007dc
    /*00000804*/ WORD_0804: .word 0x00000000
    /*00000808*/ WORD_0808: .word 0x000007c4
    /*0000080c*/ WORD_080c: .word 0x000007b4
    /*00000810*/ WORD_0810: .word 0x00000760
    /*00000814*/ WORD_0814: .word 0x00000760
    /*00000818*/ WORD_0818: .word 0x00000748
    /*0000081c*/ WORD_081c: .word 0x00000684
    /*00000820*/ WORD_0820: .word 0x00000684
    /*00000824*/ WORD_0824: .word 0x00000420
    /*00000828*/ WORD_0828: .word 0x0000040c
    /*0000082c*/ WORD_082c: .word 0x000003c4
    /*00000830*/ WORD_0830: .word 0x00000174
    /*00000834*/ WORD_0834: .word 0x00000138
    /*00000838*/ WORD_0838: .word 0x00000114
    /*0000083c*/ WORD_083c: .word 0x000000f8
    /*00000840*/ WORD_0840: .word 0x000000f8
    /*00000844*/ WORD_0844: .word 0x000000a0
    /*00000848*/ WORD_0848: .word 0x00000084
    /*0000084c*/ WORD_084c: .word 0x00000084
FUNC_END _ZN4hirt17ModelGroupManager13delModelGroupEPv


@ - - - - - - - - - - - - - - - - - - - - - - - - - - - - - 
@ .ARM.extab.text._ZN4hirt17ModelGroupManager13delModelGroupEPv
@ Size: 0x27
@ - - - - - - - - - - - - - - - - - - - - - - - - - - - - - 

@ - - - - - - - - - - - - - - - - - - - - - - - - - - - - - 
@ .text._ZNSt6vectorIPN4hirt9GroupItemESaIS2_EE19_M_emplace_back_auxIJRKS2_EEEvDpOT_
@ Size: 0xd4
@ - - - - - - - - - - - - - - - - - - - - - - - - - - - - - 

FUNC_BEGIN _ZNSt6vectorIPN4hirt9GroupItemESaIS2_EE19_M_emplace_back_auxIJRKS2_EEEvDpOT_
    /*00000000*/ MOV         IP, #16384                  @ 0x4000 
    /*00000004*/ PUSH        {R4, R5, R6, R7, R8, R9, SL, LR} 
    /*00000008*/ SUB         IP, SP, IP 
    /*0000000c*/ STR         R0, [IP, #4064]             @ 0xfe0 
    /*00000010*/ LDM         R0, {R2, R3} 
    /*00000014*/ MOV         R6, R0 
    /*00000018*/ MOV         R9, R1 
    /*0000001c*/ SUB         R3, R3, R2 
    /*00000020*/ ASRS        R3, R3, #2 
    /*00000024*/ BEQ         _ZNSt6vectorIPN4hirt9GroupItemESaIS2_EE19_M_emplace_back_auxIJRKS2_EEEvDpOT__x3c
    /*00000028*/ LSL         R5, R3, #1 
    /*0000002c*/ CMP         R3, R5 
    /*00000030*/ BLS         _ZNSt6vectorIPN4hirt9GroupItemESaIS2_EE19_M_emplace_back_auxIJRKS2_EEEvDpOT__xb8
    _ZNSt6vectorIPN4hirt9GroupItemESaIS2_EE19_M_emplace_back_auxIJRKS2_EEEvDpOT__x34:
    /*00000034*/ MVN         R5, #3 
    /*00000038*/ B           _ZNSt6vectorIPN4hirt9GroupItemESaIS2_EE19_M_emplace_back_auxIJRKS2_EEEvDpOT__x40
    _ZNSt6vectorIPN4hirt9GroupItemESaIS2_EE19_M_emplace_back_auxIJRKS2_EEEvDpOT__x3c:
    /*0000003c*/ MOV         R5, #4 
    _ZNSt6vectorIPN4hirt9GroupItemESaIS2_EE19_M_emplace_back_auxIJRKS2_EEEvDpOT__x40:
    /*00000040*/ MOV         R0, R5 
    /*00000044*/ BL          _Znwj
    /*00000048*/ MOV         R7, R0 
    _ZNSt6vectorIPN4hirt9GroupItemESaIS2_EE19_M_emplace_back_auxIJRKS2_EEEvDpOT__x4c:
    /*0000004c*/ LDR         R8, [R6] 
    /*00000050*/ LDR         R4, [R6, #4] 
    /*00000054*/ LDR         R2, [R9] 
    /*00000058*/ SUB         R4, R4, R8 
    /*0000005c*/ CMN         R7, R4 
    /*00000060*/ ASR         R3, R4, #2 
    /*00000064*/ STRNE       R2, [R7, R4] 
    /*00000068*/ CMP         R3, #0 
    /*0000006c*/ BNE         _ZNSt6vectorIPN4hirt9GroupItemESaIS2_EE19_M_emplace_back_auxIJRKS2_EEEvDpOT__x9c
    /*00000070*/ CMP         R8, #0 
    /*00000074*/ ADD         R4, R4, #4 
    /*00000078*/ ADD         R4, R7, R4 
    /*0000007c*/ BEQ         _ZNSt6vectorIPN4hirt9GroupItemESaIS2_EE19_M_emplace_back_auxIJRKS2_EEEvDpOT__x88
    _ZNSt6vectorIPN4hirt9GroupItemESaIS2_EE19_M_emplace_back_auxIJRKS2_EEEvDpOT__x80:
    /*00000080*/ MOV         R0, R8 
    /*00000084*/ BL          _ZdlPv
    _ZNSt6vectorIPN4hirt9GroupItemESaIS2_EE19_M_emplace_back_auxIJRKS2_EEEvDpOT__x88:
    /*00000088*/ ADD         R5, R7, R5 
    /*0000008c*/ STR         R5, [R6, #8] 
    /*00000090*/ STR         R7, [R6] 
    /*00000094*/ STR         R4, [R6, #4] 
    /*00000098*/ POP         {R4, R5, R6, R7, R8, R9, SL, PC} 
    _ZNSt6vectorIPN4hirt9GroupItemESaIS2_EE19_M_emplace_back_auxIJRKS2_EEEvDpOT__x9c:
    /*0000009c*/ MOV         R2, R4 
    /*000000a0*/ MOV         R1, R8 
    /*000000a4*/ MOV         R0, R7 
    /*000000a8*/ ADD         R4, R4, #4 
    /*000000ac*/ ADD         R4, R7, R4 
    /*000000b0*/ BL          memmove
    /*000000b4*/ B           _ZNSt6vectorIPN4hirt9GroupItemESaIS2_EE19_M_emplace_back_auxIJRKS2_EEEvDpOT__x80
    _ZNSt6vectorIPN4hirt9GroupItemESaIS2_EE19_M_emplace_back_auxIJRKS2_EEEvDpOT__xb8:
    /*000000b8*/ CMN         R5, #-1073741823            @ 0xc0000001 
    /*000000bc*/ BHI         _ZNSt6vectorIPN4hirt9GroupItemESaIS2_EE19_M_emplace_back_auxIJRKS2_EEEvDpOT__x34
    /*000000c0*/ CMP         R5, #0 
    /*000000c4*/ LSLNE       R5, R3, #3 
    /*000000c8*/ BNE         _ZNSt6vectorIPN4hirt9GroupItemESaIS2_EE19_M_emplace_back_auxIJRKS2_EEEvDpOT__x40
    /*000000cc*/ MOV         R7, R5 
    /*000000d0*/ B           _ZNSt6vectorIPN4hirt9GroupItemESaIS2_EE19_M_emplace_back_auxIJRKS2_EEEvDpOT__x4c
FUNC_END _ZNSt6vectorIPN4hirt9GroupItemESaIS2_EE19_M_emplace_back_auxIJRKS2_EEEvDpOT_


@ - - - - - - - - - - - - - - - - - - - - - - - - - - - - - 
@ .text._ZNSt6vectorIPN4hirt12GraphOfflineESaIS2_EE19_M_emplace_back_auxIJRKS2_EEEvDpOT_
@ Size: 0xd4
@ - - - - - - - - - - - - - - - - - - - - - - - - - - - - - 

FUNC_BEGIN _ZNSt6vectorIPN4hirt12GraphOfflineESaIS2_EE19_M_emplace_back_auxIJRKS2_EEEvDpOT_
    /*00000000*/ MOV         IP, #16384                  @ 0x4000 
    /*00000004*/ PUSH        {R4, R5, R6, R7, R8, R9, SL, LR} 
    /*00000008*/ SUB         IP, SP, IP 
    /*0000000c*/ STR         R0, [IP, #4064]             @ 0xfe0 
    /*00000010*/ LDM         R0, {R2, R3} 
    /*00000014*/ MOV         R6, R0 
    /*00000018*/ MOV         R9, R1 
    /*0000001c*/ SUB         R3, R3, R2 
    /*00000020*/ ASRS        R3, R3, #2 
    /*00000024*/ BEQ         _ZNSt6vectorIPN4hirt12GraphOfflineESaIS2_EE19_M_emplace_back_auxIJRKS2_EEEvDpOT__x3c
    /*00000028*/ LSL         R5, R3, #1 
    /*0000002c*/ CMP         R3, R5 
    /*00000030*/ BLS         _ZNSt6vectorIPN4hirt12GraphOfflineESaIS2_EE19_M_emplace_back_auxIJRKS2_EEEvDpOT__xb8
    _ZNSt6vectorIPN4hirt12GraphOfflineESaIS2_EE19_M_emplace_back_auxIJRKS2_EEEvDpOT__x34:
    /*00000034*/ MVN         R5, #3 
    /*00000038*/ B           _ZNSt6vectorIPN4hirt12GraphOfflineESaIS2_EE19_M_emplace_back_auxIJRKS2_EEEvDpOT__x40
    _ZNSt6vectorIPN4hirt12GraphOfflineESaIS2_EE19_M_emplace_back_auxIJRKS2_EEEvDpOT__x3c:
    /*0000003c*/ MOV         R5, #4 
    _ZNSt6vectorIPN4hirt12GraphOfflineESaIS2_EE19_M_emplace_back_auxIJRKS2_EEEvDpOT__x40:
    /*00000040*/ MOV         R0, R5 
    /*00000044*/ BL          _Znwj
    /*00000048*/ MOV         R7, R0 
    _ZNSt6vectorIPN4hirt12GraphOfflineESaIS2_EE19_M_emplace_back_auxIJRKS2_EEEvDpOT__x4c:
    /*0000004c*/ LDR         R8, [R6] 
    /*00000050*/ LDR         R4, [R6, #4] 
    /*00000054*/ LDR         R2, [R9] 
    /*00000058*/ SUB         R4, R4, R8 
    /*0000005c*/ CMN         R7, R4 
    /*00000060*/ ASR         R3, R4, #2 
    /*00000064*/ STRNE       R2, [R7, R4] 
    /*00000068*/ CMP         R3, #0 
    /*0000006c*/ BNE         _ZNSt6vectorIPN4hirt12GraphOfflineESaIS2_EE19_M_emplace_back_auxIJRKS2_EEEvDpOT__x9c
    /*00000070*/ CMP         R8, #0 
    /*00000074*/ ADD         R4, R4, #4 
    /*00000078*/ ADD         R4, R7, R4 
    /*0000007c*/ BEQ         _ZNSt6vectorIPN4hirt12GraphOfflineESaIS2_EE19_M_emplace_back_auxIJRKS2_EEEvDpOT__x88
    _ZNSt6vectorIPN4hirt12GraphOfflineESaIS2_EE19_M_emplace_back_auxIJRKS2_EEEvDpOT__x80:
    /*00000080*/ MOV         R0, R8 
    /*00000084*/ BL          _ZdlPv
    _ZNSt6vectorIPN4hirt12GraphOfflineESaIS2_EE19_M_emplace_back_auxIJRKS2_EEEvDpOT__x88:
    /*00000088*/ ADD         R5, R7, R5 
    /*0000008c*/ STR         R5, [R6, #8] 
    /*00000090*/ STR         R7, [R6] 
    /*00000094*/ STR         R4, [R6, #4] 
    /*00000098*/ POP         {R4, R5, R6, R7, R8, R9, SL, PC} 
    _ZNSt6vectorIPN4hirt12GraphOfflineESaIS2_EE19_M_emplace_back_auxIJRKS2_EEEvDpOT__x9c:
    /*0000009c*/ MOV         R2, R4 
    /*000000a0*/ MOV         R1, R8 
    /*000000a4*/ MOV         R0, R7 
    /*000000a8*/ ADD         R4, R4, #4 
    /*000000ac*/ ADD         R4, R7, R4 
    /*000000b0*/ BL          memmove
    /*000000b4*/ B           _ZNSt6vectorIPN4hirt12GraphOfflineESaIS2_EE19_M_emplace_back_auxIJRKS2_EEEvDpOT__x80
    _ZNSt6vectorIPN4hirt12GraphOfflineESaIS2_EE19_M_emplace_back_auxIJRKS2_EEEvDpOT__xb8:
    /*000000b8*/ CMN         R5, #-1073741823            @ 0xc0000001 
    /*000000bc*/ BHI         _ZNSt6vectorIPN4hirt12GraphOfflineESaIS2_EE19_M_emplace_back_auxIJRKS2_EEEvDpOT__x34
    /*000000c0*/ CMP         R5, #0 
    /*000000c4*/ LSLNE       R5, R3, #3 
    /*000000c8*/ BNE         _ZNSt6vectorIPN4hirt12GraphOfflineESaIS2_EE19_M_emplace_back_auxIJRKS2_EEEvDpOT__x40
    /*000000cc*/ MOV         R7, R5 
    /*000000d0*/ B           _ZNSt6vectorIPN4hirt12GraphOfflineESaIS2_EE19_M_emplace_back_auxIJRKS2_EEEvDpOT__x4c
FUNC_END _ZNSt6vectorIPN4hirt12GraphOfflineESaIS2_EE19_M_emplace_back_auxIJRKS2_EEEvDpOT_


@ - - - - - - - - - - - - - - - - - - - - - - - - - - - - - 
@ .text._ZNSt8_Rb_treeINSt7__cxx1112basic_stringIcSt11char_traitsIcESaIcEEESt4pairIKS5_P26hiRUNTIME_SRC_BLOB_ARRAY_SESt10_Select1stISA_ESt4lessIS5_ESaISA_EE8_M_eraseEPSt13_Rb_tree_nodeISA_E
@ Size: 0x234
@ - - - - - - - - - - - - - - - - - - - - - - - - - - - - - 

FUNC_BEGIN _ZNSt8_Rb_treeINSt7__cxx1112basic_stringIcSt11char_traitsIcESaIcEEESt4pairIKS5_P26hiRUNTIME_SRC_BLOB_ARRAY_SESt10_Select1stISA_ESt4lessIS5_ESaISA_EE8_M_eraseEPSt13_Rb_tree_nodeISA_E
    /*00000000*/ MOV         IP, #16384                  @ 0x4000 
    /*00000004*/ PUSH        {R4, R5, R6, R7, R8, R9, SL, FP, LR} 
    /*00000008*/ SUB         IP, SP, IP 
    /*0000000c*/ STR         R0, [IP, #4040]             @ 0xfc8 
    /*00000010*/ SUB         SP, SP, #20 
    /*00000014*/ SUBS        R3, R1, #0 
    /*00000018*/ STR         R3, [SP, #12] 
    /*0000001c*/ BEQ         _ZNSt8_Rb_treeINSt7__cxx1112basic_stringIcSt11char_traitsIcESaIcEEESt4pairIKS5_P26hiRUNTIME_SRC_BLOB_ARRAY_SESt10_Select1stISA_ESt4lessIS5_ESaISA_EE8_M_eraseEPSt13_Rb_tree_nodeISA_E_x22c
    /*00000020*/ MOV         R5, R0 
    _ZNSt8_Rb_treeINSt7__cxx1112basic_stringIcSt11char_traitsIcESaIcEEESt4pairIKS5_P26hiRUNTIME_SRC_BLOB_ARRAY_SESt10_Select1stISA_ESt4lessIS5_ESaISA_EE8_M_eraseEPSt13_Rb_tree_nodeISA_E_x24:
    /*00000024*/ LDR         R3, [R3, #12] 
    /*00000028*/ CMP         R3, #0 
    /*0000002c*/ STRNE       R3, [SP, #8] 
    /*00000030*/ BEQ         _ZNSt8_Rb_treeINSt7__cxx1112basic_stringIcSt11char_traitsIcESaIcEEESt4pairIKS5_P26hiRUNTIME_SRC_BLOB_ARRAY_SESt10_Select1stISA_ESt4lessIS5_ESaISA_EE8_M_eraseEPSt13_Rb_tree_nodeISA_E_x1f8
    _ZNSt8_Rb_treeINSt7__cxx1112basic_stringIcSt11char_traitsIcESaIcEEESt4pairIKS5_P26hiRUNTIME_SRC_BLOB_ARRAY_SESt10_Select1stISA_ESt4lessIS5_ESaISA_EE8_M_eraseEPSt13_Rb_tree_nodeISA_E_x34:
    /*00000034*/ LDR         R8, [R3, #12] 
    /*00000038*/ CMP         R8, #0 
    /*0000003c*/ STRNE       R8, [SP, #4] 
    /*00000040*/ MOVNE       R3, R8 
    /*00000044*/ BEQ         _ZNSt8_Rb_treeINSt7__cxx1112basic_stringIcSt11char_traitsIcESaIcEEESt4pairIKS5_P26hiRUNTIME_SRC_BLOB_ARRAY_SESt10_Select1stISA_ESt4lessIS5_ESaISA_EE8_M_eraseEPSt13_Rb_tree_nodeISA_E_x1c4
    _ZNSt8_Rb_treeINSt7__cxx1112basic_stringIcSt11char_traitsIcESaIcEEESt4pairIKS5_P26hiRUNTIME_SRC_BLOB_ARRAY_SESt10_Select1stISA_ESt4lessIS5_ESaISA_EE8_M_eraseEPSt13_Rb_tree_nodeISA_E_x48:
    /*00000048*/ LDR         R9, [R3, #12] 
    /*0000004c*/ CMP         R9, #0 
    /*00000050*/ BEQ         _ZNSt8_Rb_treeINSt7__cxx1112basic_stringIcSt11char_traitsIcESaIcEEESt4pairIKS5_P26hiRUNTIME_SRC_BLOB_ARRAY_SESt10_Select1stISA_ESt4lessIS5_ESaISA_EE8_M_eraseEPSt13_Rb_tree_nodeISA_E_x190
    _ZNSt8_Rb_treeINSt7__cxx1112basic_stringIcSt11char_traitsIcESaIcEEESt4pairIKS5_P26hiRUNTIME_SRC_BLOB_ARRAY_SESt10_Select1stISA_ESt4lessIS5_ESaISA_EE8_M_eraseEPSt13_Rb_tree_nodeISA_E_x54:
    /*00000054*/ LDR         SL, [R9, #12] 
    /*00000058*/ CMP         SL, #0 
    /*0000005c*/ BEQ         _ZNSt8_Rb_treeINSt7__cxx1112basic_stringIcSt11char_traitsIcESaIcEEESt4pairIKS5_P26hiRUNTIME_SRC_BLOB_ARRAY_SESt10_Select1stISA_ESt4lessIS5_ESaISA_EE8_M_eraseEPSt13_Rb_tree_nodeISA_E_x168
    _ZNSt8_Rb_treeINSt7__cxx1112basic_stringIcSt11char_traitsIcESaIcEEESt4pairIKS5_P26hiRUNTIME_SRC_BLOB_ARRAY_SESt10_Select1stISA_ESt4lessIS5_ESaISA_EE8_M_eraseEPSt13_Rb_tree_nodeISA_E_x60:
    /*00000060*/ LDR         FP, [SL, #12] 
    /*00000064*/ CMP         FP, #0 
    /*00000068*/ BEQ         _ZNSt8_Rb_treeINSt7__cxx1112basic_stringIcSt11char_traitsIcESaIcEEESt4pairIKS5_P26hiRUNTIME_SRC_BLOB_ARRAY_SESt10_Select1stISA_ESt4lessIS5_ESaISA_EE8_M_eraseEPSt13_Rb_tree_nodeISA_E_x140
    _ZNSt8_Rb_treeINSt7__cxx1112basic_stringIcSt11char_traitsIcESaIcEEESt4pairIKS5_P26hiRUNTIME_SRC_BLOB_ARRAY_SESt10_Select1stISA_ESt4lessIS5_ESaISA_EE8_M_eraseEPSt13_Rb_tree_nodeISA_E_x6c:
    /*0000006c*/ LDR         R7, [FP, #12] 
    /*00000070*/ CMP         R7, #0 
    /*00000074*/ BEQ         _ZNSt8_Rb_treeINSt7__cxx1112basic_stringIcSt11char_traitsIcESaIcEEESt4pairIKS5_P26hiRUNTIME_SRC_BLOB_ARRAY_SESt10_Select1stISA_ESt4lessIS5_ESaISA_EE8_M_eraseEPSt13_Rb_tree_nodeISA_E_x118
    _ZNSt8_Rb_treeINSt7__cxx1112basic_stringIcSt11char_traitsIcESaIcEEESt4pairIKS5_P26hiRUNTIME_SRC_BLOB_ARRAY_SESt10_Select1stISA_ESt4lessIS5_ESaISA_EE8_M_eraseEPSt13_Rb_tree_nodeISA_E_x78:
    /*00000078*/ LDR         R6, [R7, #12] 
    /*0000007c*/ CMP         R6, #0 
    /*00000080*/ BEQ         _ZNSt8_Rb_treeINSt7__cxx1112basic_stringIcSt11char_traitsIcESaIcEEESt4pairIKS5_P26hiRUNTIME_SRC_BLOB_ARRAY_SESt10_Select1stISA_ESt4lessIS5_ESaISA_EE8_M_eraseEPSt13_Rb_tree_nodeISA_E_xf0
    _ZNSt8_Rb_treeINSt7__cxx1112basic_stringIcSt11char_traitsIcESaIcEEESt4pairIKS5_P26hiRUNTIME_SRC_BLOB_ARRAY_SESt10_Select1stISA_ESt4lessIS5_ESaISA_EE8_M_eraseEPSt13_Rb_tree_nodeISA_E_x84:
    /*00000084*/ LDR         R3, [R6, #12] 
    /*00000088*/ CMP         R3, #0 
    /*0000008c*/ MOVNE       R8, R3 
    /*00000090*/ BEQ         _ZNSt8_Rb_treeINSt7__cxx1112basic_stringIcSt11char_traitsIcESaIcEEESt4pairIKS5_P26hiRUNTIME_SRC_BLOB_ARRAY_SESt10_Select1stISA_ESt4lessIS5_ESaISA_EE8_M_eraseEPSt13_Rb_tree_nodeISA_E_xc8
    _ZNSt8_Rb_treeINSt7__cxx1112basic_stringIcSt11char_traitsIcESaIcEEESt4pairIKS5_P26hiRUNTIME_SRC_BLOB_ARRAY_SESt10_Select1stISA_ESt4lessIS5_ESaISA_EE8_M_eraseEPSt13_Rb_tree_nodeISA_E_x94:
    /*00000094*/ LDR         R1, [R8, #12] 
    /*00000098*/ MOV         R0, R5 
    /*0000009c*/ BL          _ZNSt8_Rb_treeINSt7__cxx1112basic_stringIcSt11char_traitsIcESaIcEEESt4pairIKS5_P26hiRUNTIME_SRC_BLOB_ARRAY_SESt10_Select1stISA_ESt4lessIS5_ESaISA_EE8_M_eraseEPSt13_Rb_tree_nodeISA_E
    /*000000a0*/ LDR         R0, [R8, #16] 
    /*000000a4*/ ADD         R2, R8, #24 
    /*000000a8*/ LDR         R4, [R8, #8] 
    /*000000ac*/ CMP         R0, R2 
    /*000000b0*/ BEQ         _ZNSt8_Rb_treeINSt7__cxx1112basic_stringIcSt11char_traitsIcESaIcEEESt4pairIKS5_P26hiRUNTIME_SRC_BLOB_ARRAY_SESt10_Select1stISA_ESt4lessIS5_ESaISA_EE8_M_eraseEPSt13_Rb_tree_nodeISA_E_xb8
    /*000000b4*/ BL          _ZdlPv
    _ZNSt8_Rb_treeINSt7__cxx1112basic_stringIcSt11char_traitsIcESaIcEEESt4pairIKS5_P26hiRUNTIME_SRC_BLOB_ARRAY_SESt10_Select1stISA_ESt4lessIS5_ESaISA_EE8_M_eraseEPSt13_Rb_tree_nodeISA_E_xb8:
    /*000000b8*/ MOV         R0, R8 
    /*000000bc*/ BL          _ZdlPv
    /*000000c0*/ SUBS        R8, R4, #0 
    /*000000c4*/ BNE         _ZNSt8_Rb_treeINSt7__cxx1112basic_stringIcSt11char_traitsIcESaIcEEESt4pairIKS5_P26hiRUNTIME_SRC_BLOB_ARRAY_SESt10_Select1stISA_ESt4lessIS5_ESaISA_EE8_M_eraseEPSt13_Rb_tree_nodeISA_E_x94
    _ZNSt8_Rb_treeINSt7__cxx1112basic_stringIcSt11char_traitsIcESaIcEEESt4pairIKS5_P26hiRUNTIME_SRC_BLOB_ARRAY_SESt10_Select1stISA_ESt4lessIS5_ESaISA_EE8_M_eraseEPSt13_Rb_tree_nodeISA_E_xc8:
    /*000000c8*/ LDR         R0, [R6, #16] 
    /*000000cc*/ ADD         R3, R6, #24 
    /*000000d0*/ LDR         R4, [R6, #8] 
    /*000000d4*/ CMP         R0, R3 
    /*000000d8*/ BEQ         _ZNSt8_Rb_treeINSt7__cxx1112basic_stringIcSt11char_traitsIcESaIcEEESt4pairIKS5_P26hiRUNTIME_SRC_BLOB_ARRAY_SESt10_Select1stISA_ESt4lessIS5_ESaISA_EE8_M_eraseEPSt13_Rb_tree_nodeISA_E_xe0
    /*000000dc*/ BL          _ZdlPv
    _ZNSt8_Rb_treeINSt7__cxx1112basic_stringIcSt11char_traitsIcESaIcEEESt4pairIKS5_P26hiRUNTIME_SRC_BLOB_ARRAY_SESt10_Select1stISA_ESt4lessIS5_ESaISA_EE8_M_eraseEPSt13_Rb_tree_nodeISA_E_xe0:
    /*000000e0*/ MOV         R0, R6 
    /*000000e4*/ BL          _ZdlPv
    /*000000e8*/ SUBS        R6, R4, #0 
    /*000000ec*/ BNE         _ZNSt8_Rb_treeINSt7__cxx1112basic_stringIcSt11char_traitsIcESaIcEEESt4pairIKS5_P26hiRUNTIME_SRC_BLOB_ARRAY_SESt10_Select1stISA_ESt4lessIS5_ESaISA_EE8_M_eraseEPSt13_Rb_tree_nodeISA_E_x84
    _ZNSt8_Rb_treeINSt7__cxx1112basic_stringIcSt11char_traitsIcESaIcEEESt4pairIKS5_P26hiRUNTIME_SRC_BLOB_ARRAY_SESt10_Select1stISA_ESt4lessIS5_ESaISA_EE8_M_eraseEPSt13_Rb_tree_nodeISA_E_xf0:
    /*000000f0*/ LDR         R0, [R7, #16] 
    /*000000f4*/ ADD         R3, R7, #24 
    /*000000f8*/ LDR         R4, [R7, #8] 
    /*000000fc*/ CMP         R0, R3 
    /*00000100*/ BEQ         _ZNSt8_Rb_treeINSt7__cxx1112basic_stringIcSt11char_traitsIcESaIcEEESt4pairIKS5_P26hiRUNTIME_SRC_BLOB_ARRAY_SESt10_Select1stISA_ESt4lessIS5_ESaISA_EE8_M_eraseEPSt13_Rb_tree_nodeISA_E_x108
    /*00000104*/ BL          _ZdlPv
    _ZNSt8_Rb_treeINSt7__cxx1112basic_stringIcSt11char_traitsIcESaIcEEESt4pairIKS5_P26hiRUNTIME_SRC_BLOB_ARRAY_SESt10_Select1stISA_ESt4lessIS5_ESaISA_EE8_M_eraseEPSt13_Rb_tree_nodeISA_E_x108:
    /*00000108*/ MOV         R0, R7 
    /*0000010c*/ BL          _ZdlPv
    /*00000110*/ SUBS        R7, R4, #0 
    /*00000114*/ BNE         _ZNSt8_Rb_treeINSt7__cxx1112basic_stringIcSt11char_traitsIcESaIcEEESt4pairIKS5_P26hiRUNTIME_SRC_BLOB_ARRAY_SESt10_Select1stISA_ESt4lessIS5_ESaISA_EE8_M_eraseEPSt13_Rb_tree_nodeISA_E_x78
    _ZNSt8_Rb_treeINSt7__cxx1112basic_stringIcSt11char_traitsIcESaIcEEESt4pairIKS5_P26hiRUNTIME_SRC_BLOB_ARRAY_SESt10_Select1stISA_ESt4lessIS5_ESaISA_EE8_M_eraseEPSt13_Rb_tree_nodeISA_E_x118:
    /*00000118*/ LDR         R0, [FP, #16] 
    /*0000011c*/ ADD         R3, FP, #24 
    /*00000120*/ LDR         R4, [FP, #8] 
    /*00000124*/ CMP         R0, R3 
    /*00000128*/ BEQ         _ZNSt8_Rb_treeINSt7__cxx1112basic_stringIcSt11char_traitsIcESaIcEEESt4pairIKS5_P26hiRUNTIME_SRC_BLOB_ARRAY_SESt10_Select1stISA_ESt4lessIS5_ESaISA_EE8_M_eraseEPSt13_Rb_tree_nodeISA_E_x130
    /*0000012c*/ BL          _ZdlPv
    _ZNSt8_Rb_treeINSt7__cxx1112basic_stringIcSt11char_traitsIcESaIcEEESt4pairIKS5_P26hiRUNTIME_SRC_BLOB_ARRAY_SESt10_Select1stISA_ESt4lessIS5_ESaISA_EE8_M_eraseEPSt13_Rb_tree_nodeISA_E_x130:
    /*00000130*/ MOV         R0, FP 
    /*00000134*/ BL          _ZdlPv
    /*00000138*/ SUBS        FP, R4, #0 
    /*0000013c*/ BNE         _ZNSt8_Rb_treeINSt7__cxx1112basic_stringIcSt11char_traitsIcESaIcEEESt4pairIKS5_P26hiRUNTIME_SRC_BLOB_ARRAY_SESt10_Select1stISA_ESt4lessIS5_ESaISA_EE8_M_eraseEPSt13_Rb_tree_nodeISA_E_x6c
    _ZNSt8_Rb_treeINSt7__cxx1112basic_stringIcSt11char_traitsIcESaIcEEESt4pairIKS5_P26hiRUNTIME_SRC_BLOB_ARRAY_SESt10_Select1stISA_ESt4lessIS5_ESaISA_EE8_M_eraseEPSt13_Rb_tree_nodeISA_E_x140:
    /*00000140*/ LDR         R0, [SL, #16] 
    /*00000144*/ ADD         R3, SL, #24 
    /*00000148*/ LDR         R4, [SL, #8] 
    /*0000014c*/ CMP         R0, R3 
    /*00000150*/ BEQ         _ZNSt8_Rb_treeINSt7__cxx1112basic_stringIcSt11char_traitsIcESaIcEEESt4pairIKS5_P26hiRUNTIME_SRC_BLOB_ARRAY_SESt10_Select1stISA_ESt4lessIS5_ESaISA_EE8_M_eraseEPSt13_Rb_tree_nodeISA_E_x158
    /*00000154*/ BL          _ZdlPv
    _ZNSt8_Rb_treeINSt7__cxx1112basic_stringIcSt11char_traitsIcESaIcEEESt4pairIKS5_P26hiRUNTIME_SRC_BLOB_ARRAY_SESt10_Select1stISA_ESt4lessIS5_ESaISA_EE8_M_eraseEPSt13_Rb_tree_nodeISA_E_x158:
    /*00000158*/ MOV         R0, SL 
    /*0000015c*/ BL          _ZdlPv
    /*00000160*/ SUBS        SL, R4, #0 
    /*00000164*/ BNE         _ZNSt8_Rb_treeINSt7__cxx1112basic_stringIcSt11char_traitsIcESaIcEEESt4pairIKS5_P26hiRUNTIME_SRC_BLOB_ARRAY_SESt10_Select1stISA_ESt4lessIS5_ESaISA_EE8_M_eraseEPSt13_Rb_tree_nodeISA_E_x60
    _ZNSt8_Rb_treeINSt7__cxx1112basic_stringIcSt11char_traitsIcESaIcEEESt4pairIKS5_P26hiRUNTIME_SRC_BLOB_ARRAY_SESt10_Select1stISA_ESt4lessIS5_ESaISA_EE8_M_eraseEPSt13_Rb_tree_nodeISA_E_x168:
    /*00000168*/ LDR         R0, [R9, #16] 
    /*0000016c*/ ADD         R3, R9, #24 
    /*00000170*/ LDR         R4, [R9, #8] 
    /*00000174*/ CMP         R0, R3 
    /*00000178*/ BEQ         _ZNSt8_Rb_treeINSt7__cxx1112basic_stringIcSt11char_traitsIcESaIcEEESt4pairIKS5_P26hiRUNTIME_SRC_BLOB_ARRAY_SESt10_Select1stISA_ESt4lessIS5_ESaISA_EE8_M_eraseEPSt13_Rb_tree_nodeISA_E_x180
    /*0000017c*/ BL          _ZdlPv
    _ZNSt8_Rb_treeINSt7__cxx1112basic_stringIcSt11char_traitsIcESaIcEEESt4pairIKS5_P26hiRUNTIME_SRC_BLOB_ARRAY_SESt10_Select1stISA_ESt4lessIS5_ESaISA_EE8_M_eraseEPSt13_Rb_tree_nodeISA_E_x180:
    /*00000180*/ MOV         R0, R9 
    /*00000184*/ BL          _ZdlPv
    /*00000188*/ SUBS        R9, R4, #0 
    /*0000018c*/ BNE         _ZNSt8_Rb_treeINSt7__cxx1112basic_stringIcSt11char_traitsIcESaIcEEESt4pairIKS5_P26hiRUNTIME_SRC_BLOB_ARRAY_SESt10_Select1stISA_ESt4lessIS5_ESaISA_EE8_M_eraseEPSt13_Rb_tree_nodeISA_E_x54
    _ZNSt8_Rb_treeINSt7__cxx1112basic_stringIcSt11char_traitsIcESaIcEEESt4pairIKS5_P26hiRUNTIME_SRC_BLOB_ARRAY_SESt10_Select1stISA_ESt4lessIS5_ESaISA_EE8_M_eraseEPSt13_Rb_tree_nodeISA_E_x190:
    /*00000190*/ LDR         R2, [SP, #4] 
    /*00000194*/ LDR         R0, [R2, #16] 
    /*00000198*/ ADD         R3, R2, #24 
    /*0000019c*/ LDR         R4, [R2, #8] 
    /*000001a0*/ CMP         R0, R3 
    /*000001a4*/ MOVEQ       R0, R2 
    /*000001a8*/ BEQ         _ZNSt8_Rb_treeINSt7__cxx1112basic_stringIcSt11char_traitsIcESaIcEEESt4pairIKS5_P26hiRUNTIME_SRC_BLOB_ARRAY_SESt10_Select1stISA_ESt4lessIS5_ESaISA_EE8_M_eraseEPSt13_Rb_tree_nodeISA_E_x1b4
    /*000001ac*/ BL          _ZdlPv
    /*000001b0*/ LDR         R0, [SP, #4] 
    _ZNSt8_Rb_treeINSt7__cxx1112basic_stringIcSt11char_traitsIcESaIcEEESt4pairIKS5_P26hiRUNTIME_SRC_BLOB_ARRAY_SESt10_Select1stISA_ESt4lessIS5_ESaISA_EE8_M_eraseEPSt13_Rb_tree_nodeISA_E_x1b4:
    /*000001b4*/ BL          _ZdlPv
    /*000001b8*/ SUBS        R3, R4, #0 
    /*000001bc*/ STR         R3, [SP, #4] 
    /*000001c0*/ BNE         _ZNSt8_Rb_treeINSt7__cxx1112basic_stringIcSt11char_traitsIcESaIcEEESt4pairIKS5_P26hiRUNTIME_SRC_BLOB_ARRAY_SESt10_Select1stISA_ESt4lessIS5_ESaISA_EE8_M_eraseEPSt13_Rb_tree_nodeISA_E_x48
    _ZNSt8_Rb_treeINSt7__cxx1112basic_stringIcSt11char_traitsIcESaIcEEESt4pairIKS5_P26hiRUNTIME_SRC_BLOB_ARRAY_SESt10_Select1stISA_ESt4lessIS5_ESaISA_EE8_M_eraseEPSt13_Rb_tree_nodeISA_E_x1c4:
    /*000001c4*/ LDR         R2, [SP, #8] 
    /*000001c8*/ LDR         R0, [R2, #16] 
    /*000001cc*/ ADD         R3, R2, #24 
    /*000001d0*/ LDR         R4, [R2, #8] 
    /*000001d4*/ CMP         R0, R3 
    /*000001d8*/ MOVEQ       R0, R2 
    /*000001dc*/ BEQ         _ZNSt8_Rb_treeINSt7__cxx1112basic_stringIcSt11char_traitsIcESaIcEEESt4pairIKS5_P26hiRUNTIME_SRC_BLOB_ARRAY_SESt10_Select1stISA_ESt4lessIS5_ESaISA_EE8_M_eraseEPSt13_Rb_tree_nodeISA_E_x1e8
    /*000001e0*/ BL          _ZdlPv
    /*000001e4*/ LDR         R0, [SP, #8] 
    _ZNSt8_Rb_treeINSt7__cxx1112basic_stringIcSt11char_traitsIcESaIcEEESt4pairIKS5_P26hiRUNTIME_SRC_BLOB_ARRAY_SESt10_Select1stISA_ESt4lessIS5_ESaISA_EE8_M_eraseEPSt13_Rb_tree_nodeISA_E_x1e8:
    /*000001e8*/ BL          _ZdlPv
    /*000001ec*/ SUBS        R3, R4, #0 
    /*000001f0*/ STR         R3, [SP, #8] 
    /*000001f4*/ BNE         _ZNSt8_Rb_treeINSt7__cxx1112basic_stringIcSt11char_traitsIcESaIcEEESt4pairIKS5_P26hiRUNTIME_SRC_BLOB_ARRAY_SESt10_Select1stISA_ESt4lessIS5_ESaISA_EE8_M_eraseEPSt13_Rb_tree_nodeISA_E_x34
    _ZNSt8_Rb_treeINSt7__cxx1112basic_stringIcSt11char_traitsIcESaIcEEESt4pairIKS5_P26hiRUNTIME_SRC_BLOB_ARRAY_SESt10_Select1stISA_ESt4lessIS5_ESaISA_EE8_M_eraseEPSt13_Rb_tree_nodeISA_E_x1f8:
    /*000001f8*/ LDR         R2, [SP, #12] 
    /*000001fc*/ LDR         R0, [R2, #16] 
    /*00000200*/ ADD         R3, R2, #24 
    /*00000204*/ LDR         R4, [R2, #8] 
    /*00000208*/ CMP         R0, R3 
    /*0000020c*/ MOVEQ       R0, R2 
    /*00000210*/ BEQ         _ZNSt8_Rb_treeINSt7__cxx1112basic_stringIcSt11char_traitsIcESaIcEEESt4pairIKS5_P26hiRUNTIME_SRC_BLOB_ARRAY_SESt10_Select1stISA_ESt4lessIS5_ESaISA_EE8_M_eraseEPSt13_Rb_tree_nodeISA_E_x21c
    /*00000214*/ BL          _ZdlPv
    /*00000218*/ LDR         R0, [SP, #12] 
    _ZNSt8_Rb_treeINSt7__cxx1112basic_stringIcSt11char_traitsIcESaIcEEESt4pairIKS5_P26hiRUNTIME_SRC_BLOB_ARRAY_SESt10_Select1stISA_ESt4lessIS5_ESaISA_EE8_M_eraseEPSt13_Rb_tree_nodeISA_E_x21c:
    /*0000021c*/ BL          _ZdlPv
    /*00000220*/ SUBS        R3, R4, #0 
    /*00000224*/ STR         R3, [SP, #12] 
    /*00000228*/ BNE         _ZNSt8_Rb_treeINSt7__cxx1112basic_stringIcSt11char_traitsIcESaIcEEESt4pairIKS5_P26hiRUNTIME_SRC_BLOB_ARRAY_SESt10_Select1stISA_ESt4lessIS5_ESaISA_EE8_M_eraseEPSt13_Rb_tree_nodeISA_E_x24
    _ZNSt8_Rb_treeINSt7__cxx1112basic_stringIcSt11char_traitsIcESaIcEEESt4pairIKS5_P26hiRUNTIME_SRC_BLOB_ARRAY_SESt10_Select1stISA_ESt4lessIS5_ESaISA_EE8_M_eraseEPSt13_Rb_tree_nodeISA_E_x22c:
    /*0000022c*/ ADD         SP, SP, #20 
    /*00000230*/ POP         {R4, R5, R6, R7, R8, R9, SL, FP, PC} 
FUNC_END _ZNSt8_Rb_treeINSt7__cxx1112basic_stringIcSt11char_traitsIcESaIcEEESt4pairIKS5_P26hiRUNTIME_SRC_BLOB_ARRAY_SESt10_Select1stISA_ESt4lessIS5_ESaISA_EE8_M_eraseEPSt13_Rb_tree_nodeISA_E


@ - - - - - - - - - - - - - - - - - - - - - - - - - - - - - 
@ .text._ZNSt8_Rb_treeINSt7__cxx1112basic_stringIcSt11char_traitsIcESaIcEEESt4pairIKS5_NS0_4listIP16hiRUNTIME_BLOB_SSaISA_EEEESt10_Select1stISD_ESt4lessIS5_ESaISD_EE8_M_eraseEPSt13_Rb_tree_nodeISD_E
@ Size: 0x394
@ - - - - - - - - - - - - - - - - - - - - - - - - - - - - - 

FUNC_BEGIN _ZNSt8_Rb_treeINSt7__cxx1112basic_stringIcSt11char_traitsIcESaIcEEESt4pairIKS5_NS0_4listIP16hiRUNTIME_BLOB_SSaISA_EEEESt10_Select1stISD_ESt4lessIS5_ESaISD_EE8_M_eraseEPSt13_Rb_tree_nodeISD_E
    /*00000000*/ MOV         IP, #16384                  @ 0x4000 
    /*00000004*/ PUSH        {R4, R5, R6, R7, R8, R9, SL, FP, LR} 
    /*00000008*/ SUB         IP, SP, IP 
    /*0000000c*/ STR         R0, [IP, #4032]             @ 0xfc0 
    /*00000010*/ SUB         SP, SP, #28 
    /*00000014*/ SUBS        R3, R1, #0 
    /*00000018*/ STR         R3, [SP, #20] 
    /*0000001c*/ BEQ         _ZNSt8_Rb_treeINSt7__cxx1112basic_stringIcSt11char_traitsIcESaIcEEESt4pairIKS5_NS0_4listIP16hiRUNTIME_BLOB_SSaISA_EEEESt10_Select1stISD_ESt4lessIS5_ESaISD_EE8_M_eraseEPSt13_Rb_tree_nodeISD_E_x38c
    /*00000020*/ MOV         R7, R0 
    _ZNSt8_Rb_treeINSt7__cxx1112basic_stringIcSt11char_traitsIcESaIcEEESt4pairIKS5_NS0_4listIP16hiRUNTIME_BLOB_SSaISA_EEEESt10_Select1stISD_ESt4lessIS5_ESaISD_EE8_M_eraseEPSt13_Rb_tree_nodeISD_E_x24:
    /*00000024*/ LDR         R3, [R3, #12] 
    /*00000028*/ CMP         R3, #0 
    /*0000002c*/ STRNE       R3, [SP, #16] 
    /*00000030*/ BEQ         _ZNSt8_Rb_treeINSt7__cxx1112basic_stringIcSt11char_traitsIcESaIcEEESt4pairIKS5_NS0_4listIP16hiRUNTIME_BLOB_SSaISA_EEEESt10_Select1stISD_ESt4lessIS5_ESaISD_EE8_M_eraseEPSt13_Rb_tree_nodeISD_E_x334
    _ZNSt8_Rb_treeINSt7__cxx1112basic_stringIcSt11char_traitsIcESaIcEEESt4pairIKS5_NS0_4listIP16hiRUNTIME_BLOB_SSaISA_EEEESt10_Select1stISD_ESt4lessIS5_ESaISD_EE8_M_eraseEPSt13_Rb_tree_nodeISD_E_x34:
    /*00000034*/ LDR         R3, [R3, #12] 
    /*00000038*/ CMP         R3, #0 
    /*0000003c*/ STRNE       R3, [SP, #12] 
    /*00000040*/ BEQ         _ZNSt8_Rb_treeINSt7__cxx1112basic_stringIcSt11char_traitsIcESaIcEEESt4pairIKS5_NS0_4listIP16hiRUNTIME_BLOB_SSaISA_EEEESt10_Select1stISD_ESt4lessIS5_ESaISD_EE8_M_eraseEPSt13_Rb_tree_nodeISD_E_x2dc
    _ZNSt8_Rb_treeINSt7__cxx1112basic_stringIcSt11char_traitsIcESaIcEEESt4pairIKS5_NS0_4listIP16hiRUNTIME_BLOB_SSaISA_EEEESt10_Select1stISD_ESt4lessIS5_ESaISD_EE8_M_eraseEPSt13_Rb_tree_nodeISD_E_x44:
    /*00000044*/ LDR         R3, [R3, #12] 
    /*00000048*/ CMP         R3, #0 
    /*0000004c*/ STRNE       R3, [SP, #8] 
    /*00000050*/ BEQ         _ZNSt8_Rb_treeINSt7__cxx1112basic_stringIcSt11char_traitsIcESaIcEEESt4pairIKS5_NS0_4listIP16hiRUNTIME_BLOB_SSaISA_EEEESt10_Select1stISD_ESt4lessIS5_ESaISD_EE8_M_eraseEPSt13_Rb_tree_nodeISD_E_x284
    _ZNSt8_Rb_treeINSt7__cxx1112basic_stringIcSt11char_traitsIcESaIcEEESt4pairIKS5_NS0_4listIP16hiRUNTIME_BLOB_SSaISA_EEEESt10_Select1stISD_ESt4lessIS5_ESaISD_EE8_M_eraseEPSt13_Rb_tree_nodeISD_E_x54:
    /*00000054*/ LDR         R9, [R3, #12] 
    /*00000058*/ CMP         R9, #0 
    /*0000005c*/ STRNE       R9, [SP, #4] 
    /*00000060*/ MOVNE       R3, R9 
    /*00000064*/ BEQ         _ZNSt8_Rb_treeINSt7__cxx1112basic_stringIcSt11char_traitsIcESaIcEEESt4pairIKS5_NS0_4listIP16hiRUNTIME_BLOB_SSaISA_EEEESt10_Select1stISD_ESt4lessIS5_ESaISD_EE8_M_eraseEPSt13_Rb_tree_nodeISD_E_x230
    _ZNSt8_Rb_treeINSt7__cxx1112basic_stringIcSt11char_traitsIcESaIcEEESt4pairIKS5_NS0_4listIP16hiRUNTIME_BLOB_SSaISA_EEEESt10_Select1stISD_ESt4lessIS5_ESaISD_EE8_M_eraseEPSt13_Rb_tree_nodeISD_E_x68:
    /*00000068*/ LDR         R9, [R3, #12] 
    /*0000006c*/ CMP         R9, #0 
    /*00000070*/ BEQ         _ZNSt8_Rb_treeINSt7__cxx1112basic_stringIcSt11char_traitsIcESaIcEEESt4pairIKS5_NS0_4listIP16hiRUNTIME_BLOB_SSaISA_EEEESt10_Select1stISD_ESt4lessIS5_ESaISD_EE8_M_eraseEPSt13_Rb_tree_nodeISD_E_x1d8
    _ZNSt8_Rb_treeINSt7__cxx1112basic_stringIcSt11char_traitsIcESaIcEEESt4pairIKS5_NS0_4listIP16hiRUNTIME_BLOB_SSaISA_EEEESt10_Select1stISD_ESt4lessIS5_ESaISD_EE8_M_eraseEPSt13_Rb_tree_nodeISD_E_x74:
    /*00000074*/ LDR         SL, [R9, #12] 
    /*00000078*/ CMP         SL, #0 
    /*0000007c*/ BEQ         _ZNSt8_Rb_treeINSt7__cxx1112basic_stringIcSt11char_traitsIcESaIcEEESt4pairIKS5_NS0_4listIP16hiRUNTIME_BLOB_SSaISA_EEEESt10_Select1stISD_ESt4lessIS5_ESaISD_EE8_M_eraseEPSt13_Rb_tree_nodeISD_E_x188
    _ZNSt8_Rb_treeINSt7__cxx1112basic_stringIcSt11char_traitsIcESaIcEEESt4pairIKS5_NS0_4listIP16hiRUNTIME_BLOB_SSaISA_EEEESt10_Select1stISD_ESt4lessIS5_ESaISD_EE8_M_eraseEPSt13_Rb_tree_nodeISD_E_x80:
    /*00000080*/ LDR         R8, [SL, #12] 
    /*00000084*/ CMP         R8, #0 
    /*00000088*/ BEQ         _ZNSt8_Rb_treeINSt7__cxx1112basic_stringIcSt11char_traitsIcESaIcEEESt4pairIKS5_NS0_4listIP16hiRUNTIME_BLOB_SSaISA_EEEESt10_Select1stISD_ESt4lessIS5_ESaISD_EE8_M_eraseEPSt13_Rb_tree_nodeISD_E_x13c
    _ZNSt8_Rb_treeINSt7__cxx1112basic_stringIcSt11char_traitsIcESaIcEEESt4pairIKS5_NS0_4listIP16hiRUNTIME_BLOB_SSaISA_EEEESt10_Select1stISD_ESt4lessIS5_ESaISD_EE8_M_eraseEPSt13_Rb_tree_nodeISD_E_x8c:
    /*0000008c*/ LDR         R5, [R8, #12] 
    /*00000090*/ CMP         R5, #0 
    /*00000094*/ BEQ         _ZNSt8_Rb_treeINSt7__cxx1112basic_stringIcSt11char_traitsIcESaIcEEESt4pairIKS5_NS0_4listIP16hiRUNTIME_BLOB_SSaISA_EEEESt10_Select1stISD_ESt4lessIS5_ESaISD_EE8_M_eraseEPSt13_Rb_tree_nodeISD_E_xf0
    _ZNSt8_Rb_treeINSt7__cxx1112basic_stringIcSt11char_traitsIcESaIcEEESt4pairIKS5_NS0_4listIP16hiRUNTIME_BLOB_SSaISA_EEEESt10_Select1stISD_ESt4lessIS5_ESaISD_EE8_M_eraseEPSt13_Rb_tree_nodeISD_E_x98:
    /*00000098*/ LDR         R1, [R5, #12] 
    /*0000009c*/ MOV         R4, R5 
    /*000000a0*/ MOV         R0, R7 
    /*000000a4*/ BL          _ZNSt8_Rb_treeINSt7__cxx1112basic_stringIcSt11char_traitsIcESaIcEEESt4pairIKS5_NS0_4listIP16hiRUNTIME_BLOB_SSaISA_EEEESt10_Select1stISD_ESt4lessIS5_ESaISD_EE8_M_eraseEPSt13_Rb_tree_nodeISD_E
    /*000000a8*/ LDR         R0, [R4, #40]!              @ 0x28 
    /*000000ac*/ LDR         R6, [R5, #8] 
    /*000000b0*/ CMP         R4, R0 
    /*000000b4*/ BEQ         _ZNSt8_Rb_treeINSt7__cxx1112basic_stringIcSt11char_traitsIcESaIcEEESt4pairIKS5_NS0_4listIP16hiRUNTIME_BLOB_SSaISA_EEEESt10_Select1stISD_ESt4lessIS5_ESaISD_EE8_M_eraseEPSt13_Rb_tree_nodeISD_E_xcc
    _ZNSt8_Rb_treeINSt7__cxx1112basic_stringIcSt11char_traitsIcESaIcEEESt4pairIKS5_NS0_4listIP16hiRUNTIME_BLOB_SSaISA_EEEESt10_Select1stISD_ESt4lessIS5_ESaISD_EE8_M_eraseEPSt13_Rb_tree_nodeISD_E_xb8:
    /*000000b8*/ LDR         FP, [R0] 
    /*000000bc*/ BL          _ZdlPv
    /*000000c0*/ CMP         R4, FP 
    /*000000c4*/ MOV         R0, FP 
    /*000000c8*/ BNE         _ZNSt8_Rb_treeINSt7__cxx1112basic_stringIcSt11char_traitsIcESaIcEEESt4pairIKS5_NS0_4listIP16hiRUNTIME_BLOB_SSaISA_EEEESt10_Select1stISD_ESt4lessIS5_ESaISD_EE8_M_eraseEPSt13_Rb_tree_nodeISD_E_xb8
    _ZNSt8_Rb_treeINSt7__cxx1112basic_stringIcSt11char_traitsIcESaIcEEESt4pairIKS5_NS0_4listIP16hiRUNTIME_BLOB_SSaISA_EEEESt10_Select1stISD_ESt4lessIS5_ESaISD_EE8_M_eraseEPSt13_Rb_tree_nodeISD_E_xcc:
    /*000000cc*/ LDR         R0, [R5, #16] 
    /*000000d0*/ ADD         R3, R5, #24 
    /*000000d4*/ CMP         R0, R3 
    /*000000d8*/ BEQ         _ZNSt8_Rb_treeINSt7__cxx1112basic_stringIcSt11char_traitsIcESaIcEEESt4pairIKS5_NS0_4listIP16hiRUNTIME_BLOB_SSaISA_EEEESt10_Select1stISD_ESt4lessIS5_ESaISD_EE8_M_eraseEPSt13_Rb_tree_nodeISD_E_xe0
    /*000000dc*/ BL          _ZdlPv
    _ZNSt8_Rb_treeINSt7__cxx1112basic_stringIcSt11char_traitsIcESaIcEEESt4pairIKS5_NS0_4listIP16hiRUNTIME_BLOB_SSaISA_EEEESt10_Select1stISD_ESt4lessIS5_ESaISD_EE8_M_eraseEPSt13_Rb_tree_nodeISD_E_xe0:
    /*000000e0*/ MOV         R0, R5 
    /*000000e4*/ BL          _ZdlPv
    /*000000e8*/ SUBS        R5, R6, #0 
    /*000000ec*/ BNE         _ZNSt8_Rb_treeINSt7__cxx1112basic_stringIcSt11char_traitsIcESaIcEEESt4pairIKS5_NS0_4listIP16hiRUNTIME_BLOB_SSaISA_EEEESt10_Select1stISD_ESt4lessIS5_ESaISD_EE8_M_eraseEPSt13_Rb_tree_nodeISD_E_x98
    _ZNSt8_Rb_treeINSt7__cxx1112basic_stringIcSt11char_traitsIcESaIcEEESt4pairIKS5_NS0_4listIP16hiRUNTIME_BLOB_SSaISA_EEEESt10_Select1stISD_ESt4lessIS5_ESaISD_EE8_M_eraseEPSt13_Rb_tree_nodeISD_E_xf0:
    /*000000f0*/ LDR         R6, [R8, #8] 
    /*000000f4*/ MOV         R5, R8 
    /*000000f8*/ LDR         R0, [R5, #40]!              @ 0x28 
    /*000000fc*/ CMP         R0, R5 
    /*00000100*/ BEQ         _ZNSt8_Rb_treeINSt7__cxx1112basic_stringIcSt11char_traitsIcESaIcEEESt4pairIKS5_NS0_4listIP16hiRUNTIME_BLOB_SSaISA_EEEESt10_Select1stISD_ESt4lessIS5_ESaISD_EE8_M_eraseEPSt13_Rb_tree_nodeISD_E_x118
    _ZNSt8_Rb_treeINSt7__cxx1112basic_stringIcSt11char_traitsIcESaIcEEESt4pairIKS5_NS0_4listIP16hiRUNTIME_BLOB_SSaISA_EEEESt10_Select1stISD_ESt4lessIS5_ESaISD_EE8_M_eraseEPSt13_Rb_tree_nodeISD_E_x104:
    /*00000104*/ LDR         R4, [R0] 
    /*00000108*/ BL          _ZdlPv
    /*0000010c*/ CMP         R4, R5 
    /*00000110*/ MOV         R0, R4 
    /*00000114*/ BNE         _ZNSt8_Rb_treeINSt7__cxx1112basic_stringIcSt11char_traitsIcESaIcEEESt4pairIKS5_NS0_4listIP16hiRUNTIME_BLOB_SSaISA_EEEESt10_Select1stISD_ESt4lessIS5_ESaISD_EE8_M_eraseEPSt13_Rb_tree_nodeISD_E_x104
    _ZNSt8_Rb_treeINSt7__cxx1112basic_stringIcSt11char_traitsIcESaIcEEESt4pairIKS5_NS0_4listIP16hiRUNTIME_BLOB_SSaISA_EEEESt10_Select1stISD_ESt4lessIS5_ESaISD_EE8_M_eraseEPSt13_Rb_tree_nodeISD_E_x118:
    /*00000118*/ LDR         R0, [R8, #16] 
    /*0000011c*/ ADD         R3, R8, #24 
    /*00000120*/ CMP         R0, R3 
    /*00000124*/ BEQ         _ZNSt8_Rb_treeINSt7__cxx1112basic_stringIcSt11char_traitsIcESaIcEEESt4pairIKS5_NS0_4listIP16hiRUNTIME_BLOB_SSaISA_EEEESt10_Select1stISD_ESt4lessIS5_ESaISD_EE8_M_eraseEPSt13_Rb_tree_nodeISD_E_x12c
    /*00000128*/ BL          _ZdlPv
    _ZNSt8_Rb_treeINSt7__cxx1112basic_stringIcSt11char_traitsIcESaIcEEESt4pairIKS5_NS0_4listIP16hiRUNTIME_BLOB_SSaISA_EEEESt10_Select1stISD_ESt4lessIS5_ESaISD_EE8_M_eraseEPSt13_Rb_tree_nodeISD_E_x12c:
    /*0000012c*/ MOV         R0, R8 
    /*00000130*/ BL          _ZdlPv
    /*00000134*/ SUBS        R8, R6, #0 
    /*00000138*/ BNE         _ZNSt8_Rb_treeINSt7__cxx1112basic_stringIcSt11char_traitsIcESaIcEEESt4pairIKS5_NS0_4listIP16hiRUNTIME_BLOB_SSaISA_EEEESt10_Select1stISD_ESt4lessIS5_ESaISD_EE8_M_eraseEPSt13_Rb_tree_nodeISD_E_x8c
    _ZNSt8_Rb_treeINSt7__cxx1112basic_stringIcSt11char_traitsIcESaIcEEESt4pairIKS5_NS0_4listIP16hiRUNTIME_BLOB_SSaISA_EEEESt10_Select1stISD_ESt4lessIS5_ESaISD_EE8_M_eraseEPSt13_Rb_tree_nodeISD_E_x13c:
    /*0000013c*/ LDR         R6, [SL, #8] 
    /*00000140*/ MOV         R5, SL 
    /*00000144*/ LDR         R0, [R5, #40]!              @ 0x28 
    /*00000148*/ CMP         R0, R5 
    /*0000014c*/ BEQ         _ZNSt8_Rb_treeINSt7__cxx1112basic_stringIcSt11char_traitsIcESaIcEEESt4pairIKS5_NS0_4listIP16hiRUNTIME_BLOB_SSaISA_EEEESt10_Select1stISD_ESt4lessIS5_ESaISD_EE8_M_eraseEPSt13_Rb_tree_nodeISD_E_x164
    _ZNSt8_Rb_treeINSt7__cxx1112basic_stringIcSt11char_traitsIcESaIcEEESt4pairIKS5_NS0_4listIP16hiRUNTIME_BLOB_SSaISA_EEEESt10_Select1stISD_ESt4lessIS5_ESaISD_EE8_M_eraseEPSt13_Rb_tree_nodeISD_E_x150:
    /*00000150*/ LDR         R4, [R0] 
    /*00000154*/ BL          _ZdlPv
    /*00000158*/ CMP         R4, R5 
    /*0000015c*/ MOV         R0, R4 
    /*00000160*/ BNE         _ZNSt8_Rb_treeINSt7__cxx1112basic_stringIcSt11char_traitsIcESaIcEEESt4pairIKS5_NS0_4listIP16hiRUNTIME_BLOB_SSaISA_EEEESt10_Select1stISD_ESt4lessIS5_ESaISD_EE8_M_eraseEPSt13_Rb_tree_nodeISD_E_x150
    _ZNSt8_Rb_treeINSt7__cxx1112basic_stringIcSt11char_traitsIcESaIcEEESt4pairIKS5_NS0_4listIP16hiRUNTIME_BLOB_SSaISA_EEEESt10_Select1stISD_ESt4lessIS5_ESaISD_EE8_M_eraseEPSt13_Rb_tree_nodeISD_E_x164:
    /*00000164*/ LDR         R0, [SL, #16] 
    /*00000168*/ ADD         R3, SL, #24 
    /*0000016c*/ CMP         R0, R3 
    /*00000170*/ BEQ         _ZNSt8_Rb_treeINSt7__cxx1112basic_stringIcSt11char_traitsIcESaIcEEESt4pairIKS5_NS0_4listIP16hiRUNTIME_BLOB_SSaISA_EEEESt10_Select1stISD_ESt4lessIS5_ESaISD_EE8_M_eraseEPSt13_Rb_tree_nodeISD_E_x178
    /*00000174*/ BL          _ZdlPv
    _ZNSt8_Rb_treeINSt7__cxx1112basic_stringIcSt11char_traitsIcESaIcEEESt4pairIKS5_NS0_4listIP16hiRUNTIME_BLOB_SSaISA_EEEESt10_Select1stISD_ESt4lessIS5_ESaISD_EE8_M_eraseEPSt13_Rb_tree_nodeISD_E_x178:
    /*00000178*/ MOV         R0, SL 
    /*0000017c*/ BL          _ZdlPv
    /*00000180*/ SUBS        SL, R6, #0 
    /*00000184*/ BNE         _ZNSt8_Rb_treeINSt7__cxx1112basic_stringIcSt11char_traitsIcESaIcEEESt4pairIKS5_NS0_4listIP16hiRUNTIME_BLOB_SSaISA_EEEESt10_Select1stISD_ESt4lessIS5_ESaISD_EE8_M_eraseEPSt13_Rb_tree_nodeISD_E_x80
    _ZNSt8_Rb_treeINSt7__cxx1112basic_stringIcSt11char_traitsIcESaIcEEESt4pairIKS5_NS0_4listIP16hiRUNTIME_BLOB_SSaISA_EEEESt10_Select1stISD_ESt4lessIS5_ESaISD_EE8_M_eraseEPSt13_Rb_tree_nodeISD_E_x188:
    /*00000188*/ LDR         R5, [R9, #8] 
    /*0000018c*/ MOV         R4, R9 
    /*00000190*/ LDR         R0, [R4, #40]!              @ 0x28 
    /*00000194*/ CMP         R0, R4 
    /*00000198*/ BEQ         _ZNSt8_Rb_treeINSt7__cxx1112basic_stringIcSt11char_traitsIcESaIcEEESt4pairIKS5_NS0_4listIP16hiRUNTIME_BLOB_SSaISA_EEEESt10_Select1stISD_ESt4lessIS5_ESaISD_EE8_M_eraseEPSt13_Rb_tree_nodeISD_E_x1b0
    _ZNSt8_Rb_treeINSt7__cxx1112basic_stringIcSt11char_traitsIcESaIcEEESt4pairIKS5_NS0_4listIP16hiRUNTIME_BLOB_SSaISA_EEEESt10_Select1stISD_ESt4lessIS5_ESaISD_EE8_M_eraseEPSt13_Rb_tree_nodeISD_E_x19c:
    /*0000019c*/ LDR         R6, [R0] 
    /*000001a0*/ BL          _ZdlPv
    /*000001a4*/ CMP         R6, R4 
    /*000001a8*/ MOV         R0, R6 
    /*000001ac*/ BNE         _ZNSt8_Rb_treeINSt7__cxx1112basic_stringIcSt11char_traitsIcESaIcEEESt4pairIKS5_NS0_4listIP16hiRUNTIME_BLOB_SSaISA_EEEESt10_Select1stISD_ESt4lessIS5_ESaISD_EE8_M_eraseEPSt13_Rb_tree_nodeISD_E_x19c
    _ZNSt8_Rb_treeINSt7__cxx1112basic_stringIcSt11char_traitsIcESaIcEEESt4pairIKS5_NS0_4listIP16hiRUNTIME_BLOB_SSaISA_EEEESt10_Select1stISD_ESt4lessIS5_ESaISD_EE8_M_eraseEPSt13_Rb_tree_nodeISD_E_x1b0:
    /*000001b0*/ LDR         R0, [R9, #16] 
    /*000001b4*/ ADD         R3, R9, #24 
    /*000001b8*/ CMP         R0, R3 
    /*000001bc*/ BEQ         _ZNSt8_Rb_treeINSt7__cxx1112basic_stringIcSt11char_traitsIcESaIcEEESt4pairIKS5_NS0_4listIP16hiRUNTIME_BLOB_SSaISA_EEEESt10_Select1stISD_ESt4lessIS5_ESaISD_EE8_M_eraseEPSt13_Rb_tree_nodeISD_E_x1c4
    /*000001c0*/ BL          _ZdlPv
    _ZNSt8_Rb_treeINSt7__cxx1112basic_stringIcSt11char_traitsIcESaIcEEESt4pairIKS5_NS0_4listIP16hiRUNTIME_BLOB_SSaISA_EEEESt10_Select1stISD_ESt4lessIS5_ESaISD_EE8_M_eraseEPSt13_Rb_tree_nodeISD_E_x1c4:
    /*000001c4*/ MOV         R0, R9 
    /*000001c8*/ BL          _ZdlPv
    /*000001cc*/ SUBS        R9, R5, #0 
    /*000001d0*/ BNE         _ZNSt8_Rb_treeINSt7__cxx1112basic_stringIcSt11char_traitsIcESaIcEEESt4pairIKS5_NS0_4listIP16hiRUNTIME_BLOB_SSaISA_EEEESt10_Select1stISD_ESt4lessIS5_ESaISD_EE8_M_eraseEPSt13_Rb_tree_nodeISD_E_x74
    /*000001d4*/ LDR         R3, [SP, #4] 
    _ZNSt8_Rb_treeINSt7__cxx1112basic_stringIcSt11char_traitsIcESaIcEEESt4pairIKS5_NS0_4listIP16hiRUNTIME_BLOB_SSaISA_EEEESt10_Select1stISD_ESt4lessIS5_ESaISD_EE8_M_eraseEPSt13_Rb_tree_nodeISD_E_x1d8:
    /*000001d8*/ LDR         R5, [R3, #8] 
    /*000001dc*/ MOV         R4, R3 
    /*000001e0*/ LDR         R0, [R4, #40]!              @ 0x28 
    /*000001e4*/ CMP         R0, R4 
    /*000001e8*/ BEQ         _ZNSt8_Rb_treeINSt7__cxx1112basic_stringIcSt11char_traitsIcESaIcEEESt4pairIKS5_NS0_4listIP16hiRUNTIME_BLOB_SSaISA_EEEESt10_Select1stISD_ESt4lessIS5_ESaISD_EE8_M_eraseEPSt13_Rb_tree_nodeISD_E_x204
    _ZNSt8_Rb_treeINSt7__cxx1112basic_stringIcSt11char_traitsIcESaIcEEESt4pairIKS5_NS0_4listIP16hiRUNTIME_BLOB_SSaISA_EEEESt10_Select1stISD_ESt4lessIS5_ESaISD_EE8_M_eraseEPSt13_Rb_tree_nodeISD_E_x1ec:
    /*000001ec*/ LDR         R6, [R0] 
    /*000001f0*/ BL          _ZdlPv
    /*000001f4*/ CMP         R6, R4 
    /*000001f8*/ MOV         R0, R6 
    /*000001fc*/ BNE         _ZNSt8_Rb_treeINSt7__cxx1112basic_stringIcSt11char_traitsIcESaIcEEESt4pairIKS5_NS0_4listIP16hiRUNTIME_BLOB_SSaISA_EEEESt10_Select1stISD_ESt4lessIS5_ESaISD_EE8_M_eraseEPSt13_Rb_tree_nodeISD_E_x1ec
    /*00000200*/ LDR         R3, [SP, #4] 
    _ZNSt8_Rb_treeINSt7__cxx1112basic_stringIcSt11char_traitsIcESaIcEEESt4pairIKS5_NS0_4listIP16hiRUNTIME_BLOB_SSaISA_EEEESt10_Select1stISD_ESt4lessIS5_ESaISD_EE8_M_eraseEPSt13_Rb_tree_nodeISD_E_x204:
    /*00000204*/ LDR         R0, [R3, #16] 
    /*00000208*/ ADD         R3, R3, #24 
    /*0000020c*/ CMP         R0, R3 
    /*00000210*/ BEQ         _ZNSt8_Rb_treeINSt7__cxx1112basic_stringIcSt11char_traitsIcESaIcEEESt4pairIKS5_NS0_4listIP16hiRUNTIME_BLOB_SSaISA_EEEESt10_Select1stISD_ESt4lessIS5_ESaISD_EE8_M_eraseEPSt13_Rb_tree_nodeISD_E_x218
    /*00000214*/ BL          _ZdlPv
    _ZNSt8_Rb_treeINSt7__cxx1112basic_stringIcSt11char_traitsIcESaIcEEESt4pairIKS5_NS0_4listIP16hiRUNTIME_BLOB_SSaISA_EEEESt10_Select1stISD_ESt4lessIS5_ESaISD_EE8_M_eraseEPSt13_Rb_tree_nodeISD_E_x218:
    /*00000218*/ LDR         R0, [SP, #4] 
    /*0000021c*/ BL          _ZdlPv
    /*00000220*/ SUBS        R3, R5, #0 
    /*00000224*/ STR         R3, [SP, #4] 
    /*00000228*/ BNE         _ZNSt8_Rb_treeINSt7__cxx1112basic_stringIcSt11char_traitsIcESaIcEEESt4pairIKS5_NS0_4listIP16hiRUNTIME_BLOB_SSaISA_EEEESt10_Select1stISD_ESt4lessIS5_ESaISD_EE8_M_eraseEPSt13_Rb_tree_nodeISD_E_x68
    /*0000022c*/ LDR         R3, [SP, #8] 
    _ZNSt8_Rb_treeINSt7__cxx1112basic_stringIcSt11char_traitsIcESaIcEEESt4pairIKS5_NS0_4listIP16hiRUNTIME_BLOB_SSaISA_EEEESt10_Select1stISD_ESt4lessIS5_ESaISD_EE8_M_eraseEPSt13_Rb_tree_nodeISD_E_x230:
    /*00000230*/ LDR         R5, [R3, #8] 
    /*00000234*/ MOV         R4, R3 
    /*00000238*/ LDR         R0, [R4, #40]!              @ 0x28 
    /*0000023c*/ CMP         R0, R4 
    /*00000240*/ BEQ         _ZNSt8_Rb_treeINSt7__cxx1112basic_stringIcSt11char_traitsIcESaIcEEESt4pairIKS5_NS0_4listIP16hiRUNTIME_BLOB_SSaISA_EEEESt10_Select1stISD_ESt4lessIS5_ESaISD_EE8_M_eraseEPSt13_Rb_tree_nodeISD_E_x25c
    _ZNSt8_Rb_treeINSt7__cxx1112basic_stringIcSt11char_traitsIcESaIcEEESt4pairIKS5_NS0_4listIP16hiRUNTIME_BLOB_SSaISA_EEEESt10_Select1stISD_ESt4lessIS5_ESaISD_EE8_M_eraseEPSt13_Rb_tree_nodeISD_E_x244:
    /*00000244*/ LDR         R6, [R0] 
    /*00000248*/ BL          _ZdlPv
    /*0000024c*/ CMP         R6, R4 
    /*00000250*/ MOV         R0, R6 
    /*00000254*/ BNE         _ZNSt8_Rb_treeINSt7__cxx1112basic_stringIcSt11char_traitsIcESaIcEEESt4pairIKS5_NS0_4listIP16hiRUNTIME_BLOB_SSaISA_EEEESt10_Select1stISD_ESt4lessIS5_ESaISD_EE8_M_eraseEPSt13_Rb_tree_nodeISD_E_x244
    /*00000258*/ LDR         R3, [SP, #8] 
    _ZNSt8_Rb_treeINSt7__cxx1112basic_stringIcSt11char_traitsIcESaIcEEESt4pairIKS5_NS0_4listIP16hiRUNTIME_BLOB_SSaISA_EEEESt10_Select1stISD_ESt4lessIS5_ESaISD_EE8_M_eraseEPSt13_Rb_tree_nodeISD_E_x25c:
    /*0000025c*/ LDR         R0, [R3, #16] 
    /*00000260*/ ADD         R3, R3, #24 
    /*00000264*/ CMP         R0, R3 
    /*00000268*/ BEQ         _ZNSt8_Rb_treeINSt7__cxx1112basic_stringIcSt11char_traitsIcESaIcEEESt4pairIKS5_NS0_4listIP16hiRUNTIME_BLOB_SSaISA_EEEESt10_Select1stISD_ESt4lessIS5_ESaISD_EE8_M_eraseEPSt13_Rb_tree_nodeISD_E_x270
    /*0000026c*/ BL          _ZdlPv
    _ZNSt8_Rb_treeINSt7__cxx1112basic_stringIcSt11char_traitsIcESaIcEEESt4pairIKS5_NS0_4listIP16hiRUNTIME_BLOB_SSaISA_EEEESt10_Select1stISD_ESt4lessIS5_ESaISD_EE8_M_eraseEPSt13_Rb_tree_nodeISD_E_x270:
    /*00000270*/ LDR         R0, [SP, #8] 
    /*00000274*/ BL          _ZdlPv
    /*00000278*/ SUBS        R3, R5, #0 
    /*0000027c*/ STR         R3, [SP, #8] 
    /*00000280*/ BNE         _ZNSt8_Rb_treeINSt7__cxx1112basic_stringIcSt11char_traitsIcESaIcEEESt4pairIKS5_NS0_4listIP16hiRUNTIME_BLOB_SSaISA_EEEESt10_Select1stISD_ESt4lessIS5_ESaISD_EE8_M_eraseEPSt13_Rb_tree_nodeISD_E_x54
    _ZNSt8_Rb_treeINSt7__cxx1112basic_stringIcSt11char_traitsIcESaIcEEESt4pairIKS5_NS0_4listIP16hiRUNTIME_BLOB_SSaISA_EEEESt10_Select1stISD_ESt4lessIS5_ESaISD_EE8_M_eraseEPSt13_Rb_tree_nodeISD_E_x284:
    /*00000284*/ LDR         R3, [SP, #12] 
    /*00000288*/ LDR         R5, [R3, #8] 
    /*0000028c*/ MOV         R4, R3 
    /*00000290*/ LDR         R0, [R4, #40]!              @ 0x28 
    /*00000294*/ CMP         R0, R4 
    /*00000298*/ BEQ         _ZNSt8_Rb_treeINSt7__cxx1112basic_stringIcSt11char_traitsIcESaIcEEESt4pairIKS5_NS0_4listIP16hiRUNTIME_BLOB_SSaISA_EEEESt10_Select1stISD_ESt4lessIS5_ESaISD_EE8_M_eraseEPSt13_Rb_tree_nodeISD_E_x2b4
    _ZNSt8_Rb_treeINSt7__cxx1112basic_stringIcSt11char_traitsIcESaIcEEESt4pairIKS5_NS0_4listIP16hiRUNTIME_BLOB_SSaISA_EEEESt10_Select1stISD_ESt4lessIS5_ESaISD_EE8_M_eraseEPSt13_Rb_tree_nodeISD_E_x29c:
    /*0000029c*/ LDR         R6, [R0] 
    /*000002a0*/ BL          _ZdlPv
    /*000002a4*/ CMP         R6, R4 
    /*000002a8*/ MOV         R0, R6 
    /*000002ac*/ BNE         _ZNSt8_Rb_treeINSt7__cxx1112basic_stringIcSt11char_traitsIcESaIcEEESt4pairIKS5_NS0_4listIP16hiRUNTIME_BLOB_SSaISA_EEEESt10_Select1stISD_ESt4lessIS5_ESaISD_EE8_M_eraseEPSt13_Rb_tree_nodeISD_E_x29c
    /*000002b0*/ LDR         R3, [SP, #12] 
    _ZNSt8_Rb_treeINSt7__cxx1112basic_stringIcSt11char_traitsIcESaIcEEESt4pairIKS5_NS0_4listIP16hiRUNTIME_BLOB_SSaISA_EEEESt10_Select1stISD_ESt4lessIS5_ESaISD_EE8_M_eraseEPSt13_Rb_tree_nodeISD_E_x2b4:
    /*000002b4*/ LDR         R0, [R3, #16] 
    /*000002b8*/ ADD         R3, R3, #24 
    /*000002bc*/ CMP         R0, R3 
    /*000002c0*/ BEQ         _ZNSt8_Rb_treeINSt7__cxx1112basic_stringIcSt11char_traitsIcESaIcEEESt4pairIKS5_NS0_4listIP16hiRUNTIME_BLOB_SSaISA_EEEESt10_Select1stISD_ESt4lessIS5_ESaISD_EE8_M_eraseEPSt13_Rb_tree_nodeISD_E_x2c8
    /*000002c4*/ BL          _ZdlPv
    _ZNSt8_Rb_treeINSt7__cxx1112basic_stringIcSt11char_traitsIcESaIcEEESt4pairIKS5_NS0_4listIP16hiRUNTIME_BLOB_SSaISA_EEEESt10_Select1stISD_ESt4lessIS5_ESaISD_EE8_M_eraseEPSt13_Rb_tree_nodeISD_E_x2c8:
    /*000002c8*/ LDR         R0, [SP, #12] 
    /*000002cc*/ BL          _ZdlPv
    /*000002d0*/ SUBS        R3, R5, #0 
    /*000002d4*/ STR         R3, [SP, #12] 
    /*000002d8*/ BNE         _ZNSt8_Rb_treeINSt7__cxx1112basic_stringIcSt11char_traitsIcESaIcEEESt4pairIKS5_NS0_4listIP16hiRUNTIME_BLOB_SSaISA_EEEESt10_Select1stISD_ESt4lessIS5_ESaISD_EE8_M_eraseEPSt13_Rb_tree_nodeISD_E_x44
    _ZNSt8_Rb_treeINSt7__cxx1112basic_stringIcSt11char_traitsIcESaIcEEESt4pairIKS5_NS0_4listIP16hiRUNTIME_BLOB_SSaISA_EEEESt10_Select1stISD_ESt4lessIS5_ESaISD_EE8_M_eraseEPSt13_Rb_tree_nodeISD_E_x2dc:
    /*000002dc*/ LDR         R3, [SP, #16] 
    /*000002e0*/ LDR         R5, [R3, #8] 
    /*000002e4*/ MOV         R4, R3 
    /*000002e8*/ LDR         R0, [R4, #40]!              @ 0x28 
    /*000002ec*/ CMP         R0, R4 
    /*000002f0*/ BEQ         _ZNSt8_Rb_treeINSt7__cxx1112basic_stringIcSt11char_traitsIcESaIcEEESt4pairIKS5_NS0_4listIP16hiRUNTIME_BLOB_SSaISA_EEEESt10_Select1stISD_ESt4lessIS5_ESaISD_EE8_M_eraseEPSt13_Rb_tree_nodeISD_E_x30c
    _ZNSt8_Rb_treeINSt7__cxx1112basic_stringIcSt11char_traitsIcESaIcEEESt4pairIKS5_NS0_4listIP16hiRUNTIME_BLOB_SSaISA_EEEESt10_Select1stISD_ESt4lessIS5_ESaISD_EE8_M_eraseEPSt13_Rb_tree_nodeISD_E_x2f4:
    /*000002f4*/ LDR         R6, [R0] 
    /*000002f8*/ BL          _ZdlPv
    /*000002fc*/ CMP         R6, R4 
    /*00000300*/ MOV         R0, R6 
    /*00000304*/ BNE         _ZNSt8_Rb_treeINSt7__cxx1112basic_stringIcSt11char_traitsIcESaIcEEESt4pairIKS5_NS0_4listIP16hiRUNTIME_BLOB_SSaISA_EEEESt10_Select1stISD_ESt4lessIS5_ESaISD_EE8_M_eraseEPSt13_Rb_tree_nodeISD_E_x2f4
    /*00000308*/ LDR         R3, [SP, #16] 
    _ZNSt8_Rb_treeINSt7__cxx1112basic_stringIcSt11char_traitsIcESaIcEEESt4pairIKS5_NS0_4listIP16hiRUNTIME_BLOB_SSaISA_EEEESt10_Select1stISD_ESt4lessIS5_ESaISD_EE8_M_eraseEPSt13_Rb_tree_nodeISD_E_x30c:
    /*0000030c*/ LDR         R0, [R3, #16] 
    /*00000310*/ ADD         R3, R3, #24 
    /*00000314*/ CMP         R0, R3 
    /*00000318*/ BEQ         _ZNSt8_Rb_treeINSt7__cxx1112basic_stringIcSt11char_traitsIcESaIcEEESt4pairIKS5_NS0_4listIP16hiRUNTIME_BLOB_SSaISA_EEEESt10_Select1stISD_ESt4lessIS5_ESaISD_EE8_M_eraseEPSt13_Rb_tree_nodeISD_E_x320
    /*0000031c*/ BL          _ZdlPv
    _ZNSt8_Rb_treeINSt7__cxx1112basic_stringIcSt11char_traitsIcESaIcEEESt4pairIKS5_NS0_4listIP16hiRUNTIME_BLOB_SSaISA_EEEESt10_Select1stISD_ESt4lessIS5_ESaISD_EE8_M_eraseEPSt13_Rb_tree_nodeISD_E_x320:
    /*00000320*/ LDR         R0, [SP, #16] 
    /*00000324*/ BL          _ZdlPv
    /*00000328*/ SUBS        R3, R5, #0 
    /*0000032c*/ STR         R3, [SP, #16] 
    /*00000330*/ BNE         _ZNSt8_Rb_treeINSt7__cxx1112basic_stringIcSt11char_traitsIcESaIcEEESt4pairIKS5_NS0_4listIP16hiRUNTIME_BLOB_SSaISA_EEEESt10_Select1stISD_ESt4lessIS5_ESaISD_EE8_M_eraseEPSt13_Rb_tree_nodeISD_E_x34
    _ZNSt8_Rb_treeINSt7__cxx1112basic_stringIcSt11char_traitsIcESaIcEEESt4pairIKS5_NS0_4listIP16hiRUNTIME_BLOB_SSaISA_EEEESt10_Select1stISD_ESt4lessIS5_ESaISD_EE8_M_eraseEPSt13_Rb_tree_nodeISD_E_x334:
    /*00000334*/ LDR         R3, [SP, #20] 
    /*00000338*/ LDR         R5, [R3, #8] 
    /*0000033c*/ MOV         R4, R3 
    /*00000340*/ LDR         R0, [R4, #40]!              @ 0x28 
    /*00000344*/ CMP         R0, R4 
    /*00000348*/ BEQ         _ZNSt8_Rb_treeINSt7__cxx1112basic_stringIcSt11char_traitsIcESaIcEEESt4pairIKS5_NS0_4listIP16hiRUNTIME_BLOB_SSaISA_EEEESt10_Select1stISD_ESt4lessIS5_ESaISD_EE8_M_eraseEPSt13_Rb_tree_nodeISD_E_x364
    _ZNSt8_Rb_treeINSt7__cxx1112basic_stringIcSt11char_traitsIcESaIcEEESt4pairIKS5_NS0_4listIP16hiRUNTIME_BLOB_SSaISA_EEEESt10_Select1stISD_ESt4lessIS5_ESaISD_EE8_M_eraseEPSt13_Rb_tree_nodeISD_E_x34c:
    /*0000034c*/ LDR         R6, [R0] 
    /*00000350*/ BL          _ZdlPv
    /*00000354*/ CMP         R6, R4 
    /*00000358*/ MOV         R0, R6 
    /*0000035c*/ BNE         _ZNSt8_Rb_treeINSt7__cxx1112basic_stringIcSt11char_traitsIcESaIcEEESt4pairIKS5_NS0_4listIP16hiRUNTIME_BLOB_SSaISA_EEEESt10_Select1stISD_ESt4lessIS5_ESaISD_EE8_M_eraseEPSt13_Rb_tree_nodeISD_E_x34c
    /*00000360*/ LDR         R3, [SP, #20] 
    _ZNSt8_Rb_treeINSt7__cxx1112basic_stringIcSt11char_traitsIcESaIcEEESt4pairIKS5_NS0_4listIP16hiRUNTIME_BLOB_SSaISA_EEEESt10_Select1stISD_ESt4lessIS5_ESaISD_EE8_M_eraseEPSt13_Rb_tree_nodeISD_E_x364:
    /*00000364*/ LDR         R0, [R3, #16] 
    /*00000368*/ ADD         R3, R3, #24 
    /*0000036c*/ CMP         R0, R3 
    /*00000370*/ BEQ         _ZNSt8_Rb_treeINSt7__cxx1112basic_stringIcSt11char_traitsIcESaIcEEESt4pairIKS5_NS0_4listIP16hiRUNTIME_BLOB_SSaISA_EEEESt10_Select1stISD_ESt4lessIS5_ESaISD_EE8_M_eraseEPSt13_Rb_tree_nodeISD_E_x378
    /*00000374*/ BL          _ZdlPv
    _ZNSt8_Rb_treeINSt7__cxx1112basic_stringIcSt11char_traitsIcESaIcEEESt4pairIKS5_NS0_4listIP16hiRUNTIME_BLOB_SSaISA_EEEESt10_Select1stISD_ESt4lessIS5_ESaISD_EE8_M_eraseEPSt13_Rb_tree_nodeISD_E_x378:
    /*00000378*/ LDR         R0, [SP, #20] 
    /*0000037c*/ BL          _ZdlPv
    /*00000380*/ SUBS        R3, R5, #0 
    /*00000384*/ STR         R3, [SP, #20] 
    /*00000388*/ BNE         _ZNSt8_Rb_treeINSt7__cxx1112basic_stringIcSt11char_traitsIcESaIcEEESt4pairIKS5_NS0_4listIP16hiRUNTIME_BLOB_SSaISA_EEEESt10_Select1stISD_ESt4lessIS5_ESaISD_EE8_M_eraseEPSt13_Rb_tree_nodeISD_E_x24
    _ZNSt8_Rb_treeINSt7__cxx1112basic_stringIcSt11char_traitsIcESaIcEEESt4pairIKS5_NS0_4listIP16hiRUNTIME_BLOB_SSaISA_EEEESt10_Select1stISD_ESt4lessIS5_ESaISD_EE8_M_eraseEPSt13_Rb_tree_nodeISD_E_x38c:
    /*0000038c*/ ADD         SP, SP, #28 
    /*00000390*/ POP         {R4, R5, R6, R7, R8, R9, SL, FP, PC} 
FUNC_END _ZNSt8_Rb_treeINSt7__cxx1112basic_stringIcSt11char_traitsIcESaIcEEESt4pairIKS5_NS0_4listIP16hiRUNTIME_BLOB_SSaISA_EEEESt10_Select1stISD_ESt4lessIS5_ESaISD_EE8_M_eraseEPSt13_Rb_tree_nodeISD_E


@ - - - - - - - - - - - - - - - - - - - - - - - - - - - - - 
@ .text._ZNSt8_Rb_treeIP16hiRUNTIME_BLOB_SSt4pairIKS1_NSt7__cxx1112basic_stringIcSt11char_traitsIcESaIcEEEESt10_Select1stISA_ESt4lessIS1_ESaISA_EE8_M_eraseEPSt13_Rb_tree_nodeISA_E
@ Size: 0x234
@ - - - - - - - - - - - - - - - - - - - - - - - - - - - - - 

FUNC_BEGIN _ZNSt8_Rb_treeIP16hiRUNTIME_BLOB_SSt4pairIKS1_NSt7__cxx1112basic_stringIcSt11char_traitsIcESaIcEEEESt10_Select1stISA_ESt4lessIS1_ESaISA_EE8_M_eraseEPSt13_Rb_tree_nodeISA_E
    /*00000000*/ MOV         IP, #16384                  @ 0x4000 
    /*00000004*/ PUSH        {R4, R5, R6, R7, R8, R9, SL, FP, LR} 
    /*00000008*/ SUB         IP, SP, IP 
    /*0000000c*/ STR         R0, [IP, #4040]             @ 0xfc8 
    /*00000010*/ SUB         SP, SP, #20 
    /*00000014*/ SUBS        R3, R1, #0 
    /*00000018*/ STR         R3, [SP, #12] 
    /*0000001c*/ BEQ         _ZNSt8_Rb_treeIP16hiRUNTIME_BLOB_SSt4pairIKS1_NSt7__cxx1112basic_stringIcSt11char_traitsIcESaIcEEEESt10_Select1stISA_ESt4lessIS1_ESaISA_EE8_M_eraseEPSt13_Rb_tree_nodeISA_E_x22c
    /*00000020*/ MOV         R5, R0 
    _ZNSt8_Rb_treeIP16hiRUNTIME_BLOB_SSt4pairIKS1_NSt7__cxx1112basic_stringIcSt11char_traitsIcESaIcEEEESt10_Select1stISA_ESt4lessIS1_ESaISA_EE8_M_eraseEPSt13_Rb_tree_nodeISA_E_x24:
    /*00000024*/ LDR         R3, [R3, #12] 
    /*00000028*/ CMP         R3, #0 
    /*0000002c*/ STRNE       R3, [SP, #8] 
    /*00000030*/ BEQ         _ZNSt8_Rb_treeIP16hiRUNTIME_BLOB_SSt4pairIKS1_NSt7__cxx1112basic_stringIcSt11char_traitsIcESaIcEEEESt10_Select1stISA_ESt4lessIS1_ESaISA_EE8_M_eraseEPSt13_Rb_tree_nodeISA_E_x1f8
    _ZNSt8_Rb_treeIP16hiRUNTIME_BLOB_SSt4pairIKS1_NSt7__cxx1112basic_stringIcSt11char_traitsIcESaIcEEEESt10_Select1stISA_ESt4lessIS1_ESaISA_EE8_M_eraseEPSt13_Rb_tree_nodeISA_E_x34:
    /*00000034*/ LDR         R8, [R3, #12] 
    /*00000038*/ CMP         R8, #0 
    /*0000003c*/ STRNE       R8, [SP, #4] 
    /*00000040*/ MOVNE       R3, R8 
    /*00000044*/ BEQ         _ZNSt8_Rb_treeIP16hiRUNTIME_BLOB_SSt4pairIKS1_NSt7__cxx1112basic_stringIcSt11char_traitsIcESaIcEEEESt10_Select1stISA_ESt4lessIS1_ESaISA_EE8_M_eraseEPSt13_Rb_tree_nodeISA_E_x1c4
    _ZNSt8_Rb_treeIP16hiRUNTIME_BLOB_SSt4pairIKS1_NSt7__cxx1112basic_stringIcSt11char_traitsIcESaIcEEEESt10_Select1stISA_ESt4lessIS1_ESaISA_EE8_M_eraseEPSt13_Rb_tree_nodeISA_E_x48:
    /*00000048*/ LDR         R9, [R3, #12] 
    /*0000004c*/ CMP         R9, #0 
    /*00000050*/ BEQ         _ZNSt8_Rb_treeIP16hiRUNTIME_BLOB_SSt4pairIKS1_NSt7__cxx1112basic_stringIcSt11char_traitsIcESaIcEEEESt10_Select1stISA_ESt4lessIS1_ESaISA_EE8_M_eraseEPSt13_Rb_tree_nodeISA_E_x190
    _ZNSt8_Rb_treeIP16hiRUNTIME_BLOB_SSt4pairIKS1_NSt7__cxx1112basic_stringIcSt11char_traitsIcESaIcEEEESt10_Select1stISA_ESt4lessIS1_ESaISA_EE8_M_eraseEPSt13_Rb_tree_nodeISA_E_x54:
    /*00000054*/ LDR         SL, [R9, #12] 
    /*00000058*/ CMP         SL, #0 
    /*0000005c*/ BEQ         _ZNSt8_Rb_treeIP16hiRUNTIME_BLOB_SSt4pairIKS1_NSt7__cxx1112basic_stringIcSt11char_traitsIcESaIcEEEESt10_Select1stISA_ESt4lessIS1_ESaISA_EE8_M_eraseEPSt13_Rb_tree_nodeISA_E_x168
    _ZNSt8_Rb_treeIP16hiRUNTIME_BLOB_SSt4pairIKS1_NSt7__cxx1112basic_stringIcSt11char_traitsIcESaIcEEEESt10_Select1stISA_ESt4lessIS1_ESaISA_EE8_M_eraseEPSt13_Rb_tree_nodeISA_E_x60:
    /*00000060*/ LDR         FP, [SL, #12] 
    /*00000064*/ CMP         FP, #0 
    /*00000068*/ BEQ         _ZNSt8_Rb_treeIP16hiRUNTIME_BLOB_SSt4pairIKS1_NSt7__cxx1112basic_stringIcSt11char_traitsIcESaIcEEEESt10_Select1stISA_ESt4lessIS1_ESaISA_EE8_M_eraseEPSt13_Rb_tree_nodeISA_E_x140
    _ZNSt8_Rb_treeIP16hiRUNTIME_BLOB_SSt4pairIKS1_NSt7__cxx1112basic_stringIcSt11char_traitsIcESaIcEEEESt10_Select1stISA_ESt4lessIS1_ESaISA_EE8_M_eraseEPSt13_Rb_tree_nodeISA_E_x6c:
    /*0000006c*/ LDR         R7, [FP, #12] 
    /*00000070*/ CMP         R7, #0 
    /*00000074*/ BEQ         _ZNSt8_Rb_treeIP16hiRUNTIME_BLOB_SSt4pairIKS1_NSt7__cxx1112basic_stringIcSt11char_traitsIcESaIcEEEESt10_Select1stISA_ESt4lessIS1_ESaISA_EE8_M_eraseEPSt13_Rb_tree_nodeISA_E_x118
    _ZNSt8_Rb_treeIP16hiRUNTIME_BLOB_SSt4pairIKS1_NSt7__cxx1112basic_stringIcSt11char_traitsIcESaIcEEEESt10_Select1stISA_ESt4lessIS1_ESaISA_EE8_M_eraseEPSt13_Rb_tree_nodeISA_E_x78:
    /*00000078*/ LDR         R6, [R7, #12] 
    /*0000007c*/ CMP         R6, #0 
    /*00000080*/ BEQ         _ZNSt8_Rb_treeIP16hiRUNTIME_BLOB_SSt4pairIKS1_NSt7__cxx1112basic_stringIcSt11char_traitsIcESaIcEEEESt10_Select1stISA_ESt4lessIS1_ESaISA_EE8_M_eraseEPSt13_Rb_tree_nodeISA_E_xf0
    _ZNSt8_Rb_treeIP16hiRUNTIME_BLOB_SSt4pairIKS1_NSt7__cxx1112basic_stringIcSt11char_traitsIcESaIcEEEESt10_Select1stISA_ESt4lessIS1_ESaISA_EE8_M_eraseEPSt13_Rb_tree_nodeISA_E_x84:
    /*00000084*/ LDR         R3, [R6, #12] 
    /*00000088*/ CMP         R3, #0 
    /*0000008c*/ MOVNE       R8, R3 
    /*00000090*/ BEQ         _ZNSt8_Rb_treeIP16hiRUNTIME_BLOB_SSt4pairIKS1_NSt7__cxx1112basic_stringIcSt11char_traitsIcESaIcEEEESt10_Select1stISA_ESt4lessIS1_ESaISA_EE8_M_eraseEPSt13_Rb_tree_nodeISA_E_xc8
    _ZNSt8_Rb_treeIP16hiRUNTIME_BLOB_SSt4pairIKS1_NSt7__cxx1112basic_stringIcSt11char_traitsIcESaIcEEEESt10_Select1stISA_ESt4lessIS1_ESaISA_EE8_M_eraseEPSt13_Rb_tree_nodeISA_E_x94:
    /*00000094*/ LDR         R1, [R8, #12] 
    /*00000098*/ MOV         R0, R5 
    /*0000009c*/ BL          _ZNSt8_Rb_treeIP16hiRUNTIME_BLOB_SSt4pairIKS1_NSt7__cxx1112basic_stringIcSt11char_traitsIcESaIcEEEESt10_Select1stISA_ESt4lessIS1_ESaISA_EE8_M_eraseEPSt13_Rb_tree_nodeISA_E
    /*000000a0*/ LDR         R0, [R8, #20] 
    /*000000a4*/ ADD         R2, R8, #28 
    /*000000a8*/ LDR         R4, [R8, #8] 
    /*000000ac*/ CMP         R0, R2 
    /*000000b0*/ BEQ         _ZNSt8_Rb_treeIP16hiRUNTIME_BLOB_SSt4pairIKS1_NSt7__cxx1112basic_stringIcSt11char_traitsIcESaIcEEEESt10_Select1stISA_ESt4lessIS1_ESaISA_EE8_M_eraseEPSt13_Rb_tree_nodeISA_E_xb8
    /*000000b4*/ BL          _ZdlPv
    _ZNSt8_Rb_treeIP16hiRUNTIME_BLOB_SSt4pairIKS1_NSt7__cxx1112basic_stringIcSt11char_traitsIcESaIcEEEESt10_Select1stISA_ESt4lessIS1_ESaISA_EE8_M_eraseEPSt13_Rb_tree_nodeISA_E_xb8:
    /*000000b8*/ MOV         R0, R8 
    /*000000bc*/ BL          _ZdlPv
    /*000000c0*/ SUBS        R8, R4, #0 
    /*000000c4*/ BNE         _ZNSt8_Rb_treeIP16hiRUNTIME_BLOB_SSt4pairIKS1_NSt7__cxx1112basic_stringIcSt11char_traitsIcESaIcEEEESt10_Select1stISA_ESt4lessIS1_ESaISA_EE8_M_eraseEPSt13_Rb_tree_nodeISA_E_x94
    _ZNSt8_Rb_treeIP16hiRUNTIME_BLOB_SSt4pairIKS1_NSt7__cxx1112basic_stringIcSt11char_traitsIcESaIcEEEESt10_Select1stISA_ESt4lessIS1_ESaISA_EE8_M_eraseEPSt13_Rb_tree_nodeISA_E_xc8:
    /*000000c8*/ LDR         R0, [R6, #20] 
    /*000000cc*/ ADD         R3, R6, #28 
    /*000000d0*/ LDR         R4, [R6, #8] 
    /*000000d4*/ CMP         R0, R3 
    /*000000d8*/ BEQ         _ZNSt8_Rb_treeIP16hiRUNTIME_BLOB_SSt4pairIKS1_NSt7__cxx1112basic_stringIcSt11char_traitsIcESaIcEEEESt10_Select1stISA_ESt4lessIS1_ESaISA_EE8_M_eraseEPSt13_Rb_tree_nodeISA_E_xe0
    /*000000dc*/ BL          _ZdlPv
    _ZNSt8_Rb_treeIP16hiRUNTIME_BLOB_SSt4pairIKS1_NSt7__cxx1112basic_stringIcSt11char_traitsIcESaIcEEEESt10_Select1stISA_ESt4lessIS1_ESaISA_EE8_M_eraseEPSt13_Rb_tree_nodeISA_E_xe0:
    /*000000e0*/ MOV         R0, R6 
    /*000000e4*/ BL          _ZdlPv
    /*000000e8*/ SUBS        R6, R4, #0 
    /*000000ec*/ BNE         _ZNSt8_Rb_treeIP16hiRUNTIME_BLOB_SSt4pairIKS1_NSt7__cxx1112basic_stringIcSt11char_traitsIcESaIcEEEESt10_Select1stISA_ESt4lessIS1_ESaISA_EE8_M_eraseEPSt13_Rb_tree_nodeISA_E_x84
    _ZNSt8_Rb_treeIP16hiRUNTIME_BLOB_SSt4pairIKS1_NSt7__cxx1112basic_stringIcSt11char_traitsIcESaIcEEEESt10_Select1stISA_ESt4lessIS1_ESaISA_EE8_M_eraseEPSt13_Rb_tree_nodeISA_E_xf0:
    /*000000f0*/ LDR         R0, [R7, #20] 
    /*000000f4*/ ADD         R3, R7, #28 
    /*000000f8*/ LDR         R4, [R7, #8] 
    /*000000fc*/ CMP         R0, R3 
    /*00000100*/ BEQ         _ZNSt8_Rb_treeIP16hiRUNTIME_BLOB_SSt4pairIKS1_NSt7__cxx1112basic_stringIcSt11char_traitsIcESaIcEEEESt10_Select1stISA_ESt4lessIS1_ESaISA_EE8_M_eraseEPSt13_Rb_tree_nodeISA_E_x108
    /*00000104*/ BL          _ZdlPv
    _ZNSt8_Rb_treeIP16hiRUNTIME_BLOB_SSt4pairIKS1_NSt7__cxx1112basic_stringIcSt11char_traitsIcESaIcEEEESt10_Select1stISA_ESt4lessIS1_ESaISA_EE8_M_eraseEPSt13_Rb_tree_nodeISA_E_x108:
    /*00000108*/ MOV         R0, R7 
    /*0000010c*/ BL          _ZdlPv
    /*00000110*/ SUBS        R7, R4, #0 
    /*00000114*/ BNE         _ZNSt8_Rb_treeIP16hiRUNTIME_BLOB_SSt4pairIKS1_NSt7__cxx1112basic_stringIcSt11char_traitsIcESaIcEEEESt10_Select1stISA_ESt4lessIS1_ESaISA_EE8_M_eraseEPSt13_Rb_tree_nodeISA_E_x78
    _ZNSt8_Rb_treeIP16hiRUNTIME_BLOB_SSt4pairIKS1_NSt7__cxx1112basic_stringIcSt11char_traitsIcESaIcEEEESt10_Select1stISA_ESt4lessIS1_ESaISA_EE8_M_eraseEPSt13_Rb_tree_nodeISA_E_x118:
    /*00000118*/ LDR         R0, [FP, #20] 
    /*0000011c*/ ADD         R3, FP, #28 
    /*00000120*/ LDR         R4, [FP, #8] 
    /*00000124*/ CMP         R0, R3 
    /*00000128*/ BEQ         _ZNSt8_Rb_treeIP16hiRUNTIME_BLOB_SSt4pairIKS1_NSt7__cxx1112basic_stringIcSt11char_traitsIcESaIcEEEESt10_Select1stISA_ESt4lessIS1_ESaISA_EE8_M_eraseEPSt13_Rb_tree_nodeISA_E_x130
    /*0000012c*/ BL          _ZdlPv
    _ZNSt8_Rb_treeIP16hiRUNTIME_BLOB_SSt4pairIKS1_NSt7__cxx1112basic_stringIcSt11char_traitsIcESaIcEEEESt10_Select1stISA_ESt4lessIS1_ESaISA_EE8_M_eraseEPSt13_Rb_tree_nodeISA_E_x130:
    /*00000130*/ MOV         R0, FP 
    /*00000134*/ BL          _ZdlPv
    /*00000138*/ SUBS        FP, R4, #0 
    /*0000013c*/ BNE         _ZNSt8_Rb_treeIP16hiRUNTIME_BLOB_SSt4pairIKS1_NSt7__cxx1112basic_stringIcSt11char_traitsIcESaIcEEEESt10_Select1stISA_ESt4lessIS1_ESaISA_EE8_M_eraseEPSt13_Rb_tree_nodeISA_E_x6c
    _ZNSt8_Rb_treeIP16hiRUNTIME_BLOB_SSt4pairIKS1_NSt7__cxx1112basic_stringIcSt11char_traitsIcESaIcEEEESt10_Select1stISA_ESt4lessIS1_ESaISA_EE8_M_eraseEPSt13_Rb_tree_nodeISA_E_x140:
    /*00000140*/ LDR         R0, [SL, #20] 
    /*00000144*/ ADD         R3, SL, #28 
    /*00000148*/ LDR         R4, [SL, #8] 
    /*0000014c*/ CMP         R0, R3 
    /*00000150*/ BEQ         _ZNSt8_Rb_treeIP16hiRUNTIME_BLOB_SSt4pairIKS1_NSt7__cxx1112basic_stringIcSt11char_traitsIcESaIcEEEESt10_Select1stISA_ESt4lessIS1_ESaISA_EE8_M_eraseEPSt13_Rb_tree_nodeISA_E_x158
    /*00000154*/ BL          _ZdlPv
    _ZNSt8_Rb_treeIP16hiRUNTIME_BLOB_SSt4pairIKS1_NSt7__cxx1112basic_stringIcSt11char_traitsIcESaIcEEEESt10_Select1stISA_ESt4lessIS1_ESaISA_EE8_M_eraseEPSt13_Rb_tree_nodeISA_E_x158:
    /*00000158*/ MOV         R0, SL 
    /*0000015c*/ BL          _ZdlPv
    /*00000160*/ SUBS        SL, R4, #0 
    /*00000164*/ BNE         _ZNSt8_Rb_treeIP16hiRUNTIME_BLOB_SSt4pairIKS1_NSt7__cxx1112basic_stringIcSt11char_traitsIcESaIcEEEESt10_Select1stISA_ESt4lessIS1_ESaISA_EE8_M_eraseEPSt13_Rb_tree_nodeISA_E_x60
    _ZNSt8_Rb_treeIP16hiRUNTIME_BLOB_SSt4pairIKS1_NSt7__cxx1112basic_stringIcSt11char_traitsIcESaIcEEEESt10_Select1stISA_ESt4lessIS1_ESaISA_EE8_M_eraseEPSt13_Rb_tree_nodeISA_E_x168:
    /*00000168*/ LDR         R0, [R9, #20] 
    /*0000016c*/ ADD         R3, R9, #28 
    /*00000170*/ LDR         R4, [R9, #8] 
    /*00000174*/ CMP         R0, R3 
    /*00000178*/ BEQ         _ZNSt8_Rb_treeIP16hiRUNTIME_BLOB_SSt4pairIKS1_NSt7__cxx1112basic_stringIcSt11char_traitsIcESaIcEEEESt10_Select1stISA_ESt4lessIS1_ESaISA_EE8_M_eraseEPSt13_Rb_tree_nodeISA_E_x180
    /*0000017c*/ BL          _ZdlPv
    _ZNSt8_Rb_treeIP16hiRUNTIME_BLOB_SSt4pairIKS1_NSt7__cxx1112basic_stringIcSt11char_traitsIcESaIcEEEESt10_Select1stISA_ESt4lessIS1_ESaISA_EE8_M_eraseEPSt13_Rb_tree_nodeISA_E_x180:
    /*00000180*/ MOV         R0, R9 
    /*00000184*/ BL          _ZdlPv
    /*00000188*/ SUBS        R9, R4, #0 
    /*0000018c*/ BNE         _ZNSt8_Rb_treeIP16hiRUNTIME_BLOB_SSt4pairIKS1_NSt7__cxx1112basic_stringIcSt11char_traitsIcESaIcEEEESt10_Select1stISA_ESt4lessIS1_ESaISA_EE8_M_eraseEPSt13_Rb_tree_nodeISA_E_x54
    _ZNSt8_Rb_treeIP16hiRUNTIME_BLOB_SSt4pairIKS1_NSt7__cxx1112basic_stringIcSt11char_traitsIcESaIcEEEESt10_Select1stISA_ESt4lessIS1_ESaISA_EE8_M_eraseEPSt13_Rb_tree_nodeISA_E_x190:
    /*00000190*/ LDR         R2, [SP, #4] 
    /*00000194*/ LDR         R0, [R2, #20] 
    /*00000198*/ ADD         R3, R2, #28 
    /*0000019c*/ LDR         R4, [R2, #8] 
    /*000001a0*/ CMP         R0, R3 
    /*000001a4*/ MOVEQ       R0, R2 
    /*000001a8*/ BEQ         _ZNSt8_Rb_treeIP16hiRUNTIME_BLOB_SSt4pairIKS1_NSt7__cxx1112basic_stringIcSt11char_traitsIcESaIcEEEESt10_Select1stISA_ESt4lessIS1_ESaISA_EE8_M_eraseEPSt13_Rb_tree_nodeISA_E_x1b4
    /*000001ac*/ BL          _ZdlPv
    /*000001b0*/ LDR         R0, [SP, #4] 
    _ZNSt8_Rb_treeIP16hiRUNTIME_BLOB_SSt4pairIKS1_NSt7__cxx1112basic_stringIcSt11char_traitsIcESaIcEEEESt10_Select1stISA_ESt4lessIS1_ESaISA_EE8_M_eraseEPSt13_Rb_tree_nodeISA_E_x1b4:
    /*000001b4*/ BL          _ZdlPv
    /*000001b8*/ SUBS        R3, R4, #0 
    /*000001bc*/ STR         R3, [SP, #4] 
    /*000001c0*/ BNE         _ZNSt8_Rb_treeIP16hiRUNTIME_BLOB_SSt4pairIKS1_NSt7__cxx1112basic_stringIcSt11char_traitsIcESaIcEEEESt10_Select1stISA_ESt4lessIS1_ESaISA_EE8_M_eraseEPSt13_Rb_tree_nodeISA_E_x48
    _ZNSt8_Rb_treeIP16hiRUNTIME_BLOB_SSt4pairIKS1_NSt7__cxx1112basic_stringIcSt11char_traitsIcESaIcEEEESt10_Select1stISA_ESt4lessIS1_ESaISA_EE8_M_eraseEPSt13_Rb_tree_nodeISA_E_x1c4:
    /*000001c4*/ LDR         R2, [SP, #8] 
    /*000001c8*/ LDR         R0, [R2, #20] 
    /*000001cc*/ ADD         R3, R2, #28 
    /*000001d0*/ LDR         R4, [R2, #8] 
    /*000001d4*/ CMP         R0, R3 
    /*000001d8*/ MOVEQ       R0, R2 
    /*000001dc*/ BEQ         _ZNSt8_Rb_treeIP16hiRUNTIME_BLOB_SSt4pairIKS1_NSt7__cxx1112basic_stringIcSt11char_traitsIcESaIcEEEESt10_Select1stISA_ESt4lessIS1_ESaISA_EE8_M_eraseEPSt13_Rb_tree_nodeISA_E_x1e8
    /*000001e0*/ BL          _ZdlPv
    /*000001e4*/ LDR         R0, [SP, #8] 
    _ZNSt8_Rb_treeIP16hiRUNTIME_BLOB_SSt4pairIKS1_NSt7__cxx1112basic_stringIcSt11char_traitsIcESaIcEEEESt10_Select1stISA_ESt4lessIS1_ESaISA_EE8_M_eraseEPSt13_Rb_tree_nodeISA_E_x1e8:
    /*000001e8*/ BL          _ZdlPv
    /*000001ec*/ SUBS        R3, R4, #0 
    /*000001f0*/ STR         R3, [SP, #8] 
    /*000001f4*/ BNE         _ZNSt8_Rb_treeIP16hiRUNTIME_BLOB_SSt4pairIKS1_NSt7__cxx1112basic_stringIcSt11char_traitsIcESaIcEEEESt10_Select1stISA_ESt4lessIS1_ESaISA_EE8_M_eraseEPSt13_Rb_tree_nodeISA_E_x34
    _ZNSt8_Rb_treeIP16hiRUNTIME_BLOB_SSt4pairIKS1_NSt7__cxx1112basic_stringIcSt11char_traitsIcESaIcEEEESt10_Select1stISA_ESt4lessIS1_ESaISA_EE8_M_eraseEPSt13_Rb_tree_nodeISA_E_x1f8:
    /*000001f8*/ LDR         R2, [SP, #12] 
    /*000001fc*/ LDR         R0, [R2, #20] 
    /*00000200*/ ADD         R3, R2, #28 
    /*00000204*/ LDR         R4, [R2, #8] 
    /*00000208*/ CMP         R0, R3 
    /*0000020c*/ MOVEQ       R0, R2 
    /*00000210*/ BEQ         _ZNSt8_Rb_treeIP16hiRUNTIME_BLOB_SSt4pairIKS1_NSt7__cxx1112basic_stringIcSt11char_traitsIcESaIcEEEESt10_Select1stISA_ESt4lessIS1_ESaISA_EE8_M_eraseEPSt13_Rb_tree_nodeISA_E_x21c
    /*00000214*/ BL          _ZdlPv
    /*00000218*/ LDR         R0, [SP, #12] 
    _ZNSt8_Rb_treeIP16hiRUNTIME_BLOB_SSt4pairIKS1_NSt7__cxx1112basic_stringIcSt11char_traitsIcESaIcEEEESt10_Select1stISA_ESt4lessIS1_ESaISA_EE8_M_eraseEPSt13_Rb_tree_nodeISA_E_x21c:
    /*0000021c*/ BL          _ZdlPv
    /*00000220*/ SUBS        R3, R4, #0 
    /*00000224*/ STR         R3, [SP, #12] 
    /*00000228*/ BNE         _ZNSt8_Rb_treeIP16hiRUNTIME_BLOB_SSt4pairIKS1_NSt7__cxx1112basic_stringIcSt11char_traitsIcESaIcEEEESt10_Select1stISA_ESt4lessIS1_ESaISA_EE8_M_eraseEPSt13_Rb_tree_nodeISA_E_x24
    _ZNSt8_Rb_treeIP16hiRUNTIME_BLOB_SSt4pairIKS1_NSt7__cxx1112basic_stringIcSt11char_traitsIcESaIcEEEESt10_Select1stISA_ESt4lessIS1_ESaISA_EE8_M_eraseEPSt13_Rb_tree_nodeISA_E_x22c:
    /*0000022c*/ ADD         SP, SP, #20 
    /*00000230*/ POP         {R4, R5, R6, R7, R8, R9, SL, FP, PC} 
FUNC_END _ZNSt8_Rb_treeIP16hiRUNTIME_BLOB_SSt4pairIKS1_NSt7__cxx1112basic_stringIcSt11char_traitsIcESaIcEEEESt10_Select1stISA_ESt4lessIS1_ESaISA_EE8_M_eraseEPSt13_Rb_tree_nodeISA_E


@ - - - - - - - - - - - - - - - - - - - - - - - - - - - - - 
@ .text._ZNSt8_Rb_treeIP16hiRUNTIME_BLOB_SSt4pairIKS1_7HI_BOOLESt10_Select1stIS5_ESt4lessIS1_ESaIS5_EE8_M_eraseEPSt13_Rb_tree_nodeIS5_E
@ Size: 0x178
@ - - - - - - - - - - - - - - - - - - - - - - - - - - - - - 

FUNC_BEGIN _ZNSt8_Rb_treeIP16hiRUNTIME_BLOB_SSt4pairIKS1_7HI_BOOLESt10_Select1stIS5_ESt4lessIS1_ESaIS5_EE8_M_eraseEPSt13_Rb_tree_nodeIS5_E
    /*00000000*/ MOV         IP, #16384                  @ 0x4000 
    /*00000004*/ PUSH        {R4, R5, R6, R7, R8, R9, SL, FP, LR} 
    /*00000008*/ SUB         IP, SP, IP 
    /*0000000c*/ STR         R0, [IP, #4040]             @ 0xfc8 
    /*00000010*/ SUB         SP, SP, #20 
    /*00000014*/ SUBS        R3, R1, #0 
    /*00000018*/ STR         R3, [SP, #12] 
    /*0000001c*/ BEQ         _ZNSt8_Rb_treeIP16hiRUNTIME_BLOB_SSt4pairIKS1_7HI_BOOLESt10_Select1stIS5_ESt4lessIS1_ESaIS5_EE8_M_eraseEPSt13_Rb_tree_nodeIS5_E_x170
    /*00000020*/ MOV         R4, R0 
    _ZNSt8_Rb_treeIP16hiRUNTIME_BLOB_SSt4pairIKS1_7HI_BOOLESt10_Select1stIS5_ESt4lessIS1_ESaIS5_EE8_M_eraseEPSt13_Rb_tree_nodeIS5_E_x24:
    /*00000024*/ LDR         R7, [R3, #12] 
    /*00000028*/ CMP         R7, #0 
    /*0000002c*/ STRNE       R7, [SP, #4] 
    /*00000030*/ MOVNE       R3, R7 
    /*00000034*/ BEQ         _ZNSt8_Rb_treeIP16hiRUNTIME_BLOB_SSt4pairIKS1_7HI_BOOLESt10_Select1stIS5_ESt4lessIS1_ESaIS5_EE8_M_eraseEPSt13_Rb_tree_nodeIS5_E_x158
    _ZNSt8_Rb_treeIP16hiRUNTIME_BLOB_SSt4pairIKS1_7HI_BOOLESt10_Select1stIS5_ESt4lessIS1_ESaIS5_EE8_M_eraseEPSt13_Rb_tree_nodeIS5_E_x38:
    /*00000038*/ LDR         R8, [R3, #12] 
    /*0000003c*/ CMP         R8, #0 
    /*00000040*/ STRNE       R8, [SP, #8] 
    /*00000044*/ MOVNE       R3, R8 
    /*00000048*/ BEQ         _ZNSt8_Rb_treeIP16hiRUNTIME_BLOB_SSt4pairIKS1_7HI_BOOLESt10_Select1stIS5_ESt4lessIS1_ESaIS5_EE8_M_eraseEPSt13_Rb_tree_nodeIS5_E_x13c
    _ZNSt8_Rb_treeIP16hiRUNTIME_BLOB_SSt4pairIKS1_7HI_BOOLESt10_Select1stIS5_ESt4lessIS1_ESaIS5_EE8_M_eraseEPSt13_Rb_tree_nodeIS5_E_x4c:
    /*0000004c*/ LDR         R9, [R3, #12] 
    /*00000050*/ CMP         R9, #0 
    /*00000054*/ BEQ         _ZNSt8_Rb_treeIP16hiRUNTIME_BLOB_SSt4pairIKS1_7HI_BOOLESt10_Select1stIS5_ESt4lessIS1_ESaIS5_EE8_M_eraseEPSt13_Rb_tree_nodeIS5_E_x120
    _ZNSt8_Rb_treeIP16hiRUNTIME_BLOB_SSt4pairIKS1_7HI_BOOLESt10_Select1stIS5_ESt4lessIS1_ESaIS5_EE8_M_eraseEPSt13_Rb_tree_nodeIS5_E_x58:
    /*00000058*/ LDR         SL, [R9, #12] 
    /*0000005c*/ CMP         SL, #0 
    /*00000060*/ BEQ         _ZNSt8_Rb_treeIP16hiRUNTIME_BLOB_SSt4pairIKS1_7HI_BOOLESt10_Select1stIS5_ESt4lessIS1_ESaIS5_EE8_M_eraseEPSt13_Rb_tree_nodeIS5_E_x108
    _ZNSt8_Rb_treeIP16hiRUNTIME_BLOB_SSt4pairIKS1_7HI_BOOLESt10_Select1stIS5_ESt4lessIS1_ESaIS5_EE8_M_eraseEPSt13_Rb_tree_nodeIS5_E_x64:
    /*00000064*/ LDR         FP, [SL, #12] 
    /*00000068*/ CMP         FP, #0 
    /*0000006c*/ BEQ         _ZNSt8_Rb_treeIP16hiRUNTIME_BLOB_SSt4pairIKS1_7HI_BOOLESt10_Select1stIS5_ESt4lessIS1_ESaIS5_EE8_M_eraseEPSt13_Rb_tree_nodeIS5_E_xf4
    _ZNSt8_Rb_treeIP16hiRUNTIME_BLOB_SSt4pairIKS1_7HI_BOOLESt10_Select1stIS5_ESt4lessIS1_ESaIS5_EE8_M_eraseEPSt13_Rb_tree_nodeIS5_E_x70:
    /*00000070*/ LDR         R6, [FP, #12] 
    /*00000074*/ CMP         R6, #0 
    /*00000078*/ BEQ         _ZNSt8_Rb_treeIP16hiRUNTIME_BLOB_SSt4pairIKS1_7HI_BOOLESt10_Select1stIS5_ESt4lessIS1_ESaIS5_EE8_M_eraseEPSt13_Rb_tree_nodeIS5_E_xe0
    _ZNSt8_Rb_treeIP16hiRUNTIME_BLOB_SSt4pairIKS1_7HI_BOOLESt10_Select1stIS5_ESt4lessIS1_ESaIS5_EE8_M_eraseEPSt13_Rb_tree_nodeIS5_E_x7c:
    /*0000007c*/ LDR         R5, [R6, #12] 
    /*00000080*/ CMP         R5, #0 
    /*00000084*/ BEQ         _ZNSt8_Rb_treeIP16hiRUNTIME_BLOB_SSt4pairIKS1_7HI_BOOLESt10_Select1stIS5_ESt4lessIS1_ESaIS5_EE8_M_eraseEPSt13_Rb_tree_nodeIS5_E_xcc
    _ZNSt8_Rb_treeIP16hiRUNTIME_BLOB_SSt4pairIKS1_7HI_BOOLESt10_Select1stIS5_ESt4lessIS1_ESaIS5_EE8_M_eraseEPSt13_Rb_tree_nodeIS5_E_x88:
    /*00000088*/ LDR         R3, [R5, #12] 
    /*0000008c*/ CMP         R3, #0 
    /*00000090*/ MOVNE       R7, R3 
    /*00000094*/ BEQ         _ZNSt8_Rb_treeIP16hiRUNTIME_BLOB_SSt4pairIKS1_7HI_BOOLESt10_Select1stIS5_ESt4lessIS1_ESaIS5_EE8_M_eraseEPSt13_Rb_tree_nodeIS5_E_xb8
    _ZNSt8_Rb_treeIP16hiRUNTIME_BLOB_SSt4pairIKS1_7HI_BOOLESt10_Select1stIS5_ESt4lessIS1_ESaIS5_EE8_M_eraseEPSt13_Rb_tree_nodeIS5_E_x98:
    /*00000098*/ LDR         R1, [R7, #12] 
    /*0000009c*/ MOV         R0, R4 
    /*000000a0*/ BL          _ZNSt8_Rb_treeIP16hiRUNTIME_BLOB_SSt4pairIKS1_7HI_BOOLESt10_Select1stIS5_ESt4lessIS1_ESaIS5_EE8_M_eraseEPSt13_Rb_tree_nodeIS5_E
    /*000000a4*/ LDR         R8, [R7, #8] 
    /*000000a8*/ MOV         R0, R7 
    /*000000ac*/ BL          _ZdlPv
    /*000000b0*/ SUBS        R7, R8, #0 
    /*000000b4*/ BNE         _ZNSt8_Rb_treeIP16hiRUNTIME_BLOB_SSt4pairIKS1_7HI_BOOLESt10_Select1stIS5_ESt4lessIS1_ESaIS5_EE8_M_eraseEPSt13_Rb_tree_nodeIS5_E_x98
    _ZNSt8_Rb_treeIP16hiRUNTIME_BLOB_SSt4pairIKS1_7HI_BOOLESt10_Select1stIS5_ESt4lessIS1_ESaIS5_EE8_M_eraseEPSt13_Rb_tree_nodeIS5_E_xb8:
    /*000000b8*/ LDR         R7, [R5, #8] 
    /*000000bc*/ MOV         R0, R5 
    /*000000c0*/ BL          _ZdlPv
    /*000000c4*/ SUBS        R5, R7, #0 
    /*000000c8*/ BNE         _ZNSt8_Rb_treeIP16hiRUNTIME_BLOB_SSt4pairIKS1_7HI_BOOLESt10_Select1stIS5_ESt4lessIS1_ESaIS5_EE8_M_eraseEPSt13_Rb_tree_nodeIS5_E_x88
    _ZNSt8_Rb_treeIP16hiRUNTIME_BLOB_SSt4pairIKS1_7HI_BOOLESt10_Select1stIS5_ESt4lessIS1_ESaIS5_EE8_M_eraseEPSt13_Rb_tree_nodeIS5_E_xcc:
    /*000000cc*/ LDR         R5, [R6, #8] 
    /*000000d0*/ MOV         R0, R6 
    /*000000d4*/ BL          _ZdlPv
    /*000000d8*/ SUBS        R6, R5, #0 
    /*000000dc*/ BNE         _ZNSt8_Rb_treeIP16hiRUNTIME_BLOB_SSt4pairIKS1_7HI_BOOLESt10_Select1stIS5_ESt4lessIS1_ESaIS5_EE8_M_eraseEPSt13_Rb_tree_nodeIS5_E_x7c
    _ZNSt8_Rb_treeIP16hiRUNTIME_BLOB_SSt4pairIKS1_7HI_BOOLESt10_Select1stIS5_ESt4lessIS1_ESaIS5_EE8_M_eraseEPSt13_Rb_tree_nodeIS5_E_xe0:
    /*000000e0*/ LDR         R5, [FP, #8] 
    /*000000e4*/ MOV         R0, FP 
    /*000000e8*/ BL          _ZdlPv
    /*000000ec*/ SUBS        FP, R5, #0 
    /*000000f0*/ BNE         _ZNSt8_Rb_treeIP16hiRUNTIME_BLOB_SSt4pairIKS1_7HI_BOOLESt10_Select1stIS5_ESt4lessIS1_ESaIS5_EE8_M_eraseEPSt13_Rb_tree_nodeIS5_E_x70
    _ZNSt8_Rb_treeIP16hiRUNTIME_BLOB_SSt4pairIKS1_7HI_BOOLESt10_Select1stIS5_ESt4lessIS1_ESaIS5_EE8_M_eraseEPSt13_Rb_tree_nodeIS5_E_xf4:
    /*000000f4*/ LDR         R5, [SL, #8] 
    /*000000f8*/ MOV         R0, SL 
    /*000000fc*/ BL          _ZdlPv
    /*00000100*/ SUBS        SL, R5, #0 
    /*00000104*/ BNE         _ZNSt8_Rb_treeIP16hiRUNTIME_BLOB_SSt4pairIKS1_7HI_BOOLESt10_Select1stIS5_ESt4lessIS1_ESaIS5_EE8_M_eraseEPSt13_Rb_tree_nodeIS5_E_x64
    _ZNSt8_Rb_treeIP16hiRUNTIME_BLOB_SSt4pairIKS1_7HI_BOOLESt10_Select1stIS5_ESt4lessIS1_ESaIS5_EE8_M_eraseEPSt13_Rb_tree_nodeIS5_E_x108:
    /*00000108*/ LDR         R5, [R9, #8] 
    /*0000010c*/ MOV         R0, R9 
    /*00000110*/ BL          _ZdlPv
    /*00000114*/ SUBS        R9, R5, #0 
    /*00000118*/ BNE         _ZNSt8_Rb_treeIP16hiRUNTIME_BLOB_SSt4pairIKS1_7HI_BOOLESt10_Select1stIS5_ESt4lessIS1_ESaIS5_EE8_M_eraseEPSt13_Rb_tree_nodeIS5_E_x58
    /*0000011c*/ LDR         R3, [SP, #8] 
    _ZNSt8_Rb_treeIP16hiRUNTIME_BLOB_SSt4pairIKS1_7HI_BOOLESt10_Select1stIS5_ESt4lessIS1_ESaIS5_EE8_M_eraseEPSt13_Rb_tree_nodeIS5_E_x120:
    /*00000120*/ LDR         R5, [R3, #8] 
    /*00000124*/ MOV         R0, R3 
    /*00000128*/ BL          _ZdlPv
    /*0000012c*/ SUBS        R3, R5, #0 
    /*00000130*/ STR         R3, [SP, #8] 
    /*00000134*/ BNE         _ZNSt8_Rb_treeIP16hiRUNTIME_BLOB_SSt4pairIKS1_7HI_BOOLESt10_Select1stIS5_ESt4lessIS1_ESaIS5_EE8_M_eraseEPSt13_Rb_tree_nodeIS5_E_x4c
    /*00000138*/ LDR         R3, [SP, #4] 
    _ZNSt8_Rb_treeIP16hiRUNTIME_BLOB_SSt4pairIKS1_7HI_BOOLESt10_Select1stIS5_ESt4lessIS1_ESaIS5_EE8_M_eraseEPSt13_Rb_tree_nodeIS5_E_x13c:
    /*0000013c*/ LDR         R5, [R3, #8] 
    /*00000140*/ MOV         R0, R3 
    /*00000144*/ BL          _ZdlPv
    /*00000148*/ SUBS        R3, R5, #0 
    /*0000014c*/ STR         R3, [SP, #4] 
    /*00000150*/ BNE         _ZNSt8_Rb_treeIP16hiRUNTIME_BLOB_SSt4pairIKS1_7HI_BOOLESt10_Select1stIS5_ESt4lessIS1_ESaIS5_EE8_M_eraseEPSt13_Rb_tree_nodeIS5_E_x38
    /*00000154*/ LDR         R3, [SP, #12] 
    _ZNSt8_Rb_treeIP16hiRUNTIME_BLOB_SSt4pairIKS1_7HI_BOOLESt10_Select1stIS5_ESt4lessIS1_ESaIS5_EE8_M_eraseEPSt13_Rb_tree_nodeIS5_E_x158:
    /*00000158*/ LDR         R5, [R3, #8] 
    /*0000015c*/ MOV         R0, R3 
    /*00000160*/ BL          _ZdlPv
    /*00000164*/ SUBS        R3, R5, #0 
    /*00000168*/ STR         R3, [SP, #12] 
    /*0000016c*/ BNE         _ZNSt8_Rb_treeIP16hiRUNTIME_BLOB_SSt4pairIKS1_7HI_BOOLESt10_Select1stIS5_ESt4lessIS1_ESaIS5_EE8_M_eraseEPSt13_Rb_tree_nodeIS5_E_x24
    _ZNSt8_Rb_treeIP16hiRUNTIME_BLOB_SSt4pairIKS1_7HI_BOOLESt10_Select1stIS5_ESt4lessIS1_ESaIS5_EE8_M_eraseEPSt13_Rb_tree_nodeIS5_E_x170:
    /*00000170*/ ADD         SP, SP, #20 
    /*00000174*/ POP         {R4, R5, R6, R7, R8, R9, SL, FP, PC} 
FUNC_END _ZNSt8_Rb_treeIP16hiRUNTIME_BLOB_SSt4pairIKS1_7HI_BOOLESt10_Select1stIS5_ESt4lessIS1_ESaIS5_EE8_M_eraseEPSt13_Rb_tree_nodeIS5_E


@ - - - - - - - - - - - - - - - - - - - - - - - - - - - - - 
@ .text._ZN4hirt14ModelGroupTaskD2Ev
@ Size: 0x254
@ - - - - - - - - - - - - - - - - - - - - - - - - - - - - - 

FUNC_BEGIN _ZN4hirt14ModelGroupTaskD2Ev
    /*00000000*/ MOV         IP, #16384                  @ 0x4000 
    /*00000004*/ PUSH        {R4, R5, R6, R7, R8, LR} 
    /*00000008*/ SUB         IP, SP, IP 
    /*0000000c*/ STR         R0, [IP, #4072]             @ 0xfe8 
    /*00000010*/ LDR         R3, WORD_0250               @ LDR         R3, [PC, #568]              @ 0x0000000000000250 
    /*00000014*/ ADD         R6, R0, #152                @ 0x98 
    /*00000018*/ LDR         R4, [R0, #160]              @ 0xa0 
    /*0000001c*/ MOV         R5, R0 
    /*00000020*/ ADD         R3, PC, R3 
    /*00000024*/ CMP         R4, R6 
    /*00000028*/ ADD         R3, R3, #8 
    /*0000002c*/ STR         R3, [R0] 
    /*00000030*/ BNE         _ZN4hirt14ModelGroupTaskD2Ev_x4c
    /*00000034*/ B           _ZN4hirt14ModelGroupTaskD2Ev_x70
    _ZN4hirt14ModelGroupTaskD2Ev_x38:
    /*00000038*/ MOV         R0, R4 
    /*0000003c*/ BL          _ZSt18_Rb_tree_incrementPSt18_Rb_tree_node_base
    /*00000040*/ CMP         R0, R6 
    /*00000044*/ MOV         R4, R0 
    /*00000048*/ BEQ         _ZN4hirt14ModelGroupTaskD2Ev_x70
    _ZN4hirt14ModelGroupTaskD2Ev_x4c:
    /*0000004c*/ LDR         R3, [R4, #20] 
    /*00000050*/ CMP         R3, #1 
    /*00000054*/ BNE         _ZN4hirt14ModelGroupTaskD2Ev_x38
    /*00000058*/ LDR         R0, [R4, #16] 
    /*0000005c*/ MOV         R1, #48                     @ 0x30 
    /*00000060*/ CMP         R0, #0 
    /*00000064*/ BEQ         _ZN4hirt14ModelGroupTaskD2Ev_x38
    /*00000068*/ BL          _ZdlPvj
    /*0000006c*/ B           _ZN4hirt14ModelGroupTaskD2Ev_x38
    _ZN4hirt14ModelGroupTaskD2Ev_x70:
    /*00000070*/ LDR         R0, [R5, #144]              @ 0x90 
    /*00000074*/ CMP         R0, #0 
    /*00000078*/ BEQ         _ZN4hirt14ModelGroupTaskD2Ev_xac
    /*0000007c*/ LDR         R3, [R0, #4] 
    /*00000080*/ CMP         R3, #0 
    /*00000084*/ BEQ         _ZN4hirt14ModelGroupTaskD2Ev_x9c
    /*00000088*/ MOV         R0, R3 
    /*0000008c*/ BL          _ZdaPv
    /*00000090*/ LDR         R0, [R5, #144]              @ 0x90 
    /*00000094*/ MOV         R3, #0 
    /*00000098*/ STR         R3, [R0, #4] 
    _ZN4hirt14ModelGroupTaskD2Ev_x9c:
    /*0000009c*/ MOV         R1, #8 
    /*000000a0*/ BL          _ZdlPvj
    /*000000a4*/ MOV         R3, #0 
    /*000000a8*/ STR         R3, [R5, #144]              @ 0x90 
    _ZN4hirt14ModelGroupTaskD2Ev_xac:
    /*000000ac*/ LDR         R4, [R5, #8] 
    /*000000b0*/ LDR         R3, [R5, #12] 
    /*000000b4*/ CMP         R3, R4 
    /*000000b8*/ ADDNE       R6, R4, #4 
    /*000000bc*/ MOVNE       R7, #0 
    /*000000c0*/ BNE         _ZN4hirt14ModelGroupTaskD2Ev_xd8
    /*000000c4*/ B           _ZN4hirt14ModelGroupTaskD2Ev_x12c
    _ZN4hirt14ModelGroupTaskD2Ev_xc8:
    /*000000c8*/ SUB         R3, R3, #4 
    /*000000cc*/ CMP         R4, R3 
    /*000000d0*/ STR         R3, [R5, #12] 
    /*000000d4*/ BEQ         _ZN4hirt14ModelGroupTaskD2Ev_x12c
    _ZN4hirt14ModelGroupTaskD2Ev_xd8:
    /*000000d8*/ LDR         R2, [R4] 
    /*000000dc*/ SUBS        R0, R2, #0 
    /*000000e0*/ BEQ         _ZN4hirt14ModelGroupTaskD2Ev_xf8
    /*000000e4*/ LDR         R3, [R2] 
    /*000000e8*/ LDR         R3, [R3, #4] 
    /*000000ec*/ BLX         R3 
    /*000000f0*/ LDR         R3, [R5, #12] 
    /*000000f4*/ STR         R7, [R4] 
    _ZN4hirt14ModelGroupTaskD2Ev_xf8:
    /*000000f8*/ CMP         R3, R6 
    /*000000fc*/ SUB         R2, R3, R6 
    /*00000100*/ BEQ         _ZN4hirt14ModelGroupTaskD2Ev_xc8
    /*00000104*/ LSRS        R1, R2, #2 
    /*00000108*/ BEQ         _ZN4hirt14ModelGroupTaskD2Ev_xc8
    /*0000010c*/ MOV         R1, R6 
    /*00000110*/ MOV         R0, R4 
    /*00000114*/ BL          memmove
    /*00000118*/ LDR         R3, [R5, #12] 
    /*0000011c*/ SUB         R3, R3, #4 
    /*00000120*/ CMP         R4, R3 
    /*00000124*/ STR         R3, [R5, #12] 
    /*00000128*/ BNE         _ZN4hirt14ModelGroupTaskD2Ev_xd8
    _ZN4hirt14ModelGroupTaskD2Ev_x12c:
    /*0000012c*/ LDR         R4, [R5, #60]               @ 0x3c 
    /*00000130*/ ADD         R7, R5, #52                 @ 0x34 
    /*00000134*/ CMP         R4, R7 
    /*00000138*/ MOVNE       R6, #0 
    /*0000013c*/ BEQ         _ZN4hirt14ModelGroupTaskD2Ev_x184
    _ZN4hirt14ModelGroupTaskD2Ev_x140:
    /*00000140*/ LDR         R3, [R4, #40]               @ 0x28 
    /*00000144*/ CMP         R3, #0 
    /*00000148*/ BEQ         _ZN4hirt14ModelGroupTaskD2Ev_x170
    /*0000014c*/ LDR         R2, [R3, #4] 
    /*00000150*/ SUBS        R0, R2, #0 
    /*00000154*/ BEQ         _ZN4hirt14ModelGroupTaskD2Ev_x164
    /*00000158*/ BL          free
    /*0000015c*/ LDR         R3, [R4, #40]               @ 0x28 
    /*00000160*/ STR         R6, [R3, #4] 
    _ZN4hirt14ModelGroupTaskD2Ev_x164:
    /*00000164*/ MOV         R0, R3 
    /*00000168*/ BL          free
    /*0000016c*/ STR         R6, [R4, #40]               @ 0x28 
    _ZN4hirt14ModelGroupTaskD2Ev_x170:
    /*00000170*/ MOV         R0, R4 
    /*00000174*/ BL          _ZSt18_Rb_tree_incrementPSt18_Rb_tree_node_base
    /*00000178*/ CMP         R0, R7 
    /*0000017c*/ MOV         R4, R0 
    /*00000180*/ BNE         _ZN4hirt14ModelGroupTaskD2Ev_x140
    _ZN4hirt14ModelGroupTaskD2Ev_x184:
    /*00000184*/ LDR         R4, [R5, #84]               @ 0x54 
    /*00000188*/ ADD         R7, R5, #76                 @ 0x4c 
    /*0000018c*/ CMP         R7, R4 
    /*00000190*/ MOVNE       R6, #0 
    /*00000194*/ BEQ         _ZN4hirt14ModelGroupTaskD2Ev_x1dc
    _ZN4hirt14ModelGroupTaskD2Ev_x198:
    /*00000198*/ LDR         R3, [R4, #40]               @ 0x28 
    /*0000019c*/ CMP         R3, #0 
    /*000001a0*/ BEQ         _ZN4hirt14ModelGroupTaskD2Ev_x1c8
    /*000001a4*/ LDR         R2, [R3, #4] 
    /*000001a8*/ SUBS        R0, R2, #0 
    /*000001ac*/ BEQ         _ZN4hirt14ModelGroupTaskD2Ev_x1bc
    /*000001b0*/ BL          free
    /*000001b4*/ LDR         R3, [R4, #40]               @ 0x28 
    /*000001b8*/ STR         R6, [R3, #4] 
    _ZN4hirt14ModelGroupTaskD2Ev_x1bc:
    /*000001bc*/ MOV         R0, R3 
    /*000001c0*/ BL          free
    /*000001c4*/ STR         R6, [R4, #40]               @ 0x28 
    _ZN4hirt14ModelGroupTaskD2Ev_x1c8:
    /*000001c8*/ MOV         R0, R4 
    /*000001cc*/ BL          _ZSt18_Rb_tree_incrementPSt18_Rb_tree_node_base
    /*000001d0*/ CMP         R7, R0 
    /*000001d4*/ MOV         R4, R0 
    /*000001d8*/ BNE         _ZN4hirt14ModelGroupTaskD2Ev_x198
    _ZN4hirt14ModelGroupTaskD2Ev_x1dc:
    /*000001dc*/ LDR         R0, [R5, #176]              @ 0xb0 
    /*000001e0*/ CMP         R0, #0 
    /*000001e4*/ BEQ         _ZN4hirt14ModelGroupTaskD2Ev_x1ec
    /*000001e8*/ BL          _ZdlPv
    _ZN4hirt14ModelGroupTaskD2Ev_x1ec:
    /*000001ec*/ LDR         R1, [R5, #156]              @ 0x9c 
    /*000001f0*/ ADD         R0, R5, #148                @ 0x94 
    /*000001f4*/ BL          _ZNSt8_Rb_treeIP16hiRUNTIME_BLOB_SSt4pairIKS1_7HI_BOOLESt10_Select1stIS5_ESt4lessIS1_ESaIS5_EE8_M_eraseEPSt13_Rb_tree_nodeIS5_E
    /*000001f8*/ LDR         R1, [R5, #128]              @ 0x80 
    /*000001fc*/ ADD         R0, R5, #120                @ 0x78 
    /*00000200*/ BL          _ZNSt8_Rb_treeIP16hiRUNTIME_BLOB_SSt4pairIKS1_NSt7__cxx1112basic_stringIcSt11char_traitsIcESaIcEEEESt10_Select1stISA_ESt4lessIS1_ESaISA_EE8_M_eraseEPSt13_Rb_tree_nodeISA_E
    /*00000204*/ LDR         R1, [R5, #104]              @ 0x68 
    /*00000208*/ ADD         R0, R5, #96                 @ 0x60 
    /*0000020c*/ BL          _ZNSt8_Rb_treeINSt7__cxx1112basic_stringIcSt11char_traitsIcESaIcEEESt4pairIKS5_NS0_4listIP16hiRUNTIME_BLOB_SSaISA_EEEESt10_Select1stISD_ESt4lessIS5_ESaISD_EE8_M_eraseEPSt13_Rb_tree_nodeISD_E
    /*00000210*/ LDR         R1, [R5, #80]               @ 0x50 
    /*00000214*/ ADD         R0, R5, #72                 @ 0x48 
    /*00000218*/ BL          _ZNSt8_Rb_treeINSt7__cxx1112basic_stringIcSt11char_traitsIcESaIcEEESt4pairIKS5_P26hiRUNTIME_SRC_BLOB_ARRAY_SESt10_Select1stISA_ESt4lessIS5_ESaISA_EE8_M_eraseEPSt13_Rb_tree_nodeISA_E
    /*0000021c*/ LDR         R1, [R5, #56]               @ 0x38 
    /*00000220*/ ADD         R0, R5, #48                 @ 0x30 
    /*00000224*/ BL          _ZNSt8_Rb_treeINSt7__cxx1112basic_stringIcSt11char_traitsIcESaIcEEESt4pairIKS5_P26hiRUNTIME_SRC_BLOB_ARRAY_SESt10_Select1stISA_ESt4lessIS5_ESaISA_EE8_M_eraseEPSt13_Rb_tree_nodeISA_E
    /*00000228*/ LDR         R0, [R5, #20] 
    /*0000022c*/ CMP         R0, #0 
    /*00000230*/ BEQ         _ZN4hirt14ModelGroupTaskD2Ev_x238
    /*00000234*/ BL          _ZdlPv
    _ZN4hirt14ModelGroupTaskD2Ev_x238:
    /*00000238*/ LDR         R0, [R5, #8] 
    /*0000023c*/ CMP         R0, #0 
    /*00000240*/ BEQ         _ZN4hirt14ModelGroupTaskD2Ev_x248
    /*00000244*/ BL          _ZdlPv
    _ZN4hirt14ModelGroupTaskD2Ev_x248:
    /*00000248*/ MOV         R0, R5 
    /*0000024c*/ POP         {R4, R5, R6, R7, R8, PC} 
    /*00000250*/ WORD_0250: .word 0x00000228
FUNC_END _ZN4hirt14ModelGroupTaskD2Ev


FUNC_BEGIN _ZN4hirt14ModelGroupTaskD1Ev
    /*00000000*/ MOV         IP, #16384                  @ 0x4000 
    /*00000004*/ PUSH        {R4, R5, R6, R7, R8, LR} 
    /*00000008*/ SUB         IP, SP, IP 
    /*0000000c*/ STR         R0, [IP, #4072]             @ 0xfe8 
    /*00000010*/ LDR         R3, WORD_0250               @ LDR         R3, [PC, #568]              @ 0x0000000000000250 
    /*00000014*/ ADD         R6, R0, #152                @ 0x98 
    /*00000018*/ LDR         R4, [R0, #160]              @ 0xa0 
    /*0000001c*/ MOV         R5, R0 
    /*00000020*/ ADD         R3, PC, R3 
    /*00000024*/ CMP         R4, R6 
    /*00000028*/ ADD         R3, R3, #8 
    /*0000002c*/ STR         R3, [R0] 
    /*00000030*/ BNE         _ZN4hirt14ModelGroupTaskD1Ev_x4c
    /*00000034*/ B           _ZN4hirt14ModelGroupTaskD1Ev_x70
    _ZN4hirt14ModelGroupTaskD1Ev_x38:
    /*00000038*/ MOV         R0, R4 
    /*0000003c*/ BL          _ZSt18_Rb_tree_incrementPSt18_Rb_tree_node_base
    /*00000040*/ CMP         R0, R6 
    /*00000044*/ MOV         R4, R0 
    /*00000048*/ BEQ         _ZN4hirt14ModelGroupTaskD1Ev_x70
    _ZN4hirt14ModelGroupTaskD1Ev_x4c:
    /*0000004c*/ LDR         R3, [R4, #20] 
    /*00000050*/ CMP         R3, #1 
    /*00000054*/ BNE         _ZN4hirt14ModelGroupTaskD1Ev_x38
    /*00000058*/ LDR         R0, [R4, #16] 
    /*0000005c*/ MOV         R1, #48                     @ 0x30 
    /*00000060*/ CMP         R0, #0 
    /*00000064*/ BEQ         _ZN4hirt14ModelGroupTaskD1Ev_x38
    /*00000068*/ BL          _ZdlPvj
    /*0000006c*/ B           _ZN4hirt14ModelGroupTaskD1Ev_x38
    _ZN4hirt14ModelGroupTaskD1Ev_x70:
    /*00000070*/ LDR         R0, [R5, #144]              @ 0x90 
    /*00000074*/ CMP         R0, #0 
    /*00000078*/ BEQ         _ZN4hirt14ModelGroupTaskD1Ev_xac
    /*0000007c*/ LDR         R3, [R0, #4] 
    /*00000080*/ CMP         R3, #0 
    /*00000084*/ BEQ         _ZN4hirt14ModelGroupTaskD1Ev_x9c
    /*00000088*/ MOV         R0, R3 
    /*0000008c*/ BL          _ZdaPv
    /*00000090*/ LDR         R0, [R5, #144]              @ 0x90 
    /*00000094*/ MOV         R3, #0 
    /*00000098*/ STR         R3, [R0, #4] 
    _ZN4hirt14ModelGroupTaskD1Ev_x9c:
    /*0000009c*/ MOV         R1, #8 
    /*000000a0*/ BL          _ZdlPvj
    /*000000a4*/ MOV         R3, #0 
    /*000000a8*/ STR         R3, [R5, #144]              @ 0x90 
    _ZN4hirt14ModelGroupTaskD1Ev_xac:
    /*000000ac*/ LDR         R4, [R5, #8] 
    /*000000b0*/ LDR         R3, [R5, #12] 
    /*000000b4*/ CMP         R3, R4 
    /*000000b8*/ ADDNE       R6, R4, #4 
    /*000000bc*/ MOVNE       R7, #0 
    /*000000c0*/ BNE         _ZN4hirt14ModelGroupTaskD1Ev_xd8
    /*000000c4*/ B           _ZN4hirt14ModelGroupTaskD1Ev_x12c
    _ZN4hirt14ModelGroupTaskD1Ev_xc8:
    /*000000c8*/ SUB         R3, R3, #4 
    /*000000cc*/ CMP         R4, R3 
    /*000000d0*/ STR         R3, [R5, #12] 
    /*000000d4*/ BEQ         _ZN4hirt14ModelGroupTaskD1Ev_x12c
    _ZN4hirt14ModelGroupTaskD1Ev_xd8:
    /*000000d8*/ LDR         R2, [R4] 
    /*000000dc*/ SUBS        R0, R2, #0 
    /*000000e0*/ BEQ         _ZN4hirt14ModelGroupTaskD1Ev_xf8
    /*000000e4*/ LDR         R3, [R2] 
    /*000000e8*/ LDR         R3, [R3, #4] 
    /*000000ec*/ BLX         R3 
    /*000000f0*/ LDR         R3, [R5, #12] 
    /*000000f4*/ STR         R7, [R4] 
    _ZN4hirt14ModelGroupTaskD1Ev_xf8:
    /*000000f8*/ CMP         R3, R6 
    /*000000fc*/ SUB         R2, R3, R6 
    /*00000100*/ BEQ         _ZN4hirt14ModelGroupTaskD1Ev_xc8
    /*00000104*/ LSRS        R1, R2, #2 
    /*00000108*/ BEQ         _ZN4hirt14ModelGroupTaskD1Ev_xc8
    /*0000010c*/ MOV         R1, R6 
    /*00000110*/ MOV         R0, R4 
    /*00000114*/ BL          memmove
    /*00000118*/ LDR         R3, [R5, #12] 
    /*0000011c*/ SUB         R3, R3, #4 
    /*00000120*/ CMP         R4, R3 
    /*00000124*/ STR         R3, [R5, #12] 
    /*00000128*/ BNE         _ZN4hirt14ModelGroupTaskD1Ev_xd8
    _ZN4hirt14ModelGroupTaskD1Ev_x12c:
    /*0000012c*/ LDR         R4, [R5, #60]               @ 0x3c 
    /*00000130*/ ADD         R7, R5, #52                 @ 0x34 
    /*00000134*/ CMP         R4, R7 
    /*00000138*/ MOVNE       R6, #0 
    /*0000013c*/ BEQ         _ZN4hirt14ModelGroupTaskD1Ev_x184
    _ZN4hirt14ModelGroupTaskD1Ev_x140:
    /*00000140*/ LDR         R3, [R4, #40]               @ 0x28 
    /*00000144*/ CMP         R3, #0 
    /*00000148*/ BEQ         _ZN4hirt14ModelGroupTaskD1Ev_x170
    /*0000014c*/ LDR         R2, [R3, #4] 
    /*00000150*/ SUBS        R0, R2, #0 
    /*00000154*/ BEQ         _ZN4hirt14ModelGroupTaskD1Ev_x164
    /*00000158*/ BL          free
    /*0000015c*/ LDR         R3, [R4, #40]               @ 0x28 
    /*00000160*/ STR         R6, [R3, #4] 
    _ZN4hirt14ModelGroupTaskD1Ev_x164:
    /*00000164*/ MOV         R0, R3 
    /*00000168*/ BL          free
    /*0000016c*/ STR         R6, [R4, #40]               @ 0x28 
    _ZN4hirt14ModelGroupTaskD1Ev_x170:
    /*00000170*/ MOV         R0, R4 
    /*00000174*/ BL          _ZSt18_Rb_tree_incrementPSt18_Rb_tree_node_base
    /*00000178*/ CMP         R0, R7 
    /*0000017c*/ MOV         R4, R0 
    /*00000180*/ BNE         _ZN4hirt14ModelGroupTaskD1Ev_x140
    _ZN4hirt14ModelGroupTaskD1Ev_x184:
    /*00000184*/ LDR         R4, [R5, #84]               @ 0x54 
    /*00000188*/ ADD         R7, R5, #76                 @ 0x4c 
    /*0000018c*/ CMP         R7, R4 
    /*00000190*/ MOVNE       R6, #0 
    /*00000194*/ BEQ         _ZN4hirt14ModelGroupTaskD1Ev_x1dc
    _ZN4hirt14ModelGroupTaskD1Ev_x198:
    /*00000198*/ LDR         R3, [R4, #40]               @ 0x28 
    /*0000019c*/ CMP         R3, #0 
    /*000001a0*/ BEQ         _ZN4hirt14ModelGroupTaskD1Ev_x1c8
    /*000001a4*/ LDR         R2, [R3, #4] 
    /*000001a8*/ SUBS        R0, R2, #0 
    /*000001ac*/ BEQ         _ZN4hirt14ModelGroupTaskD1Ev_x1bc
    /*000001b0*/ BL          free
    /*000001b4*/ LDR         R3, [R4, #40]               @ 0x28 
    /*000001b8*/ STR         R6, [R3, #4] 
    _ZN4hirt14ModelGroupTaskD1Ev_x1bc:
    /*000001bc*/ MOV         R0, R3 
    /*000001c0*/ BL          free
    /*000001c4*/ STR         R6, [R4, #40]               @ 0x28 
    _ZN4hirt14ModelGroupTaskD1Ev_x1c8:
    /*000001c8*/ MOV         R0, R4 
    /*000001cc*/ BL          _ZSt18_Rb_tree_incrementPSt18_Rb_tree_node_base
    /*000001d0*/ CMP         R7, R0 
    /*000001d4*/ MOV         R4, R0 
    /*000001d8*/ BNE         _ZN4hirt14ModelGroupTaskD1Ev_x198
    _ZN4hirt14ModelGroupTaskD1Ev_x1dc:
    /*000001dc*/ LDR         R0, [R5, #176]              @ 0xb0 
    /*000001e0*/ CMP         R0, #0 
    /*000001e4*/ BEQ         _ZN4hirt14ModelGroupTaskD1Ev_x1ec
    /*000001e8*/ BL          _ZdlPv
    _ZN4hirt14ModelGroupTaskD1Ev_x1ec:
    /*000001ec*/ LDR         R1, [R5, #156]              @ 0x9c 
    /*000001f0*/ ADD         R0, R5, #148                @ 0x94 
    /*000001f4*/ BL          _ZNSt8_Rb_treeIP16hiRUNTIME_BLOB_SSt4pairIKS1_7HI_BOOLESt10_Select1stIS5_ESt4lessIS1_ESaIS5_EE8_M_eraseEPSt13_Rb_tree_nodeIS5_E
    /*000001f8*/ LDR         R1, [R5, #128]              @ 0x80 
    /*000001fc*/ ADD         R0, R5, #120                @ 0x78 
    /*00000200*/ BL          _ZNSt8_Rb_treeIP16hiRUNTIME_BLOB_SSt4pairIKS1_NSt7__cxx1112basic_stringIcSt11char_traitsIcESaIcEEEESt10_Select1stISA_ESt4lessIS1_ESaISA_EE8_M_eraseEPSt13_Rb_tree_nodeISA_E
    /*00000204*/ LDR         R1, [R5, #104]              @ 0x68 
    /*00000208*/ ADD         R0, R5, #96                 @ 0x60 
    /*0000020c*/ BL          _ZNSt8_Rb_treeINSt7__cxx1112basic_stringIcSt11char_traitsIcESaIcEEESt4pairIKS5_NS0_4listIP16hiRUNTIME_BLOB_SSaISA_EEEESt10_Select1stISD_ESt4lessIS5_ESaISD_EE8_M_eraseEPSt13_Rb_tree_nodeISD_E
    /*00000210*/ LDR         R1, [R5, #80]               @ 0x50 
    /*00000214*/ ADD         R0, R5, #72                 @ 0x48 
    /*00000218*/ BL          _ZNSt8_Rb_treeINSt7__cxx1112basic_stringIcSt11char_traitsIcESaIcEEESt4pairIKS5_P26hiRUNTIME_SRC_BLOB_ARRAY_SESt10_Select1stISA_ESt4lessIS5_ESaISA_EE8_M_eraseEPSt13_Rb_tree_nodeISA_E
    /*0000021c*/ LDR         R1, [R5, #56]               @ 0x38 
    /*00000220*/ ADD         R0, R5, #48                 @ 0x30 
    /*00000224*/ BL          _ZNSt8_Rb_treeINSt7__cxx1112basic_stringIcSt11char_traitsIcESaIcEEESt4pairIKS5_P26hiRUNTIME_SRC_BLOB_ARRAY_SESt10_Select1stISA_ESt4lessIS5_ESaISA_EE8_M_eraseEPSt13_Rb_tree_nodeISA_E
    /*00000228*/ LDR         R0, [R5, #20] 
    /*0000022c*/ CMP         R0, #0 
    /*00000230*/ BEQ         _ZN4hirt14ModelGroupTaskD1Ev_x238
    /*00000234*/ BL          _ZdlPv
    _ZN4hirt14ModelGroupTaskD1Ev_x238:
    /*00000238*/ LDR         R0, [R5, #8] 
    /*0000023c*/ CMP         R0, #0 
    /*00000240*/ BEQ         _ZN4hirt14ModelGroupTaskD1Ev_x248
    /*00000244*/ BL          _ZdlPv
    _ZN4hirt14ModelGroupTaskD1Ev_x248:
    /*00000248*/ MOV         R0, R5 
    /*0000024c*/ POP         {R4, R5, R6, R7, R8, PC} 
    /*00000250*/ WORD_0250: .word 0x00000228
FUNC_END _ZN4hirt14ModelGroupTaskD1Ev


@ - - - - - - - - - - - - - - - - - - - - - - - - - - - - - 
@ .text._ZN4hirt14ModelGroupTaskD0Ev
@ Size: 0x260
@ - - - - - - - - - - - - - - - - - - - - - - - - - - - - - 

FUNC_BEGIN _ZN4hirt14ModelGroupTaskD0Ev
    /*00000000*/ MOV         IP, #16384                  @ 0x4000 
    /*00000004*/ PUSH        {R4, R5, R6, R7, R8, LR} 
    /*00000008*/ SUB         IP, SP, IP 
    /*0000000c*/ STR         R0, [IP, #4072]             @ 0xfe8 
    /*00000010*/ LDR         R3, WORD_025c               @ LDR         R3, [PC, #580]              @ 0x000000000000025c 
    /*00000014*/ ADD         R6, R0, #152                @ 0x98 
    /*00000018*/ LDR         R4, [R0, #160]              @ 0xa0 
    /*0000001c*/ MOV         R5, R0 
    /*00000020*/ ADD         R3, PC, R3 
    /*00000024*/ CMP         R4, R6 
    /*00000028*/ ADD         R3, R3, #8 
    /*0000002c*/ STR         R3, [R0] 
    /*00000030*/ BNE         _ZN4hirt14ModelGroupTaskD0Ev_x4c
    /*00000034*/ B           _ZN4hirt14ModelGroupTaskD0Ev_x70
    _ZN4hirt14ModelGroupTaskD0Ev_x38:
    /*00000038*/ MOV         R0, R4 
    /*0000003c*/ BL          _ZSt18_Rb_tree_incrementPSt18_Rb_tree_node_base
    /*00000040*/ CMP         R0, R6 
    /*00000044*/ MOV         R4, R0 
    /*00000048*/ BEQ         _ZN4hirt14ModelGroupTaskD0Ev_x70
    _ZN4hirt14ModelGroupTaskD0Ev_x4c:
    /*0000004c*/ LDR         R3, [R4, #20] 
    /*00000050*/ CMP         R3, #1 
    /*00000054*/ BNE         _ZN4hirt14ModelGroupTaskD0Ev_x38
    /*00000058*/ LDR         R0, [R4, #16] 
    /*0000005c*/ MOV         R1, #48                     @ 0x30 
    /*00000060*/ CMP         R0, #0 
    /*00000064*/ BEQ         _ZN4hirt14ModelGroupTaskD0Ev_x38
    /*00000068*/ BL          _ZdlPvj
    /*0000006c*/ B           _ZN4hirt14ModelGroupTaskD0Ev_x38
    _ZN4hirt14ModelGroupTaskD0Ev_x70:
    /*00000070*/ LDR         R0, [R5, #144]              @ 0x90 
    /*00000074*/ CMP         R0, #0 
    /*00000078*/ BEQ         _ZN4hirt14ModelGroupTaskD0Ev_xac
    /*0000007c*/ LDR         R3, [R0, #4] 
    /*00000080*/ CMP         R3, #0 
    /*00000084*/ BEQ         _ZN4hirt14ModelGroupTaskD0Ev_x9c
    /*00000088*/ MOV         R0, R3 
    /*0000008c*/ BL          _ZdaPv
    /*00000090*/ LDR         R0, [R5, #144]              @ 0x90 
    /*00000094*/ MOV         R3, #0 
    /*00000098*/ STR         R3, [R0, #4] 
    _ZN4hirt14ModelGroupTaskD0Ev_x9c:
    /*0000009c*/ MOV         R1, #8 
    /*000000a0*/ BL          _ZdlPvj
    /*000000a4*/ MOV         R3, #0 
    /*000000a8*/ STR         R3, [R5, #144]              @ 0x90 
    _ZN4hirt14ModelGroupTaskD0Ev_xac:
    /*000000ac*/ LDR         R4, [R5, #8] 
    /*000000b0*/ LDR         R3, [R5, #12] 
    /*000000b4*/ CMP         R3, R4 
    /*000000b8*/ ADDNE       R6, R4, #4 
    /*000000bc*/ MOVNE       R7, #0 
    /*000000c0*/ BNE         _ZN4hirt14ModelGroupTaskD0Ev_xd8
    /*000000c4*/ B           _ZN4hirt14ModelGroupTaskD0Ev_x12c
    _ZN4hirt14ModelGroupTaskD0Ev_xc8:
    /*000000c8*/ SUB         R3, R3, #4 
    /*000000cc*/ CMP         R4, R3 
    /*000000d0*/ STR         R3, [R5, #12] 
    /*000000d4*/ BEQ         _ZN4hirt14ModelGroupTaskD0Ev_x12c
    _ZN4hirt14ModelGroupTaskD0Ev_xd8:
    /*000000d8*/ LDR         R2, [R4] 
    /*000000dc*/ SUBS        R0, R2, #0 
    /*000000e0*/ BEQ         _ZN4hirt14ModelGroupTaskD0Ev_xf8
    /*000000e4*/ LDR         R3, [R2] 
    /*000000e8*/ LDR         R3, [R3, #4] 
    /*000000ec*/ BLX         R3 
    /*000000f0*/ LDR         R3, [R5, #12] 
    /*000000f4*/ STR         R7, [R4] 
    _ZN4hirt14ModelGroupTaskD0Ev_xf8:
    /*000000f8*/ CMP         R6, R3 
    /*000000fc*/ SUB         R2, R3, R6 
    /*00000100*/ BEQ         _ZN4hirt14ModelGroupTaskD0Ev_xc8
    /*00000104*/ LSRS        R1, R2, #2 
    /*00000108*/ BEQ         _ZN4hirt14ModelGroupTaskD0Ev_xc8
    /*0000010c*/ MOV         R1, R6 
    /*00000110*/ MOV         R0, R4 
    /*00000114*/ BL          memmove
    /*00000118*/ LDR         R3, [R5, #12] 
    /*0000011c*/ SUB         R3, R3, #4 
    /*00000120*/ CMP         R4, R3 
    /*00000124*/ STR         R3, [R5, #12] 
    /*00000128*/ BNE         _ZN4hirt14ModelGroupTaskD0Ev_xd8
    _ZN4hirt14ModelGroupTaskD0Ev_x12c:
    /*0000012c*/ LDR         R4, [R5, #60]               @ 0x3c 
    /*00000130*/ ADD         R7, R5, #52                 @ 0x34 
    /*00000134*/ CMP         R4, R7 
    /*00000138*/ MOVNE       R6, #0 
    /*0000013c*/ BEQ         _ZN4hirt14ModelGroupTaskD0Ev_x184
    _ZN4hirt14ModelGroupTaskD0Ev_x140:
    /*00000140*/ LDR         R3, [R4, #40]               @ 0x28 
    /*00000144*/ CMP         R3, #0 
    /*00000148*/ BEQ         _ZN4hirt14ModelGroupTaskD0Ev_x170
    /*0000014c*/ LDR         R2, [R3, #4] 
    /*00000150*/ SUBS        R0, R2, #0 
    /*00000154*/ BEQ         _ZN4hirt14ModelGroupTaskD0Ev_x164
    /*00000158*/ BL          free
    /*0000015c*/ LDR         R3, [R4, #40]               @ 0x28 
    /*00000160*/ STR         R6, [R3, #4] 
    _ZN4hirt14ModelGroupTaskD0Ev_x164:
    /*00000164*/ MOV         R0, R3 
    /*00000168*/ BL          free
    /*0000016c*/ STR         R6, [R4, #40]               @ 0x28 
    _ZN4hirt14ModelGroupTaskD0Ev_x170:
    /*00000170*/ MOV         R0, R4 
    /*00000174*/ BL          _ZSt18_Rb_tree_incrementPSt18_Rb_tree_node_base
    /*00000178*/ CMP         R0, R7 
    /*0000017c*/ MOV         R4, R0 
    /*00000180*/ BNE         _ZN4hirt14ModelGroupTaskD0Ev_x140
    _ZN4hirt14ModelGroupTaskD0Ev_x184:
    /*00000184*/ LDR         R4, [R5, #84]               @ 0x54 
    /*00000188*/ ADD         R7, R5, #76                 @ 0x4c 
    /*0000018c*/ CMP         R7, R4 
    /*00000190*/ MOVNE       R6, #0 
    /*00000194*/ BEQ         _ZN4hirt14ModelGroupTaskD0Ev_x1dc
    _ZN4hirt14ModelGroupTaskD0Ev_x198:
    /*00000198*/ LDR         R3, [R4, #40]               @ 0x28 
    /*0000019c*/ CMP         R3, #0 
    /*000001a0*/ BEQ         _ZN4hirt14ModelGroupTaskD0Ev_x1c8
    /*000001a4*/ LDR         R2, [R3, #4] 
    /*000001a8*/ SUBS        R0, R2, #0 
    /*000001ac*/ BEQ         _ZN4hirt14ModelGroupTaskD0Ev_x1bc
    /*000001b0*/ BL          free
    /*000001b4*/ LDR         R3, [R4, #40]               @ 0x28 
    /*000001b8*/ STR         R6, [R3, #4] 
    _ZN4hirt14ModelGroupTaskD0Ev_x1bc:
    /*000001bc*/ MOV         R0, R3 
    /*000001c0*/ BL          free
    /*000001c4*/ STR         R6, [R4, #40]               @ 0x28 
    _ZN4hirt14ModelGroupTaskD0Ev_x1c8:
    /*000001c8*/ MOV         R0, R4 
    /*000001cc*/ BL          _ZSt18_Rb_tree_incrementPSt18_Rb_tree_node_base
    /*000001d0*/ CMP         R7, R0 
    /*000001d4*/ MOV         R4, R0 
    /*000001d8*/ BNE         _ZN4hirt14ModelGroupTaskD0Ev_x198
    _ZN4hirt14ModelGroupTaskD0Ev_x1dc:
    /*000001dc*/ LDR         R0, [R5, #176]              @ 0xb0 
    /*000001e0*/ CMP         R0, #0 
    /*000001e4*/ BEQ         _ZN4hirt14ModelGroupTaskD0Ev_x1ec
    /*000001e8*/ BL          _ZdlPv
    _ZN4hirt14ModelGroupTaskD0Ev_x1ec:
    /*000001ec*/ LDR         R1, [R5, #156]              @ 0x9c 
    /*000001f0*/ ADD         R0, R5, #148                @ 0x94 
    /*000001f4*/ BL          _ZNSt8_Rb_treeIP16hiRUNTIME_BLOB_SSt4pairIKS1_7HI_BOOLESt10_Select1stIS5_ESt4lessIS1_ESaIS5_EE8_M_eraseEPSt13_Rb_tree_nodeIS5_E
    /*000001f8*/ LDR         R1, [R5, #128]              @ 0x80 
    /*000001fc*/ ADD         R0, R5, #120                @ 0x78 
    /*00000200*/ BL          _ZNSt8_Rb_treeIP16hiRUNTIME_BLOB_SSt4pairIKS1_NSt7__cxx1112basic_stringIcSt11char_traitsIcESaIcEEEESt10_Select1stISA_ESt4lessIS1_ESaISA_EE8_M_eraseEPSt13_Rb_tree_nodeISA_E
    /*00000204*/ LDR         R1, [R5, #104]              @ 0x68 
    /*00000208*/ ADD         R0, R5, #96                 @ 0x60 
    /*0000020c*/ BL          _ZNSt8_Rb_treeINSt7__cxx1112basic_stringIcSt11char_traitsIcESaIcEEESt4pairIKS5_NS0_4listIP16hiRUNTIME_BLOB_SSaISA_EEEESt10_Select1stISD_ESt4lessIS5_ESaISD_EE8_M_eraseEPSt13_Rb_tree_nodeISD_E
    /*00000210*/ LDR         R1, [R5, #80]               @ 0x50 
    /*00000214*/ ADD         R0, R5, #72                 @ 0x48 
    /*00000218*/ BL          _ZNSt8_Rb_treeINSt7__cxx1112basic_stringIcSt11char_traitsIcESaIcEEESt4pairIKS5_P26hiRUNTIME_SRC_BLOB_ARRAY_SESt10_Select1stISA_ESt4lessIS5_ESaISA_EE8_M_eraseEPSt13_Rb_tree_nodeISA_E
    /*0000021c*/ LDR         R1, [R5, #56]               @ 0x38 
    /*00000220*/ ADD         R0, R5, #48                 @ 0x30 
    /*00000224*/ BL          _ZNSt8_Rb_treeINSt7__cxx1112basic_stringIcSt11char_traitsIcESaIcEEESt4pairIKS5_P26hiRUNTIME_SRC_BLOB_ARRAY_SESt10_Select1stISA_ESt4lessIS5_ESaISA_EE8_M_eraseEPSt13_Rb_tree_nodeISA_E
    /*00000228*/ LDR         R0, [R5, #20] 
    /*0000022c*/ CMP         R0, #0 
    /*00000230*/ BEQ         _ZN4hirt14ModelGroupTaskD0Ev_x238
    /*00000234*/ BL          _ZdlPv
    _ZN4hirt14ModelGroupTaskD0Ev_x238:
    /*00000238*/ LDR         R0, [R5, #8] 
    /*0000023c*/ CMP         R0, #0 
    /*00000240*/ BEQ         _ZN4hirt14ModelGroupTaskD0Ev_x248
    /*00000244*/ BL          _ZdlPv
    _ZN4hirt14ModelGroupTaskD0Ev_x248:
    /*00000248*/ MOV         R0, R5 
    /*0000024c*/ MOV         R1, #304                    @ 0x130 
    /*00000250*/ BL          _ZdlPvj
    /*00000254*/ MOV         R0, R5 
    /*00000258*/ POP         {R4, R5, R6, R7, R8, PC} 
    /*0000025c*/ WORD_025c: .word 0x00000234
FUNC_END _ZN4hirt14ModelGroupTaskD0Ev


@ - - - - - - - - - - - - - - - - - - - - - - - - - - - - - 
@ .text._ZNSt8_Rb_treeIN4hirt22OPERATION_FRAME_DEPENDESt4pairIKS1_PS1_ESt10_Select1stIS5_ESt4lessIS1_ESaIS5_EE8_M_eraseEPSt13_Rb_tree_nodeIS5_E
@ Size: 0x43c
@ - - - - - - - - - - - - - - - - - - - - - - - - - - - - - 

FUNC_BEGIN _ZNSt8_Rb_treeIN4hirt22OPERATION_FRAME_DEPENDESt4pairIKS1_PS1_ESt10_Select1stIS5_ESt4lessIS1_ESaIS5_EE8_M_eraseEPSt13_Rb_tree_nodeIS5_E
    /*00000000*/ MOV         IP, #16384                  @ 0x4000 
    /*00000004*/ PUSH        {R4, R5, R6, R7, R8, R9, SL, FP, LR} 
    /*00000008*/ SUB         IP, SP, IP 
    /*0000000c*/ STR         R0, [IP, #4032]             @ 0xfc0 
    /*00000010*/ SUB         SP, SP, #28 
    /*00000014*/ SUBS        R3, R1, #0 
    /*00000018*/ STR         R3, [SP, #20] 
    /*0000001c*/ BEQ         _ZNSt8_Rb_treeIN4hirt22OPERATION_FRAME_DEPENDESt4pairIKS1_PS1_ESt10_Select1stIS5_ESt4lessIS1_ESaIS5_EE8_M_eraseEPSt13_Rb_tree_nodeIS5_E_x434
    /*00000020*/ MOV         R8, R0 
    _ZNSt8_Rb_treeIN4hirt22OPERATION_FRAME_DEPENDESt4pairIKS1_PS1_ESt10_Select1stIS5_ESt4lessIS1_ESaIS5_EE8_M_eraseEPSt13_Rb_tree_nodeIS5_E_x24:
    /*00000024*/ LDR         R3, [R3, #12] 
    /*00000028*/ CMP         R3, #0 
    /*0000002c*/ STRNE       R3, [SP, #16] 
    /*00000030*/ BEQ         _ZNSt8_Rb_treeIN4hirt22OPERATION_FRAME_DEPENDESt4pairIKS1_PS1_ESt10_Select1stIS5_ESt4lessIS1_ESaIS5_EE8_M_eraseEPSt13_Rb_tree_nodeIS5_E_x3cc
    _ZNSt8_Rb_treeIN4hirt22OPERATION_FRAME_DEPENDESt4pairIKS1_PS1_ESt10_Select1stIS5_ESt4lessIS1_ESaIS5_EE8_M_eraseEPSt13_Rb_tree_nodeIS5_E_x34:
    /*00000034*/ LDR         R3, [R3, #12] 
    /*00000038*/ CMP         R3, #0 
    /*0000003c*/ STRNE       R3, [SP, #12] 
    /*00000040*/ BEQ         _ZNSt8_Rb_treeIN4hirt22OPERATION_FRAME_DEPENDESt4pairIKS1_PS1_ESt10_Select1stIS5_ESt4lessIS1_ESaIS5_EE8_M_eraseEPSt13_Rb_tree_nodeIS5_E_x364
    _ZNSt8_Rb_treeIN4hirt22OPERATION_FRAME_DEPENDESt4pairIKS1_PS1_ESt10_Select1stIS5_ESt4lessIS1_ESaIS5_EE8_M_eraseEPSt13_Rb_tree_nodeIS5_E_x44:
    /*00000044*/ LDR         R7, [R3, #12] 
    /*00000048*/ CMP         R7, #0 
    /*0000004c*/ STRNE       R7, [SP, #8] 
    /*00000050*/ MOVNE       R3, R7 
    /*00000054*/ BEQ         _ZNSt8_Rb_treeIN4hirt22OPERATION_FRAME_DEPENDESt4pairIKS1_PS1_ESt10_Select1stIS5_ESt4lessIS1_ESaIS5_EE8_M_eraseEPSt13_Rb_tree_nodeIS5_E_x300
    _ZNSt8_Rb_treeIN4hirt22OPERATION_FRAME_DEPENDESt4pairIKS1_PS1_ESt10_Select1stIS5_ESt4lessIS1_ESaIS5_EE8_M_eraseEPSt13_Rb_tree_nodeIS5_E_x58:
    /*00000058*/ LDR         R7, [R3, #12] 
    /*0000005c*/ CMP         R7, #0 
    /*00000060*/ STRNE       R7, [SP, #4] 
    /*00000064*/ MOVNE       R3, R7 
    /*00000068*/ BEQ         _ZNSt8_Rb_treeIN4hirt22OPERATION_FRAME_DEPENDESt4pairIKS1_PS1_ESt10_Select1stIS5_ESt4lessIS1_ESaIS5_EE8_M_eraseEPSt13_Rb_tree_nodeIS5_E_x298
    _ZNSt8_Rb_treeIN4hirt22OPERATION_FRAME_DEPENDESt4pairIKS1_PS1_ESt10_Select1stIS5_ESt4lessIS1_ESaIS5_EE8_M_eraseEPSt13_Rb_tree_nodeIS5_E_x6c:
    /*0000006c*/ LDR         R9, [R3, #12] 
    /*00000070*/ CMP         R9, #0 
    /*00000074*/ STRNE       R9, [SP] 
    /*00000078*/ MOVNE       R3, R9 
    /*0000007c*/ BEQ         _ZNSt8_Rb_treeIN4hirt22OPERATION_FRAME_DEPENDESt4pairIKS1_PS1_ESt10_Select1stIS5_ESt4lessIS1_ESaIS5_EE8_M_eraseEPSt13_Rb_tree_nodeIS5_E_x230
    _ZNSt8_Rb_treeIN4hirt22OPERATION_FRAME_DEPENDESt4pairIKS1_PS1_ESt10_Select1stIS5_ESt4lessIS1_ESaIS5_EE8_M_eraseEPSt13_Rb_tree_nodeIS5_E_x80:
    /*00000080*/ LDR         SL, [R3, #12] 
    /*00000084*/ CMP         SL, #0 
    /*00000088*/ BEQ         _ZNSt8_Rb_treeIN4hirt22OPERATION_FRAME_DEPENDESt4pairIKS1_PS1_ESt10_Select1stIS5_ESt4lessIS1_ESaIS5_EE8_M_eraseEPSt13_Rb_tree_nodeIS5_E_x1c8
    _ZNSt8_Rb_treeIN4hirt22OPERATION_FRAME_DEPENDESt4pairIKS1_PS1_ESt10_Select1stIS5_ESt4lessIS1_ESaIS5_EE8_M_eraseEPSt13_Rb_tree_nodeIS5_E_x8c:
    /*0000008c*/ LDR         R9, [SL, #12] 
    /*00000090*/ CMP         R9, #0 
    /*00000094*/ BEQ         _ZNSt8_Rb_treeIN4hirt22OPERATION_FRAME_DEPENDESt4pairIKS1_PS1_ESt10_Select1stIS5_ESt4lessIS1_ESaIS5_EE8_M_eraseEPSt13_Rb_tree_nodeIS5_E_x168
    _ZNSt8_Rb_treeIN4hirt22OPERATION_FRAME_DEPENDESt4pairIKS1_PS1_ESt10_Select1stIS5_ESt4lessIS1_ESaIS5_EE8_M_eraseEPSt13_Rb_tree_nodeIS5_E_x98:
    /*00000098*/ LDR         R6, [R9, #12] 
    /*0000009c*/ CMP         R6, #0 
    /*000000a0*/ BEQ         _ZNSt8_Rb_treeIN4hirt22OPERATION_FRAME_DEPENDESt4pairIKS1_PS1_ESt10_Select1stIS5_ESt4lessIS1_ESaIS5_EE8_M_eraseEPSt13_Rb_tree_nodeIS5_E_x10c
    _ZNSt8_Rb_treeIN4hirt22OPERATION_FRAME_DEPENDESt4pairIKS1_PS1_ESt10_Select1stIS5_ESt4lessIS1_ESaIS5_EE8_M_eraseEPSt13_Rb_tree_nodeIS5_E_xa4:
    /*000000a4*/ LDR         R1, [R6, #12] 
    /*000000a8*/ MOV         R0, R8 
    /*000000ac*/ BL          _ZNSt8_Rb_treeIN4hirt22OPERATION_FRAME_DEPENDESt4pairIKS1_PS1_ESt10_Select1stIS5_ESt4lessIS1_ESaIS5_EE8_M_eraseEPSt13_Rb_tree_nodeIS5_E
    /*000000b0*/ LDR         R5, [R6, #24] 
    /*000000b4*/ LDR         FP, [R6, #28] 
    /*000000b8*/ LDR         R7, [R6, #8] 
    /*000000bc*/ CMP         R5, FP 
    /*000000c0*/ BEQ         _ZNSt8_Rb_treeIN4hirt22OPERATION_FRAME_DEPENDESt4pairIKS1_PS1_ESt10_Select1stIS5_ESt4lessIS1_ESaIS5_EE8_M_eraseEPSt13_Rb_tree_nodeIS5_E_xec
    /*000000c4*/ ADD         R4, R5, #8 
    _ZNSt8_Rb_treeIN4hirt22OPERATION_FRAME_DEPENDESt4pairIKS1_PS1_ESt10_Select1stIS5_ESt4lessIS1_ESaIS5_EE8_M_eraseEPSt13_Rb_tree_nodeIS5_E_xc8:
    /*000000c8*/ LDR         R0, [R4, #-8] 
    /*000000cc*/ ADD         R5, R5, #24 
    /*000000d0*/ CMP         R0, R4 
    /*000000d4*/ ADD         R4, R4, #24 
    /*000000d8*/ BEQ         _ZNSt8_Rb_treeIN4hirt22OPERATION_FRAME_DEPENDESt4pairIKS1_PS1_ESt10_Select1stIS5_ESt4lessIS1_ESaIS5_EE8_M_eraseEPSt13_Rb_tree_nodeIS5_E_xe0
    /*000000dc*/ BL          _ZdlPv
    _ZNSt8_Rb_treeIN4hirt22OPERATION_FRAME_DEPENDESt4pairIKS1_PS1_ESt10_Select1stIS5_ESt4lessIS1_ESaIS5_EE8_M_eraseEPSt13_Rb_tree_nodeIS5_E_xe0:
    /*000000e0*/ CMP         FP, R5 
    /*000000e4*/ BNE         _ZNSt8_Rb_treeIN4hirt22OPERATION_FRAME_DEPENDESt4pairIKS1_PS1_ESt10_Select1stIS5_ESt4lessIS1_ESaIS5_EE8_M_eraseEPSt13_Rb_tree_nodeIS5_E_xc8
    /*000000e8*/ LDR         FP, [R6, #24] 
    _ZNSt8_Rb_treeIN4hirt22OPERATION_FRAME_DEPENDESt4pairIKS1_PS1_ESt10_Select1stIS5_ESt4lessIS1_ESaIS5_EE8_M_eraseEPSt13_Rb_tree_nodeIS5_E_xec:
    /*000000ec*/ CMP         FP, #0 
    /*000000f0*/ BEQ         _ZNSt8_Rb_treeIN4hirt22OPERATION_FRAME_DEPENDESt4pairIKS1_PS1_ESt10_Select1stIS5_ESt4lessIS1_ESaIS5_EE8_M_eraseEPSt13_Rb_tree_nodeIS5_E_xfc
    /*000000f4*/ MOV         R0, FP 
    /*000000f8*/ BL          _ZdlPv
    _ZNSt8_Rb_treeIN4hirt22OPERATION_FRAME_DEPENDESt4pairIKS1_PS1_ESt10_Select1stIS5_ESt4lessIS1_ESaIS5_EE8_M_eraseEPSt13_Rb_tree_nodeIS5_E_xfc:
    /*000000fc*/ MOV         R0, R6 
    /*00000100*/ BL          _ZdlPv
    /*00000104*/ SUBS        R6, R7, #0 
    /*00000108*/ BNE         _ZNSt8_Rb_treeIN4hirt22OPERATION_FRAME_DEPENDESt4pairIKS1_PS1_ESt10_Select1stIS5_ESt4lessIS1_ESaIS5_EE8_M_eraseEPSt13_Rb_tree_nodeIS5_E_xa4
    _ZNSt8_Rb_treeIN4hirt22OPERATION_FRAME_DEPENDESt4pairIKS1_PS1_ESt10_Select1stIS5_ESt4lessIS1_ESaIS5_EE8_M_eraseEPSt13_Rb_tree_nodeIS5_E_x10c:
    /*0000010c*/ LDR         R5, [R9, #24] 
    /*00000110*/ LDR         R6, [R9, #28] 
    /*00000114*/ LDR         R7, [R9, #8] 
    /*00000118*/ CMP         R5, R6 
    /*0000011c*/ ADDNE       R4, R5, #8 
    /*00000120*/ BEQ         _ZNSt8_Rb_treeIN4hirt22OPERATION_FRAME_DEPENDESt4pairIKS1_PS1_ESt10_Select1stIS5_ESt4lessIS1_ESaIS5_EE8_M_eraseEPSt13_Rb_tree_nodeIS5_E_x148
    _ZNSt8_Rb_treeIN4hirt22OPERATION_FRAME_DEPENDESt4pairIKS1_PS1_ESt10_Select1stIS5_ESt4lessIS1_ESaIS5_EE8_M_eraseEPSt13_Rb_tree_nodeIS5_E_x124:
    /*00000124*/ LDR         R0, [R4, #-8] 
    /*00000128*/ ADD         R5, R5, #24 
    /*0000012c*/ CMP         R4, R0 
    /*00000130*/ ADD         R4, R4, #24 
    /*00000134*/ BEQ         _ZNSt8_Rb_treeIN4hirt22OPERATION_FRAME_DEPENDESt4pairIKS1_PS1_ESt10_Select1stIS5_ESt4lessIS1_ESaIS5_EE8_M_eraseEPSt13_Rb_tree_nodeIS5_E_x13c
    /*00000138*/ BL          _ZdlPv
    _ZNSt8_Rb_treeIN4hirt22OPERATION_FRAME_DEPENDESt4pairIKS1_PS1_ESt10_Select1stIS5_ESt4lessIS1_ESaIS5_EE8_M_eraseEPSt13_Rb_tree_nodeIS5_E_x13c:
    /*0000013c*/ CMP         R6, R5 
    /*00000140*/ BNE         _ZNSt8_Rb_treeIN4hirt22OPERATION_FRAME_DEPENDESt4pairIKS1_PS1_ESt10_Select1stIS5_ESt4lessIS1_ESaIS5_EE8_M_eraseEPSt13_Rb_tree_nodeIS5_E_x124
    /*00000144*/ LDR         R6, [R9, #24] 
    _ZNSt8_Rb_treeIN4hirt22OPERATION_FRAME_DEPENDESt4pairIKS1_PS1_ESt10_Select1stIS5_ESt4lessIS1_ESaIS5_EE8_M_eraseEPSt13_Rb_tree_nodeIS5_E_x148:
    /*00000148*/ CMP         R6, #0 
    /*0000014c*/ BEQ         _ZNSt8_Rb_treeIN4hirt22OPERATION_FRAME_DEPENDESt4pairIKS1_PS1_ESt10_Select1stIS5_ESt4lessIS1_ESaIS5_EE8_M_eraseEPSt13_Rb_tree_nodeIS5_E_x158
    /*00000150*/ MOV         R0, R6 
    /*00000154*/ BL          _ZdlPv
    _ZNSt8_Rb_treeIN4hirt22OPERATION_FRAME_DEPENDESt4pairIKS1_PS1_ESt10_Select1stIS5_ESt4lessIS1_ESaIS5_EE8_M_eraseEPSt13_Rb_tree_nodeIS5_E_x158:
    /*00000158*/ MOV         R0, R9 
    /*0000015c*/ BL          _ZdlPv
    /*00000160*/ SUBS        R9, R7, #0 
    /*00000164*/ BNE         _ZNSt8_Rb_treeIN4hirt22OPERATION_FRAME_DEPENDESt4pairIKS1_PS1_ESt10_Select1stIS5_ESt4lessIS1_ESaIS5_EE8_M_eraseEPSt13_Rb_tree_nodeIS5_E_x98
    _ZNSt8_Rb_treeIN4hirt22OPERATION_FRAME_DEPENDESt4pairIKS1_PS1_ESt10_Select1stIS5_ESt4lessIS1_ESaIS5_EE8_M_eraseEPSt13_Rb_tree_nodeIS5_E_x168:
    /*00000168*/ LDR         R5, [SL, #24] 
    /*0000016c*/ LDR         R6, [SL, #28] 
    /*00000170*/ LDR         R7, [SL, #8] 
    /*00000174*/ CMP         R5, R6 
    /*00000178*/ ADDNE       R4, R5, #8 
    /*0000017c*/ BEQ         _ZNSt8_Rb_treeIN4hirt22OPERATION_FRAME_DEPENDESt4pairIKS1_PS1_ESt10_Select1stIS5_ESt4lessIS1_ESaIS5_EE8_M_eraseEPSt13_Rb_tree_nodeIS5_E_x1a4
    _ZNSt8_Rb_treeIN4hirt22OPERATION_FRAME_DEPENDESt4pairIKS1_PS1_ESt10_Select1stIS5_ESt4lessIS1_ESaIS5_EE8_M_eraseEPSt13_Rb_tree_nodeIS5_E_x180:
    /*00000180*/ LDR         R0, [R4, #-8] 
    /*00000184*/ ADD         R5, R5, #24 
    /*00000188*/ CMP         R0, R4 
    /*0000018c*/ ADD         R4, R4, #24 
    /*00000190*/ BEQ         _ZNSt8_Rb_treeIN4hirt22OPERATION_FRAME_DEPENDESt4pairIKS1_PS1_ESt10_Select1stIS5_ESt4lessIS1_ESaIS5_EE8_M_eraseEPSt13_Rb_tree_nodeIS5_E_x198
    /*00000194*/ BL          _ZdlPv
    _ZNSt8_Rb_treeIN4hirt22OPERATION_FRAME_DEPENDESt4pairIKS1_PS1_ESt10_Select1stIS5_ESt4lessIS1_ESaIS5_EE8_M_eraseEPSt13_Rb_tree_nodeIS5_E_x198:
    /*00000198*/ CMP         R6, R5 
    /*0000019c*/ BNE         _ZNSt8_Rb_treeIN4hirt22OPERATION_FRAME_DEPENDESt4pairIKS1_PS1_ESt10_Select1stIS5_ESt4lessIS1_ESaIS5_EE8_M_eraseEPSt13_Rb_tree_nodeIS5_E_x180
    /*000001a0*/ LDR         R6, [SL, #24] 
    _ZNSt8_Rb_treeIN4hirt22OPERATION_FRAME_DEPENDESt4pairIKS1_PS1_ESt10_Select1stIS5_ESt4lessIS1_ESaIS5_EE8_M_eraseEPSt13_Rb_tree_nodeIS5_E_x1a4:
    /*000001a4*/ CMP         R6, #0 
    /*000001a8*/ BEQ         _ZNSt8_Rb_treeIN4hirt22OPERATION_FRAME_DEPENDESt4pairIKS1_PS1_ESt10_Select1stIS5_ESt4lessIS1_ESaIS5_EE8_M_eraseEPSt13_Rb_tree_nodeIS5_E_x1b4
    /*000001ac*/ MOV         R0, R6 
    /*000001b0*/ BL          _ZdlPv
    _ZNSt8_Rb_treeIN4hirt22OPERATION_FRAME_DEPENDESt4pairIKS1_PS1_ESt10_Select1stIS5_ESt4lessIS1_ESaIS5_EE8_M_eraseEPSt13_Rb_tree_nodeIS5_E_x1b4:
    /*000001b4*/ MOV         R0, SL 
    /*000001b8*/ BL          _ZdlPv
    /*000001bc*/ SUBS        SL, R7, #0 
    /*000001c0*/ BNE         _ZNSt8_Rb_treeIN4hirt22OPERATION_FRAME_DEPENDESt4pairIKS1_PS1_ESt10_Select1stIS5_ESt4lessIS1_ESaIS5_EE8_M_eraseEPSt13_Rb_tree_nodeIS5_E_x8c
    /*000001c4*/ LDR         R3, [SP] 
    _ZNSt8_Rb_treeIN4hirt22OPERATION_FRAME_DEPENDESt4pairIKS1_PS1_ESt10_Select1stIS5_ESt4lessIS1_ESaIS5_EE8_M_eraseEPSt13_Rb_tree_nodeIS5_E_x1c8:
    /*000001c8*/ LDR         R5, [R3, #24] 
    /*000001cc*/ LDR         R4, [R3, #28] 
    /*000001d0*/ LDR         R7, [R3, #8] 
    /*000001d4*/ CMP         R5, R4 
    /*000001d8*/ ADDNE       R6, R5, #8 
    /*000001dc*/ BEQ         _ZNSt8_Rb_treeIN4hirt22OPERATION_FRAME_DEPENDESt4pairIKS1_PS1_ESt10_Select1stIS5_ESt4lessIS1_ESaIS5_EE8_M_eraseEPSt13_Rb_tree_nodeIS5_E_x208
    _ZNSt8_Rb_treeIN4hirt22OPERATION_FRAME_DEPENDESt4pairIKS1_PS1_ESt10_Select1stIS5_ESt4lessIS1_ESaIS5_EE8_M_eraseEPSt13_Rb_tree_nodeIS5_E_x1e0:
    /*000001e0*/ LDR         R0, [R6, #-8] 
    /*000001e4*/ ADD         R5, R5, #24 
    /*000001e8*/ CMP         R0, R6 
    /*000001ec*/ ADD         R6, R6, #24 
    /*000001f0*/ BEQ         _ZNSt8_Rb_treeIN4hirt22OPERATION_FRAME_DEPENDESt4pairIKS1_PS1_ESt10_Select1stIS5_ESt4lessIS1_ESaIS5_EE8_M_eraseEPSt13_Rb_tree_nodeIS5_E_x1f8
    /*000001f4*/ BL          _ZdlPv
    _ZNSt8_Rb_treeIN4hirt22OPERATION_FRAME_DEPENDESt4pairIKS1_PS1_ESt10_Select1stIS5_ESt4lessIS1_ESaIS5_EE8_M_eraseEPSt13_Rb_tree_nodeIS5_E_x1f8:
    /*000001f8*/ CMP         R4, R5 
    /*000001fc*/ BNE         _ZNSt8_Rb_treeIN4hirt22OPERATION_FRAME_DEPENDESt4pairIKS1_PS1_ESt10_Select1stIS5_ESt4lessIS1_ESaIS5_EE8_M_eraseEPSt13_Rb_tree_nodeIS5_E_x1e0
    /*00000200*/ LDR         R3, [SP] 
    /*00000204*/ LDR         R4, [R3, #24] 
    _ZNSt8_Rb_treeIN4hirt22OPERATION_FRAME_DEPENDESt4pairIKS1_PS1_ESt10_Select1stIS5_ESt4lessIS1_ESaIS5_EE8_M_eraseEPSt13_Rb_tree_nodeIS5_E_x208:
    /*00000208*/ CMP         R4, #0 
    /*0000020c*/ BEQ         _ZNSt8_Rb_treeIN4hirt22OPERATION_FRAME_DEPENDESt4pairIKS1_PS1_ESt10_Select1stIS5_ESt4lessIS1_ESaIS5_EE8_M_eraseEPSt13_Rb_tree_nodeIS5_E_x218
    /*00000210*/ MOV         R0, R4 
    /*00000214*/ BL          _ZdlPv
    _ZNSt8_Rb_treeIN4hirt22OPERATION_FRAME_DEPENDESt4pairIKS1_PS1_ESt10_Select1stIS5_ESt4lessIS1_ESaIS5_EE8_M_eraseEPSt13_Rb_tree_nodeIS5_E_x218:
    /*00000218*/ LDR         R0, [SP] 
    /*0000021c*/ BL          _ZdlPv
    /*00000220*/ SUBS        R3, R7, #0 
    /*00000224*/ STR         R3, [SP] 
    /*00000228*/ BNE         _ZNSt8_Rb_treeIN4hirt22OPERATION_FRAME_DEPENDESt4pairIKS1_PS1_ESt10_Select1stIS5_ESt4lessIS1_ESaIS5_EE8_M_eraseEPSt13_Rb_tree_nodeIS5_E_x80
    /*0000022c*/ LDR         R3, [SP, #4] 
    _ZNSt8_Rb_treeIN4hirt22OPERATION_FRAME_DEPENDESt4pairIKS1_PS1_ESt10_Select1stIS5_ESt4lessIS1_ESaIS5_EE8_M_eraseEPSt13_Rb_tree_nodeIS5_E_x230:
    /*00000230*/ LDR         R5, [R3, #24] 
    /*00000234*/ LDR         R4, [R3, #28] 
    /*00000238*/ LDR         R7, [R3, #8] 
    /*0000023c*/ CMP         R5, R4 
    /*00000240*/ ADDNE       R6, R5, #8 
    /*00000244*/ BEQ         _ZNSt8_Rb_treeIN4hirt22OPERATION_FRAME_DEPENDESt4pairIKS1_PS1_ESt10_Select1stIS5_ESt4lessIS1_ESaIS5_EE8_M_eraseEPSt13_Rb_tree_nodeIS5_E_x270
    _ZNSt8_Rb_treeIN4hirt22OPERATION_FRAME_DEPENDESt4pairIKS1_PS1_ESt10_Select1stIS5_ESt4lessIS1_ESaIS5_EE8_M_eraseEPSt13_Rb_tree_nodeIS5_E_x248:
    /*00000248*/ LDR         R0, [R6, #-8] 
    /*0000024c*/ ADD         R5, R5, #24 
    /*00000250*/ CMP         R6, R0 
    /*00000254*/ ADD         R6, R6, #24 
    /*00000258*/ BEQ         _ZNSt8_Rb_treeIN4hirt22OPERATION_FRAME_DEPENDESt4pairIKS1_PS1_ESt10_Select1stIS5_ESt4lessIS1_ESaIS5_EE8_M_eraseEPSt13_Rb_tree_nodeIS5_E_x260
    /*0000025c*/ BL          _ZdlPv
    _ZNSt8_Rb_treeIN4hirt22OPERATION_FRAME_DEPENDESt4pairIKS1_PS1_ESt10_Select1stIS5_ESt4lessIS1_ESaIS5_EE8_M_eraseEPSt13_Rb_tree_nodeIS5_E_x260:
    /*00000260*/ CMP         R4, R5 
    /*00000264*/ BNE         _ZNSt8_Rb_treeIN4hirt22OPERATION_FRAME_DEPENDESt4pairIKS1_PS1_ESt10_Select1stIS5_ESt4lessIS1_ESaIS5_EE8_M_eraseEPSt13_Rb_tree_nodeIS5_E_x248
    /*00000268*/ LDR         R3, [SP, #4] 
    /*0000026c*/ LDR         R4, [R3, #24] 
    _ZNSt8_Rb_treeIN4hirt22OPERATION_FRAME_DEPENDESt4pairIKS1_PS1_ESt10_Select1stIS5_ESt4lessIS1_ESaIS5_EE8_M_eraseEPSt13_Rb_tree_nodeIS5_E_x270:
    /*00000270*/ CMP         R4, #0 
    /*00000274*/ BEQ         _ZNSt8_Rb_treeIN4hirt22OPERATION_FRAME_DEPENDESt4pairIKS1_PS1_ESt10_Select1stIS5_ESt4lessIS1_ESaIS5_EE8_M_eraseEPSt13_Rb_tree_nodeIS5_E_x280
    /*00000278*/ MOV         R0, R4 
    /*0000027c*/ BL          _ZdlPv
    _ZNSt8_Rb_treeIN4hirt22OPERATION_FRAME_DEPENDESt4pairIKS1_PS1_ESt10_Select1stIS5_ESt4lessIS1_ESaIS5_EE8_M_eraseEPSt13_Rb_tree_nodeIS5_E_x280:
    /*00000280*/ LDR         R0, [SP, #4] 
    /*00000284*/ BL          _ZdlPv
    /*00000288*/ SUBS        R3, R7, #0 
    /*0000028c*/ STR         R3, [SP, #4] 
    /*00000290*/ BNE         _ZNSt8_Rb_treeIN4hirt22OPERATION_FRAME_DEPENDESt4pairIKS1_PS1_ESt10_Select1stIS5_ESt4lessIS1_ESaIS5_EE8_M_eraseEPSt13_Rb_tree_nodeIS5_E_x6c
    /*00000294*/ LDR         R3, [SP, #8] 
    _ZNSt8_Rb_treeIN4hirt22OPERATION_FRAME_DEPENDESt4pairIKS1_PS1_ESt10_Select1stIS5_ESt4lessIS1_ESaIS5_EE8_M_eraseEPSt13_Rb_tree_nodeIS5_E_x298:
    /*00000298*/ LDR         R5, [R3, #24] 
    /*0000029c*/ LDR         R4, [R3, #28] 
    /*000002a0*/ LDR         R7, [R3, #8] 
    /*000002a4*/ CMP         R5, R4 
    /*000002a8*/ ADDNE       R6, R5, #8 
    /*000002ac*/ BEQ         _ZNSt8_Rb_treeIN4hirt22OPERATION_FRAME_DEPENDESt4pairIKS1_PS1_ESt10_Select1stIS5_ESt4lessIS1_ESaIS5_EE8_M_eraseEPSt13_Rb_tree_nodeIS5_E_x2d8
    _ZNSt8_Rb_treeIN4hirt22OPERATION_FRAME_DEPENDESt4pairIKS1_PS1_ESt10_Select1stIS5_ESt4lessIS1_ESaIS5_EE8_M_eraseEPSt13_Rb_tree_nodeIS5_E_x2b0:
    /*000002b0*/ LDR         R0, [R6, #-8] 
    /*000002b4*/ ADD         R5, R5, #24 
    /*000002b8*/ CMP         R0, R6 
    /*000002bc*/ ADD         R6, R6, #24 
    /*000002c0*/ BEQ         _ZNSt8_Rb_treeIN4hirt22OPERATION_FRAME_DEPENDESt4pairIKS1_PS1_ESt10_Select1stIS5_ESt4lessIS1_ESaIS5_EE8_M_eraseEPSt13_Rb_tree_nodeIS5_E_x2c8
    /*000002c4*/ BL          _ZdlPv
    _ZNSt8_Rb_treeIN4hirt22OPERATION_FRAME_DEPENDESt4pairIKS1_PS1_ESt10_Select1stIS5_ESt4lessIS1_ESaIS5_EE8_M_eraseEPSt13_Rb_tree_nodeIS5_E_x2c8:
    /*000002c8*/ CMP         R4, R5 
    /*000002cc*/ BNE         _ZNSt8_Rb_treeIN4hirt22OPERATION_FRAME_DEPENDESt4pairIKS1_PS1_ESt10_Select1stIS5_ESt4lessIS1_ESaIS5_EE8_M_eraseEPSt13_Rb_tree_nodeIS5_E_x2b0
    /*000002d0*/ LDR         R3, [SP, #8] 
    /*000002d4*/ LDR         R4, [R3, #24] 
    _ZNSt8_Rb_treeIN4hirt22OPERATION_FRAME_DEPENDESt4pairIKS1_PS1_ESt10_Select1stIS5_ESt4lessIS1_ESaIS5_EE8_M_eraseEPSt13_Rb_tree_nodeIS5_E_x2d8:
    /*000002d8*/ CMP         R4, #0 
    /*000002dc*/ BEQ         _ZNSt8_Rb_treeIN4hirt22OPERATION_FRAME_DEPENDESt4pairIKS1_PS1_ESt10_Select1stIS5_ESt4lessIS1_ESaIS5_EE8_M_eraseEPSt13_Rb_tree_nodeIS5_E_x2e8
    /*000002e0*/ MOV         R0, R4 
    /*000002e4*/ BL          _ZdlPv
    _ZNSt8_Rb_treeIN4hirt22OPERATION_FRAME_DEPENDESt4pairIKS1_PS1_ESt10_Select1stIS5_ESt4lessIS1_ESaIS5_EE8_M_eraseEPSt13_Rb_tree_nodeIS5_E_x2e8:
    /*000002e8*/ LDR         R0, [SP, #8] 
    /*000002ec*/ BL          _ZdlPv
    /*000002f0*/ SUBS        R3, R7, #0 
    /*000002f4*/ STR         R3, [SP, #8] 
    /*000002f8*/ BNE         _ZNSt8_Rb_treeIN4hirt22OPERATION_FRAME_DEPENDESt4pairIKS1_PS1_ESt10_Select1stIS5_ESt4lessIS1_ESaIS5_EE8_M_eraseEPSt13_Rb_tree_nodeIS5_E_x58
    /*000002fc*/ LDR         R3, [SP, #12] 
    _ZNSt8_Rb_treeIN4hirt22OPERATION_FRAME_DEPENDESt4pairIKS1_PS1_ESt10_Select1stIS5_ESt4lessIS1_ESaIS5_EE8_M_eraseEPSt13_Rb_tree_nodeIS5_E_x300:
    /*00000300*/ LDR         R5, [R3, #24] 
    /*00000304*/ LDR         R4, [R3, #28] 
    /*00000308*/ LDR         R7, [R3, #8] 
    /*0000030c*/ CMP         R5, R4 
    /*00000310*/ ADDNE       R6, R5, #8 
    /*00000314*/ BEQ         _ZNSt8_Rb_treeIN4hirt22OPERATION_FRAME_DEPENDESt4pairIKS1_PS1_ESt10_Select1stIS5_ESt4lessIS1_ESaIS5_EE8_M_eraseEPSt13_Rb_tree_nodeIS5_E_x340
    _ZNSt8_Rb_treeIN4hirt22OPERATION_FRAME_DEPENDESt4pairIKS1_PS1_ESt10_Select1stIS5_ESt4lessIS1_ESaIS5_EE8_M_eraseEPSt13_Rb_tree_nodeIS5_E_x318:
    /*00000318*/ LDR         R0, [R6, #-8] 
    /*0000031c*/ ADD         R5, R5, #24 
    /*00000320*/ CMP         R0, R6 
    /*00000324*/ ADD         R6, R6, #24 
    /*00000328*/ BEQ         _ZNSt8_Rb_treeIN4hirt22OPERATION_FRAME_DEPENDESt4pairIKS1_PS1_ESt10_Select1stIS5_ESt4lessIS1_ESaIS5_EE8_M_eraseEPSt13_Rb_tree_nodeIS5_E_x330
    /*0000032c*/ BL          _ZdlPv
    _ZNSt8_Rb_treeIN4hirt22OPERATION_FRAME_DEPENDESt4pairIKS1_PS1_ESt10_Select1stIS5_ESt4lessIS1_ESaIS5_EE8_M_eraseEPSt13_Rb_tree_nodeIS5_E_x330:
    /*00000330*/ CMP         R4, R5 
    /*00000334*/ BNE         _ZNSt8_Rb_treeIN4hirt22OPERATION_FRAME_DEPENDESt4pairIKS1_PS1_ESt10_Select1stIS5_ESt4lessIS1_ESaIS5_EE8_M_eraseEPSt13_Rb_tree_nodeIS5_E_x318
    /*00000338*/ LDR         R3, [SP, #12] 
    /*0000033c*/ LDR         R4, [R3, #24] 
    _ZNSt8_Rb_treeIN4hirt22OPERATION_FRAME_DEPENDESt4pairIKS1_PS1_ESt10_Select1stIS5_ESt4lessIS1_ESaIS5_EE8_M_eraseEPSt13_Rb_tree_nodeIS5_E_x340:
    /*00000340*/ CMP         R4, #0 
    /*00000344*/ BEQ         _ZNSt8_Rb_treeIN4hirt22OPERATION_FRAME_DEPENDESt4pairIKS1_PS1_ESt10_Select1stIS5_ESt4lessIS1_ESaIS5_EE8_M_eraseEPSt13_Rb_tree_nodeIS5_E_x350
    /*00000348*/ MOV         R0, R4 
    /*0000034c*/ BL          _ZdlPv
    _ZNSt8_Rb_treeIN4hirt22OPERATION_FRAME_DEPENDESt4pairIKS1_PS1_ESt10_Select1stIS5_ESt4lessIS1_ESaIS5_EE8_M_eraseEPSt13_Rb_tree_nodeIS5_E_x350:
    /*00000350*/ LDR         R0, [SP, #12] 
    /*00000354*/ BL          _ZdlPv
    /*00000358*/ SUBS        R3, R7, #0 
    /*0000035c*/ STR         R3, [SP, #12] 
    /*00000360*/ BNE         _ZNSt8_Rb_treeIN4hirt22OPERATION_FRAME_DEPENDESt4pairIKS1_PS1_ESt10_Select1stIS5_ESt4lessIS1_ESaIS5_EE8_M_eraseEPSt13_Rb_tree_nodeIS5_E_x44
    _ZNSt8_Rb_treeIN4hirt22OPERATION_FRAME_DEPENDESt4pairIKS1_PS1_ESt10_Select1stIS5_ESt4lessIS1_ESaIS5_EE8_M_eraseEPSt13_Rb_tree_nodeIS5_E_x364:
    /*00000364*/ LDR         R3, [SP, #16] 
    /*00000368*/ LDR         R5, [R3, #24] 
    /*0000036c*/ LDR         R4, [R3, #28] 
    /*00000370*/ LDR         R7, [R3, #8] 
    /*00000374*/ CMP         R5, R4 
    /*00000378*/ ADDNE       R6, R5, #8 
    /*0000037c*/ BEQ         _ZNSt8_Rb_treeIN4hirt22OPERATION_FRAME_DEPENDESt4pairIKS1_PS1_ESt10_Select1stIS5_ESt4lessIS1_ESaIS5_EE8_M_eraseEPSt13_Rb_tree_nodeIS5_E_x3a8
    _ZNSt8_Rb_treeIN4hirt22OPERATION_FRAME_DEPENDESt4pairIKS1_PS1_ESt10_Select1stIS5_ESt4lessIS1_ESaIS5_EE8_M_eraseEPSt13_Rb_tree_nodeIS5_E_x380:
    /*00000380*/ LDR         R0, [R6, #-8] 
    /*00000384*/ ADD         R5, R5, #24 
    /*00000388*/ CMP         R6, R0 
    /*0000038c*/ ADD         R6, R6, #24 
    /*00000390*/ BEQ         _ZNSt8_Rb_treeIN4hirt22OPERATION_FRAME_DEPENDESt4pairIKS1_PS1_ESt10_Select1stIS5_ESt4lessIS1_ESaIS5_EE8_M_eraseEPSt13_Rb_tree_nodeIS5_E_x398
    /*00000394*/ BL          _ZdlPv
    _ZNSt8_Rb_treeIN4hirt22OPERATION_FRAME_DEPENDESt4pairIKS1_PS1_ESt10_Select1stIS5_ESt4lessIS1_ESaIS5_EE8_M_eraseEPSt13_Rb_tree_nodeIS5_E_x398:
    /*00000398*/ CMP         R4, R5 
    /*0000039c*/ BNE         _ZNSt8_Rb_treeIN4hirt22OPERATION_FRAME_DEPENDESt4pairIKS1_PS1_ESt10_Select1stIS5_ESt4lessIS1_ESaIS5_EE8_M_eraseEPSt13_Rb_tree_nodeIS5_E_x380
    /*000003a0*/ LDR         R3, [SP, #16] 
    /*000003a4*/ LDR         R4, [R3, #24] 
    _ZNSt8_Rb_treeIN4hirt22OPERATION_FRAME_DEPENDESt4pairIKS1_PS1_ESt10_Select1stIS5_ESt4lessIS1_ESaIS5_EE8_M_eraseEPSt13_Rb_tree_nodeIS5_E_x3a8:
    /*000003a8*/ CMP         R4, #0 
    /*000003ac*/ BEQ         _ZNSt8_Rb_treeIN4hirt22OPERATION_FRAME_DEPENDESt4pairIKS1_PS1_ESt10_Select1stIS5_ESt4lessIS1_ESaIS5_EE8_M_eraseEPSt13_Rb_tree_nodeIS5_E_x3b8
    /*000003b0*/ MOV         R0, R4 
    /*000003b4*/ BL          _ZdlPv
    _ZNSt8_Rb_treeIN4hirt22OPERATION_FRAME_DEPENDESt4pairIKS1_PS1_ESt10_Select1stIS5_ESt4lessIS1_ESaIS5_EE8_M_eraseEPSt13_Rb_tree_nodeIS5_E_x3b8:
    /*000003b8*/ LDR         R0, [SP, #16] 
    /*000003bc*/ BL          _ZdlPv
    /*000003c0*/ SUBS        R3, R7, #0 
    /*000003c4*/ STR         R3, [SP, #16] 
    /*000003c8*/ BNE         _ZNSt8_Rb_treeIN4hirt22OPERATION_FRAME_DEPENDESt4pairIKS1_PS1_ESt10_Select1stIS5_ESt4lessIS1_ESaIS5_EE8_M_eraseEPSt13_Rb_tree_nodeIS5_E_x34
    _ZNSt8_Rb_treeIN4hirt22OPERATION_FRAME_DEPENDESt4pairIKS1_PS1_ESt10_Select1stIS5_ESt4lessIS1_ESaIS5_EE8_M_eraseEPSt13_Rb_tree_nodeIS5_E_x3cc:
    /*000003cc*/ LDR         R3, [SP, #20] 
    /*000003d0*/ LDR         R5, [R3, #24] 
    /*000003d4*/ LDR         R4, [R3, #28] 
    /*000003d8*/ LDR         R7, [R3, #8] 
    /*000003dc*/ CMP         R5, R4 
    /*000003e0*/ ADDNE       R6, R5, #8 
    /*000003e4*/ BEQ         _ZNSt8_Rb_treeIN4hirt22OPERATION_FRAME_DEPENDESt4pairIKS1_PS1_ESt10_Select1stIS5_ESt4lessIS1_ESaIS5_EE8_M_eraseEPSt13_Rb_tree_nodeIS5_E_x410
    _ZNSt8_Rb_treeIN4hirt22OPERATION_FRAME_DEPENDESt4pairIKS1_PS1_ESt10_Select1stIS5_ESt4lessIS1_ESaIS5_EE8_M_eraseEPSt13_Rb_tree_nodeIS5_E_x3e8:
    /*000003e8*/ LDR         R0, [R6, #-8] 
    /*000003ec*/ ADD         R5, R5, #24 
    /*000003f0*/ CMP         R0, R6 
    /*000003f4*/ ADD         R6, R6, #24 
    /*000003f8*/ BEQ         _ZNSt8_Rb_treeIN4hirt22OPERATION_FRAME_DEPENDESt4pairIKS1_PS1_ESt10_Select1stIS5_ESt4lessIS1_ESaIS5_EE8_M_eraseEPSt13_Rb_tree_nodeIS5_E_x400
    /*000003fc*/ BL          _ZdlPv
    _ZNSt8_Rb_treeIN4hirt22OPERATION_FRAME_DEPENDESt4pairIKS1_PS1_ESt10_Select1stIS5_ESt4lessIS1_ESaIS5_EE8_M_eraseEPSt13_Rb_tree_nodeIS5_E_x400:
    /*00000400*/ CMP         R4, R5 
    /*00000404*/ BNE         _ZNSt8_Rb_treeIN4hirt22OPERATION_FRAME_DEPENDESt4pairIKS1_PS1_ESt10_Select1stIS5_ESt4lessIS1_ESaIS5_EE8_M_eraseEPSt13_Rb_tree_nodeIS5_E_x3e8
    /*00000408*/ LDR         R3, [SP, #20] 
    /*0000040c*/ LDR         R4, [R3, #24] 
    _ZNSt8_Rb_treeIN4hirt22OPERATION_FRAME_DEPENDESt4pairIKS1_PS1_ESt10_Select1stIS5_ESt4lessIS1_ESaIS5_EE8_M_eraseEPSt13_Rb_tree_nodeIS5_E_x410:
    /*00000410*/ CMP         R4, #0 
    /*00000414*/ BEQ         _ZNSt8_Rb_treeIN4hirt22OPERATION_FRAME_DEPENDESt4pairIKS1_PS1_ESt10_Select1stIS5_ESt4lessIS1_ESaIS5_EE8_M_eraseEPSt13_Rb_tree_nodeIS5_E_x420
    /*00000418*/ MOV         R0, R4 
    /*0000041c*/ BL          _ZdlPv
    _ZNSt8_Rb_treeIN4hirt22OPERATION_FRAME_DEPENDESt4pairIKS1_PS1_ESt10_Select1stIS5_ESt4lessIS1_ESaIS5_EE8_M_eraseEPSt13_Rb_tree_nodeIS5_E_x420:
    /*00000420*/ LDR         R0, [SP, #20] 
    /*00000424*/ BL          _ZdlPv
    /*00000428*/ SUBS        R3, R7, #0 
    /*0000042c*/ STR         R3, [SP, #20] 
    /*00000430*/ BNE         _ZNSt8_Rb_treeIN4hirt22OPERATION_FRAME_DEPENDESt4pairIKS1_PS1_ESt10_Select1stIS5_ESt4lessIS1_ESaIS5_EE8_M_eraseEPSt13_Rb_tree_nodeIS5_E_x24
    _ZNSt8_Rb_treeIN4hirt22OPERATION_FRAME_DEPENDESt4pairIKS1_PS1_ESt10_Select1stIS5_ESt4lessIS1_ESaIS5_EE8_M_eraseEPSt13_Rb_tree_nodeIS5_E_x434:
    /*00000434*/ ADD         SP, SP, #28 
    /*00000438*/ POP         {R4, R5, R6, R7, R8, R9, SL, FP, PC} 
FUNC_END _ZNSt8_Rb_treeIN4hirt22OPERATION_FRAME_DEPENDESt4pairIKS1_PS1_ESt10_Select1stIS5_ESt4lessIS1_ESaIS5_EE8_M_eraseEPSt13_Rb_tree_nodeIS5_E


@ - - - - - - - - - - - - - - - - - - - - - - - - - - - - - 
@ .text._ZNSt8_Rb_treeIjSt4pairIKjPN4hirt9GroupItemEESt10_Select1stIS5_ESt4lessIjESaIS5_EE8_M_eraseEPSt13_Rb_tree_nodeIS5_E
@ Size: 0x178
@ - - - - - - - - - - - - - - - - - - - - - - - - - - - - - 

FUNC_BEGIN _ZNSt8_Rb_treeIjSt4pairIKjPN4hirt9GroupItemEESt10_Select1stIS5_ESt4lessIjESaIS5_EE8_M_eraseEPSt13_Rb_tree_nodeIS5_E
    /*00000000*/ MOV         IP, #16384                  @ 0x4000 
    /*00000004*/ PUSH        {R4, R5, R6, R7, R8, R9, SL, FP, LR} 
    /*00000008*/ SUB         IP, SP, IP 
    /*0000000c*/ STR         R0, [IP, #4040]             @ 0xfc8 
    /*00000010*/ SUB         SP, SP, #20 
    /*00000014*/ SUBS        R3, R1, #0 
    /*00000018*/ STR         R3, [SP, #12] 
    /*0000001c*/ BEQ         _ZNSt8_Rb_treeIjSt4pairIKjPN4hirt9GroupItemEESt10_Select1stIS5_ESt4lessIjESaIS5_EE8_M_eraseEPSt13_Rb_tree_nodeIS5_E_x170
    /*00000020*/ MOV         R4, R0 
    _ZNSt8_Rb_treeIjSt4pairIKjPN4hirt9GroupItemEESt10_Select1stIS5_ESt4lessIjESaIS5_EE8_M_eraseEPSt13_Rb_tree_nodeIS5_E_x24:
    /*00000024*/ LDR         R7, [R3, #12] 
    /*00000028*/ CMP         R7, #0 
    /*0000002c*/ STRNE       R7, [SP, #4] 
    /*00000030*/ MOVNE       R3, R7 
    /*00000034*/ BEQ         _ZNSt8_Rb_treeIjSt4pairIKjPN4hirt9GroupItemEESt10_Select1stIS5_ESt4lessIjESaIS5_EE8_M_eraseEPSt13_Rb_tree_nodeIS5_E_x158
    _ZNSt8_Rb_treeIjSt4pairIKjPN4hirt9GroupItemEESt10_Select1stIS5_ESt4lessIjESaIS5_EE8_M_eraseEPSt13_Rb_tree_nodeIS5_E_x38:
    /*00000038*/ LDR         R8, [R3, #12] 
    /*0000003c*/ CMP         R8, #0 
    /*00000040*/ STRNE       R8, [SP, #8] 
    /*00000044*/ MOVNE       R3, R8 
    /*00000048*/ BEQ         _ZNSt8_Rb_treeIjSt4pairIKjPN4hirt9GroupItemEESt10_Select1stIS5_ESt4lessIjESaIS5_EE8_M_eraseEPSt13_Rb_tree_nodeIS5_E_x13c
    _ZNSt8_Rb_treeIjSt4pairIKjPN4hirt9GroupItemEESt10_Select1stIS5_ESt4lessIjESaIS5_EE8_M_eraseEPSt13_Rb_tree_nodeIS5_E_x4c:
    /*0000004c*/ LDR         R9, [R3, #12] 
    /*00000050*/ CMP         R9, #0 
    /*00000054*/ BEQ         _ZNSt8_Rb_treeIjSt4pairIKjPN4hirt9GroupItemEESt10_Select1stIS5_ESt4lessIjESaIS5_EE8_M_eraseEPSt13_Rb_tree_nodeIS5_E_x120
    _ZNSt8_Rb_treeIjSt4pairIKjPN4hirt9GroupItemEESt10_Select1stIS5_ESt4lessIjESaIS5_EE8_M_eraseEPSt13_Rb_tree_nodeIS5_E_x58:
    /*00000058*/ LDR         SL, [R9, #12] 
    /*0000005c*/ CMP         SL, #0 
    /*00000060*/ BEQ         _ZNSt8_Rb_treeIjSt4pairIKjPN4hirt9GroupItemEESt10_Select1stIS5_ESt4lessIjESaIS5_EE8_M_eraseEPSt13_Rb_tree_nodeIS5_E_x108
    _ZNSt8_Rb_treeIjSt4pairIKjPN4hirt9GroupItemEESt10_Select1stIS5_ESt4lessIjESaIS5_EE8_M_eraseEPSt13_Rb_tree_nodeIS5_E_x64:
    /*00000064*/ LDR         FP, [SL, #12] 
    /*00000068*/ CMP         FP, #0 
    /*0000006c*/ BEQ         _ZNSt8_Rb_treeIjSt4pairIKjPN4hirt9GroupItemEESt10_Select1stIS5_ESt4lessIjESaIS5_EE8_M_eraseEPSt13_Rb_tree_nodeIS5_E_xf4
    _ZNSt8_Rb_treeIjSt4pairIKjPN4hirt9GroupItemEESt10_Select1stIS5_ESt4lessIjESaIS5_EE8_M_eraseEPSt13_Rb_tree_nodeIS5_E_x70:
    /*00000070*/ LDR         R6, [FP, #12] 
    /*00000074*/ CMP         R6, #0 
    /*00000078*/ BEQ         _ZNSt8_Rb_treeIjSt4pairIKjPN4hirt9GroupItemEESt10_Select1stIS5_ESt4lessIjESaIS5_EE8_M_eraseEPSt13_Rb_tree_nodeIS5_E_xe0
    _ZNSt8_Rb_treeIjSt4pairIKjPN4hirt9GroupItemEESt10_Select1stIS5_ESt4lessIjESaIS5_EE8_M_eraseEPSt13_Rb_tree_nodeIS5_E_x7c:
    /*0000007c*/ LDR         R5, [R6, #12] 
    /*00000080*/ CMP         R5, #0 
    /*00000084*/ BEQ         _ZNSt8_Rb_treeIjSt4pairIKjPN4hirt9GroupItemEESt10_Select1stIS5_ESt4lessIjESaIS5_EE8_M_eraseEPSt13_Rb_tree_nodeIS5_E_xcc
    _ZNSt8_Rb_treeIjSt4pairIKjPN4hirt9GroupItemEESt10_Select1stIS5_ESt4lessIjESaIS5_EE8_M_eraseEPSt13_Rb_tree_nodeIS5_E_x88:
    /*00000088*/ LDR         R3, [R5, #12] 
    /*0000008c*/ CMP         R3, #0 
    /*00000090*/ MOVNE       R7, R3 
    /*00000094*/ BEQ         _ZNSt8_Rb_treeIjSt4pairIKjPN4hirt9GroupItemEESt10_Select1stIS5_ESt4lessIjESaIS5_EE8_M_eraseEPSt13_Rb_tree_nodeIS5_E_xb8
    _ZNSt8_Rb_treeIjSt4pairIKjPN4hirt9GroupItemEESt10_Select1stIS5_ESt4lessIjESaIS5_EE8_M_eraseEPSt13_Rb_tree_nodeIS5_E_x98:
    /*00000098*/ LDR         R1, [R7, #12] 
    /*0000009c*/ MOV         R0, R4 
    /*000000a0*/ BL          _ZNSt8_Rb_treeIjSt4pairIKjPN4hirt9GroupItemEESt10_Select1stIS5_ESt4lessIjESaIS5_EE8_M_eraseEPSt13_Rb_tree_nodeIS5_E
    /*000000a4*/ LDR         R8, [R7, #8] 
    /*000000a8*/ MOV         R0, R7 
    /*000000ac*/ BL          _ZdlPv
    /*000000b0*/ SUBS        R7, R8, #0 
    /*000000b4*/ BNE         _ZNSt8_Rb_treeIjSt4pairIKjPN4hirt9GroupItemEESt10_Select1stIS5_ESt4lessIjESaIS5_EE8_M_eraseEPSt13_Rb_tree_nodeIS5_E_x98
    _ZNSt8_Rb_treeIjSt4pairIKjPN4hirt9GroupItemEESt10_Select1stIS5_ESt4lessIjESaIS5_EE8_M_eraseEPSt13_Rb_tree_nodeIS5_E_xb8:
    /*000000b8*/ LDR         R7, [R5, #8] 
    /*000000bc*/ MOV         R0, R5 
    /*000000c0*/ BL          _ZdlPv
    /*000000c4*/ SUBS        R5, R7, #0 
    /*000000c8*/ BNE         _ZNSt8_Rb_treeIjSt4pairIKjPN4hirt9GroupItemEESt10_Select1stIS5_ESt4lessIjESaIS5_EE8_M_eraseEPSt13_Rb_tree_nodeIS5_E_x88
    _ZNSt8_Rb_treeIjSt4pairIKjPN4hirt9GroupItemEESt10_Select1stIS5_ESt4lessIjESaIS5_EE8_M_eraseEPSt13_Rb_tree_nodeIS5_E_xcc:
    /*000000cc*/ LDR         R5, [R6, #8] 
    /*000000d0*/ MOV         R0, R6 
    /*000000d4*/ BL          _ZdlPv
    /*000000d8*/ SUBS        R6, R5, #0 
    /*000000dc*/ BNE         _ZNSt8_Rb_treeIjSt4pairIKjPN4hirt9GroupItemEESt10_Select1stIS5_ESt4lessIjESaIS5_EE8_M_eraseEPSt13_Rb_tree_nodeIS5_E_x7c
    _ZNSt8_Rb_treeIjSt4pairIKjPN4hirt9GroupItemEESt10_Select1stIS5_ESt4lessIjESaIS5_EE8_M_eraseEPSt13_Rb_tree_nodeIS5_E_xe0:
    /*000000e0*/ LDR         R5, [FP, #8] 
    /*000000e4*/ MOV         R0, FP 
    /*000000e8*/ BL          _ZdlPv
    /*000000ec*/ SUBS        FP, R5, #0 
    /*000000f0*/ BNE         _ZNSt8_Rb_treeIjSt4pairIKjPN4hirt9GroupItemEESt10_Select1stIS5_ESt4lessIjESaIS5_EE8_M_eraseEPSt13_Rb_tree_nodeIS5_E_x70
    _ZNSt8_Rb_treeIjSt4pairIKjPN4hirt9GroupItemEESt10_Select1stIS5_ESt4lessIjESaIS5_EE8_M_eraseEPSt13_Rb_tree_nodeIS5_E_xf4:
    /*000000f4*/ LDR         R5, [SL, #8] 
    /*000000f8*/ MOV         R0, SL 
    /*000000fc*/ BL          _ZdlPv
    /*00000100*/ SUBS        SL, R5, #0 
    /*00000104*/ BNE         _ZNSt8_Rb_treeIjSt4pairIKjPN4hirt9GroupItemEESt10_Select1stIS5_ESt4lessIjESaIS5_EE8_M_eraseEPSt13_Rb_tree_nodeIS5_E_x64
    _ZNSt8_Rb_treeIjSt4pairIKjPN4hirt9GroupItemEESt10_Select1stIS5_ESt4lessIjESaIS5_EE8_M_eraseEPSt13_Rb_tree_nodeIS5_E_x108:
    /*00000108*/ LDR         R5, [R9, #8] 
    /*0000010c*/ MOV         R0, R9 
    /*00000110*/ BL          _ZdlPv
    /*00000114*/ SUBS        R9, R5, #0 
    /*00000118*/ BNE         _ZNSt8_Rb_treeIjSt4pairIKjPN4hirt9GroupItemEESt10_Select1stIS5_ESt4lessIjESaIS5_EE8_M_eraseEPSt13_Rb_tree_nodeIS5_E_x58
    /*0000011c*/ LDR         R3, [SP, #8] 
    _ZNSt8_Rb_treeIjSt4pairIKjPN4hirt9GroupItemEESt10_Select1stIS5_ESt4lessIjESaIS5_EE8_M_eraseEPSt13_Rb_tree_nodeIS5_E_x120:
    /*00000120*/ LDR         R5, [R3, #8] 
    /*00000124*/ MOV         R0, R3 
    /*00000128*/ BL          _ZdlPv
    /*0000012c*/ SUBS        R3, R5, #0 
    /*00000130*/ STR         R3, [SP, #8] 
    /*00000134*/ BNE         _ZNSt8_Rb_treeIjSt4pairIKjPN4hirt9GroupItemEESt10_Select1stIS5_ESt4lessIjESaIS5_EE8_M_eraseEPSt13_Rb_tree_nodeIS5_E_x4c
    /*00000138*/ LDR         R3, [SP, #4] 
    _ZNSt8_Rb_treeIjSt4pairIKjPN4hirt9GroupItemEESt10_Select1stIS5_ESt4lessIjESaIS5_EE8_M_eraseEPSt13_Rb_tree_nodeIS5_E_x13c:
    /*0000013c*/ LDR         R5, [R3, #8] 
    /*00000140*/ MOV         R0, R3 
    /*00000144*/ BL          _ZdlPv
    /*00000148*/ SUBS        R3, R5, #0 
    /*0000014c*/ STR         R3, [SP, #4] 
    /*00000150*/ BNE         _ZNSt8_Rb_treeIjSt4pairIKjPN4hirt9GroupItemEESt10_Select1stIS5_ESt4lessIjESaIS5_EE8_M_eraseEPSt13_Rb_tree_nodeIS5_E_x38
    /*00000154*/ LDR         R3, [SP, #12] 
    _ZNSt8_Rb_treeIjSt4pairIKjPN4hirt9GroupItemEESt10_Select1stIS5_ESt4lessIjESaIS5_EE8_M_eraseEPSt13_Rb_tree_nodeIS5_E_x158:
    /*00000158*/ LDR         R5, [R3, #8] 
    /*0000015c*/ MOV         R0, R3 
    /*00000160*/ BL          _ZdlPv
    /*00000164*/ SUBS        R3, R5, #0 
    /*00000168*/ STR         R3, [SP, #12] 
    /*0000016c*/ BNE         _ZNSt8_Rb_treeIjSt4pairIKjPN4hirt9GroupItemEESt10_Select1stIS5_ESt4lessIjESaIS5_EE8_M_eraseEPSt13_Rb_tree_nodeIS5_E_x24
    _ZNSt8_Rb_treeIjSt4pairIKjPN4hirt9GroupItemEESt10_Select1stIS5_ESt4lessIjESaIS5_EE8_M_eraseEPSt13_Rb_tree_nodeIS5_E_x170:
    /*00000170*/ ADD         SP, SP, #20 
    /*00000174*/ POP         {R4, R5, R6, R7, R8, R9, SL, FP, PC} 
FUNC_END _ZNSt8_Rb_treeIjSt4pairIKjPN4hirt9GroupItemEESt10_Select1stIS5_ESt4lessIjESaIS5_EE8_M_eraseEPSt13_Rb_tree_nodeIS5_E


@ - - - - - - - - - - - - - - - - - - - - - - - - - - - - - 
@ .text._ZNSt8_Rb_treeINSt7__cxx1112basic_stringIcSt11char_traitsIcESaIcEEESt4pairIKS5_jESt10_Select1stIS8_ESt4lessIS5_ESaIS8_EE8_M_eraseEPSt13_Rb_tree_nodeIS8_E
@ Size: 0x234
@ - - - - - - - - - - - - - - - - - - - - - - - - - - - - - 

FUNC_BEGIN _ZNSt8_Rb_treeINSt7__cxx1112basic_stringIcSt11char_traitsIcESaIcEEESt4pairIKS5_jESt10_Select1stIS8_ESt4lessIS5_ESaIS8_EE8_M_eraseEPSt13_Rb_tree_nodeIS8_E
    /*00000000*/ MOV         IP, #16384                  @ 0x4000 
    /*00000004*/ PUSH        {R4, R5, R6, R7, R8, R9, SL, FP, LR} 
    /*00000008*/ SUB         IP, SP, IP 
    /*0000000c*/ STR         R0, [IP, #4040]             @ 0xfc8 
    /*00000010*/ SUB         SP, SP, #20 
    /*00000014*/ SUBS        R3, R1, #0 
    /*00000018*/ STR         R3, [SP, #12] 
    /*0000001c*/ BEQ         _ZNSt8_Rb_treeINSt7__cxx1112basic_stringIcSt11char_traitsIcESaIcEEESt4pairIKS5_jESt10_Select1stIS8_ESt4lessIS5_ESaIS8_EE8_M_eraseEPSt13_Rb_tree_nodeIS8_E_x22c
    /*00000020*/ MOV         R5, R0 
    _ZNSt8_Rb_treeINSt7__cxx1112basic_stringIcSt11char_traitsIcESaIcEEESt4pairIKS5_jESt10_Select1stIS8_ESt4lessIS5_ESaIS8_EE8_M_eraseEPSt13_Rb_tree_nodeIS8_E_x24:
    /*00000024*/ LDR         R3, [R3, #12] 
    /*00000028*/ CMP         R3, #0 
    /*0000002c*/ STRNE       R3, [SP, #8] 
    /*00000030*/ BEQ         _ZNSt8_Rb_treeINSt7__cxx1112basic_stringIcSt11char_traitsIcESaIcEEESt4pairIKS5_jESt10_Select1stIS8_ESt4lessIS5_ESaIS8_EE8_M_eraseEPSt13_Rb_tree_nodeIS8_E_x1f8
    _ZNSt8_Rb_treeINSt7__cxx1112basic_stringIcSt11char_traitsIcESaIcEEESt4pairIKS5_jESt10_Select1stIS8_ESt4lessIS5_ESaIS8_EE8_M_eraseEPSt13_Rb_tree_nodeIS8_E_x34:
    /*00000034*/ LDR         R8, [R3, #12] 
    /*00000038*/ CMP         R8, #0 
    /*0000003c*/ STRNE       R8, [SP, #4] 
    /*00000040*/ MOVNE       R3, R8 
    /*00000044*/ BEQ         _ZNSt8_Rb_treeINSt7__cxx1112basic_stringIcSt11char_traitsIcESaIcEEESt4pairIKS5_jESt10_Select1stIS8_ESt4lessIS5_ESaIS8_EE8_M_eraseEPSt13_Rb_tree_nodeIS8_E_x1c4
    _ZNSt8_Rb_treeINSt7__cxx1112basic_stringIcSt11char_traitsIcESaIcEEESt4pairIKS5_jESt10_Select1stIS8_ESt4lessIS5_ESaIS8_EE8_M_eraseEPSt13_Rb_tree_nodeIS8_E_x48:
    /*00000048*/ LDR         R9, [R3, #12] 
    /*0000004c*/ CMP         R9, #0 
    /*00000050*/ BEQ         _ZNSt8_Rb_treeINSt7__cxx1112basic_stringIcSt11char_traitsIcESaIcEEESt4pairIKS5_jESt10_Select1stIS8_ESt4lessIS5_ESaIS8_EE8_M_eraseEPSt13_Rb_tree_nodeIS8_E_x190
    _ZNSt8_Rb_treeINSt7__cxx1112basic_stringIcSt11char_traitsIcESaIcEEESt4pairIKS5_jESt10_Select1stIS8_ESt4lessIS5_ESaIS8_EE8_M_eraseEPSt13_Rb_tree_nodeIS8_E_x54:
    /*00000054*/ LDR         SL, [R9, #12] 
    /*00000058*/ CMP         SL, #0 
    /*0000005c*/ BEQ         _ZNSt8_Rb_treeINSt7__cxx1112basic_stringIcSt11char_traitsIcESaIcEEESt4pairIKS5_jESt10_Select1stIS8_ESt4lessIS5_ESaIS8_EE8_M_eraseEPSt13_Rb_tree_nodeIS8_E_x168
    _ZNSt8_Rb_treeINSt7__cxx1112basic_stringIcSt11char_traitsIcESaIcEEESt4pairIKS5_jESt10_Select1stIS8_ESt4lessIS5_ESaIS8_EE8_M_eraseEPSt13_Rb_tree_nodeIS8_E_x60:
    /*00000060*/ LDR         FP, [SL, #12] 
    /*00000064*/ CMP         FP, #0 
    /*00000068*/ BEQ         _ZNSt8_Rb_treeINSt7__cxx1112basic_stringIcSt11char_traitsIcESaIcEEESt4pairIKS5_jESt10_Select1stIS8_ESt4lessIS5_ESaIS8_EE8_M_eraseEPSt13_Rb_tree_nodeIS8_E_x140
    _ZNSt8_Rb_treeINSt7__cxx1112basic_stringIcSt11char_traitsIcESaIcEEESt4pairIKS5_jESt10_Select1stIS8_ESt4lessIS5_ESaIS8_EE8_M_eraseEPSt13_Rb_tree_nodeIS8_E_x6c:
    /*0000006c*/ LDR         R7, [FP, #12] 
    /*00000070*/ CMP         R7, #0 
    /*00000074*/ BEQ         _ZNSt8_Rb_treeINSt7__cxx1112basic_stringIcSt11char_traitsIcESaIcEEESt4pairIKS5_jESt10_Select1stIS8_ESt4lessIS5_ESaIS8_EE8_M_eraseEPSt13_Rb_tree_nodeIS8_E_x118
    _ZNSt8_Rb_treeINSt7__cxx1112basic_stringIcSt11char_traitsIcESaIcEEESt4pairIKS5_jESt10_Select1stIS8_ESt4lessIS5_ESaIS8_EE8_M_eraseEPSt13_Rb_tree_nodeIS8_E_x78:
    /*00000078*/ LDR         R6, [R7, #12] 
    /*0000007c*/ CMP         R6, #0 
    /*00000080*/ BEQ         _ZNSt8_Rb_treeINSt7__cxx1112basic_stringIcSt11char_traitsIcESaIcEEESt4pairIKS5_jESt10_Select1stIS8_ESt4lessIS5_ESaIS8_EE8_M_eraseEPSt13_Rb_tree_nodeIS8_E_xf0
    _ZNSt8_Rb_treeINSt7__cxx1112basic_stringIcSt11char_traitsIcESaIcEEESt4pairIKS5_jESt10_Select1stIS8_ESt4lessIS5_ESaIS8_EE8_M_eraseEPSt13_Rb_tree_nodeIS8_E_x84:
    /*00000084*/ LDR         R3, [R6, #12] 
    /*00000088*/ CMP         R3, #0 
    /*0000008c*/ MOVNE       R8, R3 
    /*00000090*/ BEQ         _ZNSt8_Rb_treeINSt7__cxx1112basic_stringIcSt11char_traitsIcESaIcEEESt4pairIKS5_jESt10_Select1stIS8_ESt4lessIS5_ESaIS8_EE8_M_eraseEPSt13_Rb_tree_nodeIS8_E_xc8
    _ZNSt8_Rb_treeINSt7__cxx1112basic_stringIcSt11char_traitsIcESaIcEEESt4pairIKS5_jESt10_Select1stIS8_ESt4lessIS5_ESaIS8_EE8_M_eraseEPSt13_Rb_tree_nodeIS8_E_x94:
    /*00000094*/ LDR         R1, [R8, #12] 
    /*00000098*/ MOV         R0, R5 
    /*0000009c*/ BL          _ZNSt8_Rb_treeINSt7__cxx1112basic_stringIcSt11char_traitsIcESaIcEEESt4pairIKS5_jESt10_Select1stIS8_ESt4lessIS5_ESaIS8_EE8_M_eraseEPSt13_Rb_tree_nodeIS8_E
    /*000000a0*/ LDR         R0, [R8, #16] 
    /*000000a4*/ ADD         R2, R8, #24 
    /*000000a8*/ LDR         R4, [R8, #8] 
    /*000000ac*/ CMP         R0, R2 
    /*000000b0*/ BEQ         _ZNSt8_Rb_treeINSt7__cxx1112basic_stringIcSt11char_traitsIcESaIcEEESt4pairIKS5_jESt10_Select1stIS8_ESt4lessIS5_ESaIS8_EE8_M_eraseEPSt13_Rb_tree_nodeIS8_E_xb8
    /*000000b4*/ BL          _ZdlPv
    _ZNSt8_Rb_treeINSt7__cxx1112basic_stringIcSt11char_traitsIcESaIcEEESt4pairIKS5_jESt10_Select1stIS8_ESt4lessIS5_ESaIS8_EE8_M_eraseEPSt13_Rb_tree_nodeIS8_E_xb8:
    /*000000b8*/ MOV         R0, R8 
    /*000000bc*/ BL          _ZdlPv
    /*000000c0*/ SUBS        R8, R4, #0 
    /*000000c4*/ BNE         _ZNSt8_Rb_treeINSt7__cxx1112basic_stringIcSt11char_traitsIcESaIcEEESt4pairIKS5_jESt10_Select1stIS8_ESt4lessIS5_ESaIS8_EE8_M_eraseEPSt13_Rb_tree_nodeIS8_E_x94
    _ZNSt8_Rb_treeINSt7__cxx1112basic_stringIcSt11char_traitsIcESaIcEEESt4pairIKS5_jESt10_Select1stIS8_ESt4lessIS5_ESaIS8_EE8_M_eraseEPSt13_Rb_tree_nodeIS8_E_xc8:
    /*000000c8*/ LDR         R0, [R6, #16] 
    /*000000cc*/ ADD         R3, R6, #24 
    /*000000d0*/ LDR         R4, [R6, #8] 
    /*000000d4*/ CMP         R0, R3 
    /*000000d8*/ BEQ         _ZNSt8_Rb_treeINSt7__cxx1112basic_stringIcSt11char_traitsIcESaIcEEESt4pairIKS5_jESt10_Select1stIS8_ESt4lessIS5_ESaIS8_EE8_M_eraseEPSt13_Rb_tree_nodeIS8_E_xe0
    /*000000dc*/ BL          _ZdlPv
    _ZNSt8_Rb_treeINSt7__cxx1112basic_stringIcSt11char_traitsIcESaIcEEESt4pairIKS5_jESt10_Select1stIS8_ESt4lessIS5_ESaIS8_EE8_M_eraseEPSt13_Rb_tree_nodeIS8_E_xe0:
    /*000000e0*/ MOV         R0, R6 
    /*000000e4*/ BL          _ZdlPv
    /*000000e8*/ SUBS        R6, R4, #0 
    /*000000ec*/ BNE         _ZNSt8_Rb_treeINSt7__cxx1112basic_stringIcSt11char_traitsIcESaIcEEESt4pairIKS5_jESt10_Select1stIS8_ESt4lessIS5_ESaIS8_EE8_M_eraseEPSt13_Rb_tree_nodeIS8_E_x84
    _ZNSt8_Rb_treeINSt7__cxx1112basic_stringIcSt11char_traitsIcESaIcEEESt4pairIKS5_jESt10_Select1stIS8_ESt4lessIS5_ESaIS8_EE8_M_eraseEPSt13_Rb_tree_nodeIS8_E_xf0:
    /*000000f0*/ LDR         R0, [R7, #16] 
    /*000000f4*/ ADD         R3, R7, #24 
    /*000000f8*/ LDR         R4, [R7, #8] 
    /*000000fc*/ CMP         R0, R3 
    /*00000100*/ BEQ         _ZNSt8_Rb_treeINSt7__cxx1112basic_stringIcSt11char_traitsIcESaIcEEESt4pairIKS5_jESt10_Select1stIS8_ESt4lessIS5_ESaIS8_EE8_M_eraseEPSt13_Rb_tree_nodeIS8_E_x108
    /*00000104*/ BL          _ZdlPv
    _ZNSt8_Rb_treeINSt7__cxx1112basic_stringIcSt11char_traitsIcESaIcEEESt4pairIKS5_jESt10_Select1stIS8_ESt4lessIS5_ESaIS8_EE8_M_eraseEPSt13_Rb_tree_nodeIS8_E_x108:
    /*00000108*/ MOV         R0, R7 
    /*0000010c*/ BL          _ZdlPv
    /*00000110*/ SUBS        R7, R4, #0 
    /*00000114*/ BNE         _ZNSt8_Rb_treeINSt7__cxx1112basic_stringIcSt11char_traitsIcESaIcEEESt4pairIKS5_jESt10_Select1stIS8_ESt4lessIS5_ESaIS8_EE8_M_eraseEPSt13_Rb_tree_nodeIS8_E_x78
    _ZNSt8_Rb_treeINSt7__cxx1112basic_stringIcSt11char_traitsIcESaIcEEESt4pairIKS5_jESt10_Select1stIS8_ESt4lessIS5_ESaIS8_EE8_M_eraseEPSt13_Rb_tree_nodeIS8_E_x118:
    /*00000118*/ LDR         R0, [FP, #16] 
    /*0000011c*/ ADD         R3, FP, #24 
    /*00000120*/ LDR         R4, [FP, #8] 
    /*00000124*/ CMP         R0, R3 
    /*00000128*/ BEQ         _ZNSt8_Rb_treeINSt7__cxx1112basic_stringIcSt11char_traitsIcESaIcEEESt4pairIKS5_jESt10_Select1stIS8_ESt4lessIS5_ESaIS8_EE8_M_eraseEPSt13_Rb_tree_nodeIS8_E_x130
    /*0000012c*/ BL          _ZdlPv
    _ZNSt8_Rb_treeINSt7__cxx1112basic_stringIcSt11char_traitsIcESaIcEEESt4pairIKS5_jESt10_Select1stIS8_ESt4lessIS5_ESaIS8_EE8_M_eraseEPSt13_Rb_tree_nodeIS8_E_x130:
    /*00000130*/ MOV         R0, FP 
    /*00000134*/ BL          _ZdlPv
    /*00000138*/ SUBS        FP, R4, #0 
    /*0000013c*/ BNE         _ZNSt8_Rb_treeINSt7__cxx1112basic_stringIcSt11char_traitsIcESaIcEEESt4pairIKS5_jESt10_Select1stIS8_ESt4lessIS5_ESaIS8_EE8_M_eraseEPSt13_Rb_tree_nodeIS8_E_x6c
    _ZNSt8_Rb_treeINSt7__cxx1112basic_stringIcSt11char_traitsIcESaIcEEESt4pairIKS5_jESt10_Select1stIS8_ESt4lessIS5_ESaIS8_EE8_M_eraseEPSt13_Rb_tree_nodeIS8_E_x140:
    /*00000140*/ LDR         R0, [SL, #16] 
    /*00000144*/ ADD         R3, SL, #24 
    /*00000148*/ LDR         R4, [SL, #8] 
    /*0000014c*/ CMP         R0, R3 
    /*00000150*/ BEQ         _ZNSt8_Rb_treeINSt7__cxx1112basic_stringIcSt11char_traitsIcESaIcEEESt4pairIKS5_jESt10_Select1stIS8_ESt4lessIS5_ESaIS8_EE8_M_eraseEPSt13_Rb_tree_nodeIS8_E_x158
    /*00000154*/ BL          _ZdlPv
    _ZNSt8_Rb_treeINSt7__cxx1112basic_stringIcSt11char_traitsIcESaIcEEESt4pairIKS5_jESt10_Select1stIS8_ESt4lessIS5_ESaIS8_EE8_M_eraseEPSt13_Rb_tree_nodeIS8_E_x158:
    /*00000158*/ MOV         R0, SL 
    /*0000015c*/ BL          _ZdlPv
    /*00000160*/ SUBS        SL, R4, #0 
    /*00000164*/ BNE         _ZNSt8_Rb_treeINSt7__cxx1112basic_stringIcSt11char_traitsIcESaIcEEESt4pairIKS5_jESt10_Select1stIS8_ESt4lessIS5_ESaIS8_EE8_M_eraseEPSt13_Rb_tree_nodeIS8_E_x60
    _ZNSt8_Rb_treeINSt7__cxx1112basic_stringIcSt11char_traitsIcESaIcEEESt4pairIKS5_jESt10_Select1stIS8_ESt4lessIS5_ESaIS8_EE8_M_eraseEPSt13_Rb_tree_nodeIS8_E_x168:
    /*00000168*/ LDR         R0, [R9, #16] 
    /*0000016c*/ ADD         R3, R9, #24 
    /*00000170*/ LDR         R4, [R9, #8] 
    /*00000174*/ CMP         R0, R3 
    /*00000178*/ BEQ         _ZNSt8_Rb_treeINSt7__cxx1112basic_stringIcSt11char_traitsIcESaIcEEESt4pairIKS5_jESt10_Select1stIS8_ESt4lessIS5_ESaIS8_EE8_M_eraseEPSt13_Rb_tree_nodeIS8_E_x180
    /*0000017c*/ BL          _ZdlPv
    _ZNSt8_Rb_treeINSt7__cxx1112basic_stringIcSt11char_traitsIcESaIcEEESt4pairIKS5_jESt10_Select1stIS8_ESt4lessIS5_ESaIS8_EE8_M_eraseEPSt13_Rb_tree_nodeIS8_E_x180:
    /*00000180*/ MOV         R0, R9 
    /*00000184*/ BL          _ZdlPv
    /*00000188*/ SUBS        R9, R4, #0 
    /*0000018c*/ BNE         _ZNSt8_Rb_treeINSt7__cxx1112basic_stringIcSt11char_traitsIcESaIcEEESt4pairIKS5_jESt10_Select1stIS8_ESt4lessIS5_ESaIS8_EE8_M_eraseEPSt13_Rb_tree_nodeIS8_E_x54
    _ZNSt8_Rb_treeINSt7__cxx1112basic_stringIcSt11char_traitsIcESaIcEEESt4pairIKS5_jESt10_Select1stIS8_ESt4lessIS5_ESaIS8_EE8_M_eraseEPSt13_Rb_tree_nodeIS8_E_x190:
    /*00000190*/ LDR         R2, [SP, #4] 
    /*00000194*/ LDR         R0, [R2, #16] 
    /*00000198*/ ADD         R3, R2, #24 
    /*0000019c*/ LDR         R4, [R2, #8] 
    /*000001a0*/ CMP         R0, R3 
    /*000001a4*/ MOVEQ       R0, R2 
    /*000001a8*/ BEQ         _ZNSt8_Rb_treeINSt7__cxx1112basic_stringIcSt11char_traitsIcESaIcEEESt4pairIKS5_jESt10_Select1stIS8_ESt4lessIS5_ESaIS8_EE8_M_eraseEPSt13_Rb_tree_nodeIS8_E_x1b4
    /*000001ac*/ BL          _ZdlPv
    /*000001b0*/ LDR         R0, [SP, #4] 
    _ZNSt8_Rb_treeINSt7__cxx1112basic_stringIcSt11char_traitsIcESaIcEEESt4pairIKS5_jESt10_Select1stIS8_ESt4lessIS5_ESaIS8_EE8_M_eraseEPSt13_Rb_tree_nodeIS8_E_x1b4:
    /*000001b4*/ BL          _ZdlPv
    /*000001b8*/ SUBS        R3, R4, #0 
    /*000001bc*/ STR         R3, [SP, #4] 
    /*000001c0*/ BNE         _ZNSt8_Rb_treeINSt7__cxx1112basic_stringIcSt11char_traitsIcESaIcEEESt4pairIKS5_jESt10_Select1stIS8_ESt4lessIS5_ESaIS8_EE8_M_eraseEPSt13_Rb_tree_nodeIS8_E_x48
    _ZNSt8_Rb_treeINSt7__cxx1112basic_stringIcSt11char_traitsIcESaIcEEESt4pairIKS5_jESt10_Select1stIS8_ESt4lessIS5_ESaIS8_EE8_M_eraseEPSt13_Rb_tree_nodeIS8_E_x1c4:
    /*000001c4*/ LDR         R2, [SP, #8] 
    /*000001c8*/ LDR         R0, [R2, #16] 
    /*000001cc*/ ADD         R3, R2, #24 
    /*000001d0*/ LDR         R4, [R2, #8] 
    /*000001d4*/ CMP         R0, R3 
    /*000001d8*/ MOVEQ       R0, R2 
    /*000001dc*/ BEQ         _ZNSt8_Rb_treeINSt7__cxx1112basic_stringIcSt11char_traitsIcESaIcEEESt4pairIKS5_jESt10_Select1stIS8_ESt4lessIS5_ESaIS8_EE8_M_eraseEPSt13_Rb_tree_nodeIS8_E_x1e8
    /*000001e0*/ BL          _ZdlPv
    /*000001e4*/ LDR         R0, [SP, #8] 
    _ZNSt8_Rb_treeINSt7__cxx1112basic_stringIcSt11char_traitsIcESaIcEEESt4pairIKS5_jESt10_Select1stIS8_ESt4lessIS5_ESaIS8_EE8_M_eraseEPSt13_Rb_tree_nodeIS8_E_x1e8:
    /*000001e8*/ BL          _ZdlPv
    /*000001ec*/ SUBS        R3, R4, #0 
    /*000001f0*/ STR         R3, [SP, #8] 
    /*000001f4*/ BNE         _ZNSt8_Rb_treeINSt7__cxx1112basic_stringIcSt11char_traitsIcESaIcEEESt4pairIKS5_jESt10_Select1stIS8_ESt4lessIS5_ESaIS8_EE8_M_eraseEPSt13_Rb_tree_nodeIS8_E_x34
    _ZNSt8_Rb_treeINSt7__cxx1112basic_stringIcSt11char_traitsIcESaIcEEESt4pairIKS5_jESt10_Select1stIS8_ESt4lessIS5_ESaIS8_EE8_M_eraseEPSt13_Rb_tree_nodeIS8_E_x1f8:
    /*000001f8*/ LDR         R2, [SP, #12] 
    /*000001fc*/ LDR         R0, [R2, #16] 
    /*00000200*/ ADD         R3, R2, #24 
    /*00000204*/ LDR         R4, [R2, #8] 
    /*00000208*/ CMP         R0, R3 
    /*0000020c*/ MOVEQ       R0, R2 
    /*00000210*/ BEQ         _ZNSt8_Rb_treeINSt7__cxx1112basic_stringIcSt11char_traitsIcESaIcEEESt4pairIKS5_jESt10_Select1stIS8_ESt4lessIS5_ESaIS8_EE8_M_eraseEPSt13_Rb_tree_nodeIS8_E_x21c
    /*00000214*/ BL          _ZdlPv
    /*00000218*/ LDR         R0, [SP, #12] 
    _ZNSt8_Rb_treeINSt7__cxx1112basic_stringIcSt11char_traitsIcESaIcEEESt4pairIKS5_jESt10_Select1stIS8_ESt4lessIS5_ESaIS8_EE8_M_eraseEPSt13_Rb_tree_nodeIS8_E_x21c:
    /*0000021c*/ BL          _ZdlPv
    /*00000220*/ SUBS        R3, R4, #0 
    /*00000224*/ STR         R3, [SP, #12] 
    /*00000228*/ BNE         _ZNSt8_Rb_treeINSt7__cxx1112basic_stringIcSt11char_traitsIcESaIcEEESt4pairIKS5_jESt10_Select1stIS8_ESt4lessIS5_ESaIS8_EE8_M_eraseEPSt13_Rb_tree_nodeIS8_E_x24
    _ZNSt8_Rb_treeINSt7__cxx1112basic_stringIcSt11char_traitsIcESaIcEEESt4pairIKS5_jESt10_Select1stIS8_ESt4lessIS5_ESaIS8_EE8_M_eraseEPSt13_Rb_tree_nodeIS8_E_x22c:
    /*0000022c*/ ADD         SP, SP, #20 
    /*00000230*/ POP         {R4, R5, R6, R7, R8, R9, SL, FP, PC} 
FUNC_END _ZNSt8_Rb_treeINSt7__cxx1112basic_stringIcSt11char_traitsIcESaIcEEESt4pairIKS5_jESt10_Select1stIS8_ESt4lessIS5_ESaIS8_EE8_M_eraseEPSt13_Rb_tree_nodeIS8_E


@ - - - - - - - - - - - - - - - - - - - - - - - - - - - - - 
@ .text._ZNSt6vectorIPN4hirt10ModelGroupESaIS2_EE19_M_emplace_back_auxIJRKS2_EEEvDpOT_
@ Size: 0xd4
@ - - - - - - - - - - - - - - - - - - - - - - - - - - - - - 

FUNC_BEGIN _ZNSt6vectorIPN4hirt10ModelGroupESaIS2_EE19_M_emplace_back_auxIJRKS2_EEEvDpOT_
    /*00000000*/ MOV         IP, #16384                  @ 0x4000 
    /*00000004*/ PUSH        {R4, R5, R6, R7, R8, R9, SL, LR} 
    /*00000008*/ SUB         IP, SP, IP 
    /*0000000c*/ STR         R0, [IP, #4064]             @ 0xfe0 
    /*00000010*/ LDM         R0, {R2, R3} 
    /*00000014*/ MOV         R6, R0 
    /*00000018*/ MOV         R9, R1 
    /*0000001c*/ SUB         R3, R3, R2 
    /*00000020*/ ASRS        R3, R3, #2 
    /*00000024*/ BEQ         _ZNSt6vectorIPN4hirt10ModelGroupESaIS2_EE19_M_emplace_back_auxIJRKS2_EEEvDpOT__x3c
    /*00000028*/ LSL         R5, R3, #1 
    /*0000002c*/ CMP         R3, R5 
    /*00000030*/ BLS         _ZNSt6vectorIPN4hirt10ModelGroupESaIS2_EE19_M_emplace_back_auxIJRKS2_EEEvDpOT__xb8
    _ZNSt6vectorIPN4hirt10ModelGroupESaIS2_EE19_M_emplace_back_auxIJRKS2_EEEvDpOT__x34:
    /*00000034*/ MVN         R5, #3 
    /*00000038*/ B           _ZNSt6vectorIPN4hirt10ModelGroupESaIS2_EE19_M_emplace_back_auxIJRKS2_EEEvDpOT__x40
    _ZNSt6vectorIPN4hirt10ModelGroupESaIS2_EE19_M_emplace_back_auxIJRKS2_EEEvDpOT__x3c:
    /*0000003c*/ MOV         R5, #4 
    _ZNSt6vectorIPN4hirt10ModelGroupESaIS2_EE19_M_emplace_back_auxIJRKS2_EEEvDpOT__x40:
    /*00000040*/ MOV         R0, R5 
    /*00000044*/ BL          _Znwj
    /*00000048*/ MOV         R7, R0 
    _ZNSt6vectorIPN4hirt10ModelGroupESaIS2_EE19_M_emplace_back_auxIJRKS2_EEEvDpOT__x4c:
    /*0000004c*/ LDR         R8, [R6] 
    /*00000050*/ LDR         R4, [R6, #4] 
    /*00000054*/ LDR         R2, [R9] 
    /*00000058*/ SUB         R4, R4, R8 
    /*0000005c*/ CMN         R7, R4 
    /*00000060*/ ASR         R3, R4, #2 
    /*00000064*/ STRNE       R2, [R7, R4] 
    /*00000068*/ CMP         R3, #0 
    /*0000006c*/ BNE         _ZNSt6vectorIPN4hirt10ModelGroupESaIS2_EE19_M_emplace_back_auxIJRKS2_EEEvDpOT__x9c
    /*00000070*/ CMP         R8, #0 
    /*00000074*/ ADD         R4, R4, #4 
    /*00000078*/ ADD         R4, R7, R4 
    /*0000007c*/ BEQ         _ZNSt6vectorIPN4hirt10ModelGroupESaIS2_EE19_M_emplace_back_auxIJRKS2_EEEvDpOT__x88
    _ZNSt6vectorIPN4hirt10ModelGroupESaIS2_EE19_M_emplace_back_auxIJRKS2_EEEvDpOT__x80:
    /*00000080*/ MOV         R0, R8 
    /*00000084*/ BL          _ZdlPv
    _ZNSt6vectorIPN4hirt10ModelGroupESaIS2_EE19_M_emplace_back_auxIJRKS2_EEEvDpOT__x88:
    /*00000088*/ ADD         R5, R7, R5 
    /*0000008c*/ STR         R5, [R6, #8] 
    /*00000090*/ STR         R7, [R6] 
    /*00000094*/ STR         R4, [R6, #4] 
    /*00000098*/ POP         {R4, R5, R6, R7, R8, R9, SL, PC} 
    _ZNSt6vectorIPN4hirt10ModelGroupESaIS2_EE19_M_emplace_back_auxIJRKS2_EEEvDpOT__x9c:
    /*0000009c*/ MOV         R2, R4 
    /*000000a0*/ MOV         R1, R8 
    /*000000a4*/ MOV         R0, R7 
    /*000000a8*/ ADD         R4, R4, #4 
    /*000000ac*/ ADD         R4, R7, R4 
    /*000000b0*/ BL          memmove
    /*000000b4*/ B           _ZNSt6vectorIPN4hirt10ModelGroupESaIS2_EE19_M_emplace_back_auxIJRKS2_EEEvDpOT__x80
    _ZNSt6vectorIPN4hirt10ModelGroupESaIS2_EE19_M_emplace_back_auxIJRKS2_EEEvDpOT__xb8:
    /*000000b8*/ CMN         R5, #-1073741823            @ 0xc0000001 
    /*000000bc*/ BHI         _ZNSt6vectorIPN4hirt10ModelGroupESaIS2_EE19_M_emplace_back_auxIJRKS2_EEEvDpOT__x34
    /*000000c0*/ CMP         R5, #0 
    /*000000c4*/ LSLNE       R5, R3, #3 
    /*000000c8*/ BNE         _ZNSt6vectorIPN4hirt10ModelGroupESaIS2_EE19_M_emplace_back_auxIJRKS2_EEEvDpOT__x40
    /*000000cc*/ MOV         R7, R5 
    /*000000d0*/ B           _ZNSt6vectorIPN4hirt10ModelGroupESaIS2_EE19_M_emplace_back_auxIJRKS2_EEEvDpOT__x4c
FUNC_END _ZNSt6vectorIPN4hirt10ModelGroupESaIS2_EE19_M_emplace_back_auxIJRKS2_EEEvDpOT_


@ - - - - - - - - - - - - - - - - - - - - - - - - - - - - - 
@ .text._ZNSt6vectorIPN4hirt9OperationESaIS2_EE15_M_range_insertIN9__gnu_cxx17__normal_iteratorIPS2_S4_EEEEvS9_T_SA_St20forward_iterator_tag
@ Size: 0x270
@ - - - - - - - - - - - - - - - - - - - - - - - - - - - - - 

FUNC_BEGIN _ZNSt6vectorIPN4hirt9OperationESaIS2_EE15_M_range_insertIN9__gnu_cxx17__normal_iteratorIPS2_S4_EEEEvS9_T_SA_St20forward_iterator_tag
    /*00000000*/ CMP         R3, R2 
    /*00000004*/ BXEQ        LR 
    /*00000008*/ MOV         IP, #16384                  @ 0x4000 
    /*0000000c*/ PUSH        {R4, R5, R6, R7, R8, R9, SL, FP, LR} 
    /*00000010*/ SUB         IP, SP, IP 
    /*00000014*/ STR         R0, [IP, #4048]             @ 0xfd0 
    /*00000018*/ LDMIB       R0, {R9, IP} 
    /*0000001c*/ SUB         R8, R3, R2 
    /*00000020*/ SUB         SP, SP, #12 
    /*00000024*/ SUB         IP, IP, R9 
    /*00000028*/ MOV         R7, R1 
    /*0000002c*/ ASR         R5, R8, #2 
    /*00000030*/ MOV         R4, R0 
    /*00000034*/ CMP         R5, IP, ASR #2 
    /*00000038*/ MOV         R6, R2 
    /*0000003c*/ MOV         SL, R9 
    /*00000040*/ BHI         _ZNSt6vectorIPN4hirt9OperationESaIS2_EE15_M_range_insertIN9__gnu_cxx17__normal_iteratorIPS2_S4_EEEEvS9_T_SA_St20forward_iterator_tag_xb8
    /*00000044*/ SUB         SL, R9, R1 
    /*00000048*/ ASR         FP, SL, #2 
    /*0000004c*/ CMP         R5, FP 
    /*00000050*/ BCC         _ZNSt6vectorIPN4hirt9OperationESaIS2_EE15_M_range_insertIN9__gnu_cxx17__normal_iteratorIPS2_S4_EEEEvS9_T_SA_St20forward_iterator_tag_x88
    /*00000054*/ ADD         R1, R2, SL 
    /*00000058*/ SUB         R2, R3, R1 
    /*0000005c*/ LSRS        R3, R2, #2 
    /*00000060*/ BNE         _ZNSt6vectorIPN4hirt9OperationESaIS2_EE15_M_range_insertIN9__gnu_cxx17__normal_iteratorIPS2_S4_EEEEvS9_T_SA_St20forward_iterator_tag_x198
    _ZNSt6vectorIPN4hirt9OperationESaIS2_EE15_M_range_insertIN9__gnu_cxx17__normal_iteratorIPS2_S4_EEEEvS9_T_SA_St20forward_iterator_tag_x64:
    /*00000064*/ SUB         R0, R5, FP 
    /*00000068*/ CMP         FP, #0 
    /*0000006c*/ ADD         R0, R9, R0, LSL #2 
    /*00000070*/ STR         R0, [R4, #4] 
    /*00000074*/ ADDEQ       R0, R0, SL 
    /*00000078*/ STREQ       R0, [R4, #4] 
    /*0000007c*/ BNE         _ZNSt6vectorIPN4hirt9OperationESaIS2_EE15_M_range_insertIN9__gnu_cxx17__normal_iteratorIPS2_S4_EEEEvS9_T_SA_St20forward_iterator_tag_x168
    _ZNSt6vectorIPN4hirt9OperationESaIS2_EE15_M_range_insertIN9__gnu_cxx17__normal_iteratorIPS2_S4_EEEEvS9_T_SA_St20forward_iterator_tag_x80:
    /*00000080*/ ADD         SP, SP, #12 
    /*00000084*/ POP         {R4, R5, R6, R7, R8, R9, SL, FP, PC} 
    _ZNSt6vectorIPN4hirt9OperationESaIS2_EE15_M_range_insertIN9__gnu_cxx17__normal_iteratorIPS2_S4_EEEEvS9_T_SA_St20forward_iterator_tag_x88:
    /*00000088*/ SUB         SL, R9, R8 
    /*0000008c*/ CMP         R5, #0 
    /*00000090*/ BNE         _ZNSt6vectorIPN4hirt9OperationESaIS2_EE15_M_range_insertIN9__gnu_cxx17__normal_iteratorIPS2_S4_EEEEvS9_T_SA_St20forward_iterator_tag_x1a8
    /*00000094*/ SUB         R2, SL, R1 
    /*00000098*/ LSRS        R3, R2, #2 
    /*0000009c*/ ADD         R8, R9, R8 
    /*000000a0*/ STR         R8, [R0, #4] 
    /*000000a4*/ SUBNE       R0, R9, R2 
    /*000000a8*/ BEQ         _ZNSt6vectorIPN4hirt9OperationESaIS2_EE15_M_range_insertIN9__gnu_cxx17__normal_iteratorIPS2_S4_EEEEvS9_T_SA_St20forward_iterator_tag_x80
    /*000000ac*/ ADD         SP, SP, #12 
    /*000000b0*/ POP         {R4, R5, R6, R7, R8, R9, SL, FP, LR} 
    _ZNSt6vectorIPN4hirt9OperationESaIS2_EE15_M_range_insertIN9__gnu_cxx17__normal_iteratorIPS2_S4_EEEEvS9_T_SA_St20forward_iterator_tag_xb4:
    /*000000b4*/ B           _ZNSt6vectorIPN4hirt9OperationESaIS2_EE15_M_range_insertIN9__gnu_cxx17__normal_iteratorIPS2_S4_EEEEvS9_T_SA_St20forward_iterator_tag_xb4@ memmove [R_ARM_JUMP24: +0x0] 
    _ZNSt6vectorIPN4hirt9OperationESaIS2_EE15_M_range_insertIN9__gnu_cxx17__normal_iteratorIPS2_S4_EEEEvS9_T_SA_St20forward_iterator_tag_xb8:
    /*000000b8*/ LDR         FP, [R0] 
    /*000000bc*/ MOVW        R3, #65535                  @ 0xffff 
    /*000000c0*/ MOVT        R3, #16383                  @ 0x3fff 
    /*000000c4*/ SUB         R2, R9, FP 
    /*000000c8*/ ASR         R2, R2, #2 
    /*000000cc*/ SUB         R3, R3, R2 
    /*000000d0*/ CMP         R3, R5 
    /*000000d4*/ BCC         _ZNSt6vectorIPN4hirt9OperationESaIS2_EE15_M_range_insertIN9__gnu_cxx17__normal_iteratorIPS2_S4_EEEEvS9_T_SA_St20forward_iterator_tag_x24c
    /*000000d8*/ CMP         R5, R2 
    /*000000dc*/ ADDCS       R3, R2, R5 
    /*000000e0*/ ADDCC       R3, R2, R2 
    /*000000e4*/ CMN         R3, #-1073741823            @ 0xc0000001 
    /*000000e8*/ CMPLS       R2, R3 
    /*000000ec*/ BLS         _ZNSt6vectorIPN4hirt9OperationESaIS2_EE15_M_range_insertIN9__gnu_cxx17__normal_iteratorIPS2_S4_EEEEvS9_T_SA_St20forward_iterator_tag_x238
    /*000000f0*/ MVN         R9, #3 
    _ZNSt6vectorIPN4hirt9OperationESaIS2_EE15_M_range_insertIN9__gnu_cxx17__normal_iteratorIPS2_S4_EEEEvS9_T_SA_St20forward_iterator_tag_xf4:
    /*000000f4*/ MOV         R0, R9 
    /*000000f8*/ BL          _Znwj
    /*000000fc*/ LDR         FP, [R4] 
    /*00000100*/ MOV         R3, R0 
    /*00000104*/ LDR         SL, [R4, #4] 
    /*00000108*/ ADD         R2, R0, R9 
    /*0000010c*/ STR         R2, [SP] 
    _ZNSt6vectorIPN4hirt9OperationESaIS2_EE15_M_range_insertIN9__gnu_cxx17__normal_iteratorIPS2_S4_EEEEvS9_T_SA_St20forward_iterator_tag_x110:
    /*00000110*/ SUB         R9, R7, FP 
    /*00000114*/ LSRS        R2, R9, #2 
    /*00000118*/ BNE         _ZNSt6vectorIPN4hirt9OperationESaIS2_EE15_M_range_insertIN9__gnu_cxx17__normal_iteratorIPS2_S4_EEEEvS9_T_SA_St20forward_iterator_tag_x220
    _ZNSt6vectorIPN4hirt9OperationESaIS2_EE15_M_range_insertIN9__gnu_cxx17__normal_iteratorIPS2_S4_EEEEvS9_T_SA_St20forward_iterator_tag_x11c:
    /*0000011c*/ ADD         R9, R3, R9 
    /*00000120*/ CMP         R5, #0 
    /*00000124*/ BNE         _ZNSt6vectorIPN4hirt9OperationESaIS2_EE15_M_range_insertIN9__gnu_cxx17__normal_iteratorIPS2_S4_EEEEvS9_T_SA_St20forward_iterator_tag_x204
    _ZNSt6vectorIPN4hirt9OperationESaIS2_EE15_M_range_insertIN9__gnu_cxx17__normal_iteratorIPS2_S4_EEEEvS9_T_SA_St20forward_iterator_tag_x128:
    /*00000128*/ SUB         SL, SL, R7 
    /*0000012c*/ LSRS        R2, SL, #2 
    /*00000130*/ ADD         R9, R9, R8 
    /*00000134*/ BNE         _ZNSt6vectorIPN4hirt9OperationESaIS2_EE15_M_range_insertIN9__gnu_cxx17__normal_iteratorIPS2_S4_EEEEvS9_T_SA_St20forward_iterator_tag_x1e8
    _ZNSt6vectorIPN4hirt9OperationESaIS2_EE15_M_range_insertIN9__gnu_cxx17__normal_iteratorIPS2_S4_EEEEvS9_T_SA_St20forward_iterator_tag_x138:
    /*00000138*/ ADD         R9, R9, SL 
    /*0000013c*/ CMP         FP, #0 
    /*00000140*/ BEQ         _ZNSt6vectorIPN4hirt9OperationESaIS2_EE15_M_range_insertIN9__gnu_cxx17__normal_iteratorIPS2_S4_EEEEvS9_T_SA_St20forward_iterator_tag_x154
    /*00000144*/ STR         R3, [SP, #4] 
    /*00000148*/ MOV         R0, FP 
    /*0000014c*/ BL          _ZdlPv
    /*00000150*/ LDR         R3, [SP, #4] 
    _ZNSt6vectorIPN4hirt9OperationESaIS2_EE15_M_range_insertIN9__gnu_cxx17__normal_iteratorIPS2_S4_EEEEvS9_T_SA_St20forward_iterator_tag_x154:
    /*00000154*/ STM         R4, {R3, R9} 
    /*00000158*/ LDR         R3, [SP] 
    /*0000015c*/ STR         R3, [R4, #8] 
    /*00000160*/ ADD         SP, SP, #12 
    /*00000164*/ POP         {R4, R5, R6, R7, R8, R9, SL, FP, PC} 
    _ZNSt6vectorIPN4hirt9OperationESaIS2_EE15_M_range_insertIN9__gnu_cxx17__normal_iteratorIPS2_S4_EEEEvS9_T_SA_St20forward_iterator_tag_x168:
    /*00000168*/ MOV         R2, SL 
    /*0000016c*/ MOV         R1, R7 
    /*00000170*/ BL          memmove
    /*00000174*/ LDR         R3, [R4, #4] 
    /*00000178*/ MOV         R1, R6 
    /*0000017c*/ MOV         R0, R7 
    /*00000180*/ MOV         R2, SL 
    /*00000184*/ ADD         R3, R3, SL 
    /*00000188*/ STR         R3, [R4, #4] 
    /*0000018c*/ ADD         SP, SP, #12 
    /*00000190*/ POP         {R4, R5, R6, R7, R8, R9, SL, FP, LR} 
    _ZNSt6vectorIPN4hirt9OperationESaIS2_EE15_M_range_insertIN9__gnu_cxx17__normal_iteratorIPS2_S4_EEEEvS9_T_SA_St20forward_iterator_tag_x194:
    /*00000194*/ B           _ZNSt6vectorIPN4hirt9OperationESaIS2_EE15_M_range_insertIN9__gnu_cxx17__normal_iteratorIPS2_S4_EEEEvS9_T_SA_St20forward_iterator_tag_x194@ memmove [R_ARM_JUMP24: +0x0] 
    _ZNSt6vectorIPN4hirt9OperationESaIS2_EE15_M_range_insertIN9__gnu_cxx17__normal_iteratorIPS2_S4_EEEEvS9_T_SA_St20forward_iterator_tag_x198:
    /*00000198*/ MOV         R0, R9 
    /*0000019c*/ BL          memmove
    /*000001a0*/ LDR         R9, [R4, #4] 
    /*000001a4*/ B           _ZNSt6vectorIPN4hirt9OperationESaIS2_EE15_M_range_insertIN9__gnu_cxx17__normal_iteratorIPS2_S4_EEEEvS9_T_SA_St20forward_iterator_tag_x64
    _ZNSt6vectorIPN4hirt9OperationESaIS2_EE15_M_range_insertIN9__gnu_cxx17__normal_iteratorIPS2_S4_EEEEvS9_T_SA_St20forward_iterator_tag_x1a8:
    /*000001a8*/ MOV         R2, R8 
    /*000001ac*/ MOV         R1, SL 
    /*000001b0*/ SUB         SL, SL, R7 
    /*000001b4*/ MOV         R0, R9 
    /*000001b8*/ BL          memmove
    /*000001bc*/ LDR         R3, [R4, #4] 
    /*000001c0*/ LSRS        R2, SL, #2 
    /*000001c4*/ ADD         R3, R3, R8 
    /*000001c8*/ STR         R3, [R4, #4] 
    /*000001cc*/ BNE         _ZNSt6vectorIPN4hirt9OperationESaIS2_EE15_M_range_insertIN9__gnu_cxx17__normal_iteratorIPS2_S4_EEEEvS9_T_SA_St20forward_iterator_tag_x258
    _ZNSt6vectorIPN4hirt9OperationESaIS2_EE15_M_range_insertIN9__gnu_cxx17__normal_iteratorIPS2_S4_EEEEvS9_T_SA_St20forward_iterator_tag_x1d0:
    /*000001d0*/ MOV         R2, R8 
    /*000001d4*/ MOV         R1, R6 
    /*000001d8*/ MOV         R0, R7 
    /*000001dc*/ ADD         SP, SP, #12 
    /*000001e0*/ POP         {R4, R5, R6, R7, R8, R9, SL, FP, LR} 
    _ZNSt6vectorIPN4hirt9OperationESaIS2_EE15_M_range_insertIN9__gnu_cxx17__normal_iteratorIPS2_S4_EEEEvS9_T_SA_St20forward_iterator_tag_x1e4:
    /*000001e4*/ B           _ZNSt6vectorIPN4hirt9OperationESaIS2_EE15_M_range_insertIN9__gnu_cxx17__normal_iteratorIPS2_S4_EEEEvS9_T_SA_St20forward_iterator_tag_x1e4@ memmove [R_ARM_JUMP24: +0x0] 
    _ZNSt6vectorIPN4hirt9OperationESaIS2_EE15_M_range_insertIN9__gnu_cxx17__normal_iteratorIPS2_S4_EEEEvS9_T_SA_St20forward_iterator_tag_x1e8:
    /*000001e8*/ STR         R3, [SP, #4] 
    /*000001ec*/ MOV         R1, R7 
    /*000001f0*/ MOV         R2, SL 
    /*000001f4*/ MOV         R0, R9 
    /*000001f8*/ BL          memcpy
    /*000001fc*/ LDR         R3, [SP, #4] 
    /*00000200*/ B           _ZNSt6vectorIPN4hirt9OperationESaIS2_EE15_M_range_insertIN9__gnu_cxx17__normal_iteratorIPS2_S4_EEEEvS9_T_SA_St20forward_iterator_tag_x138
    _ZNSt6vectorIPN4hirt9OperationESaIS2_EE15_M_range_insertIN9__gnu_cxx17__normal_iteratorIPS2_S4_EEEEvS9_T_SA_St20forward_iterator_tag_x204:
    /*00000204*/ STR         R3, [SP, #4] 
    /*00000208*/ MOV         R1, R6 
    /*0000020c*/ MOV         R2, R8 
    /*00000210*/ MOV         R0, R9 
    /*00000214*/ BL          memcpy
    /*00000218*/ LDR         R3, [SP, #4] 
    /*0000021c*/ B           _ZNSt6vectorIPN4hirt9OperationESaIS2_EE15_M_range_insertIN9__gnu_cxx17__normal_iteratorIPS2_S4_EEEEvS9_T_SA_St20forward_iterator_tag_x128
    _ZNSt6vectorIPN4hirt9OperationESaIS2_EE15_M_range_insertIN9__gnu_cxx17__normal_iteratorIPS2_S4_EEEEvS9_T_SA_St20forward_iterator_tag_x220:
    /*00000220*/ MOV         R0, R3 
    /*00000224*/ MOV         R2, R9 
    /*00000228*/ MOV         R1, FP 
    /*0000022c*/ BL          memmove
    /*00000230*/ MOV         R3, R0 
    /*00000234*/ B           _ZNSt6vectorIPN4hirt9OperationESaIS2_EE15_M_range_insertIN9__gnu_cxx17__normal_iteratorIPS2_S4_EEEEvS9_T_SA_St20forward_iterator_tag_x11c
    _ZNSt6vectorIPN4hirt9OperationESaIS2_EE15_M_range_insertIN9__gnu_cxx17__normal_iteratorIPS2_S4_EEEEvS9_T_SA_St20forward_iterator_tag_x238:
    /*00000238*/ CMP         R3, #0 
    /*0000023c*/ LSLNE       R9, R3, #2 
    /*00000240*/ BNE         _ZNSt6vectorIPN4hirt9OperationESaIS2_EE15_M_range_insertIN9__gnu_cxx17__normal_iteratorIPS2_S4_EEEEvS9_T_SA_St20forward_iterator_tag_xf4
    /*00000244*/ STR         R3, [SP] 
    /*00000248*/ B           _ZNSt6vectorIPN4hirt9OperationESaIS2_EE15_M_range_insertIN9__gnu_cxx17__normal_iteratorIPS2_S4_EEEEvS9_T_SA_St20forward_iterator_tag_x110
    _ZNSt6vectorIPN4hirt9OperationESaIS2_EE15_M_range_insertIN9__gnu_cxx17__normal_iteratorIPS2_S4_EEEEvS9_T_SA_St20forward_iterator_tag_x24c:
    /*0000024c*/ LDR         R0, WORD_026c               @ LDR         R0, [PC, #24]               @ 0x000000000000026c 
    /*00000250*/ ADD         R0, PC, R0 
    /*00000254*/ BL          _ZSt20__throw_length_errorPKc
    _ZNSt6vectorIPN4hirt9OperationESaIS2_EE15_M_range_insertIN9__gnu_cxx17__normal_iteratorIPS2_S4_EEEEvS9_T_SA_St20forward_iterator_tag_x258:
    /*00000258*/ SUB         R0, R9, SL 
    /*0000025c*/ MOV         R2, SL 
    /*00000260*/ MOV         R1, R7 
    /*00000264*/ BL          memmove
    /*00000268*/ B           _ZNSt6vectorIPN4hirt9OperationESaIS2_EE15_M_range_insertIN9__gnu_cxx17__normal_iteratorIPS2_S4_EEEEvS9_T_SA_St20forward_iterator_tag_x1d0
    /*0000026c*/ WORD_026c: .word 0x00000014
FUNC_END _ZNSt6vectorIPN4hirt9OperationESaIS2_EE15_M_range_insertIN9__gnu_cxx17__normal_iteratorIPS2_S4_EEEEvS9_T_SA_St20forward_iterator_tag


@ - - - - - - - - - - - - - - - - - - - - - - - - - - - - - 
@ .text._ZNSt6vectorINSt7__cxx1112basic_stringIcSt11char_traitsIcESaIcEEESaIS5_EE19_M_emplace_back_auxIJS5_EEEvDpOT_
@ Size: 0x1fc
@ - - - - - - - - - - - - - - - - - - - - - - - - - - - - - 

FUNC_BEGIN _ZNSt6vectorINSt7__cxx1112basic_stringIcSt11char_traitsIcESaIcEEESaIS5_EE19_M_emplace_back_auxIJS5_EEEvDpOT_
    /*00000000*/ MOV         IP, #16384                  @ 0x4000 
    /*00000004*/ PUSH        {R4, R5, R6, R7, R8, R9, SL, LR} 
    /*00000008*/ SUB         IP, SP, IP 
    /*0000000c*/ STR         R0, [IP, #4064]             @ 0xfe0 
    /*00000010*/ LDM         R0, {R3, SL} 
    /*00000014*/ MOV         R6, R0 
    /*00000018*/ MOVW        R2, #43691                  @ 0xaaab 
    /*0000001c*/ SUB         R0, SL, R3 
    /*00000020*/ MOV         R4, R1 
    /*00000024*/ MOVT        R2, #43690                  @ 0xaaaa 
    /*00000028*/ ASR         R1, R0, #3 
    /*0000002c*/ MUL         R2, R2, R1 
    /*00000030*/ CMP         R2, #0 
    /*00000034*/ BEQ         _ZNSt6vectorINSt7__cxx1112basic_stringIcSt11char_traitsIcESaIcEEESaIS5_EE19_M_emplace_back_auxIJS5_EEEvDpOT__x17c
    /*00000038*/ LSL         R1, R2, #1 
    /*0000003c*/ CMP         R2, R1 
    /*00000040*/ BLS         _ZNSt6vectorINSt7__cxx1112basic_stringIcSt11char_traitsIcESaIcEEESaIS5_EE19_M_emplace_back_auxIJS5_EEEvDpOT__x1cc
    _ZNSt6vectorINSt7__cxx1112basic_stringIcSt11char_traitsIcESaIcEEESaIS5_EE19_M_emplace_back_auxIJS5_EEEvDpOT__x44:
    /*00000044*/ MVN         R8, #15 
    _ZNSt6vectorINSt7__cxx1112basic_stringIcSt11char_traitsIcESaIcEEESaIS5_EE19_M_emplace_back_auxIJS5_EEEvDpOT__x48:
    /*00000048*/ MOV         R0, R8 
    /*0000004c*/ BL          _Znwj
    /*00000050*/ LDR         SL, [R6, #4] 
    /*00000054*/ MOV         R7, R0 
    /*00000058*/ LDR         R3, [R6] 
    /*0000005c*/ ADD         R9, R0, #24 
    /*00000060*/ ADD         R8, R0, R8 
    /*00000064*/ SUB         R0, SL, R3 
    _ZNSt6vectorINSt7__cxx1112basic_stringIcSt11char_traitsIcESaIcEEESaIS5_EE19_M_emplace_back_auxIJS5_EEEvDpOT__x68:
    /*00000068*/ ADDS        R2, R7, R0 
    /*0000006c*/ BEQ         _ZNSt6vectorINSt7__cxx1112basic_stringIcSt11char_traitsIcESaIcEEESaIS5_EE19_M_emplace_back_auxIJS5_EEEvDpOT__xb4
    /*00000070*/ MOV         R3, R4 
    /*00000074*/ ADD         IP, R2, #8 
    /*00000078*/ STR         IP, [R7, R0] 
    /*0000007c*/ LDR         R1, [R3], #8 
    /*00000080*/ CMP         R1, R3 
    /*00000084*/ STRNE       R1, [R2] 
    /*00000088*/ LDRNE       R0, [R4, #8] 
    /*0000008c*/ STRNE       R0, [R2, #8] 
    /*00000090*/ BEQ         _ZNSt6vectorINSt7__cxx1112basic_stringIcSt11char_traitsIcESaIcEEESaIS5_EE19_M_emplace_back_auxIJS5_EEEvDpOT__x1a8
    _ZNSt6vectorINSt7__cxx1112basic_stringIcSt11char_traitsIcESaIcEEESaIS5_EE19_M_emplace_back_auxIJS5_EEEvDpOT__x94:
    /*00000094*/ LDR         R0, [R4, #4] 
    /*00000098*/ MOV         R1, #0 
    /*0000009c*/ STRB        R1, [R4, #8] 
    /*000000a0*/ LDR         SL, [R6, #4] 
    /*000000a4*/ STR         R3, [R4] 
    /*000000a8*/ STR         R0, [R2, #4] 
    /*000000ac*/ LDR         R3, [R6] 
    /*000000b0*/ STR         R1, [R4, #4] 
    _ZNSt6vectorINSt7__cxx1112basic_stringIcSt11char_traitsIcESaIcEEESaIS5_EE19_M_emplace_back_auxIJS5_EEEvDpOT__xb4:
    /*000000b4*/ CMP         R3, SL 
    /*000000b8*/ BEQ         _ZNSt6vectorINSt7__cxx1112basic_stringIcSt11char_traitsIcESaIcEEESaIS5_EE19_M_emplace_back_auxIJS5_EEEvDpOT__x160
    /*000000bc*/ ADD         R3, R3, #8 
    /*000000c0*/ ADD         R1, R7, #8 
    /*000000c4*/ MOV         R9, R7 
    /*000000c8*/ MOV         R0, #0 
    /*000000cc*/ B           _ZNSt6vectorINSt7__cxx1112basic_stringIcSt11char_traitsIcESaIcEEESaIS5_EE19_M_emplace_back_auxIJS5_EEEvDpOT__xd4
    _ZNSt6vectorINSt7__cxx1112basic_stringIcSt11char_traitsIcESaIcEEESaIS5_EE19_M_emplace_back_auxIJS5_EEEvDpOT__xd0:
    /*000000d0*/ MOV         R9, R2 
    _ZNSt6vectorINSt7__cxx1112basic_stringIcSt11char_traitsIcESaIcEEESaIS5_EE19_M_emplace_back_auxIJS5_EEEvDpOT__xd4:
    /*000000d4*/ CMP         R9, #0 
    /*000000d8*/ BEQ         _ZNSt6vectorINSt7__cxx1112basic_stringIcSt11char_traitsIcESaIcEEESaIS5_EE19_M_emplace_back_auxIJS5_EEEvDpOT__x10c
    /*000000dc*/ STR         R1, [R1, #-8] 
    /*000000e0*/ LDR         R2, [R3, #-8] 
    /*000000e4*/ CMP         R3, R2 
    /*000000e8*/ STRNE       R2, [R1, #-8] 
    /*000000ec*/ LDRNE       R2, [R3] 
    /*000000f0*/ STRNE       R2, [R1] 
    /*000000f4*/ BEQ         _ZNSt6vectorINSt7__cxx1112basic_stringIcSt11char_traitsIcESaIcEEESaIS5_EE19_M_emplace_back_auxIJS5_EEEvDpOT__x184
    _ZNSt6vectorINSt7__cxx1112basic_stringIcSt11char_traitsIcESaIcEEESaIS5_EE19_M_emplace_back_auxIJS5_EEEvDpOT__xf8:
    /*000000f8*/ LDR         R2, [R3, #-4] 
    /*000000fc*/ STR         R2, [R1, #-4] 
    /*00000100*/ STR         R3, [R3, #-8] 
    /*00000104*/ STR         R0, [R3, #-4] 
    /*00000108*/ STRB        R0, [R3] 
    _ZNSt6vectorINSt7__cxx1112basic_stringIcSt11char_traitsIcESaIcEEESaIS5_EE19_M_emplace_back_auxIJS5_EEEvDpOT__x10c:
    /*0000010c*/ ADD         R2, R3, #16 
    /*00000110*/ ADD         R1, R1, #24 
    /*00000114*/ CMP         SL, R2 
    /*00000118*/ ADD         R3, R3, #24 
    /*0000011c*/ ADD         R2, R9, #24 
    /*00000120*/ BNE         _ZNSt6vectorINSt7__cxx1112basic_stringIcSt11char_traitsIcESaIcEEESaIS5_EE19_M_emplace_back_auxIJS5_EEEvDpOT__xd0
    /*00000124*/ LDR         R5, [R6] 
    /*00000128*/ ADD         R9, R9, #48                 @ 0x30 
    /*0000012c*/ LDR         SL, [R6, #4] 
    /*00000130*/ CMP         R5, SL 
    /*00000134*/ BEQ         _ZNSt6vectorINSt7__cxx1112basic_stringIcSt11char_traitsIcESaIcEEESaIS5_EE19_M_emplace_back_auxIJS5_EEEvDpOT__x160
    /*00000138*/ ADD         R4, R5, #8 
    _ZNSt6vectorINSt7__cxx1112basic_stringIcSt11char_traitsIcESaIcEEESaIS5_EE19_M_emplace_back_auxIJS5_EEEvDpOT__x13c:
    /*0000013c*/ LDR         R0, [R4, #-8] 
    /*00000140*/ ADD         R5, R5, #24 
    /*00000144*/ CMP         R0, R4 
    /*00000148*/ ADD         R4, R4, #24 
    /*0000014c*/ BEQ         _ZNSt6vectorINSt7__cxx1112basic_stringIcSt11char_traitsIcESaIcEEESaIS5_EE19_M_emplace_back_auxIJS5_EEEvDpOT__x154
    /*00000150*/ BL          _ZdlPv
    _ZNSt6vectorINSt7__cxx1112basic_stringIcSt11char_traitsIcESaIcEEESaIS5_EE19_M_emplace_back_auxIJS5_EEEvDpOT__x154:
    /*00000154*/ CMP         R5, SL 
    /*00000158*/ BNE         _ZNSt6vectorINSt7__cxx1112basic_stringIcSt11char_traitsIcESaIcEEESaIS5_EE19_M_emplace_back_auxIJS5_EEEvDpOT__x13c
    /*0000015c*/ LDR         SL, [R6] 
    _ZNSt6vectorINSt7__cxx1112basic_stringIcSt11char_traitsIcESaIcEEESaIS5_EE19_M_emplace_back_auxIJS5_EEEvDpOT__x160:
    /*00000160*/ CMP         SL, #0 
    /*00000164*/ BEQ         _ZNSt6vectorINSt7__cxx1112basic_stringIcSt11char_traitsIcESaIcEEESaIS5_EE19_M_emplace_back_auxIJS5_EEEvDpOT__x170
    /*00000168*/ MOV         R0, SL 
    /*0000016c*/ BL          _ZdlPv
    _ZNSt6vectorINSt7__cxx1112basic_stringIcSt11char_traitsIcESaIcEEESaIS5_EE19_M_emplace_back_auxIJS5_EEEvDpOT__x170:
    /*00000170*/ STM         R6, {R7, R9} 
    /*00000174*/ STR         R8, [R6, #8] 
    /*00000178*/ POP         {R4, R5, R6, R7, R8, R9, SL, PC} 
    _ZNSt6vectorINSt7__cxx1112basic_stringIcSt11char_traitsIcESaIcEEESaIS5_EE19_M_emplace_back_auxIJS5_EEEvDpOT__x17c:
    /*0000017c*/ MOV         R8, #24 
    /*00000180*/ B           _ZNSt6vectorINSt7__cxx1112basic_stringIcSt11char_traitsIcESaIcEEESaIS5_EE19_M_emplace_back_auxIJS5_EEEvDpOT__x48
    _ZNSt6vectorINSt7__cxx1112basic_stringIcSt11char_traitsIcESaIcEEESaIS5_EE19_M_emplace_back_auxIJS5_EEEvDpOT__x184:
    /*00000184*/ LDR         R4, [R3] 
    /*00000188*/ LDR         LR, [R3, #4] 
    /*0000018c*/ LDR         IP, [R3, #8] 
    /*00000190*/ LDR         R2, [R3, #12] 
    /*00000194*/ STR         R4, [R1] 
    /*00000198*/ STR         LR, [R1, #4] 
    /*0000019c*/ STR         IP, [R1, #8] 
    /*000001a0*/ STR         R2, [R1, #12] 
    /*000001a4*/ B           _ZNSt6vectorINSt7__cxx1112basic_stringIcSt11char_traitsIcESaIcEEESaIS5_EE19_M_emplace_back_auxIJS5_EEEvDpOT__xf8
    _ZNSt6vectorINSt7__cxx1112basic_stringIcSt11char_traitsIcESaIcEEESaIS5_EE19_M_emplace_back_auxIJS5_EEEvDpOT__x1a8:
    /*000001a8*/ LDR         R0, [R3] 
    /*000001ac*/ LDR         R1, [R3, #4] 
    /*000001b0*/ STR         R0, [R2, #8] 
    /*000001b4*/ STR         R1, [R2, #12] 
    /*000001b8*/ LDR         R0, [R3, #8] 
    /*000001bc*/ LDR         R1, [R3, #12] 
    /*000001c0*/ STR         R0, [R2, #16] 
    /*000001c4*/ STR         R1, [R2, #20] 
    /*000001c8*/ B           _ZNSt6vectorINSt7__cxx1112basic_stringIcSt11char_traitsIcESaIcEEESaIS5_EE19_M_emplace_back_auxIJS5_EEEvDpOT__x94
    _ZNSt6vectorINSt7__cxx1112basic_stringIcSt11char_traitsIcESaIcEEESaIS5_EE19_M_emplace_back_auxIJS5_EEEvDpOT__x1cc:
    /*000001cc*/ MOVW        R2, #43690                  @ 0xaaaa 
    /*000001d0*/ MOVT        R2, #2730                   @ 0xaaa 
    /*000001d4*/ CMP         R1, R2 
    /*000001d8*/ BHI         _ZNSt6vectorINSt7__cxx1112basic_stringIcSt11char_traitsIcESaIcEEESaIS5_EE19_M_emplace_back_auxIJS5_EEEvDpOT__x44
    /*000001dc*/ CMP         R1, #0 
    /*000001e0*/ MOVNE       R8, #24 
    /*000001e4*/ MULNE       R8, R8, R1 
    /*000001e8*/ BNE         _ZNSt6vectorINSt7__cxx1112basic_stringIcSt11char_traitsIcESaIcEEESaIS5_EE19_M_emplace_back_auxIJS5_EEEvDpOT__x48
    /*000001ec*/ MOV         R8, R1 
    /*000001f0*/ MOV         R9, #24 
    /*000001f4*/ MOV         R7, R1 
    /*000001f8*/ B           _ZNSt6vectorINSt7__cxx1112basic_stringIcSt11char_traitsIcESaIcEEESaIS5_EE19_M_emplace_back_auxIJS5_EEEvDpOT__x68
FUNC_END _ZNSt6vectorINSt7__cxx1112basic_stringIcSt11char_traitsIcESaIcEEESaIS5_EE19_M_emplace_back_auxIJS5_EEEvDpOT_


@ - - - - - - - - - - - - - - - - - - - - - - - - - - - - - 
@ .text._ZN4hirt17ModelGroupManager23setFrameDependOperationEPNS_10ModelGroupEP21HIRT_CONNECTOR_INFO_SPNS_18ConnectorOperationE
@ Size: 0x900
@ - - - - - - - - - - - - - - - - - - - - - - - - - - - - - 

FUNC_BEGIN _ZN4hirt17ModelGroupManager23setFrameDependOperationEPNS_10ModelGroupEP21HIRT_CONNECTOR_INFO_SPNS_18ConnectorOperationE
    /*00000000*/ MOV         IP, #16384                  @ 0x4000 
    /*00000004*/ PUSH        {R4, R5, R6, R7, R8, R9, SL, FP, LR} 
    /*00000008*/ SUB         IP, SP, IP 
    /*0000000c*/ STR         R0, [IP, #3832]             @ 0xef8 
    /*00000010*/ LDR         R0, WORD_08d0               @ LDR         R0, [PC, #2232]             @ 0x00000000000008d0 
    /*00000014*/ SUB         SP, SP, #228                @ 0xe4 
    /*00000018*/ MOV         R7, R2 
    /*0000001c*/ MOV         R8, R3 
    /*00000020*/ ADD         R0, PC, R0 
    /*00000024*/ STR         R0, [SP, #28] 
    /*00000028*/ MOV         IP, R0 
    /*0000002c*/ LDR         R0, WORD_08d4               @ LDR         R0, [PC, #2208]             @ 0x00000000000008d4 
    /*00000030*/ STR         R1, [SP, #24] 
    /*00000034*/ LDR         R2, [R2, #96]               @ 0x60 
    /*00000038*/ LDR         R1, [IP, R0] 
    /*0000003c*/ CMP         R2, #0 
    /*00000040*/ LDR         R3, [R1] 
    /*00000044*/ STR         R1, [SP, #44]               @ 0x2c 
    /*00000048*/ STR         R3, [SP, #220]              @ 0xdc 
    /*0000004c*/ BEQ         _ZN4hirt17ModelGroupManager23setFrameDependOperationEPNS_10ModelGroupEP21HIRT_CONNECTOR_INFO_SPNS_18ConnectorOperationE_x884
    /*00000050*/ ADD         R9, SP, #96                 @ 0x60 
    /*00000054*/ ADD         R3, SP, #88                 @ 0x58 
    /*00000058*/ STR         R9, [SP, #16] 
    /*0000005c*/ MOV         R4, #0 
    /*00000060*/ STR         R9, [SP, #20] 
    /*00000064*/ STR         R3, [SP, #40]               @ 0x28 
    /*00000068*/ B           _ZN4hirt17ModelGroupManager23setFrameDependOperationEPNS_10ModelGroupEP21HIRT_CONNECTOR_INFO_SPNS_18ConnectorOperationE_x78
    _ZN4hirt17ModelGroupManager23setFrameDependOperationEPNS_10ModelGroupEP21HIRT_CONNECTOR_INFO_SPNS_18ConnectorOperationE_x6c:
    /*0000006c*/ ADD         R4, R4, #1 
    /*00000070*/ CMP         R4, R2 
    /*00000074*/ BCS         _ZN4hirt17ModelGroupManager23setFrameDependOperationEPNS_10ModelGroupEP21HIRT_CONNECTOR_INFO_SPNS_18ConnectorOperationE_x1d0
    _ZN4hirt17ModelGroupManager23setFrameDependOperationEPNS_10ModelGroupEP21HIRT_CONNECTOR_INFO_SPNS_18ConnectorOperationE_x78:
    /*00000078*/ LDR         R3, [R7, #104]              @ 0x68 
    /*0000007c*/ LSL         R6, R4, #2 
    /*00000080*/ LDR         R3, [R3, R4, LSL #2] 
    /*00000084*/ CMP         R3, #0 
    /*00000088*/ BEQ         _ZN4hirt17ModelGroupManager23setFrameDependOperationEPNS_10ModelGroupEP21HIRT_CONNECTOR_INFO_SPNS_18ConnectorOperationE_x6c
    /*0000008c*/ LDR         R3, WORD_08d8               @ LDR         R3, [PC, #2116]             @ 0x00000000000008d8 
    /*00000090*/ MOV         R0, #20 
    /*00000094*/ LDR         R2, [SP, #28] 
    /*00000098*/ LDR         R1, [R2, R3] 
    /*0000009c*/ BL          _ZnwjRKSt9nothrow_t
    /*000000a0*/ LDR         R1, [R7, #100]              @ 0x64 
    /*000000a4*/ SUBS        R5, R0, #0 
    /*000000a8*/ LDR         R0, [R7, #104]              @ 0x68 
    /*000000ac*/ MOVNE       R3, #0 
    /*000000b0*/ STRNE       R3, [R5, #8] 
    /*000000b4*/ MOV         R2, #0 
    /*000000b8*/ STRNE       R3, [R5, #12] 
    /*000000bc*/ STRNE       R3, [R5, #16] 
    /*000000c0*/ MOV         R3, #130                    @ 0x82 
    /*000000c4*/ MUL         FP, R3, R4 
    /*000000c8*/ LDR         R0, [R0, R6] 
    /*000000cc*/ ADDS        SL, R1, FP 
    /*000000d0*/ STM         R5, {R0, R2} 
    /*000000d4*/ STR         R1, [SP, #12] 
    /*000000d8*/ STR         R2, [SP, #8] 
    /*000000dc*/ STR         R9, [SP, #88]               @ 0x58 
    /*000000e0*/ BEQ         _ZN4hirt17ModelGroupManager23setFrameDependOperationEPNS_10ModelGroupEP21HIRT_CONNECTOR_INFO_SPNS_18ConnectorOperationE_x3f8
    /*000000e4*/ MOV         R0, SL 
    /*000000e8*/ BL          strlen
    /*000000ec*/ STR         R0, [SP, #60]               @ 0x3c 
    /*000000f0*/ CMP         R0, #15 
    /*000000f4*/ LDR         R2, [SP, #8] 
    /*000000f8*/ MOV         R6, R0 
    /*000000fc*/ LDR         R1, [SP, #12] 
    /*00000100*/ BHI         _ZN4hirt17ModelGroupManager23setFrameDependOperationEPNS_10ModelGroupEP21HIRT_CONNECTOR_INFO_SPNS_18ConnectorOperationE_x288
    /*00000104*/ CMP         R0, #1 
    /*00000108*/ BEQ         _ZN4hirt17ModelGroupManager23setFrameDependOperationEPNS_10ModelGroupEP21HIRT_CONNECTOR_INFO_SPNS_18ConnectorOperationE_x2b8
    /*0000010c*/ CMP         R0, #0 
    /*00000110*/ MOVEQ       R2, R9 
    /*00000114*/ BNE         _ZN4hirt17ModelGroupManager23setFrameDependOperationEPNS_10ModelGroupEP21HIRT_CONNECTOR_INFO_SPNS_18ConnectorOperationE_x86c
    _ZN4hirt17ModelGroupManager23setFrameDependOperationEPNS_10ModelGroupEP21HIRT_CONNECTOR_INFO_SPNS_18ConnectorOperationE_x118:
    /*00000118*/ STR         R6, [SP, #92]               @ 0x5c 
    /*0000011c*/ MOV         R3, #0 
    /*00000120*/ STRB        R3, [R2, R6] 
    /*00000124*/ LDR         IP, [R5, #12] 
    /*00000128*/ LDR         R3, [R5, #16] 
    /*0000012c*/ CMP         IP, R3 
    /*00000130*/ BEQ         _ZN4hirt17ModelGroupManager23setFrameDependOperationEPNS_10ModelGroupEP21HIRT_CONNECTOR_INFO_SPNS_18ConnectorOperationE_x784
    /*00000134*/ CMP         IP, #0 
    /*00000138*/ MOVEQ       R3, IP 
    /*0000013c*/ LDREQ       R0, [SP, #88]               @ 0x58 
    /*00000140*/ BEQ         _ZN4hirt17ModelGroupManager23setFrameDependOperationEPNS_10ModelGroupEP21HIRT_CONNECTOR_INFO_SPNS_18ConnectorOperationE_x188
    /*00000144*/ ADD         LR, IP, #8 
    /*00000148*/ STR         LR, [IP] 
    /*0000014c*/ LDR         R3, [SP, #88]               @ 0x58 
    /*00000150*/ CMP         R3, R9 
    /*00000154*/ BEQ         _ZN4hirt17ModelGroupManager23setFrameDependOperationEPNS_10ModelGroupEP21HIRT_CONNECTOR_INFO_SPNS_18ConnectorOperationE_x82c
    /*00000158*/ STR         R3, [IP] 
    /*0000015c*/ MOV         R3, IP 
    /*00000160*/ LDR         R2, [SP, #96]               @ 0x60 
    /*00000164*/ STR         R2, [IP, #8] 
    _ZN4hirt17ModelGroupManager23setFrameDependOperationEPNS_10ModelGroupEP21HIRT_CONNECTOR_INFO_SPNS_18ConnectorOperationE_x168:
    /*00000168*/ LDR         R2, [SP, #92]               @ 0x5c 
    /*0000016c*/ LDR         R0, [SP, #20] 
    /*00000170*/ STR         R2, [IP, #4] 
    /*00000174*/ MOV         R2, #0 
    /*00000178*/ STR         R9, [SP, #88]               @ 0x58 
    /*0000017c*/ LDR         R9, [SP, #16] 
    /*00000180*/ STR         R2, [SP, #92]               @ 0x5c 
    /*00000184*/ STRB        R2, [SP, #96]               @ 0x60 
    _ZN4hirt17ModelGroupManager23setFrameDependOperationEPNS_10ModelGroupEP21HIRT_CONNECTOR_INFO_SPNS_18ConnectorOperationE_x188:
    /*00000188*/ ADD         R3, R3, #24 
    /*0000018c*/ STR         R3, [R5, #12] 
    _ZN4hirt17ModelGroupManager23setFrameDependOperationEPNS_10ModelGroupEP21HIRT_CONNECTOR_INFO_SPNS_18ConnectorOperationE_x190:
    /*00000190*/ CMP         R0, R9 
    /*00000194*/ BEQ         _ZN4hirt17ModelGroupManager23setFrameDependOperationEPNS_10ModelGroupEP21HIRT_CONNECTOR_INFO_SPNS_18ConnectorOperationE_x19c
    /*00000198*/ BL          _ZdlPv
    _ZN4hirt17ModelGroupManager23setFrameDependOperationEPNS_10ModelGroupEP21HIRT_CONNECTOR_INFO_SPNS_18ConnectorOperationE_x19c:
    /*0000019c*/ LDR         R3, [R8, #80]               @ 0x50 
    /*000001a0*/ LDR         R2, [R8, #84]               @ 0x54 
    /*000001a4*/ STR         R5, [SP, #52]               @ 0x34 
    /*000001a8*/ CMP         R3, R2 
    /*000001ac*/ BEQ         _ZN4hirt17ModelGroupManager23setFrameDependOperationEPNS_10ModelGroupEP21HIRT_CONNECTOR_INFO_SPNS_18ConnectorOperationE_x798
    /*000001b0*/ LDR         R2, [R7, #96]               @ 0x60 
    /*000001b4*/ CMP         R3, #0 
    /*000001b8*/ STRNE       R5, [R3] 
    /*000001bc*/ ADD         R4, R4, #1 
    /*000001c0*/ CMP         R4, R2 
    /*000001c4*/ ADD         R3, R3, #4 
    /*000001c8*/ STR         R3, [R8, #80]               @ 0x50 
    /*000001cc*/ BCC         _ZN4hirt17ModelGroupManager23setFrameDependOperationEPNS_10ModelGroupEP21HIRT_CONNECTOR_INFO_SPNS_18ConnectorOperationE_x78
    _ZN4hirt17ModelGroupManager23setFrameDependOperationEPNS_10ModelGroupEP21HIRT_CONNECTOR_INFO_SPNS_18ConnectorOperationE_x1d0:
    /*000001d0*/ STR         R9, [SP, #88]               @ 0x58 
    /*000001d4*/ ADD         R3, R7, #8 
    /*000001d8*/ STR         R3, [SP, #12] 
    /*000001dc*/ MOV         R0, R3 
    /*000001e0*/ BL          strlen
    /*000001e4*/ STR         R0, [SP, #60]               @ 0x3c 
    /*000001e8*/ CMP         R0, #15 
    /*000001ec*/ MOV         R4, R0 
    /*000001f0*/ BHI         _ZN4hirt17ModelGroupManager23setFrameDependOperationEPNS_10ModelGroupEP21HIRT_CONNECTOR_INFO_SPNS_18ConnectorOperationE_x7c4
    /*000001f4*/ CMP         R0, #1 
    /*000001f8*/ BEQ         _ZN4hirt17ModelGroupManager23setFrameDependOperationEPNS_10ModelGroupEP21HIRT_CONNECTOR_INFO_SPNS_18ConnectorOperationE_x84c
    /*000001fc*/ CMP         R0, #0 
    /*00000200*/ MOVEQ       R2, R9 
    /*00000204*/ BNE         _ZN4hirt17ModelGroupManager23setFrameDependOperationEPNS_10ModelGroupEP21HIRT_CONNECTOR_INFO_SPNS_18ConnectorOperationE_x8a8
    _ZN4hirt17ModelGroupManager23setFrameDependOperationEPNS_10ModelGroupEP21HIRT_CONNECTOR_INFO_SPNS_18ConnectorOperationE_x208:
    /*00000208*/ STR         R4, [SP, #92]               @ 0x5c 
    /*0000020c*/ MOV         R3, #0 
    /*00000210*/ STRB        R3, [R2, R4] 
    /*00000214*/ LDR         R3, [SP, #24] 
    /*00000218*/ LDR         SL, [SP, #88]               @ 0x58 
    /*0000021c*/ LDR         R4, [R3, #64]               @ 0x40 
    /*00000220*/ ADD         R2, R3, #60                 @ 0x3c 
    /*00000224*/ STR         R2, [SP, #8] 
    /*00000228*/ CMP         R4, #0 
    /*0000022c*/ BEQ         _ZN4hirt17ModelGroupManager23setFrameDependOperationEPNS_10ModelGroupEP21HIRT_CONNECTOR_INFO_SPNS_18ConnectorOperationE_x874
    /*00000230*/ LDR         FP, [SP, #92]               @ 0x5c 
    /*00000234*/ MOV         R6, R2 
    /*00000238*/ B           _ZN4hirt17ModelGroupManager23setFrameDependOperationEPNS_10ModelGroupEP21HIRT_CONNECTOR_INFO_SPNS_18ConnectorOperationE_x268
    _ZN4hirt17ModelGroupManager23setFrameDependOperationEPNS_10ModelGroupEP21HIRT_CONNECTOR_INFO_SPNS_18ConnectorOperationE_x23c:
    /*0000023c*/ LDR         R0, [R4, #16] 
    /*00000240*/ MOV         R1, SL 
    /*00000244*/ BL          memcmp
    /*00000248*/ CMP         R0, #0 
    /*0000024c*/ BEQ         _ZN4hirt17ModelGroupManager23setFrameDependOperationEPNS_10ModelGroupEP21HIRT_CONNECTOR_INFO_SPNS_18ConnectorOperationE_x280
    _ZN4hirt17ModelGroupManager23setFrameDependOperationEPNS_10ModelGroupEP21HIRT_CONNECTOR_INFO_SPNS_18ConnectorOperationE_x250:
    /*00000250*/ CMP         R0, #0 
    /*00000254*/ MOVGE       R6, R4 
    /*00000258*/ LDRLT       R4, [R4, #12] 
    /*0000025c*/ LDRGE       R4, [R4, #8] 
    /*00000260*/ CMP         R4, #0 
    /*00000264*/ BEQ         _ZN4hirt17ModelGroupManager23setFrameDependOperationEPNS_10ModelGroupEP21HIRT_CONNECTOR_INFO_SPNS_18ConnectorOperationE_x2c8
    _ZN4hirt17ModelGroupManager23setFrameDependOperationEPNS_10ModelGroupEP21HIRT_CONNECTOR_INFO_SPNS_18ConnectorOperationE_x268:
    /*00000268*/ LDR         R5, [R4, #20] 
    /*0000026c*/ CMP         R5, FP 
    /*00000270*/ MOVCC       R2, R5 
    /*00000274*/ MOVCS       R2, FP 
    /*00000278*/ CMP         R2, #0 
    /*0000027c*/ BNE         _ZN4hirt17ModelGroupManager23setFrameDependOperationEPNS_10ModelGroupEP21HIRT_CONNECTOR_INFO_SPNS_18ConnectorOperationE_x23c
    _ZN4hirt17ModelGroupManager23setFrameDependOperationEPNS_10ModelGroupEP21HIRT_CONNECTOR_INFO_SPNS_18ConnectorOperationE_x280:
    /*00000280*/ SUB         R0, R5, FP 
    /*00000284*/ B           _ZN4hirt17ModelGroupManager23setFrameDependOperationEPNS_10ModelGroupEP21HIRT_CONNECTOR_INFO_SPNS_18ConnectorOperationE_x250
    _ZN4hirt17ModelGroupManager23setFrameDependOperationEPNS_10ModelGroupEP21HIRT_CONNECTOR_INFO_SPNS_18ConnectorOperationE_x288:
    /*00000288*/ LDR         R0, [SP, #40]               @ 0x28 
    /*0000028c*/ ADD         R1, SP, #60                 @ 0x3c 
    /*00000290*/ BL          _ZNSt7__cxx1112basic_stringIcSt11char_traitsIcESaIcEE9_M_createERjj
    /*00000294*/ LDR         R3, [SP, #60]               @ 0x3c 
    /*00000298*/ STR         R0, [SP, #88]               @ 0x58 
    /*0000029c*/ STR         R3, [SP, #96]               @ 0x60 
    _ZN4hirt17ModelGroupManager23setFrameDependOperationEPNS_10ModelGroupEP21HIRT_CONNECTOR_INFO_SPNS_18ConnectorOperationE_x2a0:
    /*000002a0*/ MOV         R2, R6 
    /*000002a4*/ MOV         R1, SL 
    /*000002a8*/ BL          memcpy
    /*000002ac*/ LDR         R6, [SP, #60]               @ 0x3c 
    /*000002b0*/ LDR         R2, [SP, #88]               @ 0x58 
    /*000002b4*/ B           _ZN4hirt17ModelGroupManager23setFrameDependOperationEPNS_10ModelGroupEP21HIRT_CONNECTOR_INFO_SPNS_18ConnectorOperationE_x118
    _ZN4hirt17ModelGroupManager23setFrameDependOperationEPNS_10ModelGroupEP21HIRT_CONNECTOR_INFO_SPNS_18ConnectorOperationE_x2b8:
    /*000002b8*/ LDRB        R3, [R1, FP] 
    /*000002bc*/ MOV         R2, R9 
    /*000002c0*/ STRB        R3, [SP, #96]               @ 0x60 
    /*000002c4*/ B           _ZN4hirt17ModelGroupManager23setFrameDependOperationEPNS_10ModelGroupEP21HIRT_CONNECTOR_INFO_SPNS_18ConnectorOperationE_x118
    _ZN4hirt17ModelGroupManager23setFrameDependOperationEPNS_10ModelGroupEP21HIRT_CONNECTOR_INFO_SPNS_18ConnectorOperationE_x2c8:
    /*000002c8*/ LDR         R3, [SP, #8] 
    /*000002cc*/ CMP         R3, R6 
    /*000002d0*/ BEQ         _ZN4hirt17ModelGroupManager23setFrameDependOperationEPNS_10ModelGroupEP21HIRT_CONNECTOR_INFO_SPNS_18ConnectorOperationE_x424
    /*000002d4*/ LDR         R4, [R6, #20] 
    /*000002d8*/ CMP         R4, FP 
    /*000002dc*/ MOVCC       R2, R4 
    /*000002e0*/ MOVCS       R2, FP 
    /*000002e4*/ CMP         R2, #0 
    /*000002e8*/ BNE         _ZN4hirt17ModelGroupManager23setFrameDependOperationEPNS_10ModelGroupEP21HIRT_CONNECTOR_INFO_SPNS_18ConnectorOperationE_x404
    _ZN4hirt17ModelGroupManager23setFrameDependOperationEPNS_10ModelGroupEP21HIRT_CONNECTOR_INFO_SPNS_18ConnectorOperationE_x2ec:
    /*000002ec*/ SUB         R0, FP, R4 
    /*000002f0*/ CMP         R0, #0 
    /*000002f4*/ BLT         _ZN4hirt17ModelGroupManager23setFrameDependOperationEPNS_10ModelGroupEP21HIRT_CONNECTOR_INFO_SPNS_18ConnectorOperationE_x420
    _ZN4hirt17ModelGroupManager23setFrameDependOperationEPNS_10ModelGroupEP21HIRT_CONNECTOR_INFO_SPNS_18ConnectorOperationE_x2f8:
    /*000002f8*/ CMP         SL, R9 
    /*000002fc*/ BEQ         _ZN4hirt17ModelGroupManager23setFrameDependOperationEPNS_10ModelGroupEP21HIRT_CONNECTOR_INFO_SPNS_18ConnectorOperationE_x314
    _ZN4hirt17ModelGroupManager23setFrameDependOperationEPNS_10ModelGroupEP21HIRT_CONNECTOR_INFO_SPNS_18ConnectorOperationE_x300:
    /*00000300*/ MOV         R0, SL 
    /*00000304*/ BL          _ZdlPv
    /*00000308*/ LDR         R3, [SP, #8] 
    /*0000030c*/ CMP         R3, R6 
    /*00000310*/ BEQ         _ZN4hirt17ModelGroupManager23setFrameDependOperationEPNS_10ModelGroupEP21HIRT_CONNECTOR_INFO_SPNS_18ConnectorOperationE_x42c
    _ZN4hirt17ModelGroupManager23setFrameDependOperationEPNS_10ModelGroupEP21HIRT_CONNECTOR_INFO_SPNS_18ConnectorOperationE_x314:
    /*00000314*/ LDR         R4, [SP, #12] 
    /*00000318*/ MOV         R1, #1 
    /*0000031c*/ LDR         R2, WORD_08dc               @ LDR         R2, [PC, #1464]             @ 0x00000000000008dc 
    /*00000320*/ ADD         R5, SP, #72                 @ 0x48 
    /*00000324*/ LDR         R0, WORD_08e0               @ LDR         R0, [PC, #1460]             @ 0x00000000000008e0 
    /*00000328*/ MOV         R3, R4 
    /*0000032c*/ ADD         R2, PC, R2 
    /*00000330*/ ADD         R0, PC, R0 
    /*00000334*/ BL          _Z15HIRT_LOG_PrintfPKc19tagHIRT_LOG_LEVEL_ES0_z
    /*00000338*/ LDR         R0, [SP, #40]               @ 0x28 
    /*0000033c*/ MOV         R2, #130                    @ 0x82 
    /*00000340*/ MOV         R1, #0 
    /*00000344*/ BL          memset
    /*00000348*/ STR         R5, [SP, #64]               @ 0x40 
    /*0000034c*/ MOV         R0, R4 
    /*00000350*/ BL          strlen
    /*00000354*/ STR         R0, [SP, #60]               @ 0x3c 
    /*00000358*/ CMP         R0, #15 
    /*0000035c*/ ADD         R3, SP, #64                 @ 0x40 
    /*00000360*/ MOV         R4, R0 
    /*00000364*/ STR         R3, [SP, #32] 
    /*00000368*/ BHI         _ZN4hirt17ModelGroupManager23setFrameDependOperationEPNS_10ModelGroupEP21HIRT_CONNECTOR_INFO_SPNS_18ConnectorOperationE_x7f8
    /*0000036c*/ CMP         R4, #1 
    /*00000370*/ BEQ         _ZN4hirt17ModelGroupManager23setFrameDependOperationEPNS_10ModelGroupEP21HIRT_CONNECTOR_INFO_SPNS_18ConnectorOperationE_x85c
    /*00000374*/ CMP         R4, #0 
    /*00000378*/ MOVEQ       R2, R5 
    /*0000037c*/ BNE         _ZN4hirt17ModelGroupManager23setFrameDependOperationEPNS_10ModelGroupEP21HIRT_CONNECTOR_INFO_SPNS_18ConnectorOperationE_x8b0
    _ZN4hirt17ModelGroupManager23setFrameDependOperationEPNS_10ModelGroupEP21HIRT_CONNECTOR_INFO_SPNS_18ConnectorOperationE_x380:
    /*00000380*/ STR         R4, [SP, #68]               @ 0x44 
    /*00000384*/ MOV         R3, #0 
    /*00000388*/ STRB        R3, [R2, R4] 
    /*0000038c*/ LDR         R3, [SP, #24] 
    /*00000390*/ LDR         R4, [R3, #64]               @ 0x40 
    /*00000394*/ CMP         R4, #0 
    /*00000398*/ BEQ         _ZN4hirt17ModelGroupManager23setFrameDependOperationEPNS_10ModelGroupEP21HIRT_CONNECTOR_INFO_SPNS_18ConnectorOperationE_x7b8
    /*0000039c*/ LDR         FP, [SP, #68]               @ 0x44 
    /*000003a0*/ LDR         R9, [SP, #64]               @ 0x40 
    /*000003a4*/ LDR         SL, [SP, #8] 
    /*000003a8*/ B           _ZN4hirt17ModelGroupManager23setFrameDependOperationEPNS_10ModelGroupEP21HIRT_CONNECTOR_INFO_SPNS_18ConnectorOperationE_x3d8
    _ZN4hirt17ModelGroupManager23setFrameDependOperationEPNS_10ModelGroupEP21HIRT_CONNECTOR_INFO_SPNS_18ConnectorOperationE_x3ac:
    /*000003ac*/ LDR         R0, [R4, #16] 
    /*000003b0*/ MOV         R1, R9 
    /*000003b4*/ BL          memcmp
    /*000003b8*/ CMP         R0, #0 
    /*000003bc*/ BEQ         _ZN4hirt17ModelGroupManager23setFrameDependOperationEPNS_10ModelGroupEP21HIRT_CONNECTOR_INFO_SPNS_18ConnectorOperationE_x3f0
    _ZN4hirt17ModelGroupManager23setFrameDependOperationEPNS_10ModelGroupEP21HIRT_CONNECTOR_INFO_SPNS_18ConnectorOperationE_x3c0:
    /*000003c0*/ CMP         R0, #0 
    /*000003c4*/ MOVGE       SL, R4 
    /*000003c8*/ LDRLT       R4, [R4, #12] 
    /*000003cc*/ LDRGE       R4, [R4, #8] 
    /*000003d0*/ CMP         R4, #0 
    /*000003d4*/ BEQ         _ZN4hirt17ModelGroupManager23setFrameDependOperationEPNS_10ModelGroupEP21HIRT_CONNECTOR_INFO_SPNS_18ConnectorOperationE_x450
    _ZN4hirt17ModelGroupManager23setFrameDependOperationEPNS_10ModelGroupEP21HIRT_CONNECTOR_INFO_SPNS_18ConnectorOperationE_x3d8:
    /*000003d8*/ LDR         R6, [R4, #20] 
    /*000003dc*/ CMP         R6, FP 
    /*000003e0*/ MOVCC       R2, R6 
    /*000003e4*/ MOVCS       R2, FP 
    /*000003e8*/ CMP         R2, #0 
    /*000003ec*/ BNE         _ZN4hirt17ModelGroupManager23setFrameDependOperationEPNS_10ModelGroupEP21HIRT_CONNECTOR_INFO_SPNS_18ConnectorOperationE_x3ac
    _ZN4hirt17ModelGroupManager23setFrameDependOperationEPNS_10ModelGroupEP21HIRT_CONNECTOR_INFO_SPNS_18ConnectorOperationE_x3f0:
    /*000003f0*/ SUB         R0, R6, FP 
    /*000003f4*/ B           _ZN4hirt17ModelGroupManager23setFrameDependOperationEPNS_10ModelGroupEP21HIRT_CONNECTOR_INFO_SPNS_18ConnectorOperationE_x3c0
    _ZN4hirt17ModelGroupManager23setFrameDependOperationEPNS_10ModelGroupEP21HIRT_CONNECTOR_INFO_SPNS_18ConnectorOperationE_x3f8:
    /*000003f8*/ LDR         R0, WORD_08e4               @ LDR         R0, [PC, #1252]             @ 0x00000000000008e4 
    /*000003fc*/ ADD         R0, PC, R0 
    /*00000400*/ BL          _ZSt19__throw_logic_errorPKc
    _ZN4hirt17ModelGroupManager23setFrameDependOperationEPNS_10ModelGroupEP21HIRT_CONNECTOR_INFO_SPNS_18ConnectorOperationE_x404:
    /*00000404*/ LDR         R1, [R6, #16] 
    /*00000408*/ MOV         R0, SL 
    /*0000040c*/ BL          memcmp
    /*00000410*/ CMP         R0, #0 
    /*00000414*/ BEQ         _ZN4hirt17ModelGroupManager23setFrameDependOperationEPNS_10ModelGroupEP21HIRT_CONNECTOR_INFO_SPNS_18ConnectorOperationE_x2ec
    /*00000418*/ CMP         R0, #0 
    /*0000041c*/ BGE         _ZN4hirt17ModelGroupManager23setFrameDependOperationEPNS_10ModelGroupEP21HIRT_CONNECTOR_INFO_SPNS_18ConnectorOperationE_x2f8
    _ZN4hirt17ModelGroupManager23setFrameDependOperationEPNS_10ModelGroupEP21HIRT_CONNECTOR_INFO_SPNS_18ConnectorOperationE_x420:
    /*00000420*/ LDR         R6, [SP, #8] 
    _ZN4hirt17ModelGroupManager23setFrameDependOperationEPNS_10ModelGroupEP21HIRT_CONNECTOR_INFO_SPNS_18ConnectorOperationE_x424:
    /*00000424*/ CMP         SL, R9 
    /*00000428*/ BNE         _ZN4hirt17ModelGroupManager23setFrameDependOperationEPNS_10ModelGroupEP21HIRT_CONNECTOR_INFO_SPNS_18ConnectorOperationE_x300
    _ZN4hirt17ModelGroupManager23setFrameDependOperationEPNS_10ModelGroupEP21HIRT_CONNECTOR_INFO_SPNS_18ConnectorOperationE_x42c:
    /*0000042c*/ MOV         FP, #0 
    _ZN4hirt17ModelGroupManager23setFrameDependOperationEPNS_10ModelGroupEP21HIRT_CONNECTOR_INFO_SPNS_18ConnectorOperationE_x430:
    /*00000430*/ LDR         R3, [SP, #44]               @ 0x2c 
    /*00000434*/ MOV         R0, FP 
    /*00000438*/ LDR         R2, [SP, #220]              @ 0xdc 
    /*0000043c*/ LDR         R3, [R3] 
    /*00000440*/ CMP         R2, R3 
    /*00000444*/ BNE         _ZN4hirt17ModelGroupManager23setFrameDependOperationEPNS_10ModelGroupEP21HIRT_CONNECTOR_INFO_SPNS_18ConnectorOperationE_x8bc
    /*00000448*/ ADD         SP, SP, #228                @ 0xe4 
    /*0000044c*/ POP         {R4, R5, R6, R7, R8, R9, SL, FP, PC} 
    _ZN4hirt17ModelGroupManager23setFrameDependOperationEPNS_10ModelGroupEP21HIRT_CONNECTOR_INFO_SPNS_18ConnectorOperationE_x450:
    /*00000450*/ LDR         R3, [SP, #8] 
    /*00000454*/ CMP         R3, SL 
    /*00000458*/ BEQ         _ZN4hirt17ModelGroupManager23setFrameDependOperationEPNS_10ModelGroupEP21HIRT_CONNECTOR_INFO_SPNS_18ConnectorOperationE_x7b8
    /*0000045c*/ LDR         R4, [SL, #20] 
    /*00000460*/ CMP         R4, FP 
    /*00000464*/ MOVCC       R2, R4 
    /*00000468*/ MOVCS       R2, FP 
    /*0000046c*/ CMP         R2, #0 
    /*00000470*/ BEQ         _ZN4hirt17ModelGroupManager23setFrameDependOperationEPNS_10ModelGroupEP21HIRT_CONNECTOR_INFO_SPNS_18ConnectorOperationE_x7ac
    /*00000474*/ LDR         R1, [SL, #16] 
    /*00000478*/ MOV         R0, R9 
    /*0000047c*/ BL          memcmp
    /*00000480*/ CMP         R0, #0 
    /*00000484*/ BEQ         _ZN4hirt17ModelGroupManager23setFrameDependOperationEPNS_10ModelGroupEP21HIRT_CONNECTOR_INFO_SPNS_18ConnectorOperationE_x7ac
    /*00000488*/ CMP         R0, #0 
    /*0000048c*/ BLT         _ZN4hirt17ModelGroupManager23setFrameDependOperationEPNS_10ModelGroupEP21HIRT_CONNECTOR_INFO_SPNS_18ConnectorOperationE_x7b8
    _ZN4hirt17ModelGroupManager23setFrameDependOperationEPNS_10ModelGroupEP21HIRT_CONNECTOR_INFO_SPNS_18ConnectorOperationE_x490:
    /*00000490*/ CMP         R9, R5 
    /*00000494*/ BEQ         _ZN4hirt17ModelGroupManager23setFrameDependOperationEPNS_10ModelGroupEP21HIRT_CONNECTOR_INFO_SPNS_18ConnectorOperationE_x4a0
    /*00000498*/ MOV         R0, R9 
    /*0000049c*/ BL          _ZdlPv
    _ZN4hirt17ModelGroupManager23setFrameDependOperationEPNS_10ModelGroupEP21HIRT_CONNECTOR_INFO_SPNS_18ConnectorOperationE_x4a0:
    /*000004a0*/ LDR         R2, [R7, #76]               @ 0x4c 
    /*000004a4*/ CMP         R2, #0 
    /*000004a8*/ BEQ         _ZN4hirt17ModelGroupManager23setFrameDependOperationEPNS_10ModelGroupEP21HIRT_CONNECTOR_INFO_SPNS_18ConnectorOperationE_x42c
    /*000004ac*/ LDR         R3, [SL, #44]               @ 0x2c 
    /*000004b0*/ MOV         R1, #0 
    /*000004b4*/ STR         R1, [SP, #36]               @ 0x24 
    /*000004b8*/ LDR         R1, WORD_08e8               @ LDR         R1, [PC, #1064]             @ 0x00000000000008e8 
    /*000004bc*/ STR         SL, [SP, #8] 
    /*000004c0*/ LDR         SL, [SP, #40]               @ 0x28 
    /*000004c4*/ ADD         R1, PC, R1 
    /*000004c8*/ STR         R1, [SP, #16] 
    _ZN4hirt17ModelGroupManager23setFrameDependOperationEPNS_10ModelGroupEP21HIRT_CONNECTOR_INFO_SPNS_18ConnectorOperationE_x4cc:
    /*000004cc*/ LDR         R1, [SP, #8] 
    /*000004d0*/ LDR         R4, [R1, #40]               @ 0x28 
    /*000004d4*/ CMP         R4, R3 
    /*000004d8*/ BEQ         _ZN4hirt17ModelGroupManager23setFrameDependOperationEPNS_10ModelGroupEP21HIRT_CONNECTOR_INFO_SPNS_18ConnectorOperationE_x718
    /*000004dc*/ LDR         R2, [SP, #36]               @ 0x24 
    /*000004e0*/ MOV         R3, #130                    @ 0x82 
    /*000004e4*/ MUL         R9, R3, R2 
    /*000004e8*/ ADD         R3, SP, #72                 @ 0x48 
    /*000004ec*/ STR         R3, [SP, #20] 
    /*000004f0*/ B           _ZN4hirt17ModelGroupManager23setFrameDependOperationEPNS_10ModelGroupEP21HIRT_CONNECTOR_INFO_SPNS_18ConnectorOperationE_x604
    _ZN4hirt17ModelGroupManager23setFrameDependOperationEPNS_10ModelGroupEP21HIRT_CONNECTOR_INFO_SPNS_18ConnectorOperationE_x4f4:
    /*000004f4*/ LDR         IP, [R7, #80]               @ 0x50 
    /*000004f8*/ MOV         R1, #130                    @ 0x82 
    /*000004fc*/ LDR         R0, [SP, #12] 
    /*00000500*/ ADD         IP, IP, R9 
    /*00000504*/ LDR         R6, [R2] 
    /*00000508*/ MOV         R2, #129                    @ 0x81 
    /*0000050c*/ STR         R0, [SP] 
    /*00000510*/ MOV         R0, SL 
    /*00000514*/ LDR         R3, [SP, #16] 
    /*00000518*/ STR         IP, [SP, #4] 
    /*0000051c*/ BL          snprintf_s
    /*00000520*/ CMN         R0, #1 
    /*00000524*/ BEQ         _ZN4hirt17ModelGroupManager23setFrameDependOperationEPNS_10ModelGroupEP21HIRT_CONNECTOR_INFO_SPNS_18ConnectorOperationE_x730
    /*00000528*/ STR         R5, [SP, #64]               @ 0x40 
    /*0000052c*/ MOV         R0, SL 
    /*00000530*/ BL          strlen
    /*00000534*/ STR         R0, [SP, #60]               @ 0x3c 
    /*00000538*/ CMP         R0, #15 
    /*0000053c*/ MOV         FP, R0 
    /*00000540*/ BHI         _ZN4hirt17ModelGroupManager23setFrameDependOperationEPNS_10ModelGroupEP21HIRT_CONNECTOR_INFO_SPNS_18ConnectorOperationE_x6bc
    /*00000544*/ CMP         R0, #1 
    /*00000548*/ BEQ         _ZN4hirt17ModelGroupManager23setFrameDependOperationEPNS_10ModelGroupEP21HIRT_CONNECTOR_INFO_SPNS_18ConnectorOperationE_x6f0
    /*0000054c*/ CMP         R0, #0 
    /*00000550*/ MOVEQ       R3, R5 
    /*00000554*/ BNE         _ZN4hirt17ModelGroupManager23setFrameDependOperationEPNS_10ModelGroupEP21HIRT_CONNECTOR_INFO_SPNS_18ConnectorOperationE_x75c
    _ZN4hirt17ModelGroupManager23setFrameDependOperationEPNS_10ModelGroupEP21HIRT_CONNECTOR_INFO_SPNS_18ConnectorOperationE_x558:
    /*00000558*/ STR         FP, [SP, #68]               @ 0x44 
    /*0000055c*/ MOV         R2, #0 
    /*00000560*/ STRB        R2, [R3, FP] 
    /*00000564*/ LDR         IP, [R6, #8] 
    /*00000568*/ LDR         R3, [R6, #12] 
    /*0000056c*/ CMP         IP, R3 
    /*00000570*/ BEQ         _ZN4hirt17ModelGroupManager23setFrameDependOperationEPNS_10ModelGroupEP21HIRT_CONNECTOR_INFO_SPNS_18ConnectorOperationE_x700
    /*00000574*/ CMP         IP, R2 
    /*00000578*/ LDREQ       R0, [SP, #64]               @ 0x40 
    /*0000057c*/ BEQ         _ZN4hirt17ModelGroupManager23setFrameDependOperationEPNS_10ModelGroupEP21HIRT_CONNECTOR_INFO_SPNS_18ConnectorOperationE_x5dc
    /*00000580*/ ADD         LR, IP, #8 
    /*00000584*/ STR         LR, [IP] 
    /*00000588*/ LDR         R3, [SP, #64]               @ 0x40 
    /*0000058c*/ CMP         R3, R5 
    /*00000590*/ STRNE       R3, [IP] 
    /*00000594*/ MOVEQ       FP, R5 
    /*00000598*/ LDRNE       R3, [SP, #72]               @ 0x48 
    /*0000059c*/ LDMEQ       FP!, {R0, R1, R2, R3} 
    /*000005a0*/ STRNE       R3, [IP, #8] 
    /*000005a4*/ STREQ       R0, [IP, #8] 
    /*000005a8*/ STREQ       R3, [IP, #20] 
    /*000005ac*/ MOV         R3, #0 
    /*000005b0*/ STREQ       R1, [IP, #12] 
    /*000005b4*/ STREQ       R2, [IP, #16] 
    /*000005b8*/ LDR         R2, [SP, #68]               @ 0x44 
    /*000005bc*/ STR         R2, [IP, #4] 
    /*000005c0*/ LDR         R2, [SP, #20] 
    /*000005c4*/ STR         R5, [SP, #64]               @ 0x40 
    /*000005c8*/ STRB        R3, [SP, #72]               @ 0x48 
    /*000005cc*/ MOV         R0, R2 
    /*000005d0*/ LDR         IP, [R6, #8] 
    /*000005d4*/ MOV         R5, R2 
    /*000005d8*/ STR         R3, [SP, #68]               @ 0x44 
    _ZN4hirt17ModelGroupManager23setFrameDependOperationEPNS_10ModelGroupEP21HIRT_CONNECTOR_INFO_SPNS_18ConnectorOperationE_x5dc:
    /*000005dc*/ ADD         IP, IP, #24 
    /*000005e0*/ STR         IP, [R6, #8] 
    _ZN4hirt17ModelGroupManager23setFrameDependOperationEPNS_10ModelGroupEP21HIRT_CONNECTOR_INFO_SPNS_18ConnectorOperationE_x5e4:
    /*000005e4*/ CMP         R0, R5 
    /*000005e8*/ BEQ         _ZN4hirt17ModelGroupManager23setFrameDependOperationEPNS_10ModelGroupEP21HIRT_CONNECTOR_INFO_SPNS_18ConnectorOperationE_x5f0
    /*000005ec*/ BL          _ZdlPv
    _ZN4hirt17ModelGroupManager23setFrameDependOperationEPNS_10ModelGroupEP21HIRT_CONNECTOR_INFO_SPNS_18ConnectorOperationE_x5f0:
    /*000005f0*/ LDR         R3, [SP, #8] 
    /*000005f4*/ ADD         R4, R4, #28 
    /*000005f8*/ LDR         R3, [R3, #44]               @ 0x2c 
    /*000005fc*/ CMP         R3, R4 
    /*00000600*/ BEQ         _ZN4hirt17ModelGroupManager23setFrameDependOperationEPNS_10ModelGroupEP21HIRT_CONNECTOR_INFO_SPNS_18ConnectorOperationE_x714
    _ZN4hirt17ModelGroupManager23setFrameDependOperationEPNS_10ModelGroupEP21HIRT_CONNECTOR_INFO_SPNS_18ConnectorOperationE_x604:
    /*00000604*/ LDR         R1, [R7, #80]               @ 0x50 
    /*00000608*/ MOV         R0, R4 
    /*0000060c*/ ADD         R1, R1, R9 
    /*00000610*/ BL          _ZNKSt7__cxx1112basic_stringIcSt11char_traitsIcESaIcEE7compareEPKc
    /*00000614*/ CMP         R0, #0 
    /*00000618*/ BNE         _ZN4hirt17ModelGroupManager23setFrameDependOperationEPNS_10ModelGroupEP21HIRT_CONNECTOR_INFO_SPNS_18ConnectorOperationE_x5f0
    /*0000061c*/ LDR         R2, [R8, #88]               @ 0x58 
    /*00000620*/ LDR         R3, [R8, #92]               @ 0x5c 
    /*00000624*/ SUB         R3, R3, R2 
    /*00000628*/ ASRS        R6, R3, #2 
    /*0000062c*/ BNE         _ZN4hirt17ModelGroupManager23setFrameDependOperationEPNS_10ModelGroupEP21HIRT_CONNECTOR_INFO_SPNS_18ConnectorOperationE_x4f4
    /*00000630*/ LDR         R1, [SP, #24] 
    /*00000634*/ MOV         R0, #16 
    /*00000638*/ LDR         R3, WORD_08d8               @ LDR         R3, [PC, #664]              @ 0x00000000000008d8 
    /*0000063c*/ LDR         R2, [R1, #8] 
    /*00000640*/ ADD         R2, R2, #1 
    /*00000644*/ STR         R2, [R1, #8] 
    /*00000648*/ LDR         R2, [SP, #28] 
    /*0000064c*/ LDR         R1, [R2, R3] 
    /*00000650*/ BL          _ZnwjRKSt9nothrow_t
    /*00000654*/ LDR         R3, [R8, #92]               @ 0x5c 
    /*00000658*/ CMP         R0, #0 
    /*0000065c*/ LDR         R1, [R8, #96]               @ 0x60 
    /*00000660*/ LDR         R2, [SP, #24] 
    /*00000664*/ STRNE       R6, [R0, #4] 
    /*00000668*/ STRNE       R6, [R0, #8] 
    /*0000066c*/ STRNE       R6, [R0, #12] 
    /*00000670*/ LDR         R2, [R2, #8] 
    /*00000674*/ CMP         R3, R1 
    /*00000678*/ STR         R2, [R0] 
    /*0000067c*/ STR         R0, [SP, #56]               @ 0x38 
    /*00000680*/ BEQ         _ZN4hirt17ModelGroupManager23setFrameDependOperationEPNS_10ModelGroupEP21HIRT_CONNECTOR_INFO_SPNS_18ConnectorOperationE_x764
    /*00000684*/ LDR         R2, [R8, #88]               @ 0x58 
    /*00000688*/ CMP         R3, #0 
    /*0000068c*/ STRNE       R0, [R3] 
    /*00000690*/ ADD         R3, R3, #4 
    /*00000694*/ STR         R3, [R8, #92]               @ 0x5c 
    /*00000698*/ SUB         R3, R3, R2 
    /*0000069c*/ ASR         R3, R3, #2 
    _ZN4hirt17ModelGroupManager23setFrameDependOperationEPNS_10ModelGroupEP21HIRT_CONNECTOR_INFO_SPNS_18ConnectorOperationE_x6a0:
    /*000006a0*/ CMP         R3, #0 
    /*000006a4*/ BNE         _ZN4hirt17ModelGroupManager23setFrameDependOperationEPNS_10ModelGroupEP21HIRT_CONNECTOR_INFO_SPNS_18ConnectorOperationE_x4f4
    /*000006a8*/ LDR         R0, WORD_08ec               @ LDR         R0, [PC, #572]              @ 0x00000000000008ec 
    /*000006ac*/ MOV         R2, R3 
    /*000006b0*/ MOV         R1, R3 
    /*000006b4*/ ADD         R0, PC, R0 
    /*000006b8*/ BL          _ZSt24__throw_out_of_range_fmtPKcz
    _ZN4hirt17ModelGroupManager23setFrameDependOperationEPNS_10ModelGroupEP21HIRT_CONNECTOR_INFO_SPNS_18ConnectorOperationE_x6bc:
    /*000006bc*/ LDR         R0, [SP, #32] 
    /*000006c0*/ MOV         R2, #0 
    /*000006c4*/ ADD         R1, SP, #60                 @ 0x3c 
    /*000006c8*/ BL          _ZNSt7__cxx1112basic_stringIcSt11char_traitsIcESaIcEE9_M_createERjj
    /*000006cc*/ LDR         R3, [SP, #60]               @ 0x3c 
    /*000006d0*/ STR         R0, [SP, #64]               @ 0x40 
    /*000006d4*/ STR         R3, [SP, #72]               @ 0x48 
    _ZN4hirt17ModelGroupManager23setFrameDependOperationEPNS_10ModelGroupEP21HIRT_CONNECTOR_INFO_SPNS_18ConnectorOperationE_x6d8:
    /*000006d8*/ MOV         R2, FP 
    /*000006dc*/ MOV         R1, SL 
    /*000006e0*/ BL          memcpy
    /*000006e4*/ LDR         FP, [SP, #60]               @ 0x3c 
    /*000006e8*/ LDR         R3, [SP, #64]               @ 0x40 
    /*000006ec*/ B           _ZN4hirt17ModelGroupManager23setFrameDependOperationEPNS_10ModelGroupEP21HIRT_CONNECTOR_INFO_SPNS_18ConnectorOperationE_x558
    _ZN4hirt17ModelGroupManager23setFrameDependOperationEPNS_10ModelGroupEP21HIRT_CONNECTOR_INFO_SPNS_18ConnectorOperationE_x6f0:
    /*000006f0*/ LDRB        R2, [SP, #88]               @ 0x58 
    /*000006f4*/ MOV         R3, R5 
    /*000006f8*/ STRB        R2, [SP, #72]               @ 0x48 
    /*000006fc*/ B           _ZN4hirt17ModelGroupManager23setFrameDependOperationEPNS_10ModelGroupEP21HIRT_CONNECTOR_INFO_SPNS_18ConnectorOperationE_x558
    _ZN4hirt17ModelGroupManager23setFrameDependOperationEPNS_10ModelGroupEP21HIRT_CONNECTOR_INFO_SPNS_18ConnectorOperationE_x700:
    /*00000700*/ LDR         R1, [SP, #32] 
    /*00000704*/ ADD         R0, R6, #4 
    /*00000708*/ BL          _ZNSt6vectorINSt7__cxx1112basic_stringIcSt11char_traitsIcESaIcEEESaIS5_EE19_M_emplace_back_auxIJS5_EEEvDpOT_
    /*0000070c*/ LDR         R0, [SP, #64]               @ 0x40 
    /*00000710*/ B           _ZN4hirt17ModelGroupManager23setFrameDependOperationEPNS_10ModelGroupEP21HIRT_CONNECTOR_INFO_SPNS_18ConnectorOperationE_x5e4
    _ZN4hirt17ModelGroupManager23setFrameDependOperationEPNS_10ModelGroupEP21HIRT_CONNECTOR_INFO_SPNS_18ConnectorOperationE_x714:
    /*00000714*/ LDR         R2, [R7, #76]               @ 0x4c 
    _ZN4hirt17ModelGroupManager23setFrameDependOperationEPNS_10ModelGroupEP21HIRT_CONNECTOR_INFO_SPNS_18ConnectorOperationE_x718:
    /*00000718*/ LDR         R1, [SP, #36]               @ 0x24 
    /*0000071c*/ ADD         R1, R1, #1 
    /*00000720*/ CMP         R1, R2 
    /*00000724*/ STR         R1, [SP, #36]               @ 0x24 
    /*00000728*/ BCC         _ZN4hirt17ModelGroupManager23setFrameDependOperationEPNS_10ModelGroupEP21HIRT_CONNECTOR_INFO_SPNS_18ConnectorOperationE_x4cc
    /*0000072c*/ B           _ZN4hirt17ModelGroupManager23setFrameDependOperationEPNS_10ModelGroupEP21HIRT_CONNECTOR_INFO_SPNS_18ConnectorOperationE_x42c
    _ZN4hirt17ModelGroupManager23setFrameDependOperationEPNS_10ModelGroupEP21HIRT_CONNECTOR_INFO_SPNS_18ConnectorOperationE_x730:
    /*00000730*/ STR         R0, [SP] 
    /*00000734*/ MOV         FP, R0 
    /*00000738*/ LDR         R3, WORD_08f0               @ LDR         R3, [PC, #432]              @ 0x00000000000008f0 
    /*0000073c*/ MOV         R1, #4 
    /*00000740*/ LDR         R2, WORD_08f4               @ LDR         R2, [PC, #428]              @ 0x00000000000008f4 
    /*00000744*/ LDR         R0, WORD_08f8               @ LDR         R0, [PC, #428]              @ 0x00000000000008f8 
    /*00000748*/ ADD         R3, PC, R3 
    /*0000074c*/ ADD         R2, PC, R2 
    /*00000750*/ ADD         R0, PC, R0 
    /*00000754*/ BL          _Z15HIRT_LOG_PrintfPKc19tagHIRT_LOG_LEVEL_ES0_z
    /*00000758*/ B           _ZN4hirt17ModelGroupManager23setFrameDependOperationEPNS_10ModelGroupEP21HIRT_CONNECTOR_INFO_SPNS_18ConnectorOperationE_x430
    _ZN4hirt17ModelGroupManager23setFrameDependOperationEPNS_10ModelGroupEP21HIRT_CONNECTOR_INFO_SPNS_18ConnectorOperationE_x75c:
    /*0000075c*/ MOV         R0, R5 
    /*00000760*/ B           _ZN4hirt17ModelGroupManager23setFrameDependOperationEPNS_10ModelGroupEP21HIRT_CONNECTOR_INFO_SPNS_18ConnectorOperationE_x6d8
    _ZN4hirt17ModelGroupManager23setFrameDependOperationEPNS_10ModelGroupEP21HIRT_CONNECTOR_INFO_SPNS_18ConnectorOperationE_x764:
    /*00000764*/ ADD         R1, SP, #56                 @ 0x38 
    /*00000768*/ ADD         R0, R8, #88                 @ 0x58 
    /*0000076c*/ BL          _ZNSt6vectorIPN4hirt22OPERATION_FRAME_NOTIFYESaIS2_EE19_M_emplace_back_auxIJRKS2_EEEvDpOT_
    /*00000770*/ LDR         R2, [R8, #88]               @ 0x58 
    /*00000774*/ LDR         R3, [R8, #92]               @ 0x5c 
    /*00000778*/ SUB         R3, R3, R2 
    /*0000077c*/ ASR         R3, R3, #2 
    /*00000780*/ B           _ZN4hirt17ModelGroupManager23setFrameDependOperationEPNS_10ModelGroupEP21HIRT_CONNECTOR_INFO_SPNS_18ConnectorOperationE_x6a0
    _ZN4hirt17ModelGroupManager23setFrameDependOperationEPNS_10ModelGroupEP21HIRT_CONNECTOR_INFO_SPNS_18ConnectorOperationE_x784:
    /*00000784*/ LDR         R1, [SP, #40]               @ 0x28 
    /*00000788*/ ADD         R0, R5, #8 
    /*0000078c*/ BL          _ZNSt6vectorINSt7__cxx1112basic_stringIcSt11char_traitsIcESaIcEEESaIS5_EE19_M_emplace_back_auxIJS5_EEEvDpOT_
    /*00000790*/ LDR         R0, [SP, #88]               @ 0x58 
    /*00000794*/ B           _ZN4hirt17ModelGroupManager23setFrameDependOperationEPNS_10ModelGroupEP21HIRT_CONNECTOR_INFO_SPNS_18ConnectorOperationE_x190
    _ZN4hirt17ModelGroupManager23setFrameDependOperationEPNS_10ModelGroupEP21HIRT_CONNECTOR_INFO_SPNS_18ConnectorOperationE_x798:
    /*00000798*/ ADD         R1, SP, #52                 @ 0x34 
    /*0000079c*/ ADD         R0, R8, #76                 @ 0x4c 
    /*000007a0*/ BL          _ZNSt6vectorIPN4hirt22OPERATION_FRAME_DEPENDESaIS2_EE19_M_emplace_back_auxIJRKS2_EEEvDpOT_
    /*000007a4*/ LDR         R2, [R7, #96]               @ 0x60 
    /*000007a8*/ B           _ZN4hirt17ModelGroupManager23setFrameDependOperationEPNS_10ModelGroupEP21HIRT_CONNECTOR_INFO_SPNS_18ConnectorOperationE_x6c
    _ZN4hirt17ModelGroupManager23setFrameDependOperationEPNS_10ModelGroupEP21HIRT_CONNECTOR_INFO_SPNS_18ConnectorOperationE_x7ac:
    /*000007ac*/ SUB         R0, FP, R4 
    /*000007b0*/ CMP         R0, #0 
    /*000007b4*/ BGE         _ZN4hirt17ModelGroupManager23setFrameDependOperationEPNS_10ModelGroupEP21HIRT_CONNECTOR_INFO_SPNS_18ConnectorOperationE_x490
    _ZN4hirt17ModelGroupManager23setFrameDependOperationEPNS_10ModelGroupEP21HIRT_CONNECTOR_INFO_SPNS_18ConnectorOperationE_x7b8:
    /*000007b8*/ LDR         R0, WORD_08fc               @ LDR         R0, [PC, #316]              @ 0x00000000000008fc 
    /*000007bc*/ ADD         R0, PC, R0 
    /*000007c0*/ BL          _ZSt20__throw_out_of_rangePKc
    _ZN4hirt17ModelGroupManager23setFrameDependOperationEPNS_10ModelGroupEP21HIRT_CONNECTOR_INFO_SPNS_18ConnectorOperationE_x7c4:
    /*000007c4*/ LDR         R0, [SP, #40]               @ 0x28 
    /*000007c8*/ MOV         R2, #0 
    /*000007cc*/ ADD         R1, SP, #60                 @ 0x3c 
    /*000007d0*/ BL          _ZNSt7__cxx1112basic_stringIcSt11char_traitsIcESaIcEE9_M_createERjj
    /*000007d4*/ LDR         R3, [SP, #60]               @ 0x3c 
    /*000007d8*/ STR         R0, [SP, #88]               @ 0x58 
    /*000007dc*/ STR         R3, [SP, #96]               @ 0x60 
    _ZN4hirt17ModelGroupManager23setFrameDependOperationEPNS_10ModelGroupEP21HIRT_CONNECTOR_INFO_SPNS_18ConnectorOperationE_x7e0:
    /*000007e0*/ LDR         R1, [SP, #12] 
    /*000007e4*/ MOV         R2, R4 
    /*000007e8*/ BL          memcpy
    /*000007ec*/ LDR         R4, [SP, #60]               @ 0x3c 
    /*000007f0*/ LDR         R2, [SP, #88]               @ 0x58 
    /*000007f4*/ B           _ZN4hirt17ModelGroupManager23setFrameDependOperationEPNS_10ModelGroupEP21HIRT_CONNECTOR_INFO_SPNS_18ConnectorOperationE_x208
    _ZN4hirt17ModelGroupManager23setFrameDependOperationEPNS_10ModelGroupEP21HIRT_CONNECTOR_INFO_SPNS_18ConnectorOperationE_x7f8:
    /*000007f8*/ MOV         R0, R3 
    /*000007fc*/ MOV         R2, #0 
    /*00000800*/ ADD         R1, SP, #60                 @ 0x3c 
    /*00000804*/ BL          _ZNSt7__cxx1112basic_stringIcSt11char_traitsIcESaIcEE9_M_createERjj
    /*00000808*/ LDR         R3, [SP, #60]               @ 0x3c 
    /*0000080c*/ STR         R0, [SP, #64]               @ 0x40 
    /*00000810*/ STR         R3, [SP, #72]               @ 0x48 
    _ZN4hirt17ModelGroupManager23setFrameDependOperationEPNS_10ModelGroupEP21HIRT_CONNECTOR_INFO_SPNS_18ConnectorOperationE_x814:
    /*00000814*/ LDR         R1, [SP, #12] 
    /*00000818*/ MOV         R2, R4 
    /*0000081c*/ BL          memcpy
    /*00000820*/ LDR         R4, [SP, #60]               @ 0x3c 
    /*00000824*/ LDR         R2, [SP, #64]               @ 0x40 
    /*00000828*/ B           _ZN4hirt17ModelGroupManager23setFrameDependOperationEPNS_10ModelGroupEP21HIRT_CONNECTOR_INFO_SPNS_18ConnectorOperationE_x380
    _ZN4hirt17ModelGroupManager23setFrameDependOperationEPNS_10ModelGroupEP21HIRT_CONNECTOR_INFO_SPNS_18ConnectorOperationE_x82c:
    /*0000082c*/ MOV         R6, R9 
    /*00000830*/ LDM         R6!, {R0, R1, R2, R3} 
    /*00000834*/ STR         R0, [IP, #8] 
    /*00000838*/ STR         R1, [IP, #12] 
    /*0000083c*/ STR         R2, [IP, #16] 
    /*00000840*/ STR         R3, [IP, #20] 
    /*00000844*/ LDR         R3, [R5, #12] 
    /*00000848*/ B           _ZN4hirt17ModelGroupManager23setFrameDependOperationEPNS_10ModelGroupEP21HIRT_CONNECTOR_INFO_SPNS_18ConnectorOperationE_x168
    _ZN4hirt17ModelGroupManager23setFrameDependOperationEPNS_10ModelGroupEP21HIRT_CONNECTOR_INFO_SPNS_18ConnectorOperationE_x84c:
    /*0000084c*/ LDRB        R3, [R7, #8] 
    /*00000850*/ MOV         R2, R9 
    /*00000854*/ STRB        R3, [SP, #96]               @ 0x60 
    /*00000858*/ B           _ZN4hirt17ModelGroupManager23setFrameDependOperationEPNS_10ModelGroupEP21HIRT_CONNECTOR_INFO_SPNS_18ConnectorOperationE_x208
    _ZN4hirt17ModelGroupManager23setFrameDependOperationEPNS_10ModelGroupEP21HIRT_CONNECTOR_INFO_SPNS_18ConnectorOperationE_x85c:
    /*0000085c*/ LDRB        R3, [R7, #8] 
    /*00000860*/ MOV         R2, R5 
    /*00000864*/ STRB        R3, [SP, #72]               @ 0x48 
    /*00000868*/ B           _ZN4hirt17ModelGroupManager23setFrameDependOperationEPNS_10ModelGroupEP21HIRT_CONNECTOR_INFO_SPNS_18ConnectorOperationE_x380
    _ZN4hirt17ModelGroupManager23setFrameDependOperationEPNS_10ModelGroupEP21HIRT_CONNECTOR_INFO_SPNS_18ConnectorOperationE_x86c:
    /*0000086c*/ MOV         R0, R9 
    /*00000870*/ B           _ZN4hirt17ModelGroupManager23setFrameDependOperationEPNS_10ModelGroupEP21HIRT_CONNECTOR_INFO_SPNS_18ConnectorOperationE_x2a0
    _ZN4hirt17ModelGroupManager23setFrameDependOperationEPNS_10ModelGroupEP21HIRT_CONNECTOR_INFO_SPNS_18ConnectorOperationE_x874:
    /*00000874*/ CMP         SL, R9 
    /*00000878*/ BEQ         _ZN4hirt17ModelGroupManager23setFrameDependOperationEPNS_10ModelGroupEP21HIRT_CONNECTOR_INFO_SPNS_18ConnectorOperationE_x42c
    /*0000087c*/ MOV         R6, R2 
    /*00000880*/ B           _ZN4hirt17ModelGroupManager23setFrameDependOperationEPNS_10ModelGroupEP21HIRT_CONNECTOR_INFO_SPNS_18ConnectorOperationE_x300
    _ZN4hirt17ModelGroupManager23setFrameDependOperationEPNS_10ModelGroupEP21HIRT_CONNECTOR_INFO_SPNS_18ConnectorOperationE_x884:
    /*00000884*/ ADD         R3, SP, #88                 @ 0x58 
    /*00000888*/ ADD         R9, SP, #96                 @ 0x60 
    /*0000088c*/ STR         R3, [SP, #40]               @ 0x28 
    /*00000890*/ B           _ZN4hirt17ModelGroupManager23setFrameDependOperationEPNS_10ModelGroupEP21HIRT_CONNECTOR_INFO_SPNS_18ConnectorOperationE_x1d0
    _ZN4hirt17ModelGroupManager23setFrameDependOperationEPNS_10ModelGroupEP21HIRT_CONNECTOR_INFO_SPNS_18ConnectorOperationE_x894:
    /*00000894*/ LDR         R0, [SP, #64]               @ 0x40 
    /*00000898*/ CMP         R0, R5 
    /*0000089c*/ BEQ         _ZN4hirt17ModelGroupManager23setFrameDependOperationEPNS_10ModelGroupEP21HIRT_CONNECTOR_INFO_SPNS_18ConnectorOperationE_x8a4
    _ZN4hirt17ModelGroupManager23setFrameDependOperationEPNS_10ModelGroupEP21HIRT_CONNECTOR_INFO_SPNS_18ConnectorOperationE_x8a0:
    /*000008a0*/ BL          _ZdlPv
    _ZN4hirt17ModelGroupManager23setFrameDependOperationEPNS_10ModelGroupEP21HIRT_CONNECTOR_INFO_SPNS_18ConnectorOperationE_x8a4:
    /*000008a4*/ BL          __cxa_end_cleanup
    _ZN4hirt17ModelGroupManager23setFrameDependOperationEPNS_10ModelGroupEP21HIRT_CONNECTOR_INFO_SPNS_18ConnectorOperationE_x8a8:
    /*000008a8*/ MOV         R0, R9 
    /*000008ac*/ B           _ZN4hirt17ModelGroupManager23setFrameDependOperationEPNS_10ModelGroupEP21HIRT_CONNECTOR_INFO_SPNS_18ConnectorOperationE_x7e0
    _ZN4hirt17ModelGroupManager23setFrameDependOperationEPNS_10ModelGroupEP21HIRT_CONNECTOR_INFO_SPNS_18ConnectorOperationE_x8b0:
    /*000008b0*/ MOV         R0, R5 
    /*000008b4*/ B           _ZN4hirt17ModelGroupManager23setFrameDependOperationEPNS_10ModelGroupEP21HIRT_CONNECTOR_INFO_SPNS_18ConnectorOperationE_x814
    /*000008b8*/ B           _ZN4hirt17ModelGroupManager23setFrameDependOperationEPNS_10ModelGroupEP21HIRT_CONNECTOR_INFO_SPNS_18ConnectorOperationE_x894
    _ZN4hirt17ModelGroupManager23setFrameDependOperationEPNS_10ModelGroupEP21HIRT_CONNECTOR_INFO_SPNS_18ConnectorOperationE_x8bc:
    /*000008bc*/ BL          __stack_chk_fail
    /*000008c0*/ LDR         R0, [SP, #88]               @ 0x58 
    /*000008c4*/ CMP         R0, R9 
    /*000008c8*/ BNE         _ZN4hirt17ModelGroupManager23setFrameDependOperationEPNS_10ModelGroupEP21HIRT_CONNECTOR_INFO_SPNS_18ConnectorOperationE_x8a0
    /*000008cc*/ B           _ZN4hirt17ModelGroupManager23setFrameDependOperationEPNS_10ModelGroupEP21HIRT_CONNECTOR_INFO_SPNS_18ConnectorOperationE_x8a4
    /*000008d0*/ WORD_08d0: .word 0x000008a8
    /*000008d4*/ WORD_08d4: .word 0x00000000
    /*000008d8*/ WORD_08d8: .word 0x00000000
    /*000008dc*/ WORD_08dc: .word 0x000005a8
    /*000008e0*/ WORD_08e0: .word 0x000005a8
    /*000008e4*/ WORD_08e4: .word 0x000004e0
    /*000008e8*/ WORD_08e8: .word 0x0000041c
    /*000008ec*/ WORD_08ec: .word 0x00000230
    /*000008f0*/ WORD_08f0: .word 0x000001a0
    /*000008f4*/ WORD_08f4: .word 0x000001a0
    /*000008f8*/ WORD_08f8: .word 0x000001a0
    /*000008fc*/ WORD_08fc: .word 0x00000138
FUNC_END _ZN4hirt17ModelGroupManager23setFrameDependOperationEPNS_10ModelGroupEP21HIRT_CONNECTOR_INFO_SPNS_18ConnectorOperationE


@ - - - - - - - - - - - - - - - - - - - - - - - - - - - - - 
@ .ARM.extab.text._ZN4hirt17ModelGroupManager23setFrameDependOperationEPNS_10ModelGroupEP21HIRT_CONNECTOR_INFO_SPNS_18ConnectorOperationE
@ Size: 0x34
@ - - - - - - - - - - - - - - - - - - - - - - - - - - - - - 

@ - - - - - - - - - - - - - - - - - - - - - - - - - - - - - 
@ .text._ZN4hirt17ModelGroupManager23setFrameDependOperationEPNS_10ModelGroupEPNS_12GraphOfflineEP17HIRT_MODEL_INFO_S
@ Size: 0xc14
@ - - - - - - - - - - - - - - - - - - - - - - - - - - - - - 

FUNC_BEGIN _ZN4hirt17ModelGroupManager23setFrameDependOperationEPNS_10ModelGroupEPNS_12GraphOfflineEP17HIRT_MODEL_INFO_S
    /*00000000*/ MOV         IP, #16384                  @ 0x4000 
    /*00000004*/ PUSH        {R4, R5, R6, R7, R8, R9, SL, FP, LR} 
    /*00000008*/ SUB         IP, SP, IP 
    /*0000000c*/ STR         R0, [IP, #3792]             @ 0xed0 
    /*00000010*/ LDR         R0, WORD_0bd4               @ LDR         R0, [PC, #3004]             @ 0x0000000000000bd4 
    /*00000014*/ SUB         SP, SP, #268                @ 0x10c 
    /*00000018*/ MOV         IP, R2 
    /*0000001c*/ MOV         FP, R3 
    /*00000020*/ ADD         R0, PC, R0 
    /*00000024*/ STR         R2, [SP, #56]               @ 0x38 
    /*00000028*/ STR         R1, [SP, #52]               @ 0x34 
    /*0000002c*/ MOV         R1, IP 
    /*00000030*/ LDR         R2, WORD_0bd8               @ LDR         R2, [PC, #2976]             @ 0x0000000000000bd8 
    /*00000034*/ LDR         IP, [IP, #64]               @ 0x40 
    /*00000038*/ STR         R0, [SP, #48]               @ 0x30 
    /*0000003c*/ STR         IP, [SP, #44]               @ 0x2c 
    /*00000040*/ LDR         R3, [R0, R2] 
    /*00000044*/ LDR         R2, [R1, #68]               @ 0x44 
    /*00000048*/ STR         R3, [SP, #60]               @ 0x3c 
    /*0000004c*/ CMP         IP, R2 
    /*00000050*/ LDR         R3, [R3] 
    /*00000054*/ STR         R3, [SP, #260]              @ 0x104 
    /*00000058*/ BEQ         _ZN4hirt17ModelGroupManager23setFrameDependOperationEPNS_10ModelGroupEPNS_12GraphOfflineEP17HIRT_MODEL_INFO_S_x32c
    /*0000005c*/ STR         IP, [SP, #36]               @ 0x24 
    /*00000060*/ MOV         R3, #0 
    /*00000064*/ STR         R3, [SP, #12] 
    /*00000068*/ ADD         R3, SP, #136                @ 0x88 
    /*0000006c*/ STR         R3, [SP, #28] 
    /*00000070*/ LDR         R3, [SP, #36]               @ 0x24 
    /*00000074*/ B           _ZN4hirt17ModelGroupManager23setFrameDependOperationEPNS_10ModelGroupEPNS_12GraphOfflineEP17HIRT_MODEL_INFO_S_x98
    _ZN4hirt17ModelGroupManager23setFrameDependOperationEPNS_10ModelGroupEPNS_12GraphOfflineEP17HIRT_MODEL_INFO_S_x78:
    /*00000078*/ LDR         R3, [SP, #36]               @ 0x24 
    /*0000007c*/ LDR         R1, [SP, #12] 
    /*00000080*/ ADD         R3, R3, #4 
    /*00000084*/ CMP         R3, R2 
    /*00000088*/ ADD         R1, R1, #130                @ 0x82 
    /*0000008c*/ STR         R3, [SP, #36]               @ 0x24 
    /*00000090*/ STR         R1, [SP, #12] 
    /*00000094*/ BEQ         _ZN4hirt17ModelGroupManager23setFrameDependOperationEPNS_10ModelGroupEPNS_12GraphOfflineEP17HIRT_MODEL_INFO_S_x32c
    _ZN4hirt17ModelGroupManager23setFrameDependOperationEPNS_10ModelGroupEPNS_12GraphOfflineEP17HIRT_MODEL_INFO_S_x98:
    /*00000098*/ LDR         R1, [SP, #44]               @ 0x2c 
    /*0000009c*/ SUB         R3, R3, R1 
    /*000000a0*/ STR         R3, [SP, #16] 
    /*000000a4*/ MOV         R1, R3 
    /*000000a8*/ LDR         R3, [FP, #104]              @ 0x68 
    /*000000ac*/ LDR         R3, [R3, R1] 
    /*000000b0*/ CMP         R3, #0 
    /*000000b4*/ BEQ         _ZN4hirt17ModelGroupManager23setFrameDependOperationEPNS_10ModelGroupEPNS_12GraphOfflineEP17HIRT_MODEL_INFO_S_x78
    /*000000b8*/ LDR         R3, [SP, #36]               @ 0x24 
    /*000000bc*/ LDR         R5, [R3] 
    /*000000c0*/ LDR         R1, [R5, #56]               @ 0x38 
    /*000000c4*/ LDR         R4, [R5, #60]               @ 0x3c 
    /*000000c8*/ SUB         R4, R4, R1 
    /*000000cc*/ ASRS        R3, R4, #2 
    /*000000d0*/ BEQ         _ZN4hirt17ModelGroupManager23setFrameDependOperationEPNS_10ModelGroupEPNS_12GraphOfflineEP17HIRT_MODEL_INFO_S_x324
    /*000000d4*/ CMN         R3, #-1073741823            @ 0xc0000001 
    /*000000d8*/ BHI         _ZN4hirt17ModelGroupManager23setFrameDependOperationEPNS_10ModelGroupEPNS_12GraphOfflineEP17HIRT_MODEL_INFO_S_xbbc
    /*000000dc*/ MOV         R0, R4 
    /*000000e0*/ BL          _Znwj
    /*000000e4*/ LDR         R1, [R5, #56]               @ 0x38 
    /*000000e8*/ LDR         R4, [R5, #60]               @ 0x3c 
    /*000000ec*/ STR         R0, [SP, #40]               @ 0x28 
    /*000000f0*/ SUB         R4, R4, R1 
    /*000000f4*/ LSRS        R3, R4, #2 
    /*000000f8*/ BEQ         _ZN4hirt17ModelGroupManager23setFrameDependOperationEPNS_10ModelGroupEPNS_12GraphOfflineEP17HIRT_MODEL_INFO_S_x104
    /*000000fc*/ MOV         R2, R4 
    /*00000100*/ BL          memmove
    _ZN4hirt17ModelGroupManager23setFrameDependOperationEPNS_10ModelGroupEPNS_12GraphOfflineEP17HIRT_MODEL_INFO_S_x104:
    /*00000104*/ LDR         R2, [SP, #40]               @ 0x28 
    /*00000108*/ ADD         R3, R2, R4 
    /*0000010c*/ CMP         R3, R2 
    /*00000110*/ STR         R3, [SP, #20] 
    /*00000114*/ BEQ         _ZN4hirt17ModelGroupManager23setFrameDependOperationEPNS_10ModelGroupEPNS_12GraphOfflineEP17HIRT_MODEL_INFO_S_x2c8
    /*00000118*/ LDR         R3, WORD_0bdc               @ LDR         R3, [PC, #2748]             @ 0x0000000000000bdc 
    /*0000011c*/ MOV         SL, R2 
    /*00000120*/ LDR         R2, [SP, #48]               @ 0x30 
    /*00000124*/ MOV         R6, #0 
    /*00000128*/ LDR         R8, [SP, #28] 
    /*0000012c*/ LDR         R3, [R2, R3] 
    /*00000130*/ STR         R3, [SP, #24] 
    /*00000134*/ ADD         R3, SP, #128                @ 0x80 
    /*00000138*/ STR         R3, [SP, #32] 
    /*0000013c*/ B           _ZN4hirt17ModelGroupManager23setFrameDependOperationEPNS_10ModelGroupEPNS_12GraphOfflineEP17HIRT_MODEL_INFO_S_x204
    _ZN4hirt17ModelGroupManager23setFrameDependOperationEPNS_10ModelGroupEPNS_12GraphOfflineEP17HIRT_MODEL_INFO_S_x140:
    /*00000140*/ CMP         R0, #1 
    /*00000144*/ BEQ         _ZN4hirt17ModelGroupManager23setFrameDependOperationEPNS_10ModelGroupEPNS_12GraphOfflineEP17HIRT_MODEL_INFO_S_x294
    /*00000148*/ CMP         R0, #0 
    /*0000014c*/ MOVEQ       R3, R8 
    /*00000150*/ BNE         _ZN4hirt17ModelGroupManager23setFrameDependOperationEPNS_10ModelGroupEPNS_12GraphOfflineEP17HIRT_MODEL_INFO_S_x31c
    _ZN4hirt17ModelGroupManager23setFrameDependOperationEPNS_10ModelGroupEPNS_12GraphOfflineEP17HIRT_MODEL_INFO_S_x154:
    /*00000154*/ STR         R5, [SP, #132]              @ 0x84 
    /*00000158*/ STRB        R6, [R3, R5] 
    /*0000015c*/ LDR         IP, [R4, #12] 
    /*00000160*/ LDR         R3, [R4, #16] 
    /*00000164*/ CMP         IP, R3 
    /*00000168*/ BEQ         _ZN4hirt17ModelGroupManager23setFrameDependOperationEPNS_10ModelGroupEPNS_12GraphOfflineEP17HIRT_MODEL_INFO_S_x2e8
    /*0000016c*/ CMP         IP, #0 
    /*00000170*/ MOVEQ       R3, IP 
    /*00000174*/ LDREQ       R0, [SP, #128]              @ 0x80 
    /*00000178*/ BEQ         _ZN4hirt17ModelGroupManager23setFrameDependOperationEPNS_10ModelGroupEPNS_12GraphOfflineEP17HIRT_MODEL_INFO_S_x1c0
    /*0000017c*/ ADD         LR, IP, #8 
    /*00000180*/ STR         LR, [IP] 
    /*00000184*/ LDR         R3, [SP, #128]              @ 0x80 
    /*00000188*/ CMP         R3, R8 
    /*0000018c*/ BEQ         _ZN4hirt17ModelGroupManager23setFrameDependOperationEPNS_10ModelGroupEPNS_12GraphOfflineEP17HIRT_MODEL_INFO_S_x2fc
    /*00000190*/ STR         R3, [IP] 
    /*00000194*/ MOV         R3, IP 
    /*00000198*/ LDR         R2, [SP, #136]              @ 0x88 
    /*0000019c*/ STR         R2, [IP, #8] 
    _ZN4hirt17ModelGroupManager23setFrameDependOperationEPNS_10ModelGroupEPNS_12GraphOfflineEP17HIRT_MODEL_INFO_S_x1a0:
    /*000001a0*/ LDR         R2, [SP, #132]              @ 0x84 
    /*000001a4*/ LDR         R1, [SP, #28] 
    /*000001a8*/ STR         R2, [IP, #4] 
    /*000001ac*/ STR         R8, [SP, #128]              @ 0x80 
    /*000001b0*/ MOV         R0, R1 
    /*000001b4*/ STR         R6, [SP, #132]              @ 0x84 
    /*000001b8*/ MOV         R8, R1 
    /*000001bc*/ STRB        R6, [SP, #136]              @ 0x88 
    _ZN4hirt17ModelGroupManager23setFrameDependOperationEPNS_10ModelGroupEPNS_12GraphOfflineEP17HIRT_MODEL_INFO_S_x1c0:
    /*000001c0*/ ADD         R3, R3, #24 
    /*000001c4*/ STR         R3, [R4, #12] 
    _ZN4hirt17ModelGroupManager23setFrameDependOperationEPNS_10ModelGroupEPNS_12GraphOfflineEP17HIRT_MODEL_INFO_S_x1c8:
    /*000001c8*/ CMP         R0, R8 
    /*000001cc*/ BEQ         _ZN4hirt17ModelGroupManager23setFrameDependOperationEPNS_10ModelGroupEPNS_12GraphOfflineEP17HIRT_MODEL_INFO_S_x1d4
    /*000001d0*/ BL          _ZdlPv
    _ZN4hirt17ModelGroupManager23setFrameDependOperationEPNS_10ModelGroupEPNS_12GraphOfflineEP17HIRT_MODEL_INFO_S_x1d4:
    /*000001d4*/ LDR         R3, [R9, #80]               @ 0x50 
    /*000001d8*/ LDR         R2, [R9, #84]               @ 0x54 
    /*000001dc*/ STR         R4, [SP, #68]               @ 0x44 
    /*000001e0*/ CMP         R3, R2 
    /*000001e4*/ BEQ         _ZN4hirt17ModelGroupManager23setFrameDependOperationEPNS_10ModelGroupEPNS_12GraphOfflineEP17HIRT_MODEL_INFO_S_x2b0
    /*000001e8*/ CMP         R3, #0 
    /*000001ec*/ ADD         R3, R3, #4 
    /*000001f0*/ STRNE       R4, [R3, #-4] 
    /*000001f4*/ STR         R3, [R9, #80]               @ 0x50 
    /*000001f8*/ LDR         R3, [SP, #20] 
    /*000001fc*/ CMP         R3, SL 
    /*00000200*/ BEQ         _ZN4hirt17ModelGroupManager23setFrameDependOperationEPNS_10ModelGroupEPNS_12GraphOfflineEP17HIRT_MODEL_INFO_S_x2c8
    _ZN4hirt17ModelGroupManager23setFrameDependOperationEPNS_10ModelGroupEPNS_12GraphOfflineEP17HIRT_MODEL_INFO_S_x204:
    /*00000204*/ LDR         R1, [SP, #24] 
    /*00000208*/ MOV         R0, #20 
    /*0000020c*/ LDR         R9, [SL], #4 
    /*00000210*/ BL          _ZnwjRKSt9nothrow_t
    /*00000214*/ LDR         R3, [FP, #104]              @ 0x68 
    /*00000218*/ SUBS        R4, R0, #0 
    /*0000021c*/ LDR         R2, [SP, #16] 
    /*00000220*/ LDR         R7, [FP, #100]              @ 0x64 
    /*00000224*/ LDR         R3, [R3, R2] 
    /*00000228*/ LDR         R2, [SP, #12] 
    /*0000022c*/ STRNE       R6, [R4, #8] 
    /*00000230*/ STRNE       R6, [R4, #12] 
    /*00000234*/ STRNE       R6, [R4, #16] 
    /*00000238*/ ADDS        R7, R7, R2 
    /*0000023c*/ STM         R4, {R3, R6} 
    /*00000240*/ STR         R8, [SP, #128]              @ 0x80 
    /*00000244*/ BEQ         _ZN4hirt17ModelGroupManager23setFrameDependOperationEPNS_10ModelGroupEPNS_12GraphOfflineEP17HIRT_MODEL_INFO_S_x2a4
    /*00000248*/ MOV         R0, R7 
    /*0000024c*/ BL          strlen
    /*00000250*/ STR         R0, [SP, #76]               @ 0x4c 
    /*00000254*/ CMP         R0, #15 
    /*00000258*/ MOV         R5, R0 
    /*0000025c*/ BLS         _ZN4hirt17ModelGroupManager23setFrameDependOperationEPNS_10ModelGroupEPNS_12GraphOfflineEP17HIRT_MODEL_INFO_S_x140
    /*00000260*/ LDR         R0, [SP, #32] 
    /*00000264*/ MOV         R2, #0 
    /*00000268*/ ADD         R1, SP, #76                 @ 0x4c 
    /*0000026c*/ BL          _ZNSt7__cxx1112basic_stringIcSt11char_traitsIcESaIcEE9_M_createERjj
    /*00000270*/ LDR         R3, [SP, #76]               @ 0x4c 
    /*00000274*/ STR         R0, [SP, #128]              @ 0x80 
    /*00000278*/ STR         R3, [SP, #136]              @ 0x88 
    _ZN4hirt17ModelGroupManager23setFrameDependOperationEPNS_10ModelGroupEPNS_12GraphOfflineEP17HIRT_MODEL_INFO_S_x27c:
    /*0000027c*/ MOV         R2, R5 
    /*00000280*/ MOV         R1, R7 
    /*00000284*/ BL          memcpy
    /*00000288*/ LDR         R5, [SP, #76]               @ 0x4c 
    /*0000028c*/ LDR         R3, [SP, #128]              @ 0x80 
    /*00000290*/ B           _ZN4hirt17ModelGroupManager23setFrameDependOperationEPNS_10ModelGroupEPNS_12GraphOfflineEP17HIRT_MODEL_INFO_S_x154
    _ZN4hirt17ModelGroupManager23setFrameDependOperationEPNS_10ModelGroupEPNS_12GraphOfflineEP17HIRT_MODEL_INFO_S_x294:
    /*00000294*/ LDRB        R2, [R7] 
    /*00000298*/ MOV         R3, R8 
    /*0000029c*/ STRB        R2, [SP, #136]              @ 0x88 
    /*000002a0*/ B           _ZN4hirt17ModelGroupManager23setFrameDependOperationEPNS_10ModelGroupEPNS_12GraphOfflineEP17HIRT_MODEL_INFO_S_x154
    _ZN4hirt17ModelGroupManager23setFrameDependOperationEPNS_10ModelGroupEPNS_12GraphOfflineEP17HIRT_MODEL_INFO_S_x2a4:
    /*000002a4*/ LDR         R0, WORD_0be0               @ LDR         R0, [PC, #2356]             @ 0x0000000000000be0 
    /*000002a8*/ ADD         R0, PC, R0 
    /*000002ac*/ BL          _ZSt19__throw_logic_errorPKc
    _ZN4hirt17ModelGroupManager23setFrameDependOperationEPNS_10ModelGroupEPNS_12GraphOfflineEP17HIRT_MODEL_INFO_S_x2b0:
    /*000002b0*/ ADD         R0, R9, #76                 @ 0x4c 
    /*000002b4*/ ADD         R1, SP, #68                 @ 0x44 
    /*000002b8*/ BL          _ZNSt6vectorIPN4hirt22OPERATION_FRAME_DEPENDESaIS2_EE19_M_emplace_back_auxIJRKS2_EEEvDpOT_
    /*000002bc*/ LDR         R3, [SP, #20] 
    /*000002c0*/ CMP         R3, SL 
    /*000002c4*/ BNE         _ZN4hirt17ModelGroupManager23setFrameDependOperationEPNS_10ModelGroupEPNS_12GraphOfflineEP17HIRT_MODEL_INFO_S_x204
    _ZN4hirt17ModelGroupManager23setFrameDependOperationEPNS_10ModelGroupEPNS_12GraphOfflineEP17HIRT_MODEL_INFO_S_x2c8:
    /*000002c8*/ LDR         R3, [SP, #40]               @ 0x28 
    /*000002cc*/ CMP         R3, #0 
    /*000002d0*/ BEQ         _ZN4hirt17ModelGroupManager23setFrameDependOperationEPNS_10ModelGroupEPNS_12GraphOfflineEP17HIRT_MODEL_INFO_S_x2dc
    /*000002d4*/ MOV         R0, R3 
    /*000002d8*/ BL          _ZdlPv
    _ZN4hirt17ModelGroupManager23setFrameDependOperationEPNS_10ModelGroupEPNS_12GraphOfflineEP17HIRT_MODEL_INFO_S_x2dc:
    /*000002dc*/ LDR         R3, [SP, #56]               @ 0x38 
    /*000002e0*/ LDR         R2, [R3, #68]               @ 0x44 
    /*000002e4*/ B           _ZN4hirt17ModelGroupManager23setFrameDependOperationEPNS_10ModelGroupEPNS_12GraphOfflineEP17HIRT_MODEL_INFO_S_x78
    _ZN4hirt17ModelGroupManager23setFrameDependOperationEPNS_10ModelGroupEPNS_12GraphOfflineEP17HIRT_MODEL_INFO_S_x2e8:
    /*000002e8*/ LDR         R1, [SP, #32] 
    /*000002ec*/ ADD         R0, R4, #8 
    /*000002f0*/ BL          _ZNSt6vectorINSt7__cxx1112basic_stringIcSt11char_traitsIcESaIcEEESaIS5_EE19_M_emplace_back_auxIJS5_EEEvDpOT_
    /*000002f4*/ LDR         R0, [SP, #128]              @ 0x80 
    /*000002f8*/ B           _ZN4hirt17ModelGroupManager23setFrameDependOperationEPNS_10ModelGroupEPNS_12GraphOfflineEP17HIRT_MODEL_INFO_S_x1c8
    _ZN4hirt17ModelGroupManager23setFrameDependOperationEPNS_10ModelGroupEPNS_12GraphOfflineEP17HIRT_MODEL_INFO_S_x2fc:
    /*000002fc*/ MOV         R5, R8 
    /*00000300*/ LDM         R5!, {R0, R1, R2, R3} 
    /*00000304*/ STR         R0, [IP, #8] 
    /*00000308*/ STR         R1, [IP, #12] 
    /*0000030c*/ STR         R2, [IP, #16] 
    /*00000310*/ STR         R3, [IP, #20] 
    /*00000314*/ LDR         R3, [R4, #12] 
    /*00000318*/ B           _ZN4hirt17ModelGroupManager23setFrameDependOperationEPNS_10ModelGroupEPNS_12GraphOfflineEP17HIRT_MODEL_INFO_S_x1a0
    _ZN4hirt17ModelGroupManager23setFrameDependOperationEPNS_10ModelGroupEPNS_12GraphOfflineEP17HIRT_MODEL_INFO_S_x31c:
    /*0000031c*/ MOV         R0, R8 
    /*00000320*/ B           _ZN4hirt17ModelGroupManager23setFrameDependOperationEPNS_10ModelGroupEPNS_12GraphOfflineEP17HIRT_MODEL_INFO_S_x27c
    _ZN4hirt17ModelGroupManager23setFrameDependOperationEPNS_10ModelGroupEPNS_12GraphOfflineEP17HIRT_MODEL_INFO_S_x324:
    /*00000324*/ STR         R3, [SP, #40]               @ 0x28 
    /*00000328*/ B           _ZN4hirt17ModelGroupManager23setFrameDependOperationEPNS_10ModelGroupEPNS_12GraphOfflineEP17HIRT_MODEL_INFO_S_x104
    _ZN4hirt17ModelGroupManager23setFrameDependOperationEPNS_10ModelGroupEPNS_12GraphOfflineEP17HIRT_MODEL_INFO_S_x32c:
    /*0000032c*/ ADDS        R3, FP, #8 
    /*00000330*/ ADD         R9, SP, #88                 @ 0x58 
    /*00000334*/ STR         R3, [SP, #20] 
    /*00000338*/ ADD         R5, SP, #80                 @ 0x50 
    /*0000033c*/ STR         R9, [SP, #80]               @ 0x50 
    /*00000340*/ BEQ         _ZN4hirt17ModelGroupManager23setFrameDependOperationEPNS_10ModelGroupEPNS_12GraphOfflineEP17HIRT_MODEL_INFO_S_xb08
    /*00000344*/ ADDS        R0, FP, #8 
    /*00000348*/ BL          strlen
    /*0000034c*/ STR         R0, [SP, #76]               @ 0x4c 
    /*00000350*/ CMP         R0, #15 
    /*00000354*/ MOV         R4, R0 
    /*00000358*/ BHI         _ZN4hirt17ModelGroupManager23setFrameDependOperationEPNS_10ModelGroupEPNS_12GraphOfflineEP17HIRT_MODEL_INFO_S_xa90
    /*0000035c*/ CMP         R0, #1 
    /*00000360*/ BEQ         _ZN4hirt17ModelGroupManager23setFrameDependOperationEPNS_10ModelGroupEPNS_12GraphOfflineEP17HIRT_MODEL_INFO_S_xaf8
    /*00000364*/ CMP         R0, #0 
    /*00000368*/ MOVEQ       R3, R9 
    /*0000036c*/ BNE         _ZN4hirt17ModelGroupManager23setFrameDependOperationEPNS_10ModelGroupEPNS_12GraphOfflineEP17HIRT_MODEL_INFO_S_xb8c
    _ZN4hirt17ModelGroupManager23setFrameDependOperationEPNS_10ModelGroupEPNS_12GraphOfflineEP17HIRT_MODEL_INFO_S_x370:
    /*00000370*/ STR         R4, [SP, #84]               @ 0x54 
    /*00000374*/ MOV         R2, #0 
    /*00000378*/ STRB        R2, [R3, R4] 
    /*0000037c*/ LDR         R3, [SP, #52]               @ 0x34 
    /*00000380*/ LDR         R8, [SP, #80]               @ 0x50 
    /*00000384*/ LDR         R4, [R3, #64]               @ 0x40 
    /*00000388*/ ADD         R7, R3, #60                 @ 0x3c 
    /*0000038c*/ CMP         R4, R2 
    /*00000390*/ BEQ         _ZN4hirt17ModelGroupManager23setFrameDependOperationEPNS_10ModelGroupEPNS_12GraphOfflineEP17HIRT_MODEL_INFO_S_xb44
    /*00000394*/ LDR         SL, [SP, #84]               @ 0x54 
    /*00000398*/ MOV         R6, R7 
    /*0000039c*/ B           _ZN4hirt17ModelGroupManager23setFrameDependOperationEPNS_10ModelGroupEPNS_12GraphOfflineEP17HIRT_MODEL_INFO_S_x3cc
    _ZN4hirt17ModelGroupManager23setFrameDependOperationEPNS_10ModelGroupEPNS_12GraphOfflineEP17HIRT_MODEL_INFO_S_x3a0:
    /*000003a0*/ LDR         R0, [R4, #16] 
    /*000003a4*/ MOV         R1, R8 
    /*000003a8*/ BL          memcmp
    /*000003ac*/ CMP         R0, #0 
    /*000003b0*/ BEQ         _ZN4hirt17ModelGroupManager23setFrameDependOperationEPNS_10ModelGroupEPNS_12GraphOfflineEP17HIRT_MODEL_INFO_S_x3e4
    _ZN4hirt17ModelGroupManager23setFrameDependOperationEPNS_10ModelGroupEPNS_12GraphOfflineEP17HIRT_MODEL_INFO_S_x3b4:
    /*000003b4*/ CMP         R0, #0 
    /*000003b8*/ MOVGE       R6, R4 
    /*000003bc*/ LDRLT       R4, [R4, #12] 
    /*000003c0*/ LDRGE       R4, [R4, #8] 
    /*000003c4*/ CMP         R4, #0 
    /*000003c8*/ BEQ         _ZN4hirt17ModelGroupManager23setFrameDependOperationEPNS_10ModelGroupEPNS_12GraphOfflineEP17HIRT_MODEL_INFO_S_x3ec
