@
@ -- FILES --
@

@ TaskGroupManager.cpp


unsigned char data[0] = {
};

unsigned char bss[0];

_RODATA__ZTSN4HIRT7SEGTASKE_0000: .ascii "N4hirt7SegTaskE\0",
_RODATA__ZTSN4HIRT7SEGTASKE_0010: .ascii ""


unsigned char data.rel.ro._ZTIN4hirt7SegTaskE[8] = {
    /*0000*/ 0x08, 0x00, 0x00, 0x00, 0x00, 0x00, 0x00, 0x00, 
};

unsigned char rel.data.rel.ro._ZTIN4hirt7SegTaskE[16] = {
    /*0000*/ 0x00, 0x00, 0x00, 0x00, 0x02, 0x61, 0x02, 0x00, 0x04, 0x00, 0x00, 0x00, 0x02, 0x60, 0x02, 0x00, 
};

_RODATA__ZTSN4HIRT13GROUPITEMTASKE_0000: .ascii "N4hirt13GroupItemTaskE\0"


unsigned char data.rel.ro._ZTIN4hirt13GroupItemTaskE[8] = {
    /*0000*/ 0x08, 0x00, 0x00, 0x00, 0x00, 0x00, 0x00, 0x00, 
};

unsigned char rel.data.rel.ro._ZTIN4hirt13GroupItemTaskE[16] = {
    /*0000*/ 0x00, 0x00, 0x00, 0x00, 0x02, 0x61, 0x02, 0x00, 0x04, 0x00, 0x00, 0x00, 0x02, 0x62, 0x02, 0x00, 
};

_RODATA__ZTSN4HIRT9MODELTASKE_0000: .ascii "N4hirt9ModelTaskE\0"


unsigned char data.rel.ro._ZTIN4hirt9ModelTaskE[12] = {
    /*0000*/ 0x08, 0x00, 0x00, 0x00, 0x00, 0x00, 0x00, 0x00, 0x00, 0x00, 0x00, 0x00, 
};

unsigned char rel.data.rel.ro._ZTIN4hirt9ModelTaskE[24] = {
    /*0000*/ 0x00, 0x00, 0x00, 0x00, 0x02, 0x66, 0x02, 0x00, 0x04, 0x00, 0x00, 0x00, 0x02, 0x64, 0x02, 0x00, 
    /*0010*/ 0x08, 0x00, 0x00, 0x00, 0x02, 0x63, 0x02, 0x00, 
};

_RODATA__ZTSN4HIRT13CONNECTORTASKE_0000: .ascii "N4hirt13ConnectorTaskE\0"


unsigned char data.rel.ro._ZTIN4hirt13ConnectorTaskE[12] = {
    /*0000*/ 0x08, 0x00, 0x00, 0x00, 0x00, 0x00, 0x00, 0x00, 0x00, 0x00, 0x00, 0x00, 
};

unsigned char rel.data.rel.ro._ZTIN4hirt13ConnectorTaskE[24] = {
    /*0000*/ 0x00, 0x00, 0x00, 0x00, 0x02, 0x66, 0x02, 0x00, 0x04, 0x00, 0x00, 0x00, 0x02, 0x67, 0x02, 0x00, 
    /*0010*/ 0x08, 0x00, 0x00, 0x00, 0x02, 0x63, 0x02, 0x00, 
};

_RODATA__ZTSN4HIRT14MODELGROUPTASKE_0000: .ascii "N4hirt14ModelGroupTaskE\0",
_RODATA__ZTSN4HIRT14MODELGROUPTASKE_0018: .ascii ""


unsigned char data.rel.ro._ZTIN4hirt14ModelGroupTaskE[8] = {
    /*0000*/ 0x08, 0x00, 0x00, 0x00, 0x00, 0x00, 0x00, 0x00, 
};

unsigned char rel.data.rel.ro._ZTIN4hirt14ModelGroupTaskE[16] = {
    /*0000*/ 0x00, 0x00, 0x00, 0x00, 0x02, 0x61, 0x02, 0x00, 0x04, 0x00, 0x00, 0x00, 0x02, 0x69, 0x02, 0x00, 
};

_RODATA__ZTSN4HIRT17TASKGROUPPRIORITYE_0000: .ascii "N4hirt17TaskGroupPriorityE\0"


unsigned char data.rel.ro._ZTIN4hirt17TaskGroupPriorityE[8] = {
    /*0000*/ 0x08, 0x00, 0x00, 0x00, 0x00, 0x00, 0x00, 0x00, 
};

unsigned char rel.data.rel.ro._ZTIN4hirt17TaskGroupPriorityE[16] = {
    /*0000*/ 0x00, 0x00, 0x00, 0x00, 0x02, 0x61, 0x02, 0x00, 0x04, 0x00, 0x00, 0x00, 0x02, 0x6b, 0x02, 0x00, 
};

_RODATA__ZTSN4HIRT16TASKGROUPMANAGERE_0000: .ascii "N4hirt16TaskGroupManagerE\0"


unsigned char data.rel.ro._ZTIN4hirt16TaskGroupManagerE[8] = {
    /*0000*/ 0x08, 0x00, 0x00, 0x00, 0x00, 0x00, 0x00, 0x00, 
};

unsigned char rel.data.rel.ro._ZTIN4hirt16TaskGroupManagerE[16] = {
    /*0000*/ 0x00, 0x00, 0x00, 0x00, 0x02, 0x61, 0x02, 0x00, 0x04, 0x00, 0x00, 0x00, 0x02, 0x6d, 0x02, 0x00, 
};

unsigned char data.rel.ro.local._ZTVN4hirt13GroupItemTaskE[16] = {
    /*0000*/ 0x00, 0x00, 0x00, 0x00, 0x00, 0x00, 0x00, 0x00, 0x00, 0x00, 0x00, 0x00, 0x00, 0x00, 0x00, 0x00, 
};

unsigned char rel.data.rel.ro.local._ZTVN4hirt13GroupItemTaskE[24] = {
    /*0000*/ 0x04, 0x00, 0x00, 0x00, 0x02, 0x63, 0x02, 0x00, 0x08, 0x00, 0x00, 0x00, 0x02, 0xf3, 0x01, 0x00, 
    /*0010*/ 0x0c, 0x00, 0x00, 0x00, 0x02, 0xf8, 0x01, 0x00, 
};

unsigned char data.rel.ro.local._ZTVN4hirt9ModelTaskE[16] = {
    /*0000*/ 0x00, 0x00, 0x00, 0x00, 0x00, 0x00, 0x00, 0x00, 0x00, 0x00, 0x00, 0x00, 0x00, 0x00, 0x00, 0x00, 
};

unsigned char rel.data.rel.ro.local._ZTVN4hirt9ModelTaskE[24] = {
    /*0000*/ 0x04, 0x00, 0x00, 0x00, 0x02, 0x65, 0x02, 0x00, 0x08, 0x00, 0x00, 0x00, 0x02, 0xf5, 0x01, 0x00, 
    /*0010*/ 0x0c, 0x00, 0x00, 0x00, 0x02, 0xf9, 0x01, 0x00, 
};

unsigned char data.rel.ro.local._ZTVN4hirt13ConnectorTaskE[16] = {
    /*0000*/ 0x00, 0x00, 0x00, 0x00, 0x00, 0x00, 0x00, 0x00, 0x00, 0x00, 0x00, 0x00, 0x00, 0x00, 0x00, 0x00, 
};

unsigned char rel.data.rel.ro.local._ZTVN4hirt13ConnectorTaskE[24] = {
    /*0000*/ 0x04, 0x00, 0x00, 0x00, 0x02, 0x68, 0x02, 0x00, 0x08, 0x00, 0x00, 0x00, 0x02, 0xf7, 0x01, 0x00, 
    /*0010*/ 0x0c, 0x00, 0x00, 0x00, 0x02, 0xfa, 0x01, 0x00, 
};

unsigned char data.rel.ro.local._ZTVN4hirt14ModelGroupTaskE[16] = {
    /*0000*/ 0x00, 0x00, 0x00, 0x00, 0x00, 0x00, 0x00, 0x00, 0x00, 0x00, 0x00, 0x00, 0x00, 0x00, 0x00, 0x00, 
};

unsigned char rel.data.rel.ro.local._ZTVN4hirt14ModelGroupTaskE[24] = {
    /*0000*/ 0x04, 0x00, 0x00, 0x00, 0x02, 0x6a, 0x02, 0x00, 0x08, 0x00, 0x00, 0x00, 0x02, 0x20, 0x02, 0x00, 
    /*0010*/ 0x0c, 0x00, 0x00, 0x00, 0x02, 0x21, 0x02, 0x00, 
};

unsigned char data.rel.ro.local._ZTVN4hirt17TaskGroupPriorityE[16] = {
    /*0000*/ 0x00, 0x00, 0x00, 0x00, 0x00, 0x00, 0x00, 0x00, 0x00, 0x00, 0x00, 0x00, 0x00, 0x00, 0x00, 0x00, 
};

unsigned char rel.data.rel.ro.local._ZTVN4hirt17TaskGroupPriorityE[24] = {
    /*0000*/ 0x04, 0x00, 0x00, 0x00, 0x02, 0x6c, 0x02, 0x00, 0x08, 0x00, 0x00, 0x00, 0x02, 0xee, 0x01, 0x00, 
    /*0010*/ 0x0c, 0x00, 0x00, 0x00, 0x02, 0xef, 0x01, 0x00, 
};

unsigned char data.rel.ro.local._ZTVN4hirt16TaskGroupManagerE[16] = {
    /*0000*/ 0x00, 0x00, 0x00, 0x00, 0x00, 0x00, 0x00, 0x00, 0x00, 0x00, 0x00, 0x00, 0x00, 0x00, 0x00, 0x00, 
};

unsigned char rel.data.rel.ro.local._ZTVN4hirt16TaskGroupManagerE[24] = {
    /*0000*/ 0x04, 0x00, 0x00, 0x00, 0x02, 0x6e, 0x02, 0x00, 0x08, 0x00, 0x00, 0x00, 0x02, 0xe8, 0x01, 0x00, 
    /*0010*/ 0x0c, 0x00, 0x00, 0x00, 0x02, 0xe9, 0x01, 0x00, 
};

unsigned char bss._ZGVZN4hirt16TaskGroupManager11getInstanceEvE9mInstance[4];

unsigned char bss._ZN4hirt16TaskGroupManager16mTotalSegTaskNumE[4];

unsigned char bss._ZN4hirt16TaskGroupManager18aTaskGroupPriorityE[220];

unsigned char bss._ZN4hirt16TaskGroupManager4mMutE[24];

unsigned char bss._ZStL8__ioinit[1];

unsigned char bss._ZZN4hirt16TaskGroupManager11getInstanceEvE9mInstance[64];

_RODATA__ZL13ASSEMBLEBLOBSP22HIRT_GROUP_PRIV_INFO_SPN4HIRT14MODELGROUPTASKEP28HIRUNTIME_GROUP_BLOB_ARRAY_SS5__STR1_4_0000: .ascii "%s: addUserBlobToMap[%d] for src error\0\0",
_RODATA__ZL13ASSEMBLEBLOBSP22HIRT_GROUP_PRIV_INFO_SPN4HIRT14MODELGROUPTASKEP28HIRUNTIME_GROUP_BLOB_ARRAY_SS5__STR1_4_0028: .ascii "%s: addUserBlobToMap[%d] for dst error\0\0",
_RODATA__ZL13ASSEMBLEBLOBSP22HIRT_GROUP_PRIV_INFO_SPN4HIRT14MODELGROUPTASKEP28HIRUNTIME_GROUP_BLOB_ARRAY_SS5__STR1_4_0050: .ascii "wrong enType[%d][%d]\0\0\0\0",
_RODATA__ZL13ASSEMBLEBLOBSP22HIRT_GROUP_PRIV_INFO_SPN4HIRT14MODELGROUPTASKEP28HIRUNTIME_GROUP_BLOB_ARRAY_SS5__STR1_4_0068: .ascii "blob num is 0\0\0\0",
_RODATA__ZL13ASSEMBLEBLOBSP22HIRT_GROUP_PRIV_INFO_SPN4HIRT14MODELGROUPTASKEP28HIRUNTIME_GROUP_BLOB_ARRAY_SS5__STR1_4_0078: .ascii "malloc runtime blob array fail\0\0",
_RODATA__ZL13ASSEMBLEBLOBSP22HIRT_GROUP_PRIV_INFO_SPN4HIRT14MODELGROUPTASKEP28HIRUNTIME_GROUP_BLOB_ARRAY_SS5__STR1_4_0098: .ascii "assembleBlobs: malloc blob[%s] error\0\0\0\0",
_RODATA__ZL13ASSEMBLEBLOBSP22HIRT_GROUP_PRIV_INFO_SPN4HIRT14MODELGROUPTASKEP28HIRUNTIME_GROUP_BLOB_ARRAY_SS5__STR1_4_00c0: .ascii "%s:[%d] clear blobs error\0\0\0",
_RODATA__ZL13ASSEMBLEBLOBSP22HIRT_GROUP_PRIV_INFO_SPN4HIRT14MODELGROUPTASKEP28HIRUNTIME_GROUP_BLOB_ARRAY_SS5__STR1_4_00dc: .ascii "No such blob[%s] from user parameter!\0\0\0",
_RODATA__ZL13ASSEMBLEBLOBSP22HIRT_GROUP_PRIV_INFO_SPN4HIRT14MODELGROUPTASKEP28HIRUNTIME_GROUP_BLOB_ARRAY_SS5__STR1_4_0104: .ascii "First frame[%u]!\0\0\0\0",
_RODATA__ZL13ASSEMBLEBLOBSP22HIRT_GROUP_PRIV_INFO_SPN4HIRT14MODELGROUPTASKEP28HIRUNTIME_GROUP_BLOB_ARRAY_SS5__STR1_4_0118: .ascii "Can not find frame[%u] model group task!\0\0\0\0",
_RODATA__ZL13ASSEMBLEBLOBSP22HIRT_GROUP_PRIV_INFO_SPN4HIRT14MODELGROUPTASKEP28HIRUNTIME_GROUP_BLOB_ARRAY_SS5__STR1_4_0144: .ascii "listBlobs is null\0\0\0",
_RODATA__ZL13ASSEMBLEBLOBSP22HIRT_GROUP_PRIV_INFO_SPN4HIRT14MODELGROUPTASKEP28HIRUNTIME_GROUP_BLOB_ARRAY_SS5__STR1_4_0158: .ascii "%s:[%d] copy blob from listBlobs error\0\0",
_RODATA__ZL13ASSEMBLEBLOBSP22HIRT_GROUP_PRIV_INFO_SPN4HIRT14MODELGROUPTASKEP28HIRUNTIME_GROUP_BLOB_ARRAY_SS5__STR1_4_0180: .ascii "%s:[%d] copy blob from mapBlobs error\0\0\0",
_RODATA__ZL13ASSEMBLEBLOBSP22HIRT_GROUP_PRIV_INFO_SPN4HIRT14MODELGROUPTASKEP28HIRUNTIME_GROUP_BLOB_ARRAY_SS5__STR1_4_01a8: .ascii "assembleBlobsForOneGroupItem[%s] src error\0\0",
_RODATA__ZL13ASSEMBLEBLOBSP22HIRT_GROUP_PRIV_INFO_SPN4HIRT14MODELGROUPTASKEP28HIRUNTIME_GROUP_BLOB_ARRAY_SS5__STR1_4_01d4: .ascii "assembleBlobsForOneGroupItem[%s] dst error\0"


_RODATA__ZL16ADDUSERBLOBTOMAPPN4HIRT14MODELGROUPTASKERST3MAPINST7__CXX1112BASIC_STRINGICST11CHAR_TRAITSICESAICEEEP16HIRUNTIME_BLOB_SST4LESSIS8_ESAIST4PAIRIKS8_SA_EEER22HIRUNTIME_GROUP_BLOB_S_STR1_4_0000: .ascii "%s.%s\0\0\0",
_RODATA__ZL16ADDUSERBLOBTOMAPPN4HIRT14MODELGROUPTASKERST3MAPINST7__CXX1112BASIC_STRINGICST11CHAR_TRAITSICESAICEEEP16HIRUNTIME_BLOB_SST4LESSIS8_ESAIST4PAIRIKS8_SA_EEER22HIRUNTIME_GROUP_BLOB_S_STR1_4_0008: .ascii "%s:[%d] combine OwnerName & BlobName error\0\0",
_RODATA__ZL16ADDUSERBLOBTOMAPPN4HIRT14MODELGROUPTASKERST3MAPINST7__CXX1112BASIC_STRINGICST11CHAR_TRAITSICESAICEEEP16HIRUNTIME_BLOB_SST4LESSIS8_ESAIST4PAIRIKS8_SA_EEER22HIRUNTIME_GROUP_BLOB_S_STR1_4_0034: .ascii "%s:[%d] copy blobName error\0",
_RODATA__ZL16ADDUSERBLOBTOMAPPN4HIRT14MODELGROUPTASKERST3MAPINST7__CXX1112BASIC_STRINGICST11CHAR_TRAITSICESAICEEEP16HIRUNTIME_BLOB_SST4LESSIS8_ESAIST4PAIRIKS8_SA_EEER22HIRUNTIME_GROUP_BLOB_S_STR1_4_0050: .ascii ""


_RODATA__ZN4HIRT16TASKGROUPMANAGER12ADDTASKGROUPEPVP28HIRUNTIME_GROUP_BLOB_ARRAY_SS3_YYPNS_25MODELGROUPFORWARDLISTENERE_STR1_4_0000: .ascii "hGroupHandle is null\0\0\0\0",
_RODATA__ZN4HIRT16TASKGROUPMANAGER12ADDTASKGROUPEPVP28HIRUNTIME_GROUP_BLOB_ARRAY_SS3_YYPNS_25MODELGROUPFORWARDLISTENERE_STR1_4_0018: .ascii "pstSrc is null\0\0",
_RODATA__ZN4HIRT16TASKGROUPMANAGER12ADDTASKGROUPEPVP28HIRUNTIME_GROUP_BLOB_ARRAY_SS3_YYPNS_25MODELGROUPFORWARDLISTENERE_STR1_4_0028: .ascii "pstDst is null\0\0",
_RODATA__ZN4HIRT16TASKGROUPMANAGER12ADDTASKGROUPEPVP28HIRUNTIME_GROUP_BLOB_ARRAY_SS3_YYPNS_25MODELGROUPFORWARDLISTENERE_STR1_4_0038: .ascii "priority can not large than HI_RUNTIME_GROUP_PRIORITY_BUTT\0\0",
_RODATA__ZN4HIRT16TASKGROUPMANAGER12ADDTASKGROUPEPVP28HIRUNTIME_GROUP_BLOB_ARRAY_SS3_YYPNS_25MODELGROUPFORWARDLISTENERE_STR1_4_0074: .ascii "model group unload\0\0",
_RODATA__ZN4HIRT16TASKGROUPMANAGER12ADDTASKGROUPEPVP28HIRUNTIME_GROUP_BLOB_ARRAY_SS3_YYPNS_25MODELGROUPFORWARDLISTENERE_STR1_4_0088: .ascii "new(std::nothrow) HI_RUNTIME_GROUP_BLOB_ARRAY_S error\0\0\0",
_RODATA__ZN4HIRT16TASKGROUPMANAGER12ADDTASKGROUPEPVP28HIRUNTIME_GROUP_BLOB_ARRAY_SS3_YYPNS_25MODELGROUPFORWARDLISTENERE_STR1_4_00c0: .ascii "%s:[%d] clear HI_RUNTIME_MEM_S error\0\0\0\0",
_RODATA__ZN4HIRT16TASKGROUPMANAGER12ADDTASKGROUPEPVP28HIRUNTIME_GROUP_BLOB_ARRAY_SS3_YYPNS_25MODELGROUPFORWARDLISTENERE_STR1_4_00e8: .ascii "%s:[%d] clear HI_RUNTIME_GROUP_BLOB_ARRAY_S error\0\0\0",
_RODATA__ZN4HIRT16TASKGROUPMANAGER12ADDTASKGROUPEPVP28HIRUNTIME_GROUP_BLOB_ARRAY_SS3_YYPNS_25MODELGROUPFORWARDLISTENERE_STR1_4_011c: .ascii "pstAllItemDst->u32BlobNum is 0\0\0",
_RODATA__ZN4HIRT16TASKGROUPMANAGER12ADDTASKGROUPEPVP28HIRUNTIME_GROUP_BLOB_ARRAY_SS3_YYPNS_25MODELGROUPFORWARDLISTENERE_STR1_4_013c: .ascii "new(std::nothrow) HI_RUNTIME_GROUP_BLOB_S error\0",
_RODATA__ZN4HIRT16TASKGROUPMANAGER12ADDTASKGROUPEPVP28HIRUNTIME_GROUP_BLOB_ARRAY_SS3_YYPNS_25MODELGROUPFORWARDLISTENERE_STR1_4_016c: .ascii "%s,pMemoryPool is HI_NULL\0\0\0",
_RODATA__ZN4HIRT16TASKGROUPMANAGER12ADDTASKGROUPEPVP28HIRUNTIME_GROUP_BLOB_ARRAY_SS3_YYPNS_25MODELGROUPFORWARDLISTENERE_STR1_4_0188: .ascii "%s:[%d] clear HI_RUNTIME_MEM_S in the loop error\0\0\0\0",
_RODATA__ZN4HIRT16TASKGROUPMANAGER12ADDTASKGROUPEPVP28HIRUNTIME_GROUP_BLOB_ARRAY_SS3_YYPNS_25MODELGROUPFORWARDLISTENERE_STR1_4_01bc: .ascii "%s, new(std::nothrow) HI_RUNTIME_BLOB_S error\0\0\0",
_RODATA__ZN4HIRT16TASKGROUPMANAGER12ADDTASKGROUPEPVP28HIRUNTIME_GROUP_BLOB_ARRAY_SS3_YYPNS_25MODELGROUPFORWARDLISTENERE_STR1_4_01ec: .ascii "%s:[%d] clear blob in the loop error\0\0\0\0",
_RODATA__ZN4HIRT16TASKGROUPMANAGER12ADDTASKGROUPEPVP28HIRUNTIME_GROUP_BLOB_ARRAY_SS3_YYPNS_25MODELGROUPFORWARDLISTENERE_STR1_4_0214: .ascii "%s:[%d] copy blob int the loop error\0\0\0\0",
_RODATA__ZN4HIRT16TASKGROUPMANAGER12ADDTASKGROUPEPVP28HIRUNTIME_GROUP_BLOB_ARRAY_SS3_YYPNS_25MODELGROUPFORWARDLISTENERE_STR1_4_023c: .ascii "%s, requestMemory error\0",
_RODATA__ZN4HIRT16TASKGROUPMANAGER12ADDTASKGROUPEPVP28HIRUNTIME_GROUP_BLOB_ARRAY_SS3_YYPNS_25MODELGROUPFORWARDLISTENERE_STR1_4_0254: .ascii "%s:[%d] copy owner name in the loop error\0\0\0",
_RODATA__ZN4HIRT16TASKGROUPMANAGER12ADDTASKGROUPEPVP28HIRUNTIME_GROUP_BLOB_ARRAY_SS3_YYPNS_25MODELGROUPFORWARDLISTENERE_STR1_4_0280: .ascii "%s:[%d] copy blob name in the loop error\0\0\0\0",
_RODATA__ZN4HIRT16TASKGROUPMANAGER12ADDTASKGROUPEPVP28HIRUNTIME_GROUP_BLOB_ARRAY_SS3_YYPNS_25MODELGROUPFORWARDLISTENERE_STR1_4_02ac: .ascii "assembleDstBlobs error\0\0",
_RODATA__ZN4HIRT16TASKGROUPMANAGER12ADDTASKGROUPEPVP28HIRUNTIME_GROUP_BLOB_ARRAY_SS3_YYPNS_25MODELGROUPFORWARDLISTENERE_STR1_4_02c4: .ascii "assembleBlobs error\0",
_RODATA__ZN4HIRT16TASKGROUPMANAGER12ADDTASKGROUPEPVP28HIRUNTIME_GROUP_BLOB_ARRAY_SS3_YYPNS_25MODELGROUPFORWARDLISTENERE_STR1_4_02d8: .ascii "AuxiliaryMemoryManager get memory fail\0\0",
_RODATA__ZN4HIRT16TASKGROUPMANAGER12ADDTASKGROUPEPVP28HIRUNTIME_GROUP_BLOB_ARRAY_SS3_YYPNS_25MODELGROUPFORWARDLISTENERE_STR1_4_0300: .ascii "requestMemory error\n\0\0\0\0",
_RODATA__ZN4HIRT16TASKGROUPMANAGER12ADDTASKGROUPEPVP28HIRUNTIME_GROUP_BLOB_ARRAY_SS3_YYPNS_25MODELGROUPFORWARDLISTENERE_STR1_4_0318: .ascii "addTask sync error\0\0",
_RODATA__ZN4HIRT16TASKGROUPMANAGER12ADDTASKGROUPEPVP28HIRUNTIME_GROUP_BLOB_ARRAY_SS3_YYPNS_25MODELGROUPFORWARDLISTENERE_STR1_4_032c: .ascii "vector::_M_range_check: __n (which is %zu) >= this->size() (which is %zu)\0\0\0",
_RODATA__ZN4HIRT16TASKGROUPMANAGER12ADDTASKGROUPEPVP28HIRUNTIME_GROUP_BLOB_ARRAY_SS3_YYPNS_25MODELGROUPFORWARDLISTENERE_STR1_4_0378: .ascii "addTaskConnector sync error\0",
_RODATA__ZN4HIRT16TASKGROUPMANAGER12ADDTASKGROUPEPVP28HIRUNTIME_GROUP_BLOB_ARRAY_SS3_YYPNS_25MODELGROUPFORWARDLISTENERE_STR1_4_0394: .ascii "invalid group item\0\0",
_RODATA__ZN4HIRT16TASKGROUPMANAGER12ADDTASKGROUPEPVP28HIRUNTIME_GROUP_BLOB_ARRAY_SS3_YYPNS_25MODELGROUPFORWARDLISTENERE_STR1_4_03a8: .ascii "dont need decrease again!\n\0\0",
_RODATA__ZN4HIRT16TASKGROUPMANAGER12ADDTASKGROUPEPVP28HIRUNTIME_GROUP_BLOB_ARRAY_SS3_YYPNS_25MODELGROUPFORWARDLISTENERE_STR1_4_03c4: .ascii "new ModelGroupTask fail\0",
_RODATA__ZN4HIRT16TASKGROUPMANAGER12ADDTASKGROUPEPVP28HIRUNTIME_GROUP_BLOB_ARRAY_SS3_YYPNS_25MODELGROUPFORWARDLISTENERE_STR1_4_03dc: .ascii "new ModelGroupTask fail: unknown exception\0\0",
_RODATA__ZN4HIRT16TASKGROUPMANAGER12ADDTASKGROUPEPVP28HIRUNTIME_GROUP_BLOB_ARRAY_SS3_YYPNS_25MODELGROUPFORWARDLISTENERE_STR1_4_0408: .ascii "the top %s of %s has been allocated memory by runtime\0\0\0",
_RODATA__ZN4HIRT16TASKGROUPMANAGER12ADDTASKGROUPEPVP28HIRUNTIME_GROUP_BLOB_ARRAY_SS3_YYPNS_25MODELGROUPFORWARDLISTENERE_STR1_4_0440: .ascii "the top %s of %s has not been allocated memory by user\0\0",
_RODATA__ZN4HIRT16TASKGROUPMANAGER12ADDTASKGROUPEPVP28HIRUNTIME_GROUP_BLOB_ARRAY_SS3_YYPNS_25MODELGROUPFORWARDLISTENERE_STR1_4_0478: .ascii "new(std::nothrow) model task fail\0\0\0",
_RODATA__ZN4HIRT16TASKGROUPMANAGER12ADDTASKGROUPEPVP28HIRUNTIME_GROUP_BLOB_ARRAY_SS3_YYPNS_25MODELGROUPFORWARDLISTENERE_STR1_4_049c: .ascii "new(std::nothrow) connector task fail\0"


_RODATA__ZN4HIRT16TASKGROUPMANAGER13COMPUTECPUSEGEPNS_10CPUSEGTASKE_STR1_4_0000: .ascii "plugin compute error\0\0\0\0",
_RODATA__ZN4HIRT16TASKGROUPMANAGER13COMPUTECPUSEGEPNS_10CPUSEGTASKE_STR1_4_0018: .ascii "hirt\0\0\0\0",
_RODATA__ZN4HIRT16TASKGROUPMANAGER13COMPUTECPUSEGEPNS_10CPUSEGTASKE_STR1_4_0020: .ascii "pOutputOperandOffline is NULL!\0\0",
_RODATA__ZN4HIRT16TASKGROUPMANAGER13COMPUTECPUSEGEPNS_10CPUSEGTASKE_STR1_4_0040: .ascii "%s:[%d] copy from usrbuff to tmpbuff error\0\0",
_RODATA__ZN4HIRT16TASKGROUPMANAGER13COMPUTECPUSEGEPNS_10CPUSEGTASKE_STR1_4_006c: .ascii "%s:[%d] flush stMem error\0"


_RODATA__ZN4HIRT16TASKGROUPMANAGER14COMPUTENNIESEGEPNS_11NNIESEGTASKEJ_STR1_4_0000: .ascii "%s:[%d] flush stMem for src in the loop error\0\0\0",
_RODATA__ZN4HIRT16TASKGROUPMANAGER14COMPUTENNIESEGEPNS_11NNIESEGTASKEJ_STR1_4_0030: .ascii "%s:[%d] flush stMem for rpn src error\0\0\0",
_RODATA__ZN4HIRT16TASKGROUPMANAGER14COMPUTENNIESEGEPNS_11NNIESEGTASKEJ_STR1_4_0058: .ascii "HI_MPI_SVP_NNIE_ForwardWithBbox error[%x]\0\0\0",
_RODATA__ZN4HIRT16TASKGROUPMANAGER14COMPUTENNIESEGEPNS_11NNIESEGTASKEJ_STR1_4_0084: .ascii "pNST->mstNnieAssistInfo.pstOriSrc is NULL!\0\0",
_RODATA__ZN4HIRT16TASKGROUPMANAGER14COMPUTENNIESEGEPNS_11NNIESEGTASKEJ_STR1_4_00b0: .ascii "HI_MPI_SVP_NNIE_Forward error[%x]\0\0\0",
_RODATA__ZN4HIRT16TASKGROUPMANAGER14COMPUTENNIESEGEPNS_11NNIESEGTASKEJ_STR1_4_00d4: .ascii "HI_MPI_SVP_NNIE_Query error\0",
_RODATA__ZN4HIRT16TASKGROUPMANAGER14COMPUTENNIESEGEPNS_11NNIESEGTASKEJ_STR1_4_00f0: .ascii "%s:[%d] flush stMem for dst in the loop error\0\0\0",
_RODATA__ZN4HIRT16TASKGROUPMANAGER14COMPUTENNIESEGEPNS_11NNIESEGTASKEJ_STR1_4_0120: .ascii "%s:[%d] flush stMem for output in the loop error\0"


_RODATA__ZN4HIRT16TASKGROUPMANAGER19COMPUTECONNECTORSEGEPNS_16CONNECTORSEGTASKE_STR1_4_0000: .ascii "pConnectorFun error\0",
_RODATA__ZN4HIRT16TASKGROUPMANAGER19COMPUTECONNECTORSEGEPNS_16CONNECTORSEGTASKE_STR1_4_0014: .ascii ""


_RODATA__ZNST8_RB_TREEINST7__CXX1112BASIC_STRINGICST11CHAR_TRAITSICESAICEEEST4PAIRIKS5_NS0_4LISTIP16HIRUNTIME_BLOB_SSAISA_EEEEST10_SELECT1STISD_EST4LESSIS5_ESAISD_EE16_M_INSERT_UNIQUEISD_EES6_IST17_RB_TREE_ITERATORISD_EBEOT__STR1_4_0000: .ascii "basic_string::_M_construct null not valid\0"


_RODATA__ZZL13ASSEMBLEBLOBSP22HIRT_GROUP_PRIV_INFO_SPN4HIRT14MODELGROUPTASKEP28HIRUNTIME_GROUP_BLOB_ARRAY_SS5_E12__FUNCTION___0000: .ascii "assembleBlobs\0"


_RODATA__ZZL16ADDUSERBLOBTOMAPPN4HIRT14MODELGROUPTASKERST3MAPINST7__CXX1112BASIC_STRINGICST11CHAR_TRAITSICESAICEEEP16HIRUNTIME_BLOB_SST4LESSIS8_ESAIST4PAIRIKS8_SA_EEER22HIRUNTIME_GROUP_BLOB_SE12__FUNCTION___0000: .ascii "addUserBlobToMap\0"


_RODATA__ZZL16ASSEMBLEDSTBLOBSPN4HIRT10MODELGROUPEPNS_14MODELGROUPTASKEP28HIRUNTIME_GROUP_BLOB_ARRAY_SS5_E12__FUNCTION___0000: .ascii "assembleDstBlobs\0"


_RODATA__ZZL28ASSEMBLEBLOBSFORONEGROUPITEMPN4HIRT14MODELGROUPTASKEJNST7__CXX1112BASIC_STRINGICST11CHAR_TRAITSICESAICEEERST3MAPIS7_P16HIRUNTIME_BLOB_SST4LESSIS7_ESAIST4PAIRIKS7_SA_EEEPA130_CPI7HI_BOOLE12__FUNCTION___0000: .ascii "assembleBlobsForOneGroupItem\0"


_RODATA__ZZN4HIRT16TASKGROUPMANAGER12ADDTASKGROUPEPVP28HIRUNTIME_GROUP_BLOB_ARRAY_SS3_YYPNS_25MODELGROUPFORWARDLISTENEREE12__FUNCTION___0000: .ascii "addTaskGroup\0"


_RODATA__ZZN4HIRT16TASKGROUPMANAGER13COMPUTECPUSEGEPNS_10CPUSEGTASKEE12__FUNCTION___0000: .ascii "computeCpuSeg\0"


_RODATA__ZZN4HIRT16TASKGROUPMANAGER14COMPUTENNIESEGEPNS_11NNIESEGTASKEJE12__FUNCTION___0000: .ascii "computeNnieSeg\0"


@ - - - - - - - - - - - - - - - - - - - - - - - - - - - - - 
@ .text._ZN4hirt16TaskGroupManagerD2Ev
@ Size: 0x4
@ - - - - - - - - - - - - - - - - - - - - - - - - - - - - - 

FUNC_BEGIN _ZN4hirt16TaskGroupManagerD2Ev
    /*00000000*/ BX          LR 
FUNC_END _ZN4hirt16TaskGroupManagerD2Ev


FUNC_BEGIN _ZN4hirt16TaskGroupManagerD1Ev
    /*00000000*/ BX          LR 
FUNC_END _ZN4hirt16TaskGroupManagerD1Ev


@ - - - - - - - - - - - - - - - - - - - - - - - - - - - - - 
@ .text._ZN4hirt16TaskGroupManagerD0Ev
@ Size: 0x24
@ - - - - - - - - - - - - - - - - - - - - - - - - - - - - - 

FUNC_BEGIN _ZN4hirt16TaskGroupManagerD0Ev
    /*00000000*/ MOV         IP, #16384                  @ 0x4000 
    /*00000004*/ PUSH        {R4, LR} 
    /*00000008*/ SUB         IP, SP, IP 
    /*0000000c*/ STR         R0, [IP, #4088]             @ 0xff8 
    /*00000010*/ MOV         R1, #64                     @ 0x40 
    /*00000014*/ MOV         R4, R0 
    /*00000018*/ BL          _ZdlPvj
    /*0000001c*/ MOV         R0, R4 
    /*00000020*/ POP         {R4, PC} 
FUNC_END _ZN4hirt16TaskGroupManagerD0Ev


@ - - - - - - - - - - - - - - - - - - - - - - - - - - - - - 
@ .text._ZN4hirt17TaskGroupPriorityD2Ev
@ Size: 0x40
@ - - - - - - - - - - - - - - - - - - - - - - - - - - - - - 

FUNC_BEGIN _ZN4hirt17TaskGroupPriorityD2Ev
    /*00000000*/ MOV         IP, #16384                  @ 0x4000 
    /*00000004*/ PUSH        {R4, LR} 
    /*00000008*/ SUB         IP, SP, IP 
    /*0000000c*/ STR         R0, [IP, #4088]             @ 0xff8 
    /*00000010*/ LDR         R3, WORD_003c               @ LDR         R3, [PC, #36]               @ 0x000000000000003c 
    /*00000014*/ MOV         R4, R0 
    /*00000018*/ LDR         R0, [R0, #4] 
    /*0000001c*/ ADD         R3, PC, R3 
    /*00000020*/ CMP         R0, #0 
    /*00000024*/ ADD         R3, R3, #8 
    /*00000028*/ STR         R3, [R4] 
    /*0000002c*/ BEQ         _ZN4hirt17TaskGroupPriorityD2Ev_x34
    /*00000030*/ BL          _ZdlPv
    _ZN4hirt17TaskGroupPriorityD2Ev_x34:
    /*00000034*/ MOV         R0, R4 
    /*00000038*/ POP         {R4, PC} 
    /*0000003c*/ WORD_003c: .word 0x00000018
FUNC_END _ZN4hirt17TaskGroupPriorityD2Ev


FUNC_BEGIN _ZN4hirt17TaskGroupPriorityD1Ev
    /*00000000*/ MOV         IP, #16384                  @ 0x4000 
    /*00000004*/ PUSH        {R4, LR} 
    /*00000008*/ SUB         IP, SP, IP 
    /*0000000c*/ STR         R0, [IP, #4088]             @ 0xff8 
    /*00000010*/ LDR         R3, WORD_003c               @ LDR         R3, [PC, #36]               @ 0x000000000000003c 
    /*00000014*/ MOV         R4, R0 
    /*00000018*/ LDR         R0, [R0, #4] 
    /*0000001c*/ ADD         R3, PC, R3 
    /*00000020*/ CMP         R0, #0 
    /*00000024*/ ADD         R3, R3, #8 
    /*00000028*/ STR         R3, [R4] 
    /*0000002c*/ BEQ         _ZN4hirt17TaskGroupPriorityD1Ev_x34
    /*00000030*/ BL          _ZdlPv
    _ZN4hirt17TaskGroupPriorityD1Ev_x34:
    /*00000034*/ MOV         R0, R4 
    /*00000038*/ POP         {R4, PC} 
    /*0000003c*/ WORD_003c: .word 0x00000018
FUNC_END _ZN4hirt17TaskGroupPriorityD1Ev


@ - - - - - - - - - - - - - - - - - - - - - - - - - - - - - 
@ .text._ZN4hirt17TaskGroupPriorityD0Ev
@ Size: 0x4c
@ - - - - - - - - - - - - - - - - - - - - - - - - - - - - - 

FUNC_BEGIN _ZN4hirt17TaskGroupPriorityD0Ev
    /*00000000*/ MOV         IP, #16384                  @ 0x4000 
    /*00000004*/ PUSH        {R4, LR} 
    /*00000008*/ SUB         IP, SP, IP 
    /*0000000c*/ STR         R0, [IP, #4088]             @ 0xff8 
    /*00000010*/ LDR         R3, WORD_0048               @ LDR         R3, [PC, #48]               @ 0x0000000000000048 
    /*00000014*/ MOV         R4, R0 
    /*00000018*/ LDR         R0, [R0, #4] 
    /*0000001c*/ ADD         R3, PC, R3 
    /*00000020*/ CMP         R0, #0 
    /*00000024*/ ADD         R3, R3, #8 
    /*00000028*/ STR         R3, [R4] 
    /*0000002c*/ BEQ         _ZN4hirt17TaskGroupPriorityD0Ev_x34
    /*00000030*/ BL          _ZdlPv
    _ZN4hirt17TaskGroupPriorityD0Ev_x34:
    /*00000034*/ MOV         R0, R4 
    /*00000038*/ MOV         R1, #44                     @ 0x2c 
    /*0000003c*/ BL          _ZdlPvj
    /*00000040*/ MOV         R0, R4 
    /*00000044*/ POP         {R4, PC} 
    /*00000048*/ WORD_0048: .word 0x00000024
FUNC_END _ZN4hirt17TaskGroupPriorityD0Ev


@ - - - - - - - - - - - - - - - - - - - - - - - - - - - - - 
@ .text._ZN4hirt13GroupItemTaskD2Ev
@ Size: 0xc4
@ - - - - - - - - - - - - - - - - - - - - - - - - - - - - - 

FUNC_BEGIN _ZN4hirt13GroupItemTaskD2Ev
    /*00000000*/ MOV         IP, #16384                  @ 0x4000 
    /*00000004*/ PUSH        {R4, R5, R6, R7, R8, LR} 
    /*00000008*/ SUB         IP, SP, IP 
    /*0000000c*/ STR         R0, [IP, #4072]             @ 0xfe8 
    /*00000010*/ LDR         R3, WORD_00c0               @ LDR         R3, [PC, #168]              @ 0x00000000000000c0 
    /*00000014*/ MOV         R5, R0 
    /*00000018*/ LDR         R4, [R0, #16] 
    /*0000001c*/ ADD         R3, PC, R3 
    /*00000020*/ ADD         R2, R3, #8 
    /*00000024*/ LDR         R3, [R0, #20] 
    /*00000028*/ STR         R2, [R0] 
    /*0000002c*/ CMP         R4, R3 
    /*00000030*/ BEQ         _ZN4hirt13GroupItemTaskD2Ev_xa8
    /*00000034*/ ADD         R6, R4, #4 
    /*00000038*/ MOV         R7, #0 
    /*0000003c*/ B           _ZN4hirt13GroupItemTaskD2Ev_x50
    _ZN4hirt13GroupItemTaskD2Ev_x40:
    /*00000040*/ SUB         R3, R3, #4 
    /*00000044*/ CMP         R4, R3 
    /*00000048*/ STR         R3, [R5, #20] 
    /*0000004c*/ BEQ         _ZN4hirt13GroupItemTaskD2Ev_xa4
    _ZN4hirt13GroupItemTaskD2Ev_x50:
    /*00000050*/ LDR         R2, [R4] 
    /*00000054*/ SUBS        R0, R2, #0 
    /*00000058*/ BEQ         _ZN4hirt13GroupItemTaskD2Ev_x70
    /*0000005c*/ LDR         R3, [R2] 
    /*00000060*/ LDR         R3, [R3, #4] 
    /*00000064*/ BLX         R3 
    /*00000068*/ LDR         R3, [R5, #20] 
    /*0000006c*/ STR         R7, [R4] 
    _ZN4hirt13GroupItemTaskD2Ev_x70:
    /*00000070*/ CMP         R6, R3 
    /*00000074*/ SUB         R2, R3, R6 
    /*00000078*/ BEQ         _ZN4hirt13GroupItemTaskD2Ev_x40
    /*0000007c*/ LSRS        R1, R2, #2 
    /*00000080*/ BEQ         _ZN4hirt13GroupItemTaskD2Ev_x40
    /*00000084*/ MOV         R1, R6 
    /*00000088*/ MOV         R0, R4 
    /*0000008c*/ BL          memmove
    /*00000090*/ LDR         R3, [R5, #20] 
    /*00000094*/ SUB         R3, R3, #4 
    /*00000098*/ CMP         R4, R3 
    /*0000009c*/ STR         R3, [R5, #20] 
    /*000000a0*/ BNE         _ZN4hirt13GroupItemTaskD2Ev_x50
    _ZN4hirt13GroupItemTaskD2Ev_xa4:
    /*000000a4*/ LDR         R3, [R5, #16] 
    _ZN4hirt13GroupItemTaskD2Ev_xa8:
    /*000000a8*/ CMP         R3, #0 
    /*000000ac*/ BEQ         _ZN4hirt13GroupItemTaskD2Ev_xb8
    /*000000b0*/ MOV         R0, R3 
    /*000000b4*/ BL          _ZdlPv
    _ZN4hirt13GroupItemTaskD2Ev_xb8:
    /*000000b8*/ MOV         R0, R5 
    /*000000bc*/ POP         {R4, R5, R6, R7, R8, PC} 
    /*000000c0*/ WORD_00c0: .word 0x0000009c
FUNC_END _ZN4hirt13GroupItemTaskD2Ev


FUNC_BEGIN _ZN4hirt13GroupItemTaskD1Ev
    /*00000000*/ MOV         IP, #16384                  @ 0x4000 
    /*00000004*/ PUSH        {R4, R5, R6, R7, R8, LR} 
    /*00000008*/ SUB         IP, SP, IP 
    /*0000000c*/ STR         R0, [IP, #4072]             @ 0xfe8 
    /*00000010*/ LDR         R3, WORD_00c0               @ LDR         R3, [PC, #168]              @ 0x00000000000000c0 
    /*00000014*/ MOV         R5, R0 
    /*00000018*/ LDR         R4, [R0, #16] 
    /*0000001c*/ ADD         R3, PC, R3 
    /*00000020*/ ADD         R2, R3, #8 
    /*00000024*/ LDR         R3, [R0, #20] 
    /*00000028*/ STR         R2, [R0] 
    /*0000002c*/ CMP         R4, R3 
    /*00000030*/ BEQ         _ZN4hirt13GroupItemTaskD1Ev_xa8
    /*00000034*/ ADD         R6, R4, #4 
    /*00000038*/ MOV         R7, #0 
    /*0000003c*/ B           _ZN4hirt13GroupItemTaskD1Ev_x50
    _ZN4hirt13GroupItemTaskD1Ev_x40:
    /*00000040*/ SUB         R3, R3, #4 
    /*00000044*/ CMP         R4, R3 
    /*00000048*/ STR         R3, [R5, #20] 
    /*0000004c*/ BEQ         _ZN4hirt13GroupItemTaskD1Ev_xa4
    _ZN4hirt13GroupItemTaskD1Ev_x50:
    /*00000050*/ LDR         R2, [R4] 
    /*00000054*/ SUBS        R0, R2, #0 
    /*00000058*/ BEQ         _ZN4hirt13GroupItemTaskD1Ev_x70
    /*0000005c*/ LDR         R3, [R2] 
    /*00000060*/ LDR         R3, [R3, #4] 
    /*00000064*/ BLX         R3 
    /*00000068*/ LDR         R3, [R5, #20] 
    /*0000006c*/ STR         R7, [R4] 
    _ZN4hirt13GroupItemTaskD1Ev_x70:
    /*00000070*/ CMP         R6, R3 
    /*00000074*/ SUB         R2, R3, R6 
    /*00000078*/ BEQ         _ZN4hirt13GroupItemTaskD1Ev_x40
    /*0000007c*/ LSRS        R1, R2, #2 
    /*00000080*/ BEQ         _ZN4hirt13GroupItemTaskD1Ev_x40
    /*00000084*/ MOV         R1, R6 
    /*00000088*/ MOV         R0, R4 
    /*0000008c*/ BL          memmove
    /*00000090*/ LDR         R3, [R5, #20] 
    /*00000094*/ SUB         R3, R3, #4 
    /*00000098*/ CMP         R4, R3 
    /*0000009c*/ STR         R3, [R5, #20] 
    /*000000a0*/ BNE         _ZN4hirt13GroupItemTaskD1Ev_x50
    _ZN4hirt13GroupItemTaskD1Ev_xa4:
    /*000000a4*/ LDR         R3, [R5, #16] 
    _ZN4hirt13GroupItemTaskD1Ev_xa8:
    /*000000a8*/ CMP         R3, #0 
    /*000000ac*/ BEQ         _ZN4hirt13GroupItemTaskD1Ev_xb8
    /*000000b0*/ MOV         R0, R3 
    /*000000b4*/ BL          _ZdlPv
    _ZN4hirt13GroupItemTaskD1Ev_xb8:
    /*000000b8*/ MOV         R0, R5 
    /*000000bc*/ POP         {R4, R5, R6, R7, R8, PC} 
    /*000000c0*/ WORD_00c0: .word 0x0000009c
FUNC_END _ZN4hirt13GroupItemTaskD1Ev


@ - - - - - - - - - - - - - - - - - - - - - - - - - - - - - 
@ .text.__tcf_0
@ Size: 0x8c
@ - - - - - - - - - - - - - - - - - - - - - - - - - - - - - 

FUNC_BEGIN __tcf_0
    /*00000000*/ MOV         IP, #16384                  @ 0x4000 
    /*00000004*/ PUSH        {R4, R5, R6, LR} 
    /*00000008*/ SUB         IP, SP, IP 
    /*0000000c*/ STR         R0, [IP, #4080]             @ 0xff0 
    /*00000010*/ LDR         R3, WORD_007c               @ LDR         R3, [PC, #100]              @ 0x000000000000007c 
    /*00000014*/ LDR         R6, WORD_0080               @ LDR         R6, [PC, #100]              @ 0x0000000000000080 
    /*00000018*/ LDR         R4, WORD_0084               @ LDR         R4, [PC, #100]              @ 0x0000000000000084 
    /*0000001c*/ ADD         R3, PC, R3 
    /*00000020*/ ADD         R6, PC, R6 
    /*00000024*/ ADD         R3, R3, #220                @ 0xdc 
    /*00000028*/ ADD         R4, PC, R4 
    /*0000002c*/ ADD         R6, R6, #8 
    __tcf_0_x30:
    /*00000030*/ LDR         R2, [R3, #-44]              @ 0xffffffd4 
    /*00000034*/ SUB         R5, R3, #44                 @ 0x2c 
    /*00000038*/ LDR         R2, [R2] 
    /*0000003c*/ CMP         R2, R4 
    /*00000040*/ BNE         __tcf_0_x70
    /*00000044*/ LDR         R0, [R3, #-40]              @ 0xffffffd8 
    /*00000048*/ STR         R6, [R3, #-44]              @ 0xffffffd4 
    /*0000004c*/ CMP         R0, #0 
    /*00000050*/ BEQ         __tcf_0_x58
    /*00000054*/ BL          _ZdlPv
    __tcf_0_x58:
    /*00000058*/ LDR         R2, WORD_0088               @ LDR         R2, [PC, #40]               @ 0x0000000000000088 
    /*0000005c*/ MOV         R3, R5 
    /*00000060*/ ADD         R2, PC, R2 
    /*00000064*/ CMP         R2, R5 
    /*00000068*/ BNE         __tcf_0_x30
    /*0000006c*/ POP         {R4, R5, R6, PC} 
    __tcf_0_x70:
    /*00000070*/ MOV         R0, R5 
    /*00000074*/ BLX         R2 
    /*00000078*/ B           __tcf_0_x58
    /*0000007c*/ WORD_007c: .word 0x00000058
    /*00000080*/ WORD_0080: .word 0x00000058
    /*00000084*/ WORD_0084: .word 0x00000054
    /*00000088*/ WORD_0088: .word 0x00000020
FUNC_END __tcf_0


@ - - - - - - - - - - - - - - - - - - - - - - - - - - - - - 
@ .text._ZN4hirt9ModelTaskD2Ev
@ Size: 0xc4
@ - - - - - - - - - - - - - - - - - - - - - - - - - - - - - 

FUNC_BEGIN _ZN4hirt9ModelTaskD2Ev
    /*00000000*/ MOV         IP, #16384                  @ 0x4000 
    /*00000004*/ PUSH        {R4, R5, R6, R7, R8, LR} 
    /*00000008*/ SUB         IP, SP, IP 
    /*0000000c*/ STR         R0, [IP, #4072]             @ 0xfe8 
    /*00000010*/ LDR         R3, WORD_00c0               @ LDR         R3, [PC, #168]              @ 0x00000000000000c0 
    /*00000014*/ MOV         R5, R0 
    /*00000018*/ LDR         R4, [R0, #16] 
    /*0000001c*/ ADD         R3, PC, R3 
    /*00000020*/ ADD         R2, R3, #8 
    /*00000024*/ LDR         R3, [R0, #20] 
    /*00000028*/ STR         R2, [R0] 
    /*0000002c*/ CMP         R4, R3 
    /*00000030*/ BEQ         _ZN4hirt9ModelTaskD2Ev_xa8
    /*00000034*/ ADD         R6, R4, #4 
    /*00000038*/ MOV         R7, #0 
    /*0000003c*/ B           _ZN4hirt9ModelTaskD2Ev_x50
    _ZN4hirt9ModelTaskD2Ev_x40:
    /*00000040*/ SUB         R3, R3, #4 
    /*00000044*/ CMP         R4, R3 
    /*00000048*/ STR         R3, [R5, #20] 
    /*0000004c*/ BEQ         _ZN4hirt9ModelTaskD2Ev_xa4
    _ZN4hirt9ModelTaskD2Ev_x50:
    /*00000050*/ LDR         R2, [R4] 
    /*00000054*/ SUBS        R0, R2, #0 
    /*00000058*/ BEQ         _ZN4hirt9ModelTaskD2Ev_x70
    /*0000005c*/ LDR         R3, [R2] 
    /*00000060*/ LDR         R3, [R3, #4] 
    /*00000064*/ BLX         R3 
    /*00000068*/ LDR         R3, [R5, #20] 
    /*0000006c*/ STR         R7, [R4] 
    _ZN4hirt9ModelTaskD2Ev_x70:
    /*00000070*/ CMP         R6, R3 
    /*00000074*/ SUB         R2, R3, R6 
    /*00000078*/ BEQ         _ZN4hirt9ModelTaskD2Ev_x40
    /*0000007c*/ LSRS        R1, R2, #2 
    /*00000080*/ BEQ         _ZN4hirt9ModelTaskD2Ev_x40
    /*00000084*/ MOV         R1, R6 
    /*00000088*/ MOV         R0, R4 
    /*0000008c*/ BL          memmove
    /*00000090*/ LDR         R3, [R5, #20] 
    /*00000094*/ SUB         R3, R3, #4 
    /*00000098*/ CMP         R4, R3 
    /*0000009c*/ STR         R3, [R5, #20] 
    /*000000a0*/ BNE         _ZN4hirt9ModelTaskD2Ev_x50
    _ZN4hirt9ModelTaskD2Ev_xa4:
    /*000000a4*/ LDR         R3, [R5, #16] 
    _ZN4hirt9ModelTaskD2Ev_xa8:
    /*000000a8*/ CMP         R3, #0 
    /*000000ac*/ BEQ         _ZN4hirt9ModelTaskD2Ev_xb8
    /*000000b0*/ MOV         R0, R3 
    /*000000b4*/ BL          _ZdlPv
    _ZN4hirt9ModelTaskD2Ev_xb8:
    /*000000b8*/ MOV         R0, R5 
    /*000000bc*/ POP         {R4, R5, R6, R7, R8, PC} 
    /*000000c0*/ WORD_00c0: .word 0x0000009c
FUNC_END _ZN4hirt9ModelTaskD2Ev


FUNC_BEGIN _ZN4hirt9ModelTaskD1Ev
    /*00000000*/ MOV         IP, #16384                  @ 0x4000 
    /*00000004*/ PUSH        {R4, R5, R6, R7, R8, LR} 
    /*00000008*/ SUB         IP, SP, IP 
    /*0000000c*/ STR         R0, [IP, #4072]             @ 0xfe8 
    /*00000010*/ LDR         R3, WORD_00c0               @ LDR         R3, [PC, #168]              @ 0x00000000000000c0 
    /*00000014*/ MOV         R5, R0 
    /*00000018*/ LDR         R4, [R0, #16] 
    /*0000001c*/ ADD         R3, PC, R3 
    /*00000020*/ ADD         R2, R3, #8 
    /*00000024*/ LDR         R3, [R0, #20] 
    /*00000028*/ STR         R2, [R0] 
    /*0000002c*/ CMP         R4, R3 
    /*00000030*/ BEQ         _ZN4hirt9ModelTaskD1Ev_xa8
    /*00000034*/ ADD         R6, R4, #4 
    /*00000038*/ MOV         R7, #0 
    /*0000003c*/ B           _ZN4hirt9ModelTaskD1Ev_x50
    _ZN4hirt9ModelTaskD1Ev_x40:
    /*00000040*/ SUB         R3, R3, #4 
    /*00000044*/ CMP         R4, R3 
    /*00000048*/ STR         R3, [R5, #20] 
    /*0000004c*/ BEQ         _ZN4hirt9ModelTaskD1Ev_xa4
    _ZN4hirt9ModelTaskD1Ev_x50:
    /*00000050*/ LDR         R2, [R4] 
    /*00000054*/ SUBS        R0, R2, #0 
    /*00000058*/ BEQ         _ZN4hirt9ModelTaskD1Ev_x70
    /*0000005c*/ LDR         R3, [R2] 
    /*00000060*/ LDR         R3, [R3, #4] 
    /*00000064*/ BLX         R3 
    /*00000068*/ LDR         R3, [R5, #20] 
    /*0000006c*/ STR         R7, [R4] 
    _ZN4hirt9ModelTaskD1Ev_x70:
    /*00000070*/ CMP         R6, R3 
    /*00000074*/ SUB         R2, R3, R6 
    /*00000078*/ BEQ         _ZN4hirt9ModelTaskD1Ev_x40
    /*0000007c*/ LSRS        R1, R2, #2 
    /*00000080*/ BEQ         _ZN4hirt9ModelTaskD1Ev_x40
    /*00000084*/ MOV         R1, R6 
    /*00000088*/ MOV         R0, R4 
    /*0000008c*/ BL          memmove
    /*00000090*/ LDR         R3, [R5, #20] 
    /*00000094*/ SUB         R3, R3, #4 
    /*00000098*/ CMP         R4, R3 
    /*0000009c*/ STR         R3, [R5, #20] 
    /*000000a0*/ BNE         _ZN4hirt9ModelTaskD1Ev_x50
    _ZN4hirt9ModelTaskD1Ev_xa4:
    /*000000a4*/ LDR         R3, [R5, #16] 
    _ZN4hirt9ModelTaskD1Ev_xa8:
    /*000000a8*/ CMP         R3, #0 
    /*000000ac*/ BEQ         _ZN4hirt9ModelTaskD1Ev_xb8
    /*000000b0*/ MOV         R0, R3 
    /*000000b4*/ BL          _ZdlPv
    _ZN4hirt9ModelTaskD1Ev_xb8:
    /*000000b8*/ MOV         R0, R5 
    /*000000bc*/ POP         {R4, R5, R6, R7, R8, PC} 
    /*000000c0*/ WORD_00c0: .word 0x0000009c
FUNC_END _ZN4hirt9ModelTaskD1Ev


@ - - - - - - - - - - - - - - - - - - - - - - - - - - - - - 
@ .text._ZN4hirt13ConnectorTaskD2Ev
@ Size: 0xc4
@ - - - - - - - - - - - - - - - - - - - - - - - - - - - - - 

FUNC_BEGIN _ZN4hirt13ConnectorTaskD2Ev
    /*00000000*/ MOV         IP, #16384                  @ 0x4000 
    /*00000004*/ PUSH        {R4, R5, R6, R7, R8, LR} 
    /*00000008*/ SUB         IP, SP, IP 
    /*0000000c*/ STR         R0, [IP, #4072]             @ 0xfe8 
    /*00000010*/ LDR         R3, WORD_00c0               @ LDR         R3, [PC, #168]              @ 0x00000000000000c0 
    /*00000014*/ MOV         R5, R0 
    /*00000018*/ LDR         R4, [R0, #16] 
    /*0000001c*/ ADD         R3, PC, R3 
    /*00000020*/ ADD         R2, R3, #8 
    /*00000024*/ LDR         R3, [R0, #20] 
    /*00000028*/ STR         R2, [R0] 
    /*0000002c*/ CMP         R4, R3 
    /*00000030*/ BEQ         _ZN4hirt13ConnectorTaskD2Ev_xa8
    /*00000034*/ ADD         R6, R4, #4 
    /*00000038*/ MOV         R7, #0 
    /*0000003c*/ B           _ZN4hirt13ConnectorTaskD2Ev_x50
    _ZN4hirt13ConnectorTaskD2Ev_x40:
    /*00000040*/ SUB         R3, R3, #4 
    /*00000044*/ CMP         R4, R3 
    /*00000048*/ STR         R3, [R5, #20] 
    /*0000004c*/ BEQ         _ZN4hirt13ConnectorTaskD2Ev_xa4
    _ZN4hirt13ConnectorTaskD2Ev_x50:
    /*00000050*/ LDR         R2, [R4] 
    /*00000054*/ SUBS        R0, R2, #0 
    /*00000058*/ BEQ         _ZN4hirt13ConnectorTaskD2Ev_x70
    /*0000005c*/ LDR         R3, [R2] 
    /*00000060*/ LDR         R3, [R3, #4] 
    /*00000064*/ BLX         R3 
    /*00000068*/ LDR         R3, [R5, #20] 
    /*0000006c*/ STR         R7, [R4] 
    _ZN4hirt13ConnectorTaskD2Ev_x70:
    /*00000070*/ CMP         R6, R3 
    /*00000074*/ SUB         R2, R3, R6 
    /*00000078*/ BEQ         _ZN4hirt13ConnectorTaskD2Ev_x40
    /*0000007c*/ LSRS        R1, R2, #2 
    /*00000080*/ BEQ         _ZN4hirt13ConnectorTaskD2Ev_x40
    /*00000084*/ MOV         R1, R6 
    /*00000088*/ MOV         R0, R4 
    /*0000008c*/ BL          memmove
    /*00000090*/ LDR         R3, [R5, #20] 
    /*00000094*/ SUB         R3, R3, #4 
    /*00000098*/ CMP         R4, R3 
    /*0000009c*/ STR         R3, [R5, #20] 
    /*000000a0*/ BNE         _ZN4hirt13ConnectorTaskD2Ev_x50
    _ZN4hirt13ConnectorTaskD2Ev_xa4:
    /*000000a4*/ LDR         R3, [R5, #16] 
    _ZN4hirt13ConnectorTaskD2Ev_xa8:
    /*000000a8*/ CMP         R3, #0 
    /*000000ac*/ BEQ         _ZN4hirt13ConnectorTaskD2Ev_xb8
    /*000000b0*/ MOV         R0, R3 
    /*000000b4*/ BL          _ZdlPv
    _ZN4hirt13ConnectorTaskD2Ev_xb8:
    /*000000b8*/ MOV         R0, R5 
    /*000000bc*/ POP         {R4, R5, R6, R7, R8, PC} 
    /*000000c0*/ WORD_00c0: .word 0x0000009c
FUNC_END _ZN4hirt13ConnectorTaskD2Ev


FUNC_BEGIN _ZN4hirt13ConnectorTaskD1Ev
    /*00000000*/ MOV         IP, #16384                  @ 0x4000 
    /*00000004*/ PUSH        {R4, R5, R6, R7, R8, LR} 
    /*00000008*/ SUB         IP, SP, IP 
    /*0000000c*/ STR         R0, [IP, #4072]             @ 0xfe8 
    /*00000010*/ LDR         R3, WORD_00c0               @ LDR         R3, [PC, #168]              @ 0x00000000000000c0 
    /*00000014*/ MOV         R5, R0 
    /*00000018*/ LDR         R4, [R0, #16] 
    /*0000001c*/ ADD         R3, PC, R3 
    /*00000020*/ ADD         R2, R3, #8 
    /*00000024*/ LDR         R3, [R0, #20] 
    /*00000028*/ STR         R2, [R0] 
    /*0000002c*/ CMP         R4, R3 
    /*00000030*/ BEQ         _ZN4hirt13ConnectorTaskD1Ev_xa8
    /*00000034*/ ADD         R6, R4, #4 
    /*00000038*/ MOV         R7, #0 
    /*0000003c*/ B           _ZN4hirt13ConnectorTaskD1Ev_x50
    _ZN4hirt13ConnectorTaskD1Ev_x40:
    /*00000040*/ SUB         R3, R3, #4 
    /*00000044*/ CMP         R4, R3 
    /*00000048*/ STR         R3, [R5, #20] 
    /*0000004c*/ BEQ         _ZN4hirt13ConnectorTaskD1Ev_xa4
    _ZN4hirt13ConnectorTaskD1Ev_x50:
    /*00000050*/ LDR         R2, [R4] 
    /*00000054*/ SUBS        R0, R2, #0 
    /*00000058*/ BEQ         _ZN4hirt13ConnectorTaskD1Ev_x70
    /*0000005c*/ LDR         R3, [R2] 
    /*00000060*/ LDR         R3, [R3, #4] 
    /*00000064*/ BLX         R3 
    /*00000068*/ LDR         R3, [R5, #20] 
    /*0000006c*/ STR         R7, [R4] 
    _ZN4hirt13ConnectorTaskD1Ev_x70:
    /*00000070*/ CMP         R6, R3 
    /*00000074*/ SUB         R2, R3, R6 
    /*00000078*/ BEQ         _ZN4hirt13ConnectorTaskD1Ev_x40
    /*0000007c*/ LSRS        R1, R2, #2 
    /*00000080*/ BEQ         _ZN4hirt13ConnectorTaskD1Ev_x40
    /*00000084*/ MOV         R1, R6 
    /*00000088*/ MOV         R0, R4 
    /*0000008c*/ BL          memmove
    /*00000090*/ LDR         R3, [R5, #20] 
    /*00000094*/ SUB         R3, R3, #4 
    /*00000098*/ CMP         R4, R3 
    /*0000009c*/ STR         R3, [R5, #20] 
    /*000000a0*/ BNE         _ZN4hirt13ConnectorTaskD1Ev_x50
    _ZN4hirt13ConnectorTaskD1Ev_xa4:
    /*000000a4*/ LDR         R3, [R5, #16] 
    _ZN4hirt13ConnectorTaskD1Ev_xa8:
    /*000000a8*/ CMP         R3, #0 
    /*000000ac*/ BEQ         _ZN4hirt13ConnectorTaskD1Ev_xb8
    /*000000b0*/ MOV         R0, R3 
    /*000000b4*/ BL          _ZdlPv
    _ZN4hirt13ConnectorTaskD1Ev_xb8:
    /*000000b8*/ MOV         R0, R5 
    /*000000bc*/ POP         {R4, R5, R6, R7, R8, PC} 
    /*000000c0*/ WORD_00c0: .word 0x0000009c
FUNC_END _ZN4hirt13ConnectorTaskD1Ev


@ - - - - - - - - - - - - - - - - - - - - - - - - - - - - - 
@ .text._ZN4hirt13GroupItemTaskD0Ev
@ Size: 0xd0
@ - - - - - - - - - - - - - - - - - - - - - - - - - - - - - 

FUNC_BEGIN _ZN4hirt13GroupItemTaskD0Ev
    /*00000000*/ MOV         IP, #16384                  @ 0x4000 
    /*00000004*/ PUSH        {R4, R5, R6, R7, R8, LR} 
    /*00000008*/ SUB         IP, SP, IP 
    /*0000000c*/ STR         R0, [IP, #4072]             @ 0xfe8 
    /*00000010*/ LDR         R3, WORD_00cc               @ LDR         R3, [PC, #180]              @ 0x00000000000000cc 
    /*00000014*/ MOV         R5, R0 
    /*00000018*/ LDR         R4, [R0, #16] 
    /*0000001c*/ ADD         R3, PC, R3 
    /*00000020*/ ADD         R2, R3, #8 
    /*00000024*/ LDR         R3, [R0, #20] 
    /*00000028*/ STR         R2, [R0] 
    /*0000002c*/ CMP         R4, R3 
    /*00000030*/ BEQ         _ZN4hirt13GroupItemTaskD0Ev_xa8
    /*00000034*/ ADD         R6, R4, #4 
    /*00000038*/ MOV         R7, #0 
    /*0000003c*/ B           _ZN4hirt13GroupItemTaskD0Ev_x50
    _ZN4hirt13GroupItemTaskD0Ev_x40:
    /*00000040*/ SUB         R3, R3, #4 
    /*00000044*/ CMP         R4, R3 
    /*00000048*/ STR         R3, [R5, #20] 
    /*0000004c*/ BEQ         _ZN4hirt13GroupItemTaskD0Ev_xa4
    _ZN4hirt13GroupItemTaskD0Ev_x50:
    /*00000050*/ LDR         R2, [R4] 
    /*00000054*/ SUBS        R0, R2, #0 
    /*00000058*/ BEQ         _ZN4hirt13GroupItemTaskD0Ev_x70
    /*0000005c*/ LDR         R3, [R2] 
    /*00000060*/ LDR         R3, [R3, #4] 
    /*00000064*/ BLX         R3 
    /*00000068*/ LDR         R3, [R5, #20] 
    /*0000006c*/ STR         R7, [R4] 
    _ZN4hirt13GroupItemTaskD0Ev_x70:
    /*00000070*/ CMP         R6, R3 
    /*00000074*/ SUB         R2, R3, R6 
    /*00000078*/ BEQ         _ZN4hirt13GroupItemTaskD0Ev_x40
    /*0000007c*/ LSRS        R1, R2, #2 
    /*00000080*/ BEQ         _ZN4hirt13GroupItemTaskD0Ev_x40
    /*00000084*/ MOV         R1, R6 
    /*00000088*/ MOV         R0, R4 
    /*0000008c*/ BL          memmove
    /*00000090*/ LDR         R3, [R5, #20] 
    /*00000094*/ SUB         R3, R3, #4 
    /*00000098*/ CMP         R4, R3 
    /*0000009c*/ STR         R3, [R5, #20] 
    /*000000a0*/ BNE         _ZN4hirt13GroupItemTaskD0Ev_x50
    _ZN4hirt13GroupItemTaskD0Ev_xa4:
    /*000000a4*/ LDR         R3, [R5, #16] 
    _ZN4hirt13GroupItemTaskD0Ev_xa8:
    /*000000a8*/ CMP         R3, #0 
    /*000000ac*/ BEQ         _ZN4hirt13GroupItemTaskD0Ev_xb8
    /*000000b0*/ MOV         R0, R3 
    /*000000b4*/ BL          _ZdlPv
    _ZN4hirt13GroupItemTaskD0Ev_xb8:
    /*000000b8*/ MOV         R0, R5 
    /*000000bc*/ MOV         R1, #36                     @ 0x24 
    /*000000c0*/ BL          _ZdlPvj
    /*000000c4*/ MOV         R0, R5 
    /*000000c8*/ POP         {R4, R5, R6, R7, R8, PC} 
    /*000000cc*/ WORD_00cc: .word 0x000000a8
FUNC_END _ZN4hirt13GroupItemTaskD0Ev


@ - - - - - - - - - - - - - - - - - - - - - - - - - - - - - 
@ .text._ZN4hirt9ModelTaskD0Ev
@ Size: 0xd0
@ - - - - - - - - - - - - - - - - - - - - - - - - - - - - - 

FUNC_BEGIN _ZN4hirt9ModelTaskD0Ev
    /*00000000*/ MOV         IP, #16384                  @ 0x4000 
    /*00000004*/ PUSH        {R4, R5, R6, R7, R8, LR} 
    /*00000008*/ SUB         IP, SP, IP 
    /*0000000c*/ STR         R0, [IP, #4072]             @ 0xfe8 
    /*00000010*/ LDR         R3, WORD_00cc               @ LDR         R3, [PC, #180]              @ 0x00000000000000cc 
    /*00000014*/ MOV         R5, R0 
    /*00000018*/ LDR         R4, [R0, #16] 
    /*0000001c*/ ADD         R3, PC, R3 
    /*00000020*/ ADD         R2, R3, #8 
    /*00000024*/ LDR         R3, [R0, #20] 
    /*00000028*/ STR         R2, [R0] 
    /*0000002c*/ CMP         R4, R3 
    /*00000030*/ BEQ         _ZN4hirt9ModelTaskD0Ev_xa8
    /*00000034*/ ADD         R6, R4, #4 
    /*00000038*/ MOV         R7, #0 
    /*0000003c*/ B           _ZN4hirt9ModelTaskD0Ev_x50
    _ZN4hirt9ModelTaskD0Ev_x40:
    /*00000040*/ SUB         R3, R3, #4 
    /*00000044*/ CMP         R4, R3 
    /*00000048*/ STR         R3, [R5, #20] 
    /*0000004c*/ BEQ         _ZN4hirt9ModelTaskD0Ev_xa4
    _ZN4hirt9ModelTaskD0Ev_x50:
    /*00000050*/ LDR         R2, [R4] 
    /*00000054*/ SUBS        R0, R2, #0 
    /*00000058*/ BEQ         _ZN4hirt9ModelTaskD0Ev_x70
    /*0000005c*/ LDR         R3, [R2] 
    /*00000060*/ LDR         R3, [R3, #4] 
    /*00000064*/ BLX         R3 
    /*00000068*/ LDR         R3, [R5, #20] 
    /*0000006c*/ STR         R7, [R4] 
    _ZN4hirt9ModelTaskD0Ev_x70:
    /*00000070*/ CMP         R6, R3 
    /*00000074*/ SUB         R2, R3, R6 
    /*00000078*/ BEQ         _ZN4hirt9ModelTaskD0Ev_x40
    /*0000007c*/ LSRS        R1, R2, #2 
    /*00000080*/ BEQ         _ZN4hirt9ModelTaskD0Ev_x40
    /*00000084*/ MOV         R1, R6 
    /*00000088*/ MOV         R0, R4 
    /*0000008c*/ BL          memmove
    /*00000090*/ LDR         R3, [R5, #20] 
    /*00000094*/ SUB         R3, R3, #4 
    /*00000098*/ CMP         R4, R3 
    /*0000009c*/ STR         R3, [R5, #20] 
    /*000000a0*/ BNE         _ZN4hirt9ModelTaskD0Ev_x50
    _ZN4hirt9ModelTaskD0Ev_xa4:
    /*000000a4*/ LDR         R3, [R5, #16] 
    _ZN4hirt9ModelTaskD0Ev_xa8:
    /*000000a8*/ CMP         R3, #0 
    /*000000ac*/ BEQ         _ZN4hirt9ModelTaskD0Ev_xb8
    /*000000b0*/ MOV         R0, R3 
    /*000000b4*/ BL          _ZdlPv
    _ZN4hirt9ModelTaskD0Ev_xb8:
    /*000000b8*/ MOV         R0, R5 
    /*000000bc*/ MOV         R1, #36                     @ 0x24 
    /*000000c0*/ BL          _ZdlPvj
    /*000000c4*/ MOV         R0, R5 
    /*000000c8*/ POP         {R4, R5, R6, R7, R8, PC} 
    /*000000cc*/ WORD_00cc: .word 0x000000a8
FUNC_END _ZN4hirt9ModelTaskD0Ev


@ - - - - - - - - - - - - - - - - - - - - - - - - - - - - - 
@ .text._ZN4hirt13ConnectorTaskD0Ev
@ Size: 0xd0
@ - - - - - - - - - - - - - - - - - - - - - - - - - - - - - 

FUNC_BEGIN _ZN4hirt13ConnectorTaskD0Ev
    /*00000000*/ MOV         IP, #16384                  @ 0x4000 
    /*00000004*/ PUSH        {R4, R5, R6, R7, R8, LR} 
    /*00000008*/ SUB         IP, SP, IP 
    /*0000000c*/ STR         R0, [IP, #4072]             @ 0xfe8 
    /*00000010*/ LDR         R3, WORD_00cc               @ LDR         R3, [PC, #180]              @ 0x00000000000000cc 
    /*00000014*/ MOV         R5, R0 
    /*00000018*/ LDR         R4, [R0, #16] 
    /*0000001c*/ ADD         R3, PC, R3 
    /*00000020*/ ADD         R2, R3, #8 
    /*00000024*/ LDR         R3, [R0, #20] 
    /*00000028*/ STR         R2, [R0] 
    /*0000002c*/ CMP         R4, R3 
    /*00000030*/ BEQ         _ZN4hirt13ConnectorTaskD0Ev_xa8
    /*00000034*/ ADD         R6, R4, #4 
    /*00000038*/ MOV         R7, #0 
    /*0000003c*/ B           _ZN4hirt13ConnectorTaskD0Ev_x50
    _ZN4hirt13ConnectorTaskD0Ev_x40:
    /*00000040*/ SUB         R3, R3, #4 
    /*00000044*/ CMP         R4, R3 
    /*00000048*/ STR         R3, [R5, #20] 
    /*0000004c*/ BEQ         _ZN4hirt13ConnectorTaskD0Ev_xa4
    _ZN4hirt13ConnectorTaskD0Ev_x50:
    /*00000050*/ LDR         R2, [R4] 
    /*00000054*/ SUBS        R0, R2, #0 
    /*00000058*/ BEQ         _ZN4hirt13ConnectorTaskD0Ev_x70
    /*0000005c*/ LDR         R3, [R2] 
    /*00000060*/ LDR         R3, [R3, #4] 
    /*00000064*/ BLX         R3 
    /*00000068*/ LDR         R3, [R5, #20] 
    /*0000006c*/ STR         R7, [R4] 
    _ZN4hirt13ConnectorTaskD0Ev_x70:
    /*00000070*/ CMP         R6, R3 
    /*00000074*/ SUB         R2, R3, R6 
    /*00000078*/ BEQ         _ZN4hirt13ConnectorTaskD0Ev_x40
    /*0000007c*/ LSRS        R1, R2, #2 
    /*00000080*/ BEQ         _ZN4hirt13ConnectorTaskD0Ev_x40
    /*00000084*/ MOV         R1, R6 
    /*00000088*/ MOV         R0, R4 
    /*0000008c*/ BL          memmove
    /*00000090*/ LDR         R3, [R5, #20] 
    /*00000094*/ SUB         R3, R3, #4 
    /*00000098*/ CMP         R4, R3 
    /*0000009c*/ STR         R3, [R5, #20] 
    /*000000a0*/ BNE         _ZN4hirt13ConnectorTaskD0Ev_x50
    _ZN4hirt13ConnectorTaskD0Ev_xa4:
    /*000000a4*/ LDR         R3, [R5, #16] 
    _ZN4hirt13ConnectorTaskD0Ev_xa8:
    /*000000a8*/ CMP         R3, #0 
    /*000000ac*/ BEQ         _ZN4hirt13ConnectorTaskD0Ev_xb8
    /*000000b0*/ MOV         R0, R3 
    /*000000b4*/ BL          _ZdlPv
    _ZN4hirt13ConnectorTaskD0Ev_xb8:
    /*000000b8*/ MOV         R0, R5 
    /*000000bc*/ MOV         R1, #36                     @ 0x24 
    /*000000c0*/ BL          _ZdlPvj
    /*000000c4*/ MOV         R0, R5 
    /*000000c8*/ POP         {R4, R5, R6, R7, R8, PC} 
    /*000000cc*/ WORD_00cc: .word 0x000000a8
FUNC_END _ZN4hirt13ConnectorTaskD0Ev


@ - - - - - - - - - - - - - - - - - - - - - - - - - - - - - 
@ .text._ZNSt8_Rb_treeIP16hiRUNTIME_BLOB_SSt4pairIKS1_7HI_BOOLESt10_Select1stIS5_ESt4lessIS1_ESaIS5_EE22_M_emplace_hint_uniqueIJRKSt21piecewise_construct_tSt5tupleIJRS3_EESG_IJEEEEESt17_Rb_tree_iteratorIS5_ESt23_Rb_tree_const_iteratorIS5_EDpOT_.isra.297
@ Size: 0x274
@ - - - - - - - - - - - - - - - - - - - - - - - - - - - - - 

FUNC_BEGIN _ZNSt8_Rb_treeIP16hiRUNTIME_BLOB_SSt4pairIKS1_7HI_BOOLESt10_Select1stIS5_ESt4lessIS1_ESaIS5_EE22_M_emplace_hint_uniqueIJRKSt21piecewise_construct_tSt5tupleIJRS3_EESG_IJEEEEESt17_Rb_tree_iteratorIS5_ESt23_Rb_tree_const_iteratorIS5_EDpOT_.isra.297
    /*00000000*/ MOV         IP, #16384                  @ 0x4000 
    /*00000004*/ PUSH        {R4, R5, R6, R7, R8, R9, LR} 
    /*00000008*/ SUB         IP, SP, IP 
    /*0000000c*/ STR         R0, [IP, #4056]             @ 0xfd8 
    /*00000010*/ MOV         R6, R2 
    /*00000014*/ MOV         R5, R0 
    /*00000018*/ SUB         SP, SP, #12 
    /*0000001c*/ MOV         R0, #24 
    /*00000020*/ MOV         R8, R1 
    /*00000024*/ BL          _Znwj
    /*00000028*/ LDR         R3, [R6] 
    /*0000002c*/ ADD         R7, R5, #4 
    /*00000030*/ CMP         R8, R7 
    /*00000034*/ MOV         R4, R0 
    /*00000038*/ LDR         R6, [R3] 
    /*0000003c*/ MOV         R0, #0 
    /*00000040*/ STR         R0, [R4, #20] 
    /*00000044*/ STR         R6, [R4, #16] 
    /*00000048*/ BEQ         _ZNSt8_Rb_treeIP16hiRUNTIME_BLOB_SSt4pairIKS1_7HI_BOOLESt10_Select1stIS5_ESt4lessIS1_ESaIS5_EE22_M_emplace_hint_uniqueIJRKSt21piecewise_construct_tSt5tupleIJRS3_EESG_IJEEEEESt17_Rb_tree_iteratorIS5_ESt23_Rb_tree_const_iteratorIS5_EDpOT_.isra.297_x130
    /*0000004c*/ LDR         R3, [R8, #16] 
    /*00000050*/ CMP         R6, R3 
    /*00000054*/ BCS         _ZNSt8_Rb_treeIP16hiRUNTIME_BLOB_SSt4pairIKS1_7HI_BOOLESt10_Select1stIS5_ESt4lessIS1_ESaIS5_EE22_M_emplace_hint_uniqueIJRKSt21piecewise_construct_tSt5tupleIJRS3_EESG_IJEEEEESt17_Rb_tree_iteratorIS5_ESt23_Rb_tree_const_iteratorIS5_EDpOT_.isra.297_xdc
    /*00000058*/ LDR         R9, [R5, #12] 
    /*0000005c*/ CMP         R8, R9 
    /*00000060*/ BEQ         _ZNSt8_Rb_treeIP16hiRUNTIME_BLOB_SSt4pairIKS1_7HI_BOOLESt10_Select1stIS5_ESt4lessIS1_ESaIS5_EE22_M_emplace_hint_uniqueIJRKSt21piecewise_construct_tSt5tupleIJRS3_EESG_IJEEEEESt17_Rb_tree_iteratorIS5_ESt23_Rb_tree_const_iteratorIS5_EDpOT_.isra.297_x88
    /*00000064*/ MOV         R0, R8 
    /*00000068*/ BL          _ZSt18_Rb_tree_decrementPSt18_Rb_tree_node_base
    /*0000006c*/ LDR         R3, [R0, #16] 
    /*00000070*/ MOV         R2, R0 
    /*00000074*/ CMP         R6, R3 
    /*00000078*/ BLS         _ZNSt8_Rb_treeIP16hiRUNTIME_BLOB_SSt4pairIKS1_7HI_BOOLESt10_Select1stIS5_ESt4lessIS1_ESaIS5_EE22_M_emplace_hint_uniqueIJRKSt21piecewise_construct_tSt5tupleIJRS3_EESG_IJEEEEESt17_Rb_tree_iteratorIS5_ESt23_Rb_tree_const_iteratorIS5_EDpOT_.isra.297_x1b0
    /*0000007c*/ LDR         R0, [R0, #12] 
    /*00000080*/ CMP         R0, #0 
    /*00000084*/ BEQ         _ZNSt8_Rb_treeIP16hiRUNTIME_BLOB_SSt4pairIKS1_7HI_BOOLESt10_Select1stIS5_ESt4lessIS1_ESaIS5_EE22_M_emplace_hint_uniqueIJRKSt21piecewise_construct_tSt5tupleIJRS3_EESG_IJEEEEESt17_Rb_tree_iteratorIS5_ESt23_Rb_tree_const_iteratorIS5_EDpOT_.isra.297_x90
    _ZNSt8_Rb_treeIP16hiRUNTIME_BLOB_SSt4pairIKS1_7HI_BOOLESt10_Select1stIS5_ESt4lessIS1_ESaIS5_EE22_M_emplace_hint_uniqueIJRKSt21piecewise_construct_tSt5tupleIJRS3_EESG_IJEEEEESt17_Rb_tree_iteratorIS5_ESt23_Rb_tree_const_iteratorIS5_EDpOT_.isra.297_x88:
    /*00000088*/ MOV         R2, R8 
    /*0000008c*/ MOV         R0, R8 
    _ZNSt8_Rb_treeIP16hiRUNTIME_BLOB_SSt4pairIKS1_7HI_BOOLESt10_Select1stIS5_ESt4lessIS1_ESaIS5_EE22_M_emplace_hint_uniqueIJRKSt21piecewise_construct_tSt5tupleIJRS3_EESG_IJEEEEESt17_Rb_tree_iteratorIS5_ESt23_Rb_tree_const_iteratorIS5_EDpOT_.isra.297_x90:
    /*00000090*/ ADDS        R0, R0, #0 
    /*00000094*/ MOVNE       R0, #1 
    /*00000098*/ CMP         R7, R2 
    /*0000009c*/ ORREQ       R0, R0, #1 
    /*000000a0*/ CMP         R0, #0 
    /*000000a4*/ BNE         _ZNSt8_Rb_treeIP16hiRUNTIME_BLOB_SSt4pairIKS1_7HI_BOOLESt10_Select1stIS5_ESt4lessIS1_ESaIS5_EE22_M_emplace_hint_uniqueIJRKSt21piecewise_construct_tSt5tupleIJRS3_EESG_IJEEEEESt17_Rb_tree_iteratorIS5_ESt23_Rb_tree_const_iteratorIS5_EDpOT_.isra.297_xb8
    _ZNSt8_Rb_treeIP16hiRUNTIME_BLOB_SSt4pairIKS1_7HI_BOOLESt10_Select1stIS5_ESt4lessIS1_ESaIS5_EE22_M_emplace_hint_uniqueIJRKSt21piecewise_construct_tSt5tupleIJRS3_EESG_IJEEEEESt17_Rb_tree_iteratorIS5_ESt23_Rb_tree_const_iteratorIS5_EDpOT_.isra.297_xa8:
    /*000000a8*/ LDR         R0, [R2, #16] 
    /*000000ac*/ CMP         R6, R0 
    /*000000b0*/ MOVCS       R0, #0 
    /*000000b4*/ MOVCC       R0, #1 
    _ZNSt8_Rb_treeIP16hiRUNTIME_BLOB_SSt4pairIKS1_7HI_BOOLESt10_Select1stIS5_ESt4lessIS1_ESaIS5_EE22_M_emplace_hint_uniqueIJRKSt21piecewise_construct_tSt5tupleIJRS3_EESG_IJEEEEESt17_Rb_tree_iteratorIS5_ESt23_Rb_tree_const_iteratorIS5_EDpOT_.isra.297_xb8:
    /*000000b8*/ MOV         R3, R7 
    /*000000bc*/ MOV         R1, R4 
    /*000000c0*/ BL          _ZSt29_Rb_tree_insert_and_rebalancebPSt18_Rb_tree_node_baseS0_RS_
    /*000000c4*/ LDR         R3, [R5, #20] 
    /*000000c8*/ MOV         R0, R4 
    /*000000cc*/ ADD         R3, R3, #1 
    /*000000d0*/ STR         R3, [R5, #20] 
    /*000000d4*/ ADD         SP, SP, #12 
    /*000000d8*/ POP         {R4, R5, R6, R7, R8, R9, PC} 
    _ZNSt8_Rb_treeIP16hiRUNTIME_BLOB_SSt4pairIKS1_7HI_BOOLESt10_Select1stIS5_ESt4lessIS1_ESaIS5_EE22_M_emplace_hint_uniqueIJRKSt21piecewise_construct_tSt5tupleIJRS3_EESG_IJEEEEESt17_Rb_tree_iteratorIS5_ESt23_Rb_tree_const_iteratorIS5_EDpOT_.isra.297_xdc:
    /*000000dc*/ BLS         _ZNSt8_Rb_treeIP16hiRUNTIME_BLOB_SSt4pairIKS1_7HI_BOOLESt10_Select1stIS5_ESt4lessIS1_ESaIS5_EE22_M_emplace_hint_uniqueIJRKSt21piecewise_construct_tSt5tupleIJRS3_EESG_IJEEEEESt17_Rb_tree_iteratorIS5_ESt23_Rb_tree_const_iteratorIS5_EDpOT_.isra.297_x11c
    /*000000e0*/ LDR         R3, [R5, #16] 
    /*000000e4*/ CMP         R8, R3 
    /*000000e8*/ BEQ         _ZNSt8_Rb_treeIP16hiRUNTIME_BLOB_SSt4pairIKS1_7HI_BOOLESt10_Select1stIS5_ESt4lessIS1_ESaIS5_EE22_M_emplace_hint_uniqueIJRKSt21piecewise_construct_tSt5tupleIJRS3_EESG_IJEEEEESt17_Rb_tree_iteratorIS5_ESt23_Rb_tree_const_iteratorIS5_EDpOT_.isra.297_x110
    /*000000ec*/ MOV         R0, R8 
    /*000000f0*/ BL          _ZSt18_Rb_tree_incrementPSt18_Rb_tree_node_base
    /*000000f4*/ LDR         R3, [R0, #16] 
    /*000000f8*/ CMP         R6, R3 
    /*000000fc*/ BCS         _ZNSt8_Rb_treeIP16hiRUNTIME_BLOB_SSt4pairIKS1_7HI_BOOLESt10_Select1stIS5_ESt4lessIS1_ESaIS5_EE22_M_emplace_hint_uniqueIJRKSt21piecewise_construct_tSt5tupleIJRS3_EESG_IJEEEEESt17_Rb_tree_iteratorIS5_ESt23_Rb_tree_const_iteratorIS5_EDpOT_.isra.297_x218
    /*00000100*/ LDR         R3, [R8, #12] 
    /*00000104*/ CMP         R3, #0 
    /*00000108*/ MOVNE       R2, R0 
    /*0000010c*/ BNE         _ZNSt8_Rb_treeIP16hiRUNTIME_BLOB_SSt4pairIKS1_7HI_BOOLESt10_Select1stIS5_ESt4lessIS1_ESaIS5_EE22_M_emplace_hint_uniqueIJRKSt21piecewise_construct_tSt5tupleIJRS3_EESG_IJEEEEESt17_Rb_tree_iteratorIS5_ESt23_Rb_tree_const_iteratorIS5_EDpOT_.isra.297_x90
    _ZNSt8_Rb_treeIP16hiRUNTIME_BLOB_SSt4pairIKS1_7HI_BOOLESt10_Select1stIS5_ESt4lessIS1_ESaIS5_EE22_M_emplace_hint_uniqueIJRKSt21piecewise_construct_tSt5tupleIJRS3_EESG_IJEEEEESt17_Rb_tree_iteratorIS5_ESt23_Rb_tree_const_iteratorIS5_EDpOT_.isra.297_x110:
    /*00000110*/ MOV         R2, R8 
    /*00000114*/ B           _ZNSt8_Rb_treeIP16hiRUNTIME_BLOB_SSt4pairIKS1_7HI_BOOLESt10_Select1stIS5_ESt4lessIS1_ESaIS5_EE22_M_emplace_hint_uniqueIJRKSt21piecewise_construct_tSt5tupleIJRS3_EESG_IJEEEEESt17_Rb_tree_iteratorIS5_ESt23_Rb_tree_const_iteratorIS5_EDpOT_.isra.297_xa8
    _ZNSt8_Rb_treeIP16hiRUNTIME_BLOB_SSt4pairIKS1_7HI_BOOLESt10_Select1stIS5_ESt4lessIS1_ESaIS5_EE22_M_emplace_hint_uniqueIJRKSt21piecewise_construct_tSt5tupleIJRS3_EESG_IJEEEEESt17_Rb_tree_iteratorIS5_ESt23_Rb_tree_const_iteratorIS5_EDpOT_.isra.297_x118:
    /*00000118*/ MOV         R8, R2 
    _ZNSt8_Rb_treeIP16hiRUNTIME_BLOB_SSt4pairIKS1_7HI_BOOLESt10_Select1stIS5_ESt4lessIS1_ESaIS5_EE22_M_emplace_hint_uniqueIJRKSt21piecewise_construct_tSt5tupleIJRS3_EESG_IJEEEEESt17_Rb_tree_iteratorIS5_ESt23_Rb_tree_const_iteratorIS5_EDpOT_.isra.297_x11c:
    /*0000011c*/ MOV         R0, R4 
    /*00000120*/ BL          _ZdlPv
    /*00000124*/ MOV         R0, R8 
    /*00000128*/ ADD         SP, SP, #12 
    /*0000012c*/ POP         {R4, R5, R6, R7, R8, R9, PC} 
    _ZNSt8_Rb_treeIP16hiRUNTIME_BLOB_SSt4pairIKS1_7HI_BOOLESt10_Select1stIS5_ESt4lessIS1_ESaIS5_EE22_M_emplace_hint_uniqueIJRKSt21piecewise_construct_tSt5tupleIJRS3_EESG_IJEEEEESt17_Rb_tree_iteratorIS5_ESt23_Rb_tree_const_iteratorIS5_EDpOT_.isra.297_x130:
    /*00000130*/ LDR         R3, [R5, #20] 
    /*00000134*/ CMP         R3, R0 
    /*00000138*/ BEQ         _ZNSt8_Rb_treeIP16hiRUNTIME_BLOB_SSt4pairIKS1_7HI_BOOLESt10_Select1stIS5_ESt4lessIS1_ESaIS5_EE22_M_emplace_hint_uniqueIJRKSt21piecewise_construct_tSt5tupleIJRS3_EESG_IJEEEEESt17_Rb_tree_iteratorIS5_ESt23_Rb_tree_const_iteratorIS5_EDpOT_.isra.297_x14c
    /*0000013c*/ LDR         R2, [R5, #16] 
    /*00000140*/ LDR         R3, [R2, #16] 
    /*00000144*/ CMP         R6, R3 
    /*00000148*/ BHI         _ZNSt8_Rb_treeIP16hiRUNTIME_BLOB_SSt4pairIKS1_7HI_BOOLESt10_Select1stIS5_ESt4lessIS1_ESaIS5_EE22_M_emplace_hint_uniqueIJRKSt21piecewise_construct_tSt5tupleIJRS3_EESG_IJEEEEESt17_Rb_tree_iteratorIS5_ESt23_Rb_tree_const_iteratorIS5_EDpOT_.isra.297_x90
    _ZNSt8_Rb_treeIP16hiRUNTIME_BLOB_SSt4pairIKS1_7HI_BOOLESt10_Select1stIS5_ESt4lessIS1_ESaIS5_EE22_M_emplace_hint_uniqueIJRKSt21piecewise_construct_tSt5tupleIJRS3_EESG_IJEEEEESt17_Rb_tree_iteratorIS5_ESt23_Rb_tree_const_iteratorIS5_EDpOT_.isra.297_x14c:
    /*0000014c*/ LDR         R2, [R5, #8] 
    /*00000150*/ CMP         R2, #0 
    /*00000154*/ BNE         _ZNSt8_Rb_treeIP16hiRUNTIME_BLOB_SSt4pairIKS1_7HI_BOOLESt10_Select1stIS5_ESt4lessIS1_ESaIS5_EE22_M_emplace_hint_uniqueIJRKSt21piecewise_construct_tSt5tupleIJRS3_EESG_IJEEEEESt17_Rb_tree_iteratorIS5_ESt23_Rb_tree_const_iteratorIS5_EDpOT_.isra.297_x160
    /*00000158*/ B           _ZNSt8_Rb_treeIP16hiRUNTIME_BLOB_SSt4pairIKS1_7HI_BOOLESt10_Select1stIS5_ESt4lessIS1_ESaIS5_EE22_M_emplace_hint_uniqueIJRKSt21piecewise_construct_tSt5tupleIJRS3_EESG_IJEEEEESt17_Rb_tree_iteratorIS5_ESt23_Rb_tree_const_iteratorIS5_EDpOT_.isra.297_x264
    _ZNSt8_Rb_treeIP16hiRUNTIME_BLOB_SSt4pairIKS1_7HI_BOOLESt10_Select1stIS5_ESt4lessIS1_ESaIS5_EE22_M_emplace_hint_uniqueIJRKSt21piecewise_construct_tSt5tupleIJRS3_EESG_IJEEEEESt17_Rb_tree_iteratorIS5_ESt23_Rb_tree_const_iteratorIS5_EDpOT_.isra.297_x15c:
    /*0000015c*/ MOV         R2, R3 
    _ZNSt8_Rb_treeIP16hiRUNTIME_BLOB_SSt4pairIKS1_7HI_BOOLESt10_Select1stIS5_ESt4lessIS1_ESaIS5_EE22_M_emplace_hint_uniqueIJRKSt21piecewise_construct_tSt5tupleIJRS3_EESG_IJEEEEESt17_Rb_tree_iteratorIS5_ESt23_Rb_tree_const_iteratorIS5_EDpOT_.isra.297_x160:
    /*00000160*/ LDR         R1, [R2, #16] 
    /*00000164*/ MOV         R0, #1 
    /*00000168*/ CMP         R6, R1 
    /*0000016c*/ MOVCS       R0, #0 
    /*00000170*/ LDRCC       R3, [R2, #8] 
    /*00000174*/ LDRCS       R3, [R2, #12] 
    /*00000178*/ CMP         R3, #0 
    /*0000017c*/ BNE         _ZNSt8_Rb_treeIP16hiRUNTIME_BLOB_SSt4pairIKS1_7HI_BOOLESt10_Select1stIS5_ESt4lessIS1_ESaIS5_EE22_M_emplace_hint_uniqueIJRKSt21piecewise_construct_tSt5tupleIJRS3_EESG_IJEEEEESt17_Rb_tree_iteratorIS5_ESt23_Rb_tree_const_iteratorIS5_EDpOT_.isra.297_x15c
    /*00000180*/ CMP         R0, #0 
    /*00000184*/ BEQ         _ZNSt8_Rb_treeIP16hiRUNTIME_BLOB_SSt4pairIKS1_7HI_BOOLESt10_Select1stIS5_ESt4lessIS1_ESaIS5_EE22_M_emplace_hint_uniqueIJRKSt21piecewise_construct_tSt5tupleIJRS3_EESG_IJEEEEESt17_Rb_tree_iteratorIS5_ESt23_Rb_tree_const_iteratorIS5_EDpOT_.isra.297_x1ec
    _ZNSt8_Rb_treeIP16hiRUNTIME_BLOB_SSt4pairIKS1_7HI_BOOLESt10_Select1stIS5_ESt4lessIS1_ESaIS5_EE22_M_emplace_hint_uniqueIJRKSt21piecewise_construct_tSt5tupleIJRS3_EESG_IJEEEEESt17_Rb_tree_iteratorIS5_ESt23_Rb_tree_const_iteratorIS5_EDpOT_.isra.297_x188:
    /*00000188*/ LDR         R3, [R5, #12] 
    /*0000018c*/ CMP         R3, R2 
    /*00000190*/ BEQ         _ZNSt8_Rb_treeIP16hiRUNTIME_BLOB_SSt4pairIKS1_7HI_BOOLESt10_Select1stIS5_ESt4lessIS1_ESaIS5_EE22_M_emplace_hint_uniqueIJRKSt21piecewise_construct_tSt5tupleIJRS3_EESG_IJEEEEESt17_Rb_tree_iteratorIS5_ESt23_Rb_tree_const_iteratorIS5_EDpOT_.isra.297_x200
    _ZNSt8_Rb_treeIP16hiRUNTIME_BLOB_SSt4pairIKS1_7HI_BOOLESt10_Select1stIS5_ESt4lessIS1_ESaIS5_EE22_M_emplace_hint_uniqueIJRKSt21piecewise_construct_tSt5tupleIJRS3_EESG_IJEEEEESt17_Rb_tree_iteratorIS5_ESt23_Rb_tree_const_iteratorIS5_EDpOT_.isra.297_x194:
    /*00000194*/ STR         R2, [SP, #4] 
    /*00000198*/ MOV         R0, R2 
    /*0000019c*/ BL          _ZSt18_Rb_tree_decrementPSt18_Rb_tree_node_base
    /*000001a0*/ LDR         R1, [R0, #16] 
    /*000001a4*/ MOV         R8, R0 
    /*000001a8*/ LDR         R2, [SP, #4] 
    /*000001ac*/ B           _ZNSt8_Rb_treeIP16hiRUNTIME_BLOB_SSt4pairIKS1_7HI_BOOLESt10_Select1stIS5_ESt4lessIS1_ESaIS5_EE22_M_emplace_hint_uniqueIJRKSt21piecewise_construct_tSt5tupleIJRS3_EESG_IJEEEEESt17_Rb_tree_iteratorIS5_ESt23_Rb_tree_const_iteratorIS5_EDpOT_.isra.297_x1f0
    _ZNSt8_Rb_treeIP16hiRUNTIME_BLOB_SSt4pairIKS1_7HI_BOOLESt10_Select1stIS5_ESt4lessIS1_ESaIS5_EE22_M_emplace_hint_uniqueIJRKSt21piecewise_construct_tSt5tupleIJRS3_EESG_IJEEEEESt17_Rb_tree_iteratorIS5_ESt23_Rb_tree_const_iteratorIS5_EDpOT_.isra.297_x1b0:
    /*000001b0*/ LDR         R2, [R5, #8] 
    /*000001b4*/ CMP         R2, #0 
    /*000001b8*/ BNE         _ZNSt8_Rb_treeIP16hiRUNTIME_BLOB_SSt4pairIKS1_7HI_BOOLESt10_Select1stIS5_ESt4lessIS1_ESaIS5_EE22_M_emplace_hint_uniqueIJRKSt21piecewise_construct_tSt5tupleIJRS3_EESG_IJEEEEESt17_Rb_tree_iteratorIS5_ESt23_Rb_tree_const_iteratorIS5_EDpOT_.isra.297_x1c4
    /*000001bc*/ B           _ZNSt8_Rb_treeIP16hiRUNTIME_BLOB_SSt4pairIKS1_7HI_BOOLESt10_Select1stIS5_ESt4lessIS1_ESaIS5_EE22_M_emplace_hint_uniqueIJRKSt21piecewise_construct_tSt5tupleIJRS3_EESG_IJEEEEESt17_Rb_tree_iteratorIS5_ESt23_Rb_tree_const_iteratorIS5_EDpOT_.isra.297_x208
    _ZNSt8_Rb_treeIP16hiRUNTIME_BLOB_SSt4pairIKS1_7HI_BOOLESt10_Select1stIS5_ESt4lessIS1_ESaIS5_EE22_M_emplace_hint_uniqueIJRKSt21piecewise_construct_tSt5tupleIJRS3_EESG_IJEEEEESt17_Rb_tree_iteratorIS5_ESt23_Rb_tree_const_iteratorIS5_EDpOT_.isra.297_x1c0:
    /*000001c0*/ MOV         R2, R3 
    _ZNSt8_Rb_treeIP16hiRUNTIME_BLOB_SSt4pairIKS1_7HI_BOOLESt10_Select1stIS5_ESt4lessIS1_ESaIS5_EE22_M_emplace_hint_uniqueIJRKSt21piecewise_construct_tSt5tupleIJRS3_EESG_IJEEEEESt17_Rb_tree_iteratorIS5_ESt23_Rb_tree_const_iteratorIS5_EDpOT_.isra.297_x1c4:
    /*000001c4*/ LDR         R1, [R2, #16] 
    /*000001c8*/ MOV         R0, #1 
    /*000001cc*/ CMP         R6, R1 
    /*000001d0*/ MOVCS       R0, #0 
    /*000001d4*/ LDRCC       R3, [R2, #8] 
    /*000001d8*/ LDRCS       R3, [R2, #12] 
    /*000001dc*/ CMP         R3, #0 
    /*000001e0*/ BNE         _ZNSt8_Rb_treeIP16hiRUNTIME_BLOB_SSt4pairIKS1_7HI_BOOLESt10_Select1stIS5_ESt4lessIS1_ESaIS5_EE22_M_emplace_hint_uniqueIJRKSt21piecewise_construct_tSt5tupleIJRS3_EESG_IJEEEEESt17_Rb_tree_iteratorIS5_ESt23_Rb_tree_const_iteratorIS5_EDpOT_.isra.297_x1c0
    /*000001e4*/ CMP         R0, #0 
    /*000001e8*/ BNE         _ZNSt8_Rb_treeIP16hiRUNTIME_BLOB_SSt4pairIKS1_7HI_BOOLESt10_Select1stIS5_ESt4lessIS1_ESaIS5_EE22_M_emplace_hint_uniqueIJRKSt21piecewise_construct_tSt5tupleIJRS3_EESG_IJEEEEESt17_Rb_tree_iteratorIS5_ESt23_Rb_tree_const_iteratorIS5_EDpOT_.isra.297_x20c
    _ZNSt8_Rb_treeIP16hiRUNTIME_BLOB_SSt4pairIKS1_7HI_BOOLESt10_Select1stIS5_ESt4lessIS1_ESaIS5_EE22_M_emplace_hint_uniqueIJRKSt21piecewise_construct_tSt5tupleIJRS3_EESG_IJEEEEESt17_Rb_tree_iteratorIS5_ESt23_Rb_tree_const_iteratorIS5_EDpOT_.isra.297_x1ec:
    /*000001ec*/ MOV         R8, R2 
    _ZNSt8_Rb_treeIP16hiRUNTIME_BLOB_SSt4pairIKS1_7HI_BOOLESt10_Select1stIS5_ESt4lessIS1_ESaIS5_EE22_M_emplace_hint_uniqueIJRKSt21piecewise_construct_tSt5tupleIJRS3_EESG_IJEEEEESt17_Rb_tree_iteratorIS5_ESt23_Rb_tree_const_iteratorIS5_EDpOT_.isra.297_x1f0:
    /*000001f0*/ CMP         R6, R1 
    /*000001f4*/ BLS         _ZNSt8_Rb_treeIP16hiRUNTIME_BLOB_SSt4pairIKS1_7HI_BOOLESt10_Select1stIS5_ESt4lessIS1_ESaIS5_EE22_M_emplace_hint_uniqueIJRKSt21piecewise_construct_tSt5tupleIJRS3_EESG_IJEEEEESt17_Rb_tree_iteratorIS5_ESt23_Rb_tree_const_iteratorIS5_EDpOT_.isra.297_x11c
    _ZNSt8_Rb_treeIP16hiRUNTIME_BLOB_SSt4pairIKS1_7HI_BOOLESt10_Select1stIS5_ESt4lessIS1_ESaIS5_EE22_M_emplace_hint_uniqueIJRKSt21piecewise_construct_tSt5tupleIJRS3_EESG_IJEEEEESt17_Rb_tree_iteratorIS5_ESt23_Rb_tree_const_iteratorIS5_EDpOT_.isra.297_x1f8:
    /*000001f8*/ CMP         R2, #0 
    /*000001fc*/ BEQ         _ZNSt8_Rb_treeIP16hiRUNTIME_BLOB_SSt4pairIKS1_7HI_BOOLESt10_Select1stIS5_ESt4lessIS1_ESaIS5_EE22_M_emplace_hint_uniqueIJRKSt21piecewise_construct_tSt5tupleIJRS3_EESG_IJEEEEESt17_Rb_tree_iteratorIS5_ESt23_Rb_tree_const_iteratorIS5_EDpOT_.isra.297_x118
    _ZNSt8_Rb_treeIP16hiRUNTIME_BLOB_SSt4pairIKS1_7HI_BOOLESt10_Select1stIS5_ESt4lessIS1_ESaIS5_EE22_M_emplace_hint_uniqueIJRKSt21piecewise_construct_tSt5tupleIJRS3_EESG_IJEEEEESt17_Rb_tree_iteratorIS5_ESt23_Rb_tree_const_iteratorIS5_EDpOT_.isra.297_x200:
    /*00000200*/ MOV         R0, #0 
    /*00000204*/ B           _ZNSt8_Rb_treeIP16hiRUNTIME_BLOB_SSt4pairIKS1_7HI_BOOLESt10_Select1stIS5_ESt4lessIS1_ESaIS5_EE22_M_emplace_hint_uniqueIJRKSt21piecewise_construct_tSt5tupleIJRS3_EESG_IJEEEEESt17_Rb_tree_iteratorIS5_ESt23_Rb_tree_const_iteratorIS5_EDpOT_.isra.297_x90
    _ZNSt8_Rb_treeIP16hiRUNTIME_BLOB_SSt4pairIKS1_7HI_BOOLESt10_Select1stIS5_ESt4lessIS1_ESaIS5_EE22_M_emplace_hint_uniqueIJRKSt21piecewise_construct_tSt5tupleIJRS3_EESG_IJEEEEESt17_Rb_tree_iteratorIS5_ESt23_Rb_tree_const_iteratorIS5_EDpOT_.isra.297_x208:
    /*00000208*/ MOV         R2, R7 
    _ZNSt8_Rb_treeIP16hiRUNTIME_BLOB_SSt4pairIKS1_7HI_BOOLESt10_Select1stIS5_ESt4lessIS1_ESaIS5_EE22_M_emplace_hint_uniqueIJRKSt21piecewise_construct_tSt5tupleIJRS3_EESG_IJEEEEESt17_Rb_tree_iteratorIS5_ESt23_Rb_tree_const_iteratorIS5_EDpOT_.isra.297_x20c:
    /*0000020c*/ CMP         R9, R2 
    /*00000210*/ BNE         _ZNSt8_Rb_treeIP16hiRUNTIME_BLOB_SSt4pairIKS1_7HI_BOOLESt10_Select1stIS5_ESt4lessIS1_ESaIS5_EE22_M_emplace_hint_uniqueIJRKSt21piecewise_construct_tSt5tupleIJRS3_EESG_IJEEEEESt17_Rb_tree_iteratorIS5_ESt23_Rb_tree_const_iteratorIS5_EDpOT_.isra.297_x194
    /*00000214*/ B           _ZNSt8_Rb_treeIP16hiRUNTIME_BLOB_SSt4pairIKS1_7HI_BOOLESt10_Select1stIS5_ESt4lessIS1_ESaIS5_EE22_M_emplace_hint_uniqueIJRKSt21piecewise_construct_tSt5tupleIJRS3_EESG_IJEEEEESt17_Rb_tree_iteratorIS5_ESt23_Rb_tree_const_iteratorIS5_EDpOT_.isra.297_x1f8
    _ZNSt8_Rb_treeIP16hiRUNTIME_BLOB_SSt4pairIKS1_7HI_BOOLESt10_Select1stIS5_ESt4lessIS1_ESaIS5_EE22_M_emplace_hint_uniqueIJRKSt21piecewise_construct_tSt5tupleIJRS3_EESG_IJEEEEESt17_Rb_tree_iteratorIS5_ESt23_Rb_tree_const_iteratorIS5_EDpOT_.isra.297_x218:
    /*00000218*/ LDR         R2, [R5, #8] 
    /*0000021c*/ CMP         R2, #0 
    /*00000220*/ BNE         _ZNSt8_Rb_treeIP16hiRUNTIME_BLOB_SSt4pairIKS1_7HI_BOOLESt10_Select1stIS5_ESt4lessIS1_ESaIS5_EE22_M_emplace_hint_uniqueIJRKSt21piecewise_construct_tSt5tupleIJRS3_EESG_IJEEEEESt17_Rb_tree_iteratorIS5_ESt23_Rb_tree_const_iteratorIS5_EDpOT_.isra.297_x22c
    /*00000224*/ B           _ZNSt8_Rb_treeIP16hiRUNTIME_BLOB_SSt4pairIKS1_7HI_BOOLESt10_Select1stIS5_ESt4lessIS1_ESaIS5_EE22_M_emplace_hint_uniqueIJRKSt21piecewise_construct_tSt5tupleIJRS3_EESG_IJEEEEESt17_Rb_tree_iteratorIS5_ESt23_Rb_tree_const_iteratorIS5_EDpOT_.isra.297_x26c
    _ZNSt8_Rb_treeIP16hiRUNTIME_BLOB_SSt4pairIKS1_7HI_BOOLESt10_Select1stIS5_ESt4lessIS1_ESaIS5_EE22_M_emplace_hint_uniqueIJRKSt21piecewise_construct_tSt5tupleIJRS3_EESG_IJEEEEESt17_Rb_tree_iteratorIS5_ESt23_Rb_tree_const_iteratorIS5_EDpOT_.isra.297_x228:
    /*00000228*/ MOV         R2, R3 
    _ZNSt8_Rb_treeIP16hiRUNTIME_BLOB_SSt4pairIKS1_7HI_BOOLESt10_Select1stIS5_ESt4lessIS1_ESaIS5_EE22_M_emplace_hint_uniqueIJRKSt21piecewise_construct_tSt5tupleIJRS3_EESG_IJEEEEESt17_Rb_tree_iteratorIS5_ESt23_Rb_tree_const_iteratorIS5_EDpOT_.isra.297_x22c:
    /*0000022c*/ LDR         R1, [R2, #16] 
    /*00000230*/ MOV         R0, #1 
    /*00000234*/ CMP         R6, R1 
    /*00000238*/ MOVCS       R0, #0 
    /*0000023c*/ LDRCC       R3, [R2, #8] 
    /*00000240*/ LDRCS       R3, [R2, #12] 
    /*00000244*/ CMP         R3, #0 
    /*00000248*/ BNE         _ZNSt8_Rb_treeIP16hiRUNTIME_BLOB_SSt4pairIKS1_7HI_BOOLESt10_Select1stIS5_ESt4lessIS1_ESaIS5_EE22_M_emplace_hint_uniqueIJRKSt21piecewise_construct_tSt5tupleIJRS3_EESG_IJEEEEESt17_Rb_tree_iteratorIS5_ESt23_Rb_tree_const_iteratorIS5_EDpOT_.isra.297_x228
    /*0000024c*/ CMP         R0, #0 
    /*00000250*/ BEQ         _ZNSt8_Rb_treeIP16hiRUNTIME_BLOB_SSt4pairIKS1_7HI_BOOLESt10_Select1stIS5_ESt4lessIS1_ESaIS5_EE22_M_emplace_hint_uniqueIJRKSt21piecewise_construct_tSt5tupleIJRS3_EESG_IJEEEEESt17_Rb_tree_iteratorIS5_ESt23_Rb_tree_const_iteratorIS5_EDpOT_.isra.297_x1ec
    _ZNSt8_Rb_treeIP16hiRUNTIME_BLOB_SSt4pairIKS1_7HI_BOOLESt10_Select1stIS5_ESt4lessIS1_ESaIS5_EE22_M_emplace_hint_uniqueIJRKSt21piecewise_construct_tSt5tupleIJRS3_EESG_IJEEEEESt17_Rb_tree_iteratorIS5_ESt23_Rb_tree_const_iteratorIS5_EDpOT_.isra.297_x254:
    /*00000254*/ LDR         R3, [R5, #12] 
    /*00000258*/ CMP         R3, R2 
    /*0000025c*/ BNE         _ZNSt8_Rb_treeIP16hiRUNTIME_BLOB_SSt4pairIKS1_7HI_BOOLESt10_Select1stIS5_ESt4lessIS1_ESaIS5_EE22_M_emplace_hint_uniqueIJRKSt21piecewise_construct_tSt5tupleIJRS3_EESG_IJEEEEESt17_Rb_tree_iteratorIS5_ESt23_Rb_tree_const_iteratorIS5_EDpOT_.isra.297_x194
    /*00000260*/ B           _ZNSt8_Rb_treeIP16hiRUNTIME_BLOB_SSt4pairIKS1_7HI_BOOLESt10_Select1stIS5_ESt4lessIS1_ESaIS5_EE22_M_emplace_hint_uniqueIJRKSt21piecewise_construct_tSt5tupleIJRS3_EESG_IJEEEEESt17_Rb_tree_iteratorIS5_ESt23_Rb_tree_const_iteratorIS5_EDpOT_.isra.297_x1f8
    _ZNSt8_Rb_treeIP16hiRUNTIME_BLOB_SSt4pairIKS1_7HI_BOOLESt10_Select1stIS5_ESt4lessIS1_ESaIS5_EE22_M_emplace_hint_uniqueIJRKSt21piecewise_construct_tSt5tupleIJRS3_EESG_IJEEEEESt17_Rb_tree_iteratorIS5_ESt23_Rb_tree_const_iteratorIS5_EDpOT_.isra.297_x264:
    /*00000264*/ MOV         R2, R7 
    /*00000268*/ B           _ZNSt8_Rb_treeIP16hiRUNTIME_BLOB_SSt4pairIKS1_7HI_BOOLESt10_Select1stIS5_ESt4lessIS1_ESaIS5_EE22_M_emplace_hint_uniqueIJRKSt21piecewise_construct_tSt5tupleIJRS3_EESG_IJEEEEESt17_Rb_tree_iteratorIS5_ESt23_Rb_tree_const_iteratorIS5_EDpOT_.isra.297_x188
    _ZNSt8_Rb_treeIP16hiRUNTIME_BLOB_SSt4pairIKS1_7HI_BOOLESt10_Select1stIS5_ESt4lessIS1_ESaIS5_EE22_M_emplace_hint_uniqueIJRKSt21piecewise_construct_tSt5tupleIJRS3_EESG_IJEEEEESt17_Rb_tree_iteratorIS5_ESt23_Rb_tree_const_iteratorIS5_EDpOT_.isra.297_x26c:
    /*0000026c*/ MOV         R2, R7 
    /*00000270*/ B           _ZNSt8_Rb_treeIP16hiRUNTIME_BLOB_SSt4pairIKS1_7HI_BOOLESt10_Select1stIS5_ESt4lessIS1_ESaIS5_EE22_M_emplace_hint_uniqueIJRKSt21piecewise_construct_tSt5tupleIJRS3_EESG_IJEEEEESt17_Rb_tree_iteratorIS5_ESt23_Rb_tree_const_iteratorIS5_EDpOT_.isra.297_x254
FUNC_END _ZNSt8_Rb_treeIP16hiRUNTIME_BLOB_SSt4pairIKS1_7HI_BOOLESt10_Select1stIS5_ESt4lessIS1_ESaIS5_EE22_M_emplace_hint_uniqueIJRKSt21piecewise_construct_tSt5tupleIJRS3_EESG_IJEEEEESt17_Rb_tree_iteratorIS5_ESt23_Rb_tree_const_iteratorIS5_EDpOT_.isra.297


@ - - - - - - - - - - - - - - - - - - - - - - - - - - - - - 
@ .text._ZN4hirt16TaskGroupManager11getInstanceEv
@ Size: 0x160
@ - - - - - - - - - - - - - - - - - - - - - - - - - - - - - 

FUNC_BEGIN _ZN4hirt16TaskGroupManager11getInstanceEv
    /*00000000*/ MOV         IP, #16384                  @ 0x4000 
    /*00000004*/ PUSH        {R4, R5, R6, R7, R8, LR} 
    /*00000008*/ SUB         IP, SP, IP 
    /*0000000c*/ STR         R0, [IP, #4072]             @ 0xfe8 
    /*00000010*/ LDR         R0, WORD_012c               @ LDR         R0, [PC, #276]              @ 0x000000000000012c 
    /*00000014*/ LDR         R4, WORD_0130               @ LDR         R4, [PC, #276]              @ 0x0000000000000130 
    /*00000018*/ ADD         R0, PC, R0 
    /*0000001c*/ ADD         R4, PC, R4 
    /*00000020*/ LDRB        R3, [R0] 
    /*00000024*/ DMB         ISH 
    /*00000028*/ TST         R3, #1 
    /*0000002c*/ BEQ         _ZN4hirt16TaskGroupManager11getInstanceEv_x3c
    _ZN4hirt16TaskGroupManager11getInstanceEv_x30:
    /*00000030*/ LDR         R0, WORD_0134               @ LDR         R0, [PC, #252]              @ 0x0000000000000134 
    /*00000034*/ ADD         R0, PC, R0 
    /*00000038*/ POP         {R4, R5, R6, R7, R8, PC} 
    _ZN4hirt16TaskGroupManager11getInstanceEv_x3c:
    /*0000003c*/ BL          __cxa_guard_acquire
    /*00000040*/ CMP         R0, #0 
    /*00000044*/ BEQ         _ZN4hirt16TaskGroupManager11getInstanceEv_x30
    /*00000048*/ LDR         R7, WORD_0138               @ LDR         R7, [PC, #232]              @ 0x0000000000000138 
    /*0000004c*/ VMOV.I32    Q8, #0                      @ 0x00000000 
    /*00000050*/ LDR         R3, WORD_013c               @ LDR         R3, [PC, #228]              @ 0x000000000000013c 
    /*00000054*/ ADD         R7, PC, R7 
    /*00000058*/ ADD         R3, PC, R3 
    /*0000005c*/ MOV         R5, R7 
    /*00000060*/ LDR         R2, WORD_0140               @ LDR         R2, [PC, #216]              @ 0x0000000000000140 
    /*00000064*/ ADD         R6, R7, #40                 @ 0x28 
    /*00000068*/ ADD         R3, R3, #8 
    /*0000006c*/ STR         R3, [R5], #4 
    /*00000070*/ VSTR        D16, [R6, #16] 
    /*00000074*/ VSTR        D16, [R5, #16] 
    /*00000078*/ VST1.8      {D16-D17}, [R5] 
    /*0000007c*/ VST1.8      {D16-D17}, [R6 :64] 
    /*00000080*/ LDR         R3, [R4, R2] 
    /*00000084*/ CMP         R3, #0 
    /*00000088*/ BEQ         _ZN4hirt16TaskGroupManager11getInstanceEv_xfc
    /*0000008c*/ MOV         R0, R6 
    /*00000090*/ BL          pthread_mutex_lock
    /*00000094*/ SUBS        R2, R0, #0 
    /*00000098*/ BNE         _ZN4hirt16TaskGroupManager11getInstanceEv_x128
    /*0000009c*/ LDR         R3, WORD_0144               @ LDR         R3, [PC, #160]              @ 0x0000000000000144 
    /*000000a0*/ MOV         R0, R6 
    /*000000a4*/ ADD         R3, PC, R3 
    /*000000a8*/ STR         R2, [R3] 
    /*000000ac*/ BL          pthread_mutex_unlock
    /*000000b0*/ MOV         R0, R5 
    /*000000b4*/ BL          pthread_mutex_lock
    /*000000b8*/ CMP         R0, #0 
    /*000000bc*/ BNE         _ZN4hirt16TaskGroupManager11getInstanceEv_x114
    /*000000c0*/ VMOV.I32    D16, #0                     @ 0x00000000 
    /*000000c4*/ MOV         R0, R5 
    /*000000c8*/ VSTR        D16, [R7, #32] 
    /*000000cc*/ BL          pthread_mutex_unlock
    _ZN4hirt16TaskGroupManager11getInstanceEv_xd0:
    /*000000d0*/ LDR         R0, WORD_0148               @ LDR         R0, [PC, #112]              @ 0x0000000000000148 
    /*000000d4*/ ADD         R0, PC, R0 
    /*000000d8*/ BL          __cxa_guard_release
    /*000000dc*/ LDR         R2, WORD_014c               @ LDR         R2, [PC, #104]              @ 0x000000000000014c 
    /*000000e0*/ LDR         R1, WORD_0150               @ LDR         R1, [PC, #104]              @ 0x0000000000000150 
    /*000000e4*/ LDR         R0, WORD_0154               @ LDR         R0, [PC, #104]              @ 0x0000000000000154 
    /*000000e8*/ ADD         R2, PC, R2 
    /*000000ec*/ ADD         R1, PC, R1 
    /*000000f0*/ ADD         R0, PC, R0 
    /*000000f4*/ BL          __aeabi_atexit
    /*000000f8*/ B           _ZN4hirt16TaskGroupManager11getInstanceEv_x30
    _ZN4hirt16TaskGroupManager11getInstanceEv_xfc:
    /*000000fc*/ VMOV.I32    D16, #0                     @ 0x00000000 
    /*00000100*/ LDR         R2, WORD_0158               @ LDR         R2, [PC, #80]               @ 0x0000000000000158 
    /*00000104*/ ADD         R2, PC, R2 
    /*00000108*/ VSTR        D16, [R7, #32] 
    /*0000010c*/ STR         R3, [R2] 
    /*00000110*/ B           _ZN4hirt16TaskGroupManager11getInstanceEv_xd0
    _ZN4hirt16TaskGroupManager11getInstanceEv_x114:
    /*00000114*/ BL          _ZSt20__throw_system_errori
    /*00000118*/ LDR         R0, WORD_015c               @ LDR         R0, [PC, #60]               @ 0x000000000000015c 
    /*0000011c*/ ADD         R0, PC, R0 
    /*00000120*/ BL          __cxa_guard_abort
    /*00000124*/ BL          __cxa_end_cleanup
    _ZN4hirt16TaskGroupManager11getInstanceEv_x128:
    /*00000128*/ BL          _ZSt20__throw_system_errori
    /*0000012c*/ WORD_012c: .word 0x0000010c
    /*00000130*/ WORD_0130: .word 0x0000010c
    /*00000134*/ WORD_0134: .word 0x000000f8
    /*00000138*/ WORD_0138: .word 0x000000dc
    /*0000013c*/ WORD_013c: .word 0x000000dc
    /*00000140*/ WORD_0140: .word 0x00000000
    /*00000144*/ WORD_0144: .word 0x00000098
    /*00000148*/ WORD_0148: .word 0x0000006c
    /*0000014c*/ WORD_014c: .word 0x0000005c
    /*00000150*/ WORD_0150: .word 0x0000005c
    /*00000154*/ WORD_0154: .word 0x0000005c
    /*00000158*/ WORD_0158: .word 0x0000004c
    /*0000015c*/ WORD_015c: .word 0x00000038
FUNC_END _ZN4hirt16TaskGroupManager11getInstanceEv


@ - - - - - - - - - - - - - - - - - - - - - - - - - - - - - 
@ .ARM.extab.text._ZN4hirt16TaskGroupManager11getInstanceEv
@ Size: 0x1d
@ - - - - - - - - - - - - - - - - - - - - - - - - - - - - - 

@ - - - - - - - - - - - - - - - - - - - - - - - - - - - - - 
@ .text._ZN4hirt16TaskGroupManager13computeCpuSegEPNS_10CpuSegTaskE
@ Size: 0x484
@ - - - - - - - - - - - - - - - - - - - - - - - - - - - - - 

FUNC_BEGIN _ZN4hirt16TaskGroupManager13computeCpuSegEPNS_10CpuSegTaskE
    /*00000000*/ MOV         IP, #16384                  @ 0x4000 
    /*00000004*/ PUSH        {R4, R5, R6, R7, R8, R9, SL, FP, LR} 
    /*00000008*/ SUB         IP, SP, IP 
    /*0000000c*/ STR         R0, [IP, #3992]             @ 0xf98 
    /*00000010*/ LDR         R3, [R1, #88]               @ 0x58 
    /*00000014*/ SUB         SP, SP, #68                 @ 0x44 
    /*00000018*/ LDR         R4, WORD_0444               @ LDR         R4, [PC, #1060]             @ 0x0000000000000444 
    /*0000001c*/ LDR         R0, [R3, #12] 
    /*00000020*/ ADD         R4, PC, R4 
    /*00000024*/ CMP         R0, #0 
    /*00000028*/ BNE         _ZN4hirt16TaskGroupManager13computeCpuSegEPNS_10CpuSegTaskE_x44
    /*0000002c*/ LDR         R3, [R1, #184]              @ 0xb8 
    /*00000030*/ CMP         R3, #0 
    /*00000034*/ STRNE       R0, [R3, #24] 
    /*00000038*/ BEQ         _ZN4hirt16TaskGroupManager13computeCpuSegEPNS_10CpuSegTaskE_x258
    _ZN4hirt16TaskGroupManager13computeCpuSegEPNS_10CpuSegTaskE_x3c:
    /*0000003c*/ ADD         SP, SP, #68                 @ 0x44 
    /*00000040*/ POP         {R4, R5, R6, R7, R8, R9, SL, FP, PC} 
    _ZN4hirt16TaskGroupManager13computeCpuSegEPNS_10CpuSegTaskE_x44:
    /*00000044*/ LDR         IP, [R1, #140]              @ 0x8c 
    /*00000048*/ MOV         R5, R1 
    /*0000004c*/ LDR         R2, [R1, #112]              @ 0x70 
    /*00000050*/ ADD         R0, R1, #124                @ 0x7c 
    /*00000054*/ LDR         LR, [IP, #16] 
    /*00000058*/ LDR         R3, [IP, #20] 
    /*0000005c*/ LDR         R1, [IP, #8] 
    /*00000060*/ SUB         R3, R3, LR 
    /*00000064*/ LDR         LR, [IP, #4] 
    /*00000068*/ ASR         R3, R3, #2 
    /*0000006c*/ SUB         R1, R1, LR 
    /*00000070*/ ADD         LR, R5, #116                @ 0x74 
    /*00000074*/ STR         R0, [SP, #4] 
    /*00000078*/ ASR         R1, R1, #2 
    /*0000007c*/ LDR         R0, [R5, #104]              @ 0x68 
    /*00000080*/ STR         LR, [SP] 
    /*00000084*/ LDR         R6, [IP, #136]              @ 0x88 
    /*00000088*/ BLX         R6 
    /*0000008c*/ SUBS        R1, R0, #0 
    /*00000090*/ BNE         _ZN4hirt16TaskGroupManager13computeCpuSegEPNS_10CpuSegTaskE_x424
    /*00000094*/ LDR         R2, [R5, #140]              @ 0x8c 
    /*00000098*/ LDR         R3, [R2, #16] 
    /*0000009c*/ LDR         R2, [R2, #20] 
    /*000000a0*/ CMP         R3, R2 
    /*000000a4*/ STR         R2, [SP, #24] 
    /*000000a8*/ BEQ         _ZN4hirt16TaskGroupManager13computeCpuSegEPNS_10CpuSegTaskE_x258
    /*000000ac*/ LDR         R0, [R3] 
    /*000000b0*/ CMP         R0, #0 
    /*000000b4*/ BEQ         _ZN4hirt16TaskGroupManager13computeCpuSegEPNS_10CpuSegTaskE_x20c
    /*000000b8*/ LDR         R2, WORD_0448               @ LDR         R2, [PC, #904]              @ 0x0000000000000448 
    /*000000bc*/ ADD         R9, R3, #4 
    /*000000c0*/ STR         R1, [SP, #12] 
    /*000000c4*/ MOV         FP, R9 
    /*000000c8*/ LDR         R2, [R4, R2] 
    /*000000cc*/ LDR         R3, WORD_044c               @ LDR         R3, [PC, #888]              @ 0x000000000000044c 
    /*000000d0*/ STR         R2, [SP, #28] 
    /*000000d4*/ LDR         R3, [R4, R3] 
    /*000000d8*/ LDR         SL, WORD_0450               @ LDR         SL, [PC, #880]              @ 0x0000000000000450 
    /*000000dc*/ STR         R3, [SP, #32] 
    /*000000e0*/ LDR         R3, WORD_0454               @ LDR         R3, [PC, #876]              @ 0x0000000000000454 
    /*000000e4*/ ADD         SL, PC, SL 
    /*000000e8*/ ADD         R3, PC, R3 
    /*000000ec*/ STR         R3, [SP, #36]               @ 0x24 
    _ZN4hirt16TaskGroupManager13computeCpuSegEPNS_10CpuSegTaskE_xf0:
    /*000000f0*/ LDR         R2, [SP, #28] 
    /*000000f4*/ MOV         R3, #0 
    /*000000f8*/ LDR         R1, [SP, #32] 
    /*000000fc*/ BL          __dynamic_cast
    /*00000100*/ SUBS        R3, R0, #0 
    /*00000104*/ STR         R3, [SP, #16] 
    /*00000108*/ BEQ         _ZN4hirt16TaskGroupManager13computeCpuSegEPNS_10CpuSegTaskE_x20c
    /*0000010c*/ LDR         R3, [R5, #96]               @ 0x60 
    /*00000110*/ CMP         R3, #0 
    /*00000114*/ BEQ         _ZN4hirt16TaskGroupManager13computeCpuSegEPNS_10CpuSegTaskE_x230
    /*00000118*/ LDR         R6, [R5, #36]               @ 0x24 
    /*0000011c*/ LDR         R9, [R5, #40]               @ 0x28 
    /*00000120*/ CMP         R6, R9 
    /*00000124*/ BEQ         _ZN4hirt16TaskGroupManager13computeCpuSegEPNS_10CpuSegTaskE_x1d0
    /*00000128*/ LDR         R7, [R5, #112]              @ 0x70 
    /*0000012c*/ SUB         R6, R6, #4 
    /*00000130*/ LDR         R3, [SP, #12] 
    /*00000134*/ SUB         R9, R9, #4 
    /*00000138*/ ADD         R7, R7, R3 
    /*0000013c*/ B           _ZN4hirt16TaskGroupManager13computeCpuSegEPNS_10CpuSegTaskE_x164
    _ZN4hirt16TaskGroupManager13computeCpuSegEPNS_10CpuSegTaskE_x140:
    /*00000140*/ LDR         R2, [R7, #92]               @ 0x5c 
    /*00000144*/ LDR         R3, [R3, #108]              @ 0x6c 
    /*00000148*/ STR         R2, [R3, #32] 
    /*0000014c*/ LDR         R2, [R7, #88]               @ 0x58 
    /*00000150*/ STR         R2, [R3, #36]               @ 0x24 
    /*00000154*/ LDR         R2, [R7, #96]               @ 0x60 
    /*00000158*/ STR         R2, [R3, #40]               @ 0x28 
    _ZN4hirt16TaskGroupManager13computeCpuSegEPNS_10CpuSegTaskE_x15c:
    /*0000015c*/ CMP         R6, R9 
    /*00000160*/ BEQ         _ZN4hirt16TaskGroupManager13computeCpuSegEPNS_10CpuSegTaskE_x1d0
    _ZN4hirt16TaskGroupManager13computeCpuSegEPNS_10CpuSegTaskE_x164:
    /*00000164*/ LDR         R8, [R6, #4]! 
    /*00000168*/ MOV         R3, #0 
    /*0000016c*/ LDR         R2, WORD_0458               @ LDR         R2, [PC, #740]              @ 0x0000000000000458 
    /*00000170*/ MOV         R1, SL 
    /*00000174*/ CMP         R8, R3 
    /*00000178*/ MOV         R0, R8 
    /*0000017c*/ BEQ         _ZN4hirt16TaskGroupManager13computeCpuSegEPNS_10CpuSegTaskE_x15c
    /*00000180*/ LDR         R2, [R4, R2] 
    /*00000184*/ BL          __dynamic_cast
    /*00000188*/ SUBS        R3, R0, #0 
    /*0000018c*/ BNE         _ZN4hirt16TaskGroupManager13computeCpuSegEPNS_10CpuSegTaskE_x140
    /*00000190*/ LDR         R2, WORD_045c               @ LDR         R2, [PC, #708]              @ 0x000000000000045c 
    /*00000194*/ MOV         R0, R8 
    /*00000198*/ MOV         R1, SL 
    /*0000019c*/ LDR         R2, [R4, R2] 
    /*000001a0*/ BL          __dynamic_cast
    /*000001a4*/ CMP         R0, #0 
    /*000001a8*/ BEQ         _ZN4hirt16TaskGroupManager13computeCpuSegEPNS_10CpuSegTaskE_x15c
    /*000001ac*/ LDR         R2, [R7, #92]               @ 0x5c 
    /*000001b0*/ LDR         R3, [R0, #104]              @ 0x68 
    /*000001b4*/ LDR         R1, [R7, #88]               @ 0x58 
    /*000001b8*/ CMP         R6, R9 
    /*000001bc*/ STR         R2, [R3, #92]               @ 0x5c 
    /*000001c0*/ LDR         R2, [R7, #96]               @ 0x60 
    /*000001c4*/ STR         R1, [R3, #88]               @ 0x58 
    /*000001c8*/ STR         R2, [R3, #96]               @ 0x60 
    /*000001cc*/ BNE         _ZN4hirt16TaskGroupManager13computeCpuSegEPNS_10CpuSegTaskE_x164
    _ZN4hirt16TaskGroupManager13computeCpuSegEPNS_10CpuSegTaskE_x1d0:
    /*000001d0*/ LDR         R3, [SP, #16] 
    /*000001d4*/ LDR         R3, [R3, #72]               @ 0x48 
    /*000001d8*/ CMP         R3, #1 
    /*000001dc*/ BEQ         _ZN4hirt16TaskGroupManager13computeCpuSegEPNS_10CpuSegTaskE_x264
    _ZN4hirt16TaskGroupManager13computeCpuSegEPNS_10CpuSegTaskE_x1e0:
    /*000001e0*/ CMP         R3, #2 
    /*000001e4*/ BEQ         _ZN4hirt16TaskGroupManager13computeCpuSegEPNS_10CpuSegTaskE_x29c
    _ZN4hirt16TaskGroupManager13computeCpuSegEPNS_10CpuSegTaskE_x1e8:
    /*000001e8*/ LDR         R3, [SP, #24] 
    /*000001ec*/ CMP         FP, R3 
    /*000001f0*/ BEQ         _ZN4hirt16TaskGroupManager13computeCpuSegEPNS_10CpuSegTaskE_x258
    _ZN4hirt16TaskGroupManager13computeCpuSegEPNS_10CpuSegTaskE_x1f4:
    /*000001f4*/ LDR         R0, [FP], #4 
    /*000001f8*/ LDR         R3, [SP, #12] 
    /*000001fc*/ CMP         R0, #0 
    /*00000200*/ ADD         R3, R3, #104                @ 0x68 
    /*00000204*/ STR         R3, [SP, #12] 
    /*00000208*/ BNE         _ZN4hirt16TaskGroupManager13computeCpuSegEPNS_10CpuSegTaskE_xf0
    _ZN4hirt16TaskGroupManager13computeCpuSegEPNS_10CpuSegTaskE_x20c:
    /*0000020c*/ LDR         R2, WORD_0460               @ LDR         R2, [PC, #588]              @ 0x0000000000000460 
    /*00000210*/ MOV         R1, #4 
    /*00000214*/ LDR         R0, WORD_0464               @ LDR         R0, [PC, #584]              @ 0x0000000000000464 
    /*00000218*/ ADD         R2, PC, R2 
    /*0000021c*/ ADD         R0, PC, R0 
    /*00000220*/ BL          _Z15HIRT_LOG_PrintfPKc19tagHIRT_LOG_LEVEL_ES0_z
    /*00000224*/ MVN         R0, #0 
    /*00000228*/ ADD         SP, SP, #68                 @ 0x44 
    /*0000022c*/ POP         {R4, R5, R6, R7, R8, R9, SL, FP, PC} 
    _ZN4hirt16TaskGroupManager13computeCpuSegEPNS_10CpuSegTaskE_x230:
    /*00000230*/ LDR         R3, [SP, #16] 
    /*00000234*/ LDR         R3, [R3, #72]               @ 0x48 
    /*00000238*/ CMP         R3, #1 
    /*0000023c*/ LDREQ       R3, [R5, #176]              @ 0xb0 
    /*00000240*/ BNE         _ZN4hirt16TaskGroupManager13computeCpuSegEPNS_10CpuSegTaskE_x1e0
    _ZN4hirt16TaskGroupManager13computeCpuSegEPNS_10CpuSegTaskE_x244:
    /*00000244*/ ADD         R3, R3, #1 
    /*00000248*/ STR         R3, [R5, #176]              @ 0xb0 
    /*0000024c*/ LDR         R3, [SP, #24] 
    /*00000250*/ CMP         FP, R3 
    /*00000254*/ BNE         _ZN4hirt16TaskGroupManager13computeCpuSegEPNS_10CpuSegTaskE_x1f4
    _ZN4hirt16TaskGroupManager13computeCpuSegEPNS_10CpuSegTaskE_x258:
    /*00000258*/ MOV         R0, #0 
    /*0000025c*/ ADD         SP, SP, #68                 @ 0x44 
    /*00000260*/ POP         {R4, R5, R6, R7, R8, R9, SL, FP, PC} 
    _ZN4hirt16TaskGroupManager13computeCpuSegEPNS_10CpuSegTaskE_x264:
    /*00000264*/ LDR         R1, [R5, #112]              @ 0x70 
    /*00000268*/ MOV         R2, #48                     @ 0x30 
    /*0000026c*/ LDR         R0, [SP, #12] 
    /*00000270*/ LDR         R3, [R5, #176]              @ 0xb0 
    /*00000274*/ LDR         IP, [R5, #144]              @ 0x90 
    /*00000278*/ ADD         R1, R1, R0 
    /*0000027c*/ MLA         R2, R2, R3, IP 
    /*00000280*/ LDR         R0, [R1, #92]               @ 0x5c 
    /*00000284*/ STR         R0, [R2, #32] 
    /*00000288*/ LDR         R0, [R1, #88]               @ 0x58 
    /*0000028c*/ STR         R0, [R2, #36]               @ 0x24 
    /*00000290*/ LDR         R1, [R1, #96]               @ 0x60 
    /*00000294*/ STR         R1, [R2, #40]               @ 0x28 
    /*00000298*/ B           _ZN4hirt16TaskGroupManager13computeCpuSegEPNS_10CpuSegTaskE_x244
    _ZN4hirt16TaskGroupManager13computeCpuSegEPNS_10CpuSegTaskE_x29c:
    /*0000029c*/ LDR         R2, [R5, #112]              @ 0x70 
    /*000002a0*/ LDR         R7, [SP, #12] 
    /*000002a4*/ LDR         R3, [R5, #144]              @ 0x90 
    /*000002a8*/ ADD         R0, R2, R7 
    /*000002ac*/ LDR         R6, [R3, #24] 
    /*000002b0*/ LDR         R1, [R0, #84]               @ 0x54 
    /*000002b4*/ LDR         R3, [R0, #88]               @ 0x58 
    /*000002b8*/ MUL         R1, R1, R6 
    /*000002bc*/ LDR         LR, [SP, #16] 
    /*000002c0*/ LDR         R6, [R0, #96]               @ 0x60 
    /*000002c4*/ MUL         R3, R3, R1 
    /*000002c8*/ LDR         IP, [R5, #160]              @ 0xa0 
    /*000002cc*/ LDR         R1, [LR, #68]               @ 0x44 
    /*000002d0*/ MUL         R6, R6, R3 
    /*000002d4*/ LDR         R0, [R5, #180]              @ 0xb4 
    /*000002d8*/ LDR         LR, [LR, #92]               @ 0x5c 
    /*000002dc*/ MOV         R3, R6 
    /*000002e0*/ ADD         IP, IP, R1 
    /*000002e4*/ MOV         R1, R6 
    /*000002e8*/ LDR         R2, [R2, R7] 
    /*000002ec*/ MLA         R0, LR, R0, IP 
    /*000002f0*/ BL          memcpy_s
    /*000002f4*/ CMP         R0, #0 
    /*000002f8*/ BNE         _ZN4hirt16TaskGroupManager13computeCpuSegEPNS_10CpuSegTaskE_x3f8
    /*000002fc*/ LDR         R3, [SP, #16] 
    /*00000300*/ MOV         R9, #0 
    /*00000304*/ STR         R6, [SP, #56]               @ 0x38 
    /*00000308*/ ADD         R0, SP, #40                 @ 0x28 
    /*0000030c*/ LDR         R8, [R3, #68]               @ 0x44 
    /*00000310*/ LDR         R1, [R3, #92]               @ 0x5c 
    /*00000314*/ LDRD        R2, [R5, #152]              @ 0x98 
    /*00000318*/ ADDS        R2, R2, R8 
    /*0000031c*/ ADC         R3, R3, R9 
    /*00000320*/ STRD        R2, [SP, #16] 
    /*00000324*/ LDRD        R2, [R5, #160]              @ 0xa0 
    /*00000328*/ LDRD        R6, [SP, #16] 
    /*0000032c*/ ADDS        R2, R2, R8 
    /*00000330*/ ADC         R3, R3, R9 
    /*00000334*/ MOV         R8, R2 
    /*00000338*/ LDR         R2, [R5, #180]              @ 0xb4 
    /*0000033c*/ MOV         R9, R3 
    /*00000340*/ UMULL       R2, R3, R2, R1 
    /*00000344*/ STRD        R2, [SP, #16] 
    /*00000348*/ ADDS        R2, R2, R6 
    /*0000034c*/ ADC         R3, R3, R7 
    /*00000350*/ MOV         R6, R2 
    /*00000354*/ MOV         R7, R3 
    /*00000358*/ LDRD        R2, [SP, #16] 
    /*0000035c*/ STRD        R6, [SP, #40]               @ 0x28 
    /*00000360*/ ADDS        R2, R2, R8 
    /*00000364*/ ADC         R3, R3, R9 
    /*00000368*/ STRD        R2, [SP, #48]               @ 0x30 
    /*0000036c*/ BL          HIRT_Utils_FlushCache
    /*00000370*/ CMP         R0, #0 
    /*00000374*/ BNE         _ZN4hirt16TaskGroupManager13computeCpuSegEPNS_10CpuSegTaskE_x3d4
    _ZN4hirt16TaskGroupManager13computeCpuSegEPNS_10CpuSegTaskE_x378:
    /*00000378*/ LDR         R3, [R5, #96]               @ 0x60 
    /*0000037c*/ CMP         R3, #0 
    /*00000380*/ LDREQ       R3, [R5, #176]              @ 0xb0 
    /*00000384*/ BEQ         _ZN4hirt16TaskGroupManager13computeCpuSegEPNS_10CpuSegTaskE_x3bc
    /*00000388*/ LDR         R1, [R5, #112]              @ 0x70 
    /*0000038c*/ MOV         R2, #48                     @ 0x30 
    /*00000390*/ LDR         R0, [SP, #12] 
    /*00000394*/ LDR         R3, [R5, #176]              @ 0xb0 
    /*00000398*/ LDR         IP, [R5, #144]              @ 0x90 
    /*0000039c*/ ADD         R1, R1, R0 
    /*000003a0*/ MLA         R2, R2, R3, IP 
    /*000003a4*/ LDR         R0, [R1, #92]               @ 0x5c 
    /*000003a8*/ STR         R0, [R2, #32] 
    /*000003ac*/ LDR         R0, [R1, #88]               @ 0x58 
    /*000003b0*/ STR         R0, [R2, #36]               @ 0x24 
    /*000003b4*/ LDR         R1, [R1, #96]               @ 0x60 
    /*000003b8*/ STR         R1, [R2, #40]               @ 0x28 
    _ZN4hirt16TaskGroupManager13computeCpuSegEPNS_10CpuSegTaskE_x3bc:
    /*000003bc*/ LDR         R2, [R5, #140]              @ 0x8c 
    /*000003c0*/ ADD         R3, R3, #1 
    /*000003c4*/ STR         R3, [R5, #176]              @ 0xb0 
    /*000003c8*/ LDR         R3, [R2, #20] 
    /*000003cc*/ STR         R3, [SP, #24] 
    /*000003d0*/ B           _ZN4hirt16TaskGroupManager13computeCpuSegEPNS_10CpuSegTaskE_x1e8
    _ZN4hirt16TaskGroupManager13computeCpuSegEPNS_10CpuSegTaskE_x3d4:
    /*000003d4*/ STR         R0, [SP] 
    /*000003d8*/ MOV         R1, #4 
    /*000003dc*/ LDR         R2, WORD_0468               @ LDR         R2, [PC, #132]              @ 0x0000000000000468 
    /*000003e0*/ LDR         R0, WORD_046c               @ LDR         R0, [PC, #132]              @ 0x000000000000046c 
    /*000003e4*/ LDR         R3, [SP, #36]               @ 0x24 
    /*000003e8*/ ADD         R2, PC, R2 
    /*000003ec*/ ADD         R0, PC, R0 
    /*000003f0*/ BL          _Z15HIRT_LOG_PrintfPKc19tagHIRT_LOG_LEVEL_ES0_z
    /*000003f4*/ B           _ZN4hirt16TaskGroupManager13computeCpuSegEPNS_10CpuSegTaskE_x378
    _ZN4hirt16TaskGroupManager13computeCpuSegEPNS_10CpuSegTaskE_x3f8:
    /*000003f8*/ STR         R0, [SP] 
    /*000003fc*/ MOV         R1, #4 
    /*00000400*/ LDR         R3, WORD_0470               @ LDR         R3, [PC, #104]              @ 0x0000000000000470 
    /*00000404*/ LDR         R2, WORD_0474               @ LDR         R2, [PC, #104]              @ 0x0000000000000474 
    /*00000408*/ LDR         R0, WORD_0478               @ LDR         R0, [PC, #104]              @ 0x0000000000000478 
    /*0000040c*/ ADD         R3, PC, R3 
    /*00000410*/ ADD         R2, PC, R2 
    /*00000414*/ ADD         R0, PC, R0 
    /*00000418*/ BL          _Z15HIRT_LOG_PrintfPKc19tagHIRT_LOG_LEVEL_ES0_z
    /*0000041c*/ MVN         R0, #0 
    /*00000420*/ B           _ZN4hirt16TaskGroupManager13computeCpuSegEPNS_10CpuSegTaskE_x3c
    _ZN4hirt16TaskGroupManager13computeCpuSegEPNS_10CpuSegTaskE_x424:
    /*00000424*/ LDR         R2, WORD_047c               @ LDR         R2, [PC, #80]               @ 0x000000000000047c 
    /*00000428*/ MOV         R1, #4 
    /*0000042c*/ LDR         R0, WORD_0480               @ LDR         R0, [PC, #76]               @ 0x0000000000000480 
    /*00000430*/ ADD         R2, PC, R2 
    /*00000434*/ ADD         R0, PC, R0 
    /*00000438*/ BL          _Z15HIRT_LOG_PrintfPKc19tagHIRT_LOG_LEVEL_ES0_z
    /*0000043c*/ MVN         R0, #0 
    /*00000440*/ B           _ZN4hirt16TaskGroupManager13computeCpuSegEPNS_10CpuSegTaskE_x3c
    /*00000444*/ WORD_0444: .word 0x0000041c
    /*00000448*/ WORD_0448: .word 0x00000000
    /*0000044c*/ WORD_044c: .word 0x00000000
    /*00000450*/ WORD_0450: .word 0x00000364
    /*00000454*/ WORD_0454: .word 0x00000364
    /*00000458*/ WORD_0458: .word 0x00000000
    /*0000045c*/ WORD_045c: .word 0x00000000
    /*00000460*/ WORD_0460: .word 0x00000240
    /*00000464*/ WORD_0464: .word 0x00000240
    /*00000468*/ WORD_0468: .word 0x00000078
    /*0000046c*/ WORD_046c: .word 0x00000078
    /*00000470*/ WORD_0470: .word 0x0000005c
    /*00000474*/ WORD_0474: .word 0x0000005c
    /*00000478*/ WORD_0478: .word 0x0000005c
    /*0000047c*/ WORD_047c: .word 0x00000044
    /*00000480*/ WORD_0480: .word 0x00000044
FUNC_END _ZN4hirt16TaskGroupManager13computeCpuSegEPNS_10CpuSegTaskE


@ - - - - - - - - - - - - - - - - - - - - - - - - - - - - - 
@ .text._ZN4hirt16TaskGroupManagerC2Ev
@ Size: 0xd8
@ - - - - - - - - - - - - - - - - - - - - - - - - - - - - - 

FUNC_BEGIN _ZN4hirt16TaskGroupManagerC2Ev
    /*00000000*/ MOV         IP, #16384                  @ 0x4000 
    /*00000004*/ PUSH        {R4, R5, R6, LR} 
    /*00000008*/ SUB         IP, SP, IP 
    /*0000000c*/ STR         R0, [IP, #4080]             @ 0xff0 
    /*00000010*/ VMOV.I32    Q8, #0                      @ 0x00000000 
    /*00000014*/ LDR         R3, WORD_00c4               @ LDR         R3, [PC, #168]              @ 0x00000000000000c4 
    /*00000018*/ MOV         R4, R0 
    /*0000001c*/ LDR         R2, WORD_00c8               @ LDR         R2, [PC, #164]              @ 0x00000000000000c8 
    /*00000020*/ ADD         R6, R0, #40                 @ 0x28 
    /*00000024*/ ADD         R3, PC, R3 
    /*00000028*/ MOV         R5, R0 
    /*0000002c*/ ADD         R2, PC, R2 
    /*00000030*/ ADD         R3, R3, #8 
    /*00000034*/ STR         R3, [R4], #4 
    /*00000038*/ VST1.8      {D16-D17}, [R4] 
    /*0000003c*/ VSTR        D16, [R4, #16] 
    /*00000040*/ VST1.8      {D16-D17}, [R6] 
    /*00000044*/ VSTR        D16, [R6, #16] 
    /*00000048*/ LDR         R1, WORD_00cc               @ LDR         R1, [PC, #124]              @ 0x00000000000000cc 
    /*0000004c*/ LDR         R3, [R2, R1] 
    /*00000050*/ CMP         R3, #0 
    /*00000054*/ BEQ         _ZN4hirt16TaskGroupManagerC2Ev_xa4
    /*00000058*/ MOV         R0, R6 
    /*0000005c*/ BL          pthread_mutex_lock
    /*00000060*/ SUBS        R2, R0, #0 
    /*00000064*/ BNE         _ZN4hirt16TaskGroupManagerC2Ev_xc0
    /*00000068*/ LDR         R3, WORD_00d0               @ LDR         R3, [PC, #96]               @ 0x00000000000000d0 
    /*0000006c*/ MOV         R0, R6 
    /*00000070*/ ADD         R3, PC, R3 
    /*00000074*/ STR         R2, [R3] 
    /*00000078*/ BL          pthread_mutex_unlock
    /*0000007c*/ MOV         R0, R4 
    /*00000080*/ BL          pthread_mutex_lock
    /*00000084*/ CMP         R0, #0 
    /*00000088*/ BNE         _ZN4hirt16TaskGroupManagerC2Ev_xc0
    /*0000008c*/ VMOV.I32    D16, #0                     @ 0x00000000 
    /*00000090*/ MOV         R0, R4 
    /*00000094*/ VSTR        D16, [R5, #32] 
    /*00000098*/ BL          pthread_mutex_unlock
    /*0000009c*/ MOV         R0, R5 
    /*000000a0*/ POP         {R4, R5, R6, PC} 
    _ZN4hirt16TaskGroupManagerC2Ev_xa4:
    /*000000a4*/ VMOV.I32    D16, #0                     @ 0x00000000 
    /*000000a8*/ LDR         R2, WORD_00d4               @ LDR         R2, [PC, #36]               @ 0x00000000000000d4 
    /*000000ac*/ ADD         R2, PC, R2 
    /*000000b0*/ VSTR        D16, [R0, #32] 
    /*000000b4*/ STR         R3, [R2] 
    /*000000b8*/ MOV         R0, R5 
    /*000000bc*/ POP         {R4, R5, R6, PC} 
    _ZN4hirt16TaskGroupManagerC2Ev_xc0:
    /*000000c0*/ BL          _ZSt20__throw_system_errori
    /*000000c4*/ WORD_00c4: .word 0x00000098
    /*000000c8*/ WORD_00c8: .word 0x00000094
    /*000000cc*/ WORD_00cc: .word 0x00000000
    /*000000d0*/ WORD_00d0: .word 0x00000058
    /*000000d4*/ WORD_00d4: .word 0x00000020
FUNC_END _ZN4hirt16TaskGroupManagerC2Ev


FUNC_BEGIN _ZN4hirt16TaskGroupManagerC1Ev
    /*00000000*/ MOV         IP, #16384                  @ 0x4000 
    /*00000004*/ PUSH        {R4, R5, R6, LR} 
    /*00000008*/ SUB         IP, SP, IP 
    /*0000000c*/ STR         R0, [IP, #4080]             @ 0xff0 
    /*00000010*/ VMOV.I32    Q8, #0                      @ 0x00000000 
    /*00000014*/ LDR         R3, WORD_00c4               @ LDR         R3, [PC, #168]              @ 0x00000000000000c4 
    /*00000018*/ MOV         R4, R0 
    /*0000001c*/ LDR         R2, WORD_00c8               @ LDR         R2, [PC, #164]              @ 0x00000000000000c8 
    /*00000020*/ ADD         R6, R0, #40                 @ 0x28 
    /*00000024*/ ADD         R3, PC, R3 
    /*00000028*/ MOV         R5, R0 
    /*0000002c*/ ADD         R2, PC, R2 
    /*00000030*/ ADD         R3, R3, #8 
    /*00000034*/ STR         R3, [R4], #4 
    /*00000038*/ VST1.8      {D16-D17}, [R4] 
    /*0000003c*/ VSTR        D16, [R4, #16] 
    /*00000040*/ VST1.8      {D16-D17}, [R6] 
    /*00000044*/ VSTR        D16, [R6, #16] 
    /*00000048*/ LDR         R1, WORD_00cc               @ LDR         R1, [PC, #124]              @ 0x00000000000000cc 
    /*0000004c*/ LDR         R3, [R2, R1] 
    /*00000050*/ CMP         R3, #0 
    /*00000054*/ BEQ         _ZN4hirt16TaskGroupManagerC1Ev_xa4
    /*00000058*/ MOV         R0, R6 
    /*0000005c*/ BL          pthread_mutex_lock
    /*00000060*/ SUBS        R2, R0, #0 
    /*00000064*/ BNE         _ZN4hirt16TaskGroupManagerC1Ev_xc0
    /*00000068*/ LDR         R3, WORD_00d0               @ LDR         R3, [PC, #96]               @ 0x00000000000000d0 
    /*0000006c*/ MOV         R0, R6 
    /*00000070*/ ADD         R3, PC, R3 
    /*00000074*/ STR         R2, [R3] 
    /*00000078*/ BL          pthread_mutex_unlock
    /*0000007c*/ MOV         R0, R4 
    /*00000080*/ BL          pthread_mutex_lock
    /*00000084*/ CMP         R0, #0 
    /*00000088*/ BNE         _ZN4hirt16TaskGroupManagerC1Ev_xc0
    /*0000008c*/ VMOV.I32    D16, #0                     @ 0x00000000 
    /*00000090*/ MOV         R0, R4 
    /*00000094*/ VSTR        D16, [R5, #32] 
    /*00000098*/ BL          pthread_mutex_unlock
    /*0000009c*/ MOV         R0, R5 
    /*000000a0*/ POP         {R4, R5, R6, PC} 
    _ZN4hirt16TaskGroupManagerC1Ev_xa4:
    /*000000a4*/ VMOV.I32    D16, #0                     @ 0x00000000 
    /*000000a8*/ LDR         R2, WORD_00d4               @ LDR         R2, [PC, #36]               @ 0x00000000000000d4 
    /*000000ac*/ ADD         R2, PC, R2 
    /*000000b0*/ VSTR        D16, [R0, #32] 
    /*000000b4*/ STR         R3, [R2] 
    /*000000b8*/ MOV         R0, R5 
    /*000000bc*/ POP         {R4, R5, R6, PC} 
    _ZN4hirt16TaskGroupManagerC1Ev_xc0:
    /*000000c0*/ BL          _ZSt20__throw_system_errori
    /*000000c4*/ WORD_00c4: .word 0x00000098
    /*000000c8*/ WORD_00c8: .word 0x00000094
    /*000000cc*/ WORD_00cc: .word 0x00000000
    /*000000d0*/ WORD_00d0: .word 0x00000058
    /*000000d4*/ WORD_00d4: .word 0x00000020
FUNC_END _ZN4hirt16TaskGroupManagerC1Ev


@ - - - - - - - - - - - - - - - - - - - - - - - - - - - - - 
@ .text._ZN4hirt17TaskGroupPriority20searchModelGroupTaskEj
@ Size: 0x3c
@ - - - - - - - - - - - - - - - - - - - - - - - - - - - - - 

FUNC_BEGIN _ZN4hirt17TaskGroupPriority20searchModelGroupTaskEj
    /*00000000*/ LDMIB       R0, {R3, IP} 
    /*00000004*/ CMP         R3, IP 
    /*00000008*/ BNE         _ZN4hirt17TaskGroupPriority20searchModelGroupTaskEj_x18
    /*0000000c*/ B           _ZN4hirt17TaskGroupPriority20searchModelGroupTaskEj_x34
    _ZN4hirt17TaskGroupPriority20searchModelGroupTaskEj_x10:
    /*00000010*/ CMP         IP, R3 
    /*00000014*/ BEQ         _ZN4hirt17TaskGroupPriority20searchModelGroupTaskEj_x34
    _ZN4hirt17TaskGroupPriority20searchModelGroupTaskEj_x18:
    /*00000018*/ LDR         R0, [R3], #4 
    /*0000001c*/ CMP         R0, #0 
    /*00000020*/ BEQ         _ZN4hirt17TaskGroupPriority20searchModelGroupTaskEj_x10
    /*00000024*/ LDR         R2, [R0, #272]              @ 0x110 
    /*00000028*/ CMP         R1, R2 
    /*0000002c*/ BNE         _ZN4hirt17TaskGroupPriority20searchModelGroupTaskEj_x10
    /*00000030*/ BX          LR 
    _ZN4hirt17TaskGroupPriority20searchModelGroupTaskEj_x34:
    /*00000034*/ MOV         R0, #0 
    /*00000038*/ BX          LR 
FUNC_END _ZN4hirt17TaskGroupPriority20searchModelGroupTaskEj


@ - - - - - - - - - - - - - - - - - - - - - - - - - - - - - 
@ .text._ZNSt8_Rb_treeINSt7__cxx1112basic_stringIcSt11char_traitsIcESaIcEEESt4pairIKS5_P26hiRUNTIME_SRC_BLOB_ARRAY_SESt10_Select1stISA_ESt4lessIS5_ESaISA_EE8_M_eraseEPSt13_Rb_tree_nodeISA_E
@ Size: 0x234
@ - - - - - - - - - - - - - - - - - - - - - - - - - - - - - 

FUNC_BEGIN _ZNSt8_Rb_treeINSt7__cxx1112basic_stringIcSt11char_traitsIcESaIcEEESt4pairIKS5_P26hiRUNTIME_SRC_BLOB_ARRAY_SESt10_Select1stISA_ESt4lessIS5_ESaISA_EE8_M_eraseEPSt13_Rb_tree_nodeISA_E
    /*00000000*/ MOV         IP, #16384                  @ 0x4000 
    /*00000004*/ PUSH        {R4, R5, R6, R7, R8, R9, SL, FP, LR} 
    /*00000008*/ SUB         IP, SP, IP 
    /*0000000c*/ STR         R0, [IP, #4040]             @ 0xfc8 
    /*00000010*/ SUB         SP, SP, #20 
    /*00000014*/ SUBS        R3, R1, #0 
    /*00000018*/ STR         R3, [SP, #12] 
    /*0000001c*/ BEQ         _ZNSt8_Rb_treeINSt7__cxx1112basic_stringIcSt11char_traitsIcESaIcEEESt4pairIKS5_P26hiRUNTIME_SRC_BLOB_ARRAY_SESt10_Select1stISA_ESt4lessIS5_ESaISA_EE8_M_eraseEPSt13_Rb_tree_nodeISA_E_x22c
    /*00000020*/ MOV         R5, R0 
    _ZNSt8_Rb_treeINSt7__cxx1112basic_stringIcSt11char_traitsIcESaIcEEESt4pairIKS5_P26hiRUNTIME_SRC_BLOB_ARRAY_SESt10_Select1stISA_ESt4lessIS5_ESaISA_EE8_M_eraseEPSt13_Rb_tree_nodeISA_E_x24:
    /*00000024*/ LDR         R3, [R3, #12] 
    /*00000028*/ CMP         R3, #0 
    /*0000002c*/ STRNE       R3, [SP, #8] 
    /*00000030*/ BEQ         _ZNSt8_Rb_treeINSt7__cxx1112basic_stringIcSt11char_traitsIcESaIcEEESt4pairIKS5_P26hiRUNTIME_SRC_BLOB_ARRAY_SESt10_Select1stISA_ESt4lessIS5_ESaISA_EE8_M_eraseEPSt13_Rb_tree_nodeISA_E_x1f8
    _ZNSt8_Rb_treeINSt7__cxx1112basic_stringIcSt11char_traitsIcESaIcEEESt4pairIKS5_P26hiRUNTIME_SRC_BLOB_ARRAY_SESt10_Select1stISA_ESt4lessIS5_ESaISA_EE8_M_eraseEPSt13_Rb_tree_nodeISA_E_x34:
    /*00000034*/ LDR         R8, [R3, #12] 
    /*00000038*/ CMP         R8, #0 
    /*0000003c*/ STRNE       R8, [SP, #4] 
    /*00000040*/ MOVNE       R3, R8 
    /*00000044*/ BEQ         _ZNSt8_Rb_treeINSt7__cxx1112basic_stringIcSt11char_traitsIcESaIcEEESt4pairIKS5_P26hiRUNTIME_SRC_BLOB_ARRAY_SESt10_Select1stISA_ESt4lessIS5_ESaISA_EE8_M_eraseEPSt13_Rb_tree_nodeISA_E_x1c4
    _ZNSt8_Rb_treeINSt7__cxx1112basic_stringIcSt11char_traitsIcESaIcEEESt4pairIKS5_P26hiRUNTIME_SRC_BLOB_ARRAY_SESt10_Select1stISA_ESt4lessIS5_ESaISA_EE8_M_eraseEPSt13_Rb_tree_nodeISA_E_x48:
    /*00000048*/ LDR         R9, [R3, #12] 
    /*0000004c*/ CMP         R9, #0 
    /*00000050*/ BEQ         _ZNSt8_Rb_treeINSt7__cxx1112basic_stringIcSt11char_traitsIcESaIcEEESt4pairIKS5_P26hiRUNTIME_SRC_BLOB_ARRAY_SESt10_Select1stISA_ESt4lessIS5_ESaISA_EE8_M_eraseEPSt13_Rb_tree_nodeISA_E_x190
    _ZNSt8_Rb_treeINSt7__cxx1112basic_stringIcSt11char_traitsIcESaIcEEESt4pairIKS5_P26hiRUNTIME_SRC_BLOB_ARRAY_SESt10_Select1stISA_ESt4lessIS5_ESaISA_EE8_M_eraseEPSt13_Rb_tree_nodeISA_E_x54:
    /*00000054*/ LDR         SL, [R9, #12] 
    /*00000058*/ CMP         SL, #0 
    /*0000005c*/ BEQ         _ZNSt8_Rb_treeINSt7__cxx1112basic_stringIcSt11char_traitsIcESaIcEEESt4pairIKS5_P26hiRUNTIME_SRC_BLOB_ARRAY_SESt10_Select1stISA_ESt4lessIS5_ESaISA_EE8_M_eraseEPSt13_Rb_tree_nodeISA_E_x168
    _ZNSt8_Rb_treeINSt7__cxx1112basic_stringIcSt11char_traitsIcESaIcEEESt4pairIKS5_P26hiRUNTIME_SRC_BLOB_ARRAY_SESt10_Select1stISA_ESt4lessIS5_ESaISA_EE8_M_eraseEPSt13_Rb_tree_nodeISA_E_x60:
    /*00000060*/ LDR         FP, [SL, #12] 
    /*00000064*/ CMP         FP, #0 
    /*00000068*/ BEQ         _ZNSt8_Rb_treeINSt7__cxx1112basic_stringIcSt11char_traitsIcESaIcEEESt4pairIKS5_P26hiRUNTIME_SRC_BLOB_ARRAY_SESt10_Select1stISA_ESt4lessIS5_ESaISA_EE8_M_eraseEPSt13_Rb_tree_nodeISA_E_x140
    _ZNSt8_Rb_treeINSt7__cxx1112basic_stringIcSt11char_traitsIcESaIcEEESt4pairIKS5_P26hiRUNTIME_SRC_BLOB_ARRAY_SESt10_Select1stISA_ESt4lessIS5_ESaISA_EE8_M_eraseEPSt13_Rb_tree_nodeISA_E_x6c:
    /*0000006c*/ LDR         R7, [FP, #12] 
    /*00000070*/ CMP         R7, #0 
    /*00000074*/ BEQ         _ZNSt8_Rb_treeINSt7__cxx1112basic_stringIcSt11char_traitsIcESaIcEEESt4pairIKS5_P26hiRUNTIME_SRC_BLOB_ARRAY_SESt10_Select1stISA_ESt4lessIS5_ESaISA_EE8_M_eraseEPSt13_Rb_tree_nodeISA_E_x118
    _ZNSt8_Rb_treeINSt7__cxx1112basic_stringIcSt11char_traitsIcESaIcEEESt4pairIKS5_P26hiRUNTIME_SRC_BLOB_ARRAY_SESt10_Select1stISA_ESt4lessIS5_ESaISA_EE8_M_eraseEPSt13_Rb_tree_nodeISA_E_x78:
    /*00000078*/ LDR         R6, [R7, #12] 
    /*0000007c*/ CMP         R6, #0 
    /*00000080*/ BEQ         _ZNSt8_Rb_treeINSt7__cxx1112basic_stringIcSt11char_traitsIcESaIcEEESt4pairIKS5_P26hiRUNTIME_SRC_BLOB_ARRAY_SESt10_Select1stISA_ESt4lessIS5_ESaISA_EE8_M_eraseEPSt13_Rb_tree_nodeISA_E_xf0
    _ZNSt8_Rb_treeINSt7__cxx1112basic_stringIcSt11char_traitsIcESaIcEEESt4pairIKS5_P26hiRUNTIME_SRC_BLOB_ARRAY_SESt10_Select1stISA_ESt4lessIS5_ESaISA_EE8_M_eraseEPSt13_Rb_tree_nodeISA_E_x84:
    /*00000084*/ LDR         R3, [R6, #12] 
    /*00000088*/ CMP         R3, #0 
    /*0000008c*/ MOVNE       R8, R3 
    /*00000090*/ BEQ         _ZNSt8_Rb_treeINSt7__cxx1112basic_stringIcSt11char_traitsIcESaIcEEESt4pairIKS5_P26hiRUNTIME_SRC_BLOB_ARRAY_SESt10_Select1stISA_ESt4lessIS5_ESaISA_EE8_M_eraseEPSt13_Rb_tree_nodeISA_E_xc8
    _ZNSt8_Rb_treeINSt7__cxx1112basic_stringIcSt11char_traitsIcESaIcEEESt4pairIKS5_P26hiRUNTIME_SRC_BLOB_ARRAY_SESt10_Select1stISA_ESt4lessIS5_ESaISA_EE8_M_eraseEPSt13_Rb_tree_nodeISA_E_x94:
    /*00000094*/ LDR         R1, [R8, #12] 
    /*00000098*/ MOV         R0, R5 
    /*0000009c*/ BL          _ZNSt8_Rb_treeINSt7__cxx1112basic_stringIcSt11char_traitsIcESaIcEEESt4pairIKS5_P26hiRUNTIME_SRC_BLOB_ARRAY_SESt10_Select1stISA_ESt4lessIS5_ESaISA_EE8_M_eraseEPSt13_Rb_tree_nodeISA_E
    /*000000a0*/ LDR         R0, [R8, #16] 
    /*000000a4*/ ADD         R2, R8, #24 
    /*000000a8*/ LDR         R4, [R8, #8] 
    /*000000ac*/ CMP         R0, R2 
    /*000000b0*/ BEQ         _ZNSt8_Rb_treeINSt7__cxx1112basic_stringIcSt11char_traitsIcESaIcEEESt4pairIKS5_P26hiRUNTIME_SRC_BLOB_ARRAY_SESt10_Select1stISA_ESt4lessIS5_ESaISA_EE8_M_eraseEPSt13_Rb_tree_nodeISA_E_xb8
    /*000000b4*/ BL          _ZdlPv
    _ZNSt8_Rb_treeINSt7__cxx1112basic_stringIcSt11char_traitsIcESaIcEEESt4pairIKS5_P26hiRUNTIME_SRC_BLOB_ARRAY_SESt10_Select1stISA_ESt4lessIS5_ESaISA_EE8_M_eraseEPSt13_Rb_tree_nodeISA_E_xb8:
    /*000000b8*/ MOV         R0, R8 
    /*000000bc*/ BL          _ZdlPv
    /*000000c0*/ SUBS        R8, R4, #0 
    /*000000c4*/ BNE         _ZNSt8_Rb_treeINSt7__cxx1112basic_stringIcSt11char_traitsIcESaIcEEESt4pairIKS5_P26hiRUNTIME_SRC_BLOB_ARRAY_SESt10_Select1stISA_ESt4lessIS5_ESaISA_EE8_M_eraseEPSt13_Rb_tree_nodeISA_E_x94
    _ZNSt8_Rb_treeINSt7__cxx1112basic_stringIcSt11char_traitsIcESaIcEEESt4pairIKS5_P26hiRUNTIME_SRC_BLOB_ARRAY_SESt10_Select1stISA_ESt4lessIS5_ESaISA_EE8_M_eraseEPSt13_Rb_tree_nodeISA_E_xc8:
    /*000000c8*/ LDR         R0, [R6, #16] 
    /*000000cc*/ ADD         R3, R6, #24 
    /*000000d0*/ LDR         R4, [R6, #8] 
    /*000000d4*/ CMP         R0, R3 
    /*000000d8*/ BEQ         _ZNSt8_Rb_treeINSt7__cxx1112basic_stringIcSt11char_traitsIcESaIcEEESt4pairIKS5_P26hiRUNTIME_SRC_BLOB_ARRAY_SESt10_Select1stISA_ESt4lessIS5_ESaISA_EE8_M_eraseEPSt13_Rb_tree_nodeISA_E_xe0
    /*000000dc*/ BL          _ZdlPv
    _ZNSt8_Rb_treeINSt7__cxx1112basic_stringIcSt11char_traitsIcESaIcEEESt4pairIKS5_P26hiRUNTIME_SRC_BLOB_ARRAY_SESt10_Select1stISA_ESt4lessIS5_ESaISA_EE8_M_eraseEPSt13_Rb_tree_nodeISA_E_xe0:
    /*000000e0*/ MOV         R0, R6 
    /*000000e4*/ BL          _ZdlPv
    /*000000e8*/ SUBS        R6, R4, #0 
    /*000000ec*/ BNE         _ZNSt8_Rb_treeINSt7__cxx1112basic_stringIcSt11char_traitsIcESaIcEEESt4pairIKS5_P26hiRUNTIME_SRC_BLOB_ARRAY_SESt10_Select1stISA_ESt4lessIS5_ESaISA_EE8_M_eraseEPSt13_Rb_tree_nodeISA_E_x84
    _ZNSt8_Rb_treeINSt7__cxx1112basic_stringIcSt11char_traitsIcESaIcEEESt4pairIKS5_P26hiRUNTIME_SRC_BLOB_ARRAY_SESt10_Select1stISA_ESt4lessIS5_ESaISA_EE8_M_eraseEPSt13_Rb_tree_nodeISA_E_xf0:
    /*000000f0*/ LDR         R0, [R7, #16] 
    /*000000f4*/ ADD         R3, R7, #24 
    /*000000f8*/ LDR         R4, [R7, #8] 
    /*000000fc*/ CMP         R0, R3 
    /*00000100*/ BEQ         _ZNSt8_Rb_treeINSt7__cxx1112basic_stringIcSt11char_traitsIcESaIcEEESt4pairIKS5_P26hiRUNTIME_SRC_BLOB_ARRAY_SESt10_Select1stISA_ESt4lessIS5_ESaISA_EE8_M_eraseEPSt13_Rb_tree_nodeISA_E_x108
    /*00000104*/ BL          _ZdlPv
    _ZNSt8_Rb_treeINSt7__cxx1112basic_stringIcSt11char_traitsIcESaIcEEESt4pairIKS5_P26hiRUNTIME_SRC_BLOB_ARRAY_SESt10_Select1stISA_ESt4lessIS5_ESaISA_EE8_M_eraseEPSt13_Rb_tree_nodeISA_E_x108:
    /*00000108*/ MOV         R0, R7 
    /*0000010c*/ BL          _ZdlPv
    /*00000110*/ SUBS        R7, R4, #0 
    /*00000114*/ BNE         _ZNSt8_Rb_treeINSt7__cxx1112basic_stringIcSt11char_traitsIcESaIcEEESt4pairIKS5_P26hiRUNTIME_SRC_BLOB_ARRAY_SESt10_Select1stISA_ESt4lessIS5_ESaISA_EE8_M_eraseEPSt13_Rb_tree_nodeISA_E_x78
    _ZNSt8_Rb_treeINSt7__cxx1112basic_stringIcSt11char_traitsIcESaIcEEESt4pairIKS5_P26hiRUNTIME_SRC_BLOB_ARRAY_SESt10_Select1stISA_ESt4lessIS5_ESaISA_EE8_M_eraseEPSt13_Rb_tree_nodeISA_E_x118:
    /*00000118*/ LDR         R0, [FP, #16] 
    /*0000011c*/ ADD         R3, FP, #24 
    /*00000120*/ LDR         R4, [FP, #8] 
    /*00000124*/ CMP         R0, R3 
    /*00000128*/ BEQ         _ZNSt8_Rb_treeINSt7__cxx1112basic_stringIcSt11char_traitsIcESaIcEEESt4pairIKS5_P26hiRUNTIME_SRC_BLOB_ARRAY_SESt10_Select1stISA_ESt4lessIS5_ESaISA_EE8_M_eraseEPSt13_Rb_tree_nodeISA_E_x130
    /*0000012c*/ BL          _ZdlPv
    _ZNSt8_Rb_treeINSt7__cxx1112basic_stringIcSt11char_traitsIcESaIcEEESt4pairIKS5_P26hiRUNTIME_SRC_BLOB_ARRAY_SESt10_Select1stISA_ESt4lessIS5_ESaISA_EE8_M_eraseEPSt13_Rb_tree_nodeISA_E_x130:
    /*00000130*/ MOV         R0, FP 
    /*00000134*/ BL          _ZdlPv
    /*00000138*/ SUBS        FP, R4, #0 
    /*0000013c*/ BNE         _ZNSt8_Rb_treeINSt7__cxx1112basic_stringIcSt11char_traitsIcESaIcEEESt4pairIKS5_P26hiRUNTIME_SRC_BLOB_ARRAY_SESt10_Select1stISA_ESt4lessIS5_ESaISA_EE8_M_eraseEPSt13_Rb_tree_nodeISA_E_x6c
    _ZNSt8_Rb_treeINSt7__cxx1112basic_stringIcSt11char_traitsIcESaIcEEESt4pairIKS5_P26hiRUNTIME_SRC_BLOB_ARRAY_SESt10_Select1stISA_ESt4lessIS5_ESaISA_EE8_M_eraseEPSt13_Rb_tree_nodeISA_E_x140:
    /*00000140*/ LDR         R0, [SL, #16] 
    /*00000144*/ ADD         R3, SL, #24 
    /*00000148*/ LDR         R4, [SL, #8] 
    /*0000014c*/ CMP         R0, R3 
    /*00000150*/ BEQ         _ZNSt8_Rb_treeINSt7__cxx1112basic_stringIcSt11char_traitsIcESaIcEEESt4pairIKS5_P26hiRUNTIME_SRC_BLOB_ARRAY_SESt10_Select1stISA_ESt4lessIS5_ESaISA_EE8_M_eraseEPSt13_Rb_tree_nodeISA_E_x158
    /*00000154*/ BL          _ZdlPv
    _ZNSt8_Rb_treeINSt7__cxx1112basic_stringIcSt11char_traitsIcESaIcEEESt4pairIKS5_P26hiRUNTIME_SRC_BLOB_ARRAY_SESt10_Select1stISA_ESt4lessIS5_ESaISA_EE8_M_eraseEPSt13_Rb_tree_nodeISA_E_x158:
    /*00000158*/ MOV         R0, SL 
    /*0000015c*/ BL          _ZdlPv
    /*00000160*/ SUBS        SL, R4, #0 
    /*00000164*/ BNE         _ZNSt8_Rb_treeINSt7__cxx1112basic_stringIcSt11char_traitsIcESaIcEEESt4pairIKS5_P26hiRUNTIME_SRC_BLOB_ARRAY_SESt10_Select1stISA_ESt4lessIS5_ESaISA_EE8_M_eraseEPSt13_Rb_tree_nodeISA_E_x60
    _ZNSt8_Rb_treeINSt7__cxx1112basic_stringIcSt11char_traitsIcESaIcEEESt4pairIKS5_P26hiRUNTIME_SRC_BLOB_ARRAY_SESt10_Select1stISA_ESt4lessIS5_ESaISA_EE8_M_eraseEPSt13_Rb_tree_nodeISA_E_x168:
    /*00000168*/ LDR         R0, [R9, #16] 
    /*0000016c*/ ADD         R3, R9, #24 
    /*00000170*/ LDR         R4, [R9, #8] 
    /*00000174*/ CMP         R0, R3 
    /*00000178*/ BEQ         _ZNSt8_Rb_treeINSt7__cxx1112basic_stringIcSt11char_traitsIcESaIcEEESt4pairIKS5_P26hiRUNTIME_SRC_BLOB_ARRAY_SESt10_Select1stISA_ESt4lessIS5_ESaISA_EE8_M_eraseEPSt13_Rb_tree_nodeISA_E_x180
    /*0000017c*/ BL          _ZdlPv
    _ZNSt8_Rb_treeINSt7__cxx1112basic_stringIcSt11char_traitsIcESaIcEEESt4pairIKS5_P26hiRUNTIME_SRC_BLOB_ARRAY_SESt10_Select1stISA_ESt4lessIS5_ESaISA_EE8_M_eraseEPSt13_Rb_tree_nodeISA_E_x180:
    /*00000180*/ MOV         R0, R9 
    /*00000184*/ BL          _ZdlPv
    /*00000188*/ SUBS        R9, R4, #0 
    /*0000018c*/ BNE         _ZNSt8_Rb_treeINSt7__cxx1112basic_stringIcSt11char_traitsIcESaIcEEESt4pairIKS5_P26hiRUNTIME_SRC_BLOB_ARRAY_SESt10_Select1stISA_ESt4lessIS5_ESaISA_EE8_M_eraseEPSt13_Rb_tree_nodeISA_E_x54
    _ZNSt8_Rb_treeINSt7__cxx1112basic_stringIcSt11char_traitsIcESaIcEEESt4pairIKS5_P26hiRUNTIME_SRC_BLOB_ARRAY_SESt10_Select1stISA_ESt4lessIS5_ESaISA_EE8_M_eraseEPSt13_Rb_tree_nodeISA_E_x190:
    /*00000190*/ LDR         R2, [SP, #4] 
    /*00000194*/ LDR         R0, [R2, #16] 
    /*00000198*/ ADD         R3, R2, #24 
    /*0000019c*/ LDR         R4, [R2, #8] 
    /*000001a0*/ CMP         R0, R3 
    /*000001a4*/ MOVEQ       R0, R2 
    /*000001a8*/ BEQ         _ZNSt8_Rb_treeINSt7__cxx1112basic_stringIcSt11char_traitsIcESaIcEEESt4pairIKS5_P26hiRUNTIME_SRC_BLOB_ARRAY_SESt10_Select1stISA_ESt4lessIS5_ESaISA_EE8_M_eraseEPSt13_Rb_tree_nodeISA_E_x1b4
    /*000001ac*/ BL          _ZdlPv
    /*000001b0*/ LDR         R0, [SP, #4] 
    _ZNSt8_Rb_treeINSt7__cxx1112basic_stringIcSt11char_traitsIcESaIcEEESt4pairIKS5_P26hiRUNTIME_SRC_BLOB_ARRAY_SESt10_Select1stISA_ESt4lessIS5_ESaISA_EE8_M_eraseEPSt13_Rb_tree_nodeISA_E_x1b4:
    /*000001b4*/ BL          _ZdlPv
    /*000001b8*/ SUBS        R3, R4, #0 
    /*000001bc*/ STR         R3, [SP, #4] 
    /*000001c0*/ BNE         _ZNSt8_Rb_treeINSt7__cxx1112basic_stringIcSt11char_traitsIcESaIcEEESt4pairIKS5_P26hiRUNTIME_SRC_BLOB_ARRAY_SESt10_Select1stISA_ESt4lessIS5_ESaISA_EE8_M_eraseEPSt13_Rb_tree_nodeISA_E_x48
    _ZNSt8_Rb_treeINSt7__cxx1112basic_stringIcSt11char_traitsIcESaIcEEESt4pairIKS5_P26hiRUNTIME_SRC_BLOB_ARRAY_SESt10_Select1stISA_ESt4lessIS5_ESaISA_EE8_M_eraseEPSt13_Rb_tree_nodeISA_E_x1c4:
    /*000001c4*/ LDR         R2, [SP, #8] 
    /*000001c8*/ LDR         R0, [R2, #16] 
    /*000001cc*/ ADD         R3, R2, #24 
    /*000001d0*/ LDR         R4, [R2, #8] 
    /*000001d4*/ CMP         R0, R3 
    /*000001d8*/ MOVEQ       R0, R2 
    /*000001dc*/ BEQ         _ZNSt8_Rb_treeINSt7__cxx1112basic_stringIcSt11char_traitsIcESaIcEEESt4pairIKS5_P26hiRUNTIME_SRC_BLOB_ARRAY_SESt10_Select1stISA_ESt4lessIS5_ESaISA_EE8_M_eraseEPSt13_Rb_tree_nodeISA_E_x1e8
    /*000001e0*/ BL          _ZdlPv
    /*000001e4*/ LDR         R0, [SP, #8] 
    _ZNSt8_Rb_treeINSt7__cxx1112basic_stringIcSt11char_traitsIcESaIcEEESt4pairIKS5_P26hiRUNTIME_SRC_BLOB_ARRAY_SESt10_Select1stISA_ESt4lessIS5_ESaISA_EE8_M_eraseEPSt13_Rb_tree_nodeISA_E_x1e8:
    /*000001e8*/ BL          _ZdlPv
    /*000001ec*/ SUBS        R3, R4, #0 
    /*000001f0*/ STR         R3, [SP, #8] 
    /*000001f4*/ BNE         _ZNSt8_Rb_treeINSt7__cxx1112basic_stringIcSt11char_traitsIcESaIcEEESt4pairIKS5_P26hiRUNTIME_SRC_BLOB_ARRAY_SESt10_Select1stISA_ESt4lessIS5_ESaISA_EE8_M_eraseEPSt13_Rb_tree_nodeISA_E_x34
    _ZNSt8_Rb_treeINSt7__cxx1112basic_stringIcSt11char_traitsIcESaIcEEESt4pairIKS5_P26hiRUNTIME_SRC_BLOB_ARRAY_SESt10_Select1stISA_ESt4lessIS5_ESaISA_EE8_M_eraseEPSt13_Rb_tree_nodeISA_E_x1f8:
    /*000001f8*/ LDR         R2, [SP, #12] 
    /*000001fc*/ LDR         R0, [R2, #16] 
    /*00000200*/ ADD         R3, R2, #24 
    /*00000204*/ LDR         R4, [R2, #8] 
    /*00000208*/ CMP         R0, R3 
    /*0000020c*/ MOVEQ       R0, R2 
    /*00000210*/ BEQ         _ZNSt8_Rb_treeINSt7__cxx1112basic_stringIcSt11char_traitsIcESaIcEEESt4pairIKS5_P26hiRUNTIME_SRC_BLOB_ARRAY_SESt10_Select1stISA_ESt4lessIS5_ESaISA_EE8_M_eraseEPSt13_Rb_tree_nodeISA_E_x21c
    /*00000214*/ BL          _ZdlPv
    /*00000218*/ LDR         R0, [SP, #12] 
    _ZNSt8_Rb_treeINSt7__cxx1112basic_stringIcSt11char_traitsIcESaIcEEESt4pairIKS5_P26hiRUNTIME_SRC_BLOB_ARRAY_SESt10_Select1stISA_ESt4lessIS5_ESaISA_EE8_M_eraseEPSt13_Rb_tree_nodeISA_E_x21c:
    /*0000021c*/ BL          _ZdlPv
    /*00000220*/ SUBS        R3, R4, #0 
    /*00000224*/ STR         R3, [SP, #12] 
    /*00000228*/ BNE         _ZNSt8_Rb_treeINSt7__cxx1112basic_stringIcSt11char_traitsIcESaIcEEESt4pairIKS5_P26hiRUNTIME_SRC_BLOB_ARRAY_SESt10_Select1stISA_ESt4lessIS5_ESaISA_EE8_M_eraseEPSt13_Rb_tree_nodeISA_E_x24
    _ZNSt8_Rb_treeINSt7__cxx1112basic_stringIcSt11char_traitsIcESaIcEEESt4pairIKS5_P26hiRUNTIME_SRC_BLOB_ARRAY_SESt10_Select1stISA_ESt4lessIS5_ESaISA_EE8_M_eraseEPSt13_Rb_tree_nodeISA_E_x22c:
    /*0000022c*/ ADD         SP, SP, #20 
    /*00000230*/ POP         {R4, R5, R6, R7, R8, R9, SL, FP, PC} 
FUNC_END _ZNSt8_Rb_treeINSt7__cxx1112basic_stringIcSt11char_traitsIcESaIcEEESt4pairIKS5_P26hiRUNTIME_SRC_BLOB_ARRAY_SESt10_Select1stISA_ESt4lessIS5_ESaISA_EE8_M_eraseEPSt13_Rb_tree_nodeISA_E


@ - - - - - - - - - - - - - - - - - - - - - - - - - - - - - 
@ .text._ZNSt8_Rb_treeINSt7__cxx1112basic_stringIcSt11char_traitsIcESaIcEEESt4pairIKS5_NS0_4listIP16hiRUNTIME_BLOB_SSaISA_EEEESt10_Select1stISD_ESt4lessIS5_ESaISD_EE8_M_eraseEPSt13_Rb_tree_nodeISD_E
@ Size: 0x394
@ - - - - - - - - - - - - - - - - - - - - - - - - - - - - - 

FUNC_BEGIN _ZNSt8_Rb_treeINSt7__cxx1112basic_stringIcSt11char_traitsIcESaIcEEESt4pairIKS5_NS0_4listIP16hiRUNTIME_BLOB_SSaISA_EEEESt10_Select1stISD_ESt4lessIS5_ESaISD_EE8_M_eraseEPSt13_Rb_tree_nodeISD_E
    /*00000000*/ MOV         IP, #16384                  @ 0x4000 
    /*00000004*/ PUSH        {R4, R5, R6, R7, R8, R9, SL, FP, LR} 
    /*00000008*/ SUB         IP, SP, IP 
    /*0000000c*/ STR         R0, [IP, #4032]             @ 0xfc0 
    /*00000010*/ SUB         SP, SP, #28 
    /*00000014*/ SUBS        R3, R1, #0 
    /*00000018*/ STR         R3, [SP, #20] 
    /*0000001c*/ BEQ         _ZNSt8_Rb_treeINSt7__cxx1112basic_stringIcSt11char_traitsIcESaIcEEESt4pairIKS5_NS0_4listIP16hiRUNTIME_BLOB_SSaISA_EEEESt10_Select1stISD_ESt4lessIS5_ESaISD_EE8_M_eraseEPSt13_Rb_tree_nodeISD_E_x38c
    /*00000020*/ MOV         R7, R0 
    _ZNSt8_Rb_treeINSt7__cxx1112basic_stringIcSt11char_traitsIcESaIcEEESt4pairIKS5_NS0_4listIP16hiRUNTIME_BLOB_SSaISA_EEEESt10_Select1stISD_ESt4lessIS5_ESaISD_EE8_M_eraseEPSt13_Rb_tree_nodeISD_E_x24:
    /*00000024*/ LDR         R3, [R3, #12] 
    /*00000028*/ CMP         R3, #0 
    /*0000002c*/ STRNE       R3, [SP, #16] 
    /*00000030*/ BEQ         _ZNSt8_Rb_treeINSt7__cxx1112basic_stringIcSt11char_traitsIcESaIcEEESt4pairIKS5_NS0_4listIP16hiRUNTIME_BLOB_SSaISA_EEEESt10_Select1stISD_ESt4lessIS5_ESaISD_EE8_M_eraseEPSt13_Rb_tree_nodeISD_E_x334
    _ZNSt8_Rb_treeINSt7__cxx1112basic_stringIcSt11char_traitsIcESaIcEEESt4pairIKS5_NS0_4listIP16hiRUNTIME_BLOB_SSaISA_EEEESt10_Select1stISD_ESt4lessIS5_ESaISD_EE8_M_eraseEPSt13_Rb_tree_nodeISD_E_x34:
    /*00000034*/ LDR         R3, [R3, #12] 
    /*00000038*/ CMP         R3, #0 
    /*0000003c*/ STRNE       R3, [SP, #12] 
    /*00000040*/ BEQ         _ZNSt8_Rb_treeINSt7__cxx1112basic_stringIcSt11char_traitsIcESaIcEEESt4pairIKS5_NS0_4listIP16hiRUNTIME_BLOB_SSaISA_EEEESt10_Select1stISD_ESt4lessIS5_ESaISD_EE8_M_eraseEPSt13_Rb_tree_nodeISD_E_x2dc
    _ZNSt8_Rb_treeINSt7__cxx1112basic_stringIcSt11char_traitsIcESaIcEEESt4pairIKS5_NS0_4listIP16hiRUNTIME_BLOB_SSaISA_EEEESt10_Select1stISD_ESt4lessIS5_ESaISD_EE8_M_eraseEPSt13_Rb_tree_nodeISD_E_x44:
    /*00000044*/ LDR         R3, [R3, #12] 
    /*00000048*/ CMP         R3, #0 
    /*0000004c*/ STRNE       R3, [SP, #8] 
    /*00000050*/ BEQ         _ZNSt8_Rb_treeINSt7__cxx1112basic_stringIcSt11char_traitsIcESaIcEEESt4pairIKS5_NS0_4listIP16hiRUNTIME_BLOB_SSaISA_EEEESt10_Select1stISD_ESt4lessIS5_ESaISD_EE8_M_eraseEPSt13_Rb_tree_nodeISD_E_x284
    _ZNSt8_Rb_treeINSt7__cxx1112basic_stringIcSt11char_traitsIcESaIcEEESt4pairIKS5_NS0_4listIP16hiRUNTIME_BLOB_SSaISA_EEEESt10_Select1stISD_ESt4lessIS5_ESaISD_EE8_M_eraseEPSt13_Rb_tree_nodeISD_E_x54:
    /*00000054*/ LDR         R9, [R3, #12] 
    /*00000058*/ CMP         R9, #0 
    /*0000005c*/ STRNE       R9, [SP, #4] 
    /*00000060*/ MOVNE       R3, R9 
    /*00000064*/ BEQ         _ZNSt8_Rb_treeINSt7__cxx1112basic_stringIcSt11char_traitsIcESaIcEEESt4pairIKS5_NS0_4listIP16hiRUNTIME_BLOB_SSaISA_EEEESt10_Select1stISD_ESt4lessIS5_ESaISD_EE8_M_eraseEPSt13_Rb_tree_nodeISD_E_x230
    _ZNSt8_Rb_treeINSt7__cxx1112basic_stringIcSt11char_traitsIcESaIcEEESt4pairIKS5_NS0_4listIP16hiRUNTIME_BLOB_SSaISA_EEEESt10_Select1stISD_ESt4lessIS5_ESaISD_EE8_M_eraseEPSt13_Rb_tree_nodeISD_E_x68:
    /*00000068*/ LDR         R9, [R3, #12] 
    /*0000006c*/ CMP         R9, #0 
    /*00000070*/ BEQ         _ZNSt8_Rb_treeINSt7__cxx1112basic_stringIcSt11char_traitsIcESaIcEEESt4pairIKS5_NS0_4listIP16hiRUNTIME_BLOB_SSaISA_EEEESt10_Select1stISD_ESt4lessIS5_ESaISD_EE8_M_eraseEPSt13_Rb_tree_nodeISD_E_x1d8
    _ZNSt8_Rb_treeINSt7__cxx1112basic_stringIcSt11char_traitsIcESaIcEEESt4pairIKS5_NS0_4listIP16hiRUNTIME_BLOB_SSaISA_EEEESt10_Select1stISD_ESt4lessIS5_ESaISD_EE8_M_eraseEPSt13_Rb_tree_nodeISD_E_x74:
    /*00000074*/ LDR         SL, [R9, #12] 
    /*00000078*/ CMP         SL, #0 
    /*0000007c*/ BEQ         _ZNSt8_Rb_treeINSt7__cxx1112basic_stringIcSt11char_traitsIcESaIcEEESt4pairIKS5_NS0_4listIP16hiRUNTIME_BLOB_SSaISA_EEEESt10_Select1stISD_ESt4lessIS5_ESaISD_EE8_M_eraseEPSt13_Rb_tree_nodeISD_E_x188
    _ZNSt8_Rb_treeINSt7__cxx1112basic_stringIcSt11char_traitsIcESaIcEEESt4pairIKS5_NS0_4listIP16hiRUNTIME_BLOB_SSaISA_EEEESt10_Select1stISD_ESt4lessIS5_ESaISD_EE8_M_eraseEPSt13_Rb_tree_nodeISD_E_x80:
    /*00000080*/ LDR         R8, [SL, #12] 
    /*00000084*/ CMP         R8, #0 
    /*00000088*/ BEQ         _ZNSt8_Rb_treeINSt7__cxx1112basic_stringIcSt11char_traitsIcESaIcEEESt4pairIKS5_NS0_4listIP16hiRUNTIME_BLOB_SSaISA_EEEESt10_Select1stISD_ESt4lessIS5_ESaISD_EE8_M_eraseEPSt13_Rb_tree_nodeISD_E_x13c
    _ZNSt8_Rb_treeINSt7__cxx1112basic_stringIcSt11char_traitsIcESaIcEEESt4pairIKS5_NS0_4listIP16hiRUNTIME_BLOB_SSaISA_EEEESt10_Select1stISD_ESt4lessIS5_ESaISD_EE8_M_eraseEPSt13_Rb_tree_nodeISD_E_x8c:
    /*0000008c*/ LDR         R5, [R8, #12] 
    /*00000090*/ CMP         R5, #0 
    /*00000094*/ BEQ         _ZNSt8_Rb_treeINSt7__cxx1112basic_stringIcSt11char_traitsIcESaIcEEESt4pairIKS5_NS0_4listIP16hiRUNTIME_BLOB_SSaISA_EEEESt10_Select1stISD_ESt4lessIS5_ESaISD_EE8_M_eraseEPSt13_Rb_tree_nodeISD_E_xf0
    _ZNSt8_Rb_treeINSt7__cxx1112basic_stringIcSt11char_traitsIcESaIcEEESt4pairIKS5_NS0_4listIP16hiRUNTIME_BLOB_SSaISA_EEEESt10_Select1stISD_ESt4lessIS5_ESaISD_EE8_M_eraseEPSt13_Rb_tree_nodeISD_E_x98:
    /*00000098*/ LDR         R1, [R5, #12] 
    /*0000009c*/ MOV         R4, R5 
    /*000000a0*/ MOV         R0, R7 
    /*000000a4*/ BL          _ZNSt8_Rb_treeINSt7__cxx1112basic_stringIcSt11char_traitsIcESaIcEEESt4pairIKS5_NS0_4listIP16hiRUNTIME_BLOB_SSaISA_EEEESt10_Select1stISD_ESt4lessIS5_ESaISD_EE8_M_eraseEPSt13_Rb_tree_nodeISD_E
    /*000000a8*/ LDR         R0, [R4, #40]!              @ 0x28 
    /*000000ac*/ LDR         R6, [R5, #8] 
    /*000000b0*/ CMP         R4, R0 
    /*000000b4*/ BEQ         _ZNSt8_Rb_treeINSt7__cxx1112basic_stringIcSt11char_traitsIcESaIcEEESt4pairIKS5_NS0_4listIP16hiRUNTIME_BLOB_SSaISA_EEEESt10_Select1stISD_ESt4lessIS5_ESaISD_EE8_M_eraseEPSt13_Rb_tree_nodeISD_E_xcc
    _ZNSt8_Rb_treeINSt7__cxx1112basic_stringIcSt11char_traitsIcESaIcEEESt4pairIKS5_NS0_4listIP16hiRUNTIME_BLOB_SSaISA_EEEESt10_Select1stISD_ESt4lessIS5_ESaISD_EE8_M_eraseEPSt13_Rb_tree_nodeISD_E_xb8:
    /*000000b8*/ LDR         FP, [R0] 
    /*000000bc*/ BL          _ZdlPv
    /*000000c0*/ CMP         R4, FP 
    /*000000c4*/ MOV         R0, FP 
    /*000000c8*/ BNE         _ZNSt8_Rb_treeINSt7__cxx1112basic_stringIcSt11char_traitsIcESaIcEEESt4pairIKS5_NS0_4listIP16hiRUNTIME_BLOB_SSaISA_EEEESt10_Select1stISD_ESt4lessIS5_ESaISD_EE8_M_eraseEPSt13_Rb_tree_nodeISD_E_xb8
    _ZNSt8_Rb_treeINSt7__cxx1112basic_stringIcSt11char_traitsIcESaIcEEESt4pairIKS5_NS0_4listIP16hiRUNTIME_BLOB_SSaISA_EEEESt10_Select1stISD_ESt4lessIS5_ESaISD_EE8_M_eraseEPSt13_Rb_tree_nodeISD_E_xcc:
    /*000000cc*/ LDR         R0, [R5, #16] 
    /*000000d0*/ ADD         R3, R5, #24 
    /*000000d4*/ CMP         R0, R3 
    /*000000d8*/ BEQ         _ZNSt8_Rb_treeINSt7__cxx1112basic_stringIcSt11char_traitsIcESaIcEEESt4pairIKS5_NS0_4listIP16hiRUNTIME_BLOB_SSaISA_EEEESt10_Select1stISD_ESt4lessIS5_ESaISD_EE8_M_eraseEPSt13_Rb_tree_nodeISD_E_xe0
    /*000000dc*/ BL          _ZdlPv
    _ZNSt8_Rb_treeINSt7__cxx1112basic_stringIcSt11char_traitsIcESaIcEEESt4pairIKS5_NS0_4listIP16hiRUNTIME_BLOB_SSaISA_EEEESt10_Select1stISD_ESt4lessIS5_ESaISD_EE8_M_eraseEPSt13_Rb_tree_nodeISD_E_xe0:
    /*000000e0*/ MOV         R0, R5 
    /*000000e4*/ BL          _ZdlPv
    /*000000e8*/ SUBS        R5, R6, #0 
    /*000000ec*/ BNE         _ZNSt8_Rb_treeINSt7__cxx1112basic_stringIcSt11char_traitsIcESaIcEEESt4pairIKS5_NS0_4listIP16hiRUNTIME_BLOB_SSaISA_EEEESt10_Select1stISD_ESt4lessIS5_ESaISD_EE8_M_eraseEPSt13_Rb_tree_nodeISD_E_x98
    _ZNSt8_Rb_treeINSt7__cxx1112basic_stringIcSt11char_traitsIcESaIcEEESt4pairIKS5_NS0_4listIP16hiRUNTIME_BLOB_SSaISA_EEEESt10_Select1stISD_ESt4lessIS5_ESaISD_EE8_M_eraseEPSt13_Rb_tree_nodeISD_E_xf0:
    /*000000f0*/ LDR         R6, [R8, #8] 
    /*000000f4*/ MOV         R5, R8 
    /*000000f8*/ LDR         R0, [R5, #40]!              @ 0x28 
    /*000000fc*/ CMP         R0, R5 
    /*00000100*/ BEQ         _ZNSt8_Rb_treeINSt7__cxx1112basic_stringIcSt11char_traitsIcESaIcEEESt4pairIKS5_NS0_4listIP16hiRUNTIME_BLOB_SSaISA_EEEESt10_Select1stISD_ESt4lessIS5_ESaISD_EE8_M_eraseEPSt13_Rb_tree_nodeISD_E_x118
    _ZNSt8_Rb_treeINSt7__cxx1112basic_stringIcSt11char_traitsIcESaIcEEESt4pairIKS5_NS0_4listIP16hiRUNTIME_BLOB_SSaISA_EEEESt10_Select1stISD_ESt4lessIS5_ESaISD_EE8_M_eraseEPSt13_Rb_tree_nodeISD_E_x104:
    /*00000104*/ LDR         R4, [R0] 
    /*00000108*/ BL          _ZdlPv
    /*0000010c*/ CMP         R4, R5 
    /*00000110*/ MOV         R0, R4 
    /*00000114*/ BNE         _ZNSt8_Rb_treeINSt7__cxx1112basic_stringIcSt11char_traitsIcESaIcEEESt4pairIKS5_NS0_4listIP16hiRUNTIME_BLOB_SSaISA_EEEESt10_Select1stISD_ESt4lessIS5_ESaISD_EE8_M_eraseEPSt13_Rb_tree_nodeISD_E_x104
    _ZNSt8_Rb_treeINSt7__cxx1112basic_stringIcSt11char_traitsIcESaIcEEESt4pairIKS5_NS0_4listIP16hiRUNTIME_BLOB_SSaISA_EEEESt10_Select1stISD_ESt4lessIS5_ESaISD_EE8_M_eraseEPSt13_Rb_tree_nodeISD_E_x118:
    /*00000118*/ LDR         R0, [R8, #16] 
    /*0000011c*/ ADD         R3, R8, #24 
    /*00000120*/ CMP         R0, R3 
    /*00000124*/ BEQ         _ZNSt8_Rb_treeINSt7__cxx1112basic_stringIcSt11char_traitsIcESaIcEEESt4pairIKS5_NS0_4listIP16hiRUNTIME_BLOB_SSaISA_EEEESt10_Select1stISD_ESt4lessIS5_ESaISD_EE8_M_eraseEPSt13_Rb_tree_nodeISD_E_x12c
    /*00000128*/ BL          _ZdlPv
    _ZNSt8_Rb_treeINSt7__cxx1112basic_stringIcSt11char_traitsIcESaIcEEESt4pairIKS5_NS0_4listIP16hiRUNTIME_BLOB_SSaISA_EEEESt10_Select1stISD_ESt4lessIS5_ESaISD_EE8_M_eraseEPSt13_Rb_tree_nodeISD_E_x12c:
    /*0000012c*/ MOV         R0, R8 
    /*00000130*/ BL          _ZdlPv
    /*00000134*/ SUBS        R8, R6, #0 
    /*00000138*/ BNE         _ZNSt8_Rb_treeINSt7__cxx1112basic_stringIcSt11char_traitsIcESaIcEEESt4pairIKS5_NS0_4listIP16hiRUNTIME_BLOB_SSaISA_EEEESt10_Select1stISD_ESt4lessIS5_ESaISD_EE8_M_eraseEPSt13_Rb_tree_nodeISD_E_x8c
    _ZNSt8_Rb_treeINSt7__cxx1112basic_stringIcSt11char_traitsIcESaIcEEESt4pairIKS5_NS0_4listIP16hiRUNTIME_BLOB_SSaISA_EEEESt10_Select1stISD_ESt4lessIS5_ESaISD_EE8_M_eraseEPSt13_Rb_tree_nodeISD_E_x13c:
    /*0000013c*/ LDR         R6, [SL, #8] 
    /*00000140*/ MOV         R5, SL 
    /*00000144*/ LDR         R0, [R5, #40]!              @ 0x28 
    /*00000148*/ CMP         R0, R5 
    /*0000014c*/ BEQ         _ZNSt8_Rb_treeINSt7__cxx1112basic_stringIcSt11char_traitsIcESaIcEEESt4pairIKS5_NS0_4listIP16hiRUNTIME_BLOB_SSaISA_EEEESt10_Select1stISD_ESt4lessIS5_ESaISD_EE8_M_eraseEPSt13_Rb_tree_nodeISD_E_x164
    _ZNSt8_Rb_treeINSt7__cxx1112basic_stringIcSt11char_traitsIcESaIcEEESt4pairIKS5_NS0_4listIP16hiRUNTIME_BLOB_SSaISA_EEEESt10_Select1stISD_ESt4lessIS5_ESaISD_EE8_M_eraseEPSt13_Rb_tree_nodeISD_E_x150:
    /*00000150*/ LDR         R4, [R0] 
    /*00000154*/ BL          _ZdlPv
    /*00000158*/ CMP         R4, R5 
    /*0000015c*/ MOV         R0, R4 
    /*00000160*/ BNE         _ZNSt8_Rb_treeINSt7__cxx1112basic_stringIcSt11char_traitsIcESaIcEEESt4pairIKS5_NS0_4listIP16hiRUNTIME_BLOB_SSaISA_EEEESt10_Select1stISD_ESt4lessIS5_ESaISD_EE8_M_eraseEPSt13_Rb_tree_nodeISD_E_x150
    _ZNSt8_Rb_treeINSt7__cxx1112basic_stringIcSt11char_traitsIcESaIcEEESt4pairIKS5_NS0_4listIP16hiRUNTIME_BLOB_SSaISA_EEEESt10_Select1stISD_ESt4lessIS5_ESaISD_EE8_M_eraseEPSt13_Rb_tree_nodeISD_E_x164:
    /*00000164*/ LDR         R0, [SL, #16] 
    /*00000168*/ ADD         R3, SL, #24 
    /*0000016c*/ CMP         R0, R3 
    /*00000170*/ BEQ         _ZNSt8_Rb_treeINSt7__cxx1112basic_stringIcSt11char_traitsIcESaIcEEESt4pairIKS5_NS0_4listIP16hiRUNTIME_BLOB_SSaISA_EEEESt10_Select1stISD_ESt4lessIS5_ESaISD_EE8_M_eraseEPSt13_Rb_tree_nodeISD_E_x178
    /*00000174*/ BL          _ZdlPv
    _ZNSt8_Rb_treeINSt7__cxx1112basic_stringIcSt11char_traitsIcESaIcEEESt4pairIKS5_NS0_4listIP16hiRUNTIME_BLOB_SSaISA_EEEESt10_Select1stISD_ESt4lessIS5_ESaISD_EE8_M_eraseEPSt13_Rb_tree_nodeISD_E_x178:
    /*00000178*/ MOV         R0, SL 
    /*0000017c*/ BL          _ZdlPv
    /*00000180*/ SUBS        SL, R6, #0 
    /*00000184*/ BNE         _ZNSt8_Rb_treeINSt7__cxx1112basic_stringIcSt11char_traitsIcESaIcEEESt4pairIKS5_NS0_4listIP16hiRUNTIME_BLOB_SSaISA_EEEESt10_Select1stISD_ESt4lessIS5_ESaISD_EE8_M_eraseEPSt13_Rb_tree_nodeISD_E_x80
    _ZNSt8_Rb_treeINSt7__cxx1112basic_stringIcSt11char_traitsIcESaIcEEESt4pairIKS5_NS0_4listIP16hiRUNTIME_BLOB_SSaISA_EEEESt10_Select1stISD_ESt4lessIS5_ESaISD_EE8_M_eraseEPSt13_Rb_tree_nodeISD_E_x188:
    /*00000188*/ LDR         R5, [R9, #8] 
    /*0000018c*/ MOV         R4, R9 
    /*00000190*/ LDR         R0, [R4, #40]!              @ 0x28 
    /*00000194*/ CMP         R0, R4 
    /*00000198*/ BEQ         _ZNSt8_Rb_treeINSt7__cxx1112basic_stringIcSt11char_traitsIcESaIcEEESt4pairIKS5_NS0_4listIP16hiRUNTIME_BLOB_SSaISA_EEEESt10_Select1stISD_ESt4lessIS5_ESaISD_EE8_M_eraseEPSt13_Rb_tree_nodeISD_E_x1b0
    _ZNSt8_Rb_treeINSt7__cxx1112basic_stringIcSt11char_traitsIcESaIcEEESt4pairIKS5_NS0_4listIP16hiRUNTIME_BLOB_SSaISA_EEEESt10_Select1stISD_ESt4lessIS5_ESaISD_EE8_M_eraseEPSt13_Rb_tree_nodeISD_E_x19c:
    /*0000019c*/ LDR         R6, [R0] 
    /*000001a0*/ BL          _ZdlPv
    /*000001a4*/ CMP         R6, R4 
    /*000001a8*/ MOV         R0, R6 
    /*000001ac*/ BNE         _ZNSt8_Rb_treeINSt7__cxx1112basic_stringIcSt11char_traitsIcESaIcEEESt4pairIKS5_NS0_4listIP16hiRUNTIME_BLOB_SSaISA_EEEESt10_Select1stISD_ESt4lessIS5_ESaISD_EE8_M_eraseEPSt13_Rb_tree_nodeISD_E_x19c
    _ZNSt8_Rb_treeINSt7__cxx1112basic_stringIcSt11char_traitsIcESaIcEEESt4pairIKS5_NS0_4listIP16hiRUNTIME_BLOB_SSaISA_EEEESt10_Select1stISD_ESt4lessIS5_ESaISD_EE8_M_eraseEPSt13_Rb_tree_nodeISD_E_x1b0:
    /*000001b0*/ LDR         R0, [R9, #16] 
    /*000001b4*/ ADD         R3, R9, #24 
    /*000001b8*/ CMP         R0, R3 
    /*000001bc*/ BEQ         _ZNSt8_Rb_treeINSt7__cxx1112basic_stringIcSt11char_traitsIcESaIcEEESt4pairIKS5_NS0_4listIP16hiRUNTIME_BLOB_SSaISA_EEEESt10_Select1stISD_ESt4lessIS5_ESaISD_EE8_M_eraseEPSt13_Rb_tree_nodeISD_E_x1c4
    /*000001c0*/ BL          _ZdlPv
    _ZNSt8_Rb_treeINSt7__cxx1112basic_stringIcSt11char_traitsIcESaIcEEESt4pairIKS5_NS0_4listIP16hiRUNTIME_BLOB_SSaISA_EEEESt10_Select1stISD_ESt4lessIS5_ESaISD_EE8_M_eraseEPSt13_Rb_tree_nodeISD_E_x1c4:
    /*000001c4*/ MOV         R0, R9 
    /*000001c8*/ BL          _ZdlPv
    /*000001cc*/ SUBS        R9, R5, #0 
    /*000001d0*/ BNE         _ZNSt8_Rb_treeINSt7__cxx1112basic_stringIcSt11char_traitsIcESaIcEEESt4pairIKS5_NS0_4listIP16hiRUNTIME_BLOB_SSaISA_EEEESt10_Select1stISD_ESt4lessIS5_ESaISD_EE8_M_eraseEPSt13_Rb_tree_nodeISD_E_x74
    /*000001d4*/ LDR         R3, [SP, #4] 
    _ZNSt8_Rb_treeINSt7__cxx1112basic_stringIcSt11char_traitsIcESaIcEEESt4pairIKS5_NS0_4listIP16hiRUNTIME_BLOB_SSaISA_EEEESt10_Select1stISD_ESt4lessIS5_ESaISD_EE8_M_eraseEPSt13_Rb_tree_nodeISD_E_x1d8:
    /*000001d8*/ LDR         R5, [R3, #8] 
    /*000001dc*/ MOV         R4, R3 
    /*000001e0*/ LDR         R0, [R4, #40]!              @ 0x28 
    /*000001e4*/ CMP         R0, R4 
    /*000001e8*/ BEQ         _ZNSt8_Rb_treeINSt7__cxx1112basic_stringIcSt11char_traitsIcESaIcEEESt4pairIKS5_NS0_4listIP16hiRUNTIME_BLOB_SSaISA_EEEESt10_Select1stISD_ESt4lessIS5_ESaISD_EE8_M_eraseEPSt13_Rb_tree_nodeISD_E_x204
    _ZNSt8_Rb_treeINSt7__cxx1112basic_stringIcSt11char_traitsIcESaIcEEESt4pairIKS5_NS0_4listIP16hiRUNTIME_BLOB_SSaISA_EEEESt10_Select1stISD_ESt4lessIS5_ESaISD_EE8_M_eraseEPSt13_Rb_tree_nodeISD_E_x1ec:
    /*000001ec*/ LDR         R6, [R0] 
    /*000001f0*/ BL          _ZdlPv
    /*000001f4*/ CMP         R6, R4 
    /*000001f8*/ MOV         R0, R6 
    /*000001fc*/ BNE         _ZNSt8_Rb_treeINSt7__cxx1112basic_stringIcSt11char_traitsIcESaIcEEESt4pairIKS5_NS0_4listIP16hiRUNTIME_BLOB_SSaISA_EEEESt10_Select1stISD_ESt4lessIS5_ESaISD_EE8_M_eraseEPSt13_Rb_tree_nodeISD_E_x1ec
    /*00000200*/ LDR         R3, [SP, #4] 
    _ZNSt8_Rb_treeINSt7__cxx1112basic_stringIcSt11char_traitsIcESaIcEEESt4pairIKS5_NS0_4listIP16hiRUNTIME_BLOB_SSaISA_EEEESt10_Select1stISD_ESt4lessIS5_ESaISD_EE8_M_eraseEPSt13_Rb_tree_nodeISD_E_x204:
    /*00000204*/ LDR         R0, [R3, #16] 
    /*00000208*/ ADD         R3, R3, #24 
    /*0000020c*/ CMP         R0, R3 
    /*00000210*/ BEQ         _ZNSt8_Rb_treeINSt7__cxx1112basic_stringIcSt11char_traitsIcESaIcEEESt4pairIKS5_NS0_4listIP16hiRUNTIME_BLOB_SSaISA_EEEESt10_Select1stISD_ESt4lessIS5_ESaISD_EE8_M_eraseEPSt13_Rb_tree_nodeISD_E_x218
    /*00000214*/ BL          _ZdlPv
    _ZNSt8_Rb_treeINSt7__cxx1112basic_stringIcSt11char_traitsIcESaIcEEESt4pairIKS5_NS0_4listIP16hiRUNTIME_BLOB_SSaISA_EEEESt10_Select1stISD_ESt4lessIS5_ESaISD_EE8_M_eraseEPSt13_Rb_tree_nodeISD_E_x218:
    /*00000218*/ LDR         R0, [SP, #4] 
    /*0000021c*/ BL          _ZdlPv
    /*00000220*/ SUBS        R3, R5, #0 
    /*00000224*/ STR         R3, [SP, #4] 
    /*00000228*/ BNE         _ZNSt8_Rb_treeINSt7__cxx1112basic_stringIcSt11char_traitsIcESaIcEEESt4pairIKS5_NS0_4listIP16hiRUNTIME_BLOB_SSaISA_EEEESt10_Select1stISD_ESt4lessIS5_ESaISD_EE8_M_eraseEPSt13_Rb_tree_nodeISD_E_x68
    /*0000022c*/ LDR         R3, [SP, #8] 
    _ZNSt8_Rb_treeINSt7__cxx1112basic_stringIcSt11char_traitsIcESaIcEEESt4pairIKS5_NS0_4listIP16hiRUNTIME_BLOB_SSaISA_EEEESt10_Select1stISD_ESt4lessIS5_ESaISD_EE8_M_eraseEPSt13_Rb_tree_nodeISD_E_x230:
    /*00000230*/ LDR         R5, [R3, #8] 
    /*00000234*/ MOV         R4, R3 
    /*00000238*/ LDR         R0, [R4, #40]!              @ 0x28 
    /*0000023c*/ CMP         R0, R4 
    /*00000240*/ BEQ         _ZNSt8_Rb_treeINSt7__cxx1112basic_stringIcSt11char_traitsIcESaIcEEESt4pairIKS5_NS0_4listIP16hiRUNTIME_BLOB_SSaISA_EEEESt10_Select1stISD_ESt4lessIS5_ESaISD_EE8_M_eraseEPSt13_Rb_tree_nodeISD_E_x25c
    _ZNSt8_Rb_treeINSt7__cxx1112basic_stringIcSt11char_traitsIcESaIcEEESt4pairIKS5_NS0_4listIP16hiRUNTIME_BLOB_SSaISA_EEEESt10_Select1stISD_ESt4lessIS5_ESaISD_EE8_M_eraseEPSt13_Rb_tree_nodeISD_E_x244:
    /*00000244*/ LDR         R6, [R0] 
    /*00000248*/ BL          _ZdlPv
    /*0000024c*/ CMP         R6, R4 
    /*00000250*/ MOV         R0, R6 
    /*00000254*/ BNE         _ZNSt8_Rb_treeINSt7__cxx1112basic_stringIcSt11char_traitsIcESaIcEEESt4pairIKS5_NS0_4listIP16hiRUNTIME_BLOB_SSaISA_EEEESt10_Select1stISD_ESt4lessIS5_ESaISD_EE8_M_eraseEPSt13_Rb_tree_nodeISD_E_x244
    /*00000258*/ LDR         R3, [SP, #8] 
    _ZNSt8_Rb_treeINSt7__cxx1112basic_stringIcSt11char_traitsIcESaIcEEESt4pairIKS5_NS0_4listIP16hiRUNTIME_BLOB_SSaISA_EEEESt10_Select1stISD_ESt4lessIS5_ESaISD_EE8_M_eraseEPSt13_Rb_tree_nodeISD_E_x25c:
    /*0000025c*/ LDR         R0, [R3, #16] 
    /*00000260*/ ADD         R3, R3, #24 
    /*00000264*/ CMP         R0, R3 
    /*00000268*/ BEQ         _ZNSt8_Rb_treeINSt7__cxx1112basic_stringIcSt11char_traitsIcESaIcEEESt4pairIKS5_NS0_4listIP16hiRUNTIME_BLOB_SSaISA_EEEESt10_Select1stISD_ESt4lessIS5_ESaISD_EE8_M_eraseEPSt13_Rb_tree_nodeISD_E_x270
    /*0000026c*/ BL          _ZdlPv
    _ZNSt8_Rb_treeINSt7__cxx1112basic_stringIcSt11char_traitsIcESaIcEEESt4pairIKS5_NS0_4listIP16hiRUNTIME_BLOB_SSaISA_EEEESt10_Select1stISD_ESt4lessIS5_ESaISD_EE8_M_eraseEPSt13_Rb_tree_nodeISD_E_x270:
    /*00000270*/ LDR         R0, [SP, #8] 
    /*00000274*/ BL          _ZdlPv
    /*00000278*/ SUBS        R3, R5, #0 
    /*0000027c*/ STR         R3, [SP, #8] 
    /*00000280*/ BNE         _ZNSt8_Rb_treeINSt7__cxx1112basic_stringIcSt11char_traitsIcESaIcEEESt4pairIKS5_NS0_4listIP16hiRUNTIME_BLOB_SSaISA_EEEESt10_Select1stISD_ESt4lessIS5_ESaISD_EE8_M_eraseEPSt13_Rb_tree_nodeISD_E_x54
    _ZNSt8_Rb_treeINSt7__cxx1112basic_stringIcSt11char_traitsIcESaIcEEESt4pairIKS5_NS0_4listIP16hiRUNTIME_BLOB_SSaISA_EEEESt10_Select1stISD_ESt4lessIS5_ESaISD_EE8_M_eraseEPSt13_Rb_tree_nodeISD_E_x284:
    /*00000284*/ LDR         R3, [SP, #12] 
    /*00000288*/ LDR         R5, [R3, #8] 
    /*0000028c*/ MOV         R4, R3 
    /*00000290*/ LDR         R0, [R4, #40]!              @ 0x28 
    /*00000294*/ CMP         R0, R4 
    /*00000298*/ BEQ         _ZNSt8_Rb_treeINSt7__cxx1112basic_stringIcSt11char_traitsIcESaIcEEESt4pairIKS5_NS0_4listIP16hiRUNTIME_BLOB_SSaISA_EEEESt10_Select1stISD_ESt4lessIS5_ESaISD_EE8_M_eraseEPSt13_Rb_tree_nodeISD_E_x2b4
    _ZNSt8_Rb_treeINSt7__cxx1112basic_stringIcSt11char_traitsIcESaIcEEESt4pairIKS5_NS0_4listIP16hiRUNTIME_BLOB_SSaISA_EEEESt10_Select1stISD_ESt4lessIS5_ESaISD_EE8_M_eraseEPSt13_Rb_tree_nodeISD_E_x29c:
    /*0000029c*/ LDR         R6, [R0] 
    /*000002a0*/ BL          _ZdlPv
    /*000002a4*/ CMP         R6, R4 
    /*000002a8*/ MOV         R0, R6 
    /*000002ac*/ BNE         _ZNSt8_Rb_treeINSt7__cxx1112basic_stringIcSt11char_traitsIcESaIcEEESt4pairIKS5_NS0_4listIP16hiRUNTIME_BLOB_SSaISA_EEEESt10_Select1stISD_ESt4lessIS5_ESaISD_EE8_M_eraseEPSt13_Rb_tree_nodeISD_E_x29c
    /*000002b0*/ LDR         R3, [SP, #12] 
    _ZNSt8_Rb_treeINSt7__cxx1112basic_stringIcSt11char_traitsIcESaIcEEESt4pairIKS5_NS0_4listIP16hiRUNTIME_BLOB_SSaISA_EEEESt10_Select1stISD_ESt4lessIS5_ESaISD_EE8_M_eraseEPSt13_Rb_tree_nodeISD_E_x2b4:
    /*000002b4*/ LDR         R0, [R3, #16] 
    /*000002b8*/ ADD         R3, R3, #24 
    /*000002bc*/ CMP         R0, R3 
    /*000002c0*/ BEQ         _ZNSt8_Rb_treeINSt7__cxx1112basic_stringIcSt11char_traitsIcESaIcEEESt4pairIKS5_NS0_4listIP16hiRUNTIME_BLOB_SSaISA_EEEESt10_Select1stISD_ESt4lessIS5_ESaISD_EE8_M_eraseEPSt13_Rb_tree_nodeISD_E_x2c8
    /*000002c4*/ BL          _ZdlPv
    _ZNSt8_Rb_treeINSt7__cxx1112basic_stringIcSt11char_traitsIcESaIcEEESt4pairIKS5_NS0_4listIP16hiRUNTIME_BLOB_SSaISA_EEEESt10_Select1stISD_ESt4lessIS5_ESaISD_EE8_M_eraseEPSt13_Rb_tree_nodeISD_E_x2c8:
    /*000002c8*/ LDR         R0, [SP, #12] 
    /*000002cc*/ BL          _ZdlPv
    /*000002d0*/ SUBS        R3, R5, #0 
    /*000002d4*/ STR         R3, [SP, #12] 
    /*000002d8*/ BNE         _ZNSt8_Rb_treeINSt7__cxx1112basic_stringIcSt11char_traitsIcESaIcEEESt4pairIKS5_NS0_4listIP16hiRUNTIME_BLOB_SSaISA_EEEESt10_Select1stISD_ESt4lessIS5_ESaISD_EE8_M_eraseEPSt13_Rb_tree_nodeISD_E_x44
    _ZNSt8_Rb_treeINSt7__cxx1112basic_stringIcSt11char_traitsIcESaIcEEESt4pairIKS5_NS0_4listIP16hiRUNTIME_BLOB_SSaISA_EEEESt10_Select1stISD_ESt4lessIS5_ESaISD_EE8_M_eraseEPSt13_Rb_tree_nodeISD_E_x2dc:
    /*000002dc*/ LDR         R3, [SP, #16] 
    /*000002e0*/ LDR         R5, [R3, #8] 
    /*000002e4*/ MOV         R4, R3 
    /*000002e8*/ LDR         R0, [R4, #40]!              @ 0x28 
    /*000002ec*/ CMP         R0, R4 
    /*000002f0*/ BEQ         _ZNSt8_Rb_treeINSt7__cxx1112basic_stringIcSt11char_traitsIcESaIcEEESt4pairIKS5_NS0_4listIP16hiRUNTIME_BLOB_SSaISA_EEEESt10_Select1stISD_ESt4lessIS5_ESaISD_EE8_M_eraseEPSt13_Rb_tree_nodeISD_E_x30c
    _ZNSt8_Rb_treeINSt7__cxx1112basic_stringIcSt11char_traitsIcESaIcEEESt4pairIKS5_NS0_4listIP16hiRUNTIME_BLOB_SSaISA_EEEESt10_Select1stISD_ESt4lessIS5_ESaISD_EE8_M_eraseEPSt13_Rb_tree_nodeISD_E_x2f4:
    /*000002f4*/ LDR         R6, [R0] 
    /*000002f8*/ BL          _ZdlPv
    /*000002fc*/ CMP         R6, R4 
    /*00000300*/ MOV         R0, R6 
    /*00000304*/ BNE         _ZNSt8_Rb_treeINSt7__cxx1112basic_stringIcSt11char_traitsIcESaIcEEESt4pairIKS5_NS0_4listIP16hiRUNTIME_BLOB_SSaISA_EEEESt10_Select1stISD_ESt4lessIS5_ESaISD_EE8_M_eraseEPSt13_Rb_tree_nodeISD_E_x2f4
    /*00000308*/ LDR         R3, [SP, #16] 
    _ZNSt8_Rb_treeINSt7__cxx1112basic_stringIcSt11char_traitsIcESaIcEEESt4pairIKS5_NS0_4listIP16hiRUNTIME_BLOB_SSaISA_EEEESt10_Select1stISD_ESt4lessIS5_ESaISD_EE8_M_eraseEPSt13_Rb_tree_nodeISD_E_x30c:
    /*0000030c*/ LDR         R0, [R3, #16] 
    /*00000310*/ ADD         R3, R3, #24 
    /*00000314*/ CMP         R0, R3 
    /*00000318*/ BEQ         _ZNSt8_Rb_treeINSt7__cxx1112basic_stringIcSt11char_traitsIcESaIcEEESt4pairIKS5_NS0_4listIP16hiRUNTIME_BLOB_SSaISA_EEEESt10_Select1stISD_ESt4lessIS5_ESaISD_EE8_M_eraseEPSt13_Rb_tree_nodeISD_E_x320
    /*0000031c*/ BL          _ZdlPv
    _ZNSt8_Rb_treeINSt7__cxx1112basic_stringIcSt11char_traitsIcESaIcEEESt4pairIKS5_NS0_4listIP16hiRUNTIME_BLOB_SSaISA_EEEESt10_Select1stISD_ESt4lessIS5_ESaISD_EE8_M_eraseEPSt13_Rb_tree_nodeISD_E_x320:
    /*00000320*/ LDR         R0, [SP, #16] 
    /*00000324*/ BL          _ZdlPv
    /*00000328*/ SUBS        R3, R5, #0 
    /*0000032c*/ STR         R3, [SP, #16] 
    /*00000330*/ BNE         _ZNSt8_Rb_treeINSt7__cxx1112basic_stringIcSt11char_traitsIcESaIcEEESt4pairIKS5_NS0_4listIP16hiRUNTIME_BLOB_SSaISA_EEEESt10_Select1stISD_ESt4lessIS5_ESaISD_EE8_M_eraseEPSt13_Rb_tree_nodeISD_E_x34
    _ZNSt8_Rb_treeINSt7__cxx1112basic_stringIcSt11char_traitsIcESaIcEEESt4pairIKS5_NS0_4listIP16hiRUNTIME_BLOB_SSaISA_EEEESt10_Select1stISD_ESt4lessIS5_ESaISD_EE8_M_eraseEPSt13_Rb_tree_nodeISD_E_x334:
    /*00000334*/ LDR         R3, [SP, #20] 
    /*00000338*/ LDR         R5, [R3, #8] 
    /*0000033c*/ MOV         R4, R3 
    /*00000340*/ LDR         R0, [R4, #40]!              @ 0x28 
    /*00000344*/ CMP         R0, R4 
    /*00000348*/ BEQ         _ZNSt8_Rb_treeINSt7__cxx1112basic_stringIcSt11char_traitsIcESaIcEEESt4pairIKS5_NS0_4listIP16hiRUNTIME_BLOB_SSaISA_EEEESt10_Select1stISD_ESt4lessIS5_ESaISD_EE8_M_eraseEPSt13_Rb_tree_nodeISD_E_x364
    _ZNSt8_Rb_treeINSt7__cxx1112basic_stringIcSt11char_traitsIcESaIcEEESt4pairIKS5_NS0_4listIP16hiRUNTIME_BLOB_SSaISA_EEEESt10_Select1stISD_ESt4lessIS5_ESaISD_EE8_M_eraseEPSt13_Rb_tree_nodeISD_E_x34c:
    /*0000034c*/ LDR         R6, [R0] 
    /*00000350*/ BL          _ZdlPv
    /*00000354*/ CMP         R6, R4 
    /*00000358*/ MOV         R0, R6 
    /*0000035c*/ BNE         _ZNSt8_Rb_treeINSt7__cxx1112basic_stringIcSt11char_traitsIcESaIcEEESt4pairIKS5_NS0_4listIP16hiRUNTIME_BLOB_SSaISA_EEEESt10_Select1stISD_ESt4lessIS5_ESaISD_EE8_M_eraseEPSt13_Rb_tree_nodeISD_E_x34c
    /*00000360*/ LDR         R3, [SP, #20] 
    _ZNSt8_Rb_treeINSt7__cxx1112basic_stringIcSt11char_traitsIcESaIcEEESt4pairIKS5_NS0_4listIP16hiRUNTIME_BLOB_SSaISA_EEEESt10_Select1stISD_ESt4lessIS5_ESaISD_EE8_M_eraseEPSt13_Rb_tree_nodeISD_E_x364:
    /*00000364*/ LDR         R0, [R3, #16] 
    /*00000368*/ ADD         R3, R3, #24 
    /*0000036c*/ CMP         R0, R3 
    /*00000370*/ BEQ         _ZNSt8_Rb_treeINSt7__cxx1112basic_stringIcSt11char_traitsIcESaIcEEESt4pairIKS5_NS0_4listIP16hiRUNTIME_BLOB_SSaISA_EEEESt10_Select1stISD_ESt4lessIS5_ESaISD_EE8_M_eraseEPSt13_Rb_tree_nodeISD_E_x378
    /*00000374*/ BL          _ZdlPv
    _ZNSt8_Rb_treeINSt7__cxx1112basic_stringIcSt11char_traitsIcESaIcEEESt4pairIKS5_NS0_4listIP16hiRUNTIME_BLOB_SSaISA_EEEESt10_Select1stISD_ESt4lessIS5_ESaISD_EE8_M_eraseEPSt13_Rb_tree_nodeISD_E_x378:
    /*00000378*/ LDR         R0, [SP, #20] 
    /*0000037c*/ BL          _ZdlPv
    /*00000380*/ SUBS        R3, R5, #0 
    /*00000384*/ STR         R3, [SP, #20] 
    /*00000388*/ BNE         _ZNSt8_Rb_treeINSt7__cxx1112basic_stringIcSt11char_traitsIcESaIcEEESt4pairIKS5_NS0_4listIP16hiRUNTIME_BLOB_SSaISA_EEEESt10_Select1stISD_ESt4lessIS5_ESaISD_EE8_M_eraseEPSt13_Rb_tree_nodeISD_E_x24
    _ZNSt8_Rb_treeINSt7__cxx1112basic_stringIcSt11char_traitsIcESaIcEEESt4pairIKS5_NS0_4listIP16hiRUNTIME_BLOB_SSaISA_EEEESt10_Select1stISD_ESt4lessIS5_ESaISD_EE8_M_eraseEPSt13_Rb_tree_nodeISD_E_x38c:
    /*0000038c*/ ADD         SP, SP, #28 
    /*00000390*/ POP         {R4, R5, R6, R7, R8, R9, SL, FP, PC} 
FUNC_END _ZNSt8_Rb_treeINSt7__cxx1112basic_stringIcSt11char_traitsIcESaIcEEESt4pairIKS5_NS0_4listIP16hiRUNTIME_BLOB_SSaISA_EEEESt10_Select1stISD_ESt4lessIS5_ESaISD_EE8_M_eraseEPSt13_Rb_tree_nodeISD_E


@ - - - - - - - - - - - - - - - - - - - - - - - - - - - - - 
@ .text._ZNSt8_Rb_treeIP16hiRUNTIME_BLOB_SSt4pairIKS1_NSt7__cxx1112basic_stringIcSt11char_traitsIcESaIcEEEESt10_Select1stISA_ESt4lessIS1_ESaISA_EE8_M_eraseEPSt13_Rb_tree_nodeISA_E
@ Size: 0x234
@ - - - - - - - - - - - - - - - - - - - - - - - - - - - - - 

FUNC_BEGIN _ZNSt8_Rb_treeIP16hiRUNTIME_BLOB_SSt4pairIKS1_NSt7__cxx1112basic_stringIcSt11char_traitsIcESaIcEEEESt10_Select1stISA_ESt4lessIS1_ESaISA_EE8_M_eraseEPSt13_Rb_tree_nodeISA_E
    /*00000000*/ MOV         IP, #16384                  @ 0x4000 
    /*00000004*/ PUSH        {R4, R5, R6, R7, R8, R9, SL, FP, LR} 
    /*00000008*/ SUB         IP, SP, IP 
    /*0000000c*/ STR         R0, [IP, #4040]             @ 0xfc8 
    /*00000010*/ SUB         SP, SP, #20 
    /*00000014*/ SUBS        R3, R1, #0 
    /*00000018*/ STR         R3, [SP, #12] 
    /*0000001c*/ BEQ         _ZNSt8_Rb_treeIP16hiRUNTIME_BLOB_SSt4pairIKS1_NSt7__cxx1112basic_stringIcSt11char_traitsIcESaIcEEEESt10_Select1stISA_ESt4lessIS1_ESaISA_EE8_M_eraseEPSt13_Rb_tree_nodeISA_E_x22c
    /*00000020*/ MOV         R5, R0 
    _ZNSt8_Rb_treeIP16hiRUNTIME_BLOB_SSt4pairIKS1_NSt7__cxx1112basic_stringIcSt11char_traitsIcESaIcEEEESt10_Select1stISA_ESt4lessIS1_ESaISA_EE8_M_eraseEPSt13_Rb_tree_nodeISA_E_x24:
    /*00000024*/ LDR         R3, [R3, #12] 
    /*00000028*/ CMP         R3, #0 
    /*0000002c*/ STRNE       R3, [SP, #8] 
    /*00000030*/ BEQ         _ZNSt8_Rb_treeIP16hiRUNTIME_BLOB_SSt4pairIKS1_NSt7__cxx1112basic_stringIcSt11char_traitsIcESaIcEEEESt10_Select1stISA_ESt4lessIS1_ESaISA_EE8_M_eraseEPSt13_Rb_tree_nodeISA_E_x1f8
    _ZNSt8_Rb_treeIP16hiRUNTIME_BLOB_SSt4pairIKS1_NSt7__cxx1112basic_stringIcSt11char_traitsIcESaIcEEEESt10_Select1stISA_ESt4lessIS1_ESaISA_EE8_M_eraseEPSt13_Rb_tree_nodeISA_E_x34:
    /*00000034*/ LDR         R8, [R3, #12] 
    /*00000038*/ CMP         R8, #0 
    /*0000003c*/ STRNE       R8, [SP, #4] 
    /*00000040*/ MOVNE       R3, R8 
    /*00000044*/ BEQ         _ZNSt8_Rb_treeIP16hiRUNTIME_BLOB_SSt4pairIKS1_NSt7__cxx1112basic_stringIcSt11char_traitsIcESaIcEEEESt10_Select1stISA_ESt4lessIS1_ESaISA_EE8_M_eraseEPSt13_Rb_tree_nodeISA_E_x1c4
    _ZNSt8_Rb_treeIP16hiRUNTIME_BLOB_SSt4pairIKS1_NSt7__cxx1112basic_stringIcSt11char_traitsIcESaIcEEEESt10_Select1stISA_ESt4lessIS1_ESaISA_EE8_M_eraseEPSt13_Rb_tree_nodeISA_E_x48:
    /*00000048*/ LDR         R9, [R3, #12] 
    /*0000004c*/ CMP         R9, #0 
    /*00000050*/ BEQ         _ZNSt8_Rb_treeIP16hiRUNTIME_BLOB_SSt4pairIKS1_NSt7__cxx1112basic_stringIcSt11char_traitsIcESaIcEEEESt10_Select1stISA_ESt4lessIS1_ESaISA_EE8_M_eraseEPSt13_Rb_tree_nodeISA_E_x190
    _ZNSt8_Rb_treeIP16hiRUNTIME_BLOB_SSt4pairIKS1_NSt7__cxx1112basic_stringIcSt11char_traitsIcESaIcEEEESt10_Select1stISA_ESt4lessIS1_ESaISA_EE8_M_eraseEPSt13_Rb_tree_nodeISA_E_x54:
    /*00000054*/ LDR         SL, [R9, #12] 
    /*00000058*/ CMP         SL, #0 
    /*0000005c*/ BEQ         _ZNSt8_Rb_treeIP16hiRUNTIME_BLOB_SSt4pairIKS1_NSt7__cxx1112basic_stringIcSt11char_traitsIcESaIcEEEESt10_Select1stISA_ESt4lessIS1_ESaISA_EE8_M_eraseEPSt13_Rb_tree_nodeISA_E_x168
    _ZNSt8_Rb_treeIP16hiRUNTIME_BLOB_SSt4pairIKS1_NSt7__cxx1112basic_stringIcSt11char_traitsIcESaIcEEEESt10_Select1stISA_ESt4lessIS1_ESaISA_EE8_M_eraseEPSt13_Rb_tree_nodeISA_E_x60:
    /*00000060*/ LDR         FP, [SL, #12] 
    /*00000064*/ CMP         FP, #0 
    /*00000068*/ BEQ         _ZNSt8_Rb_treeIP16hiRUNTIME_BLOB_SSt4pairIKS1_NSt7__cxx1112basic_stringIcSt11char_traitsIcESaIcEEEESt10_Select1stISA_ESt4lessIS1_ESaISA_EE8_M_eraseEPSt13_Rb_tree_nodeISA_E_x140
    _ZNSt8_Rb_treeIP16hiRUNTIME_BLOB_SSt4pairIKS1_NSt7__cxx1112basic_stringIcSt11char_traitsIcESaIcEEEESt10_Select1stISA_ESt4lessIS1_ESaISA_EE8_M_eraseEPSt13_Rb_tree_nodeISA_E_x6c:
    /*0000006c*/ LDR         R7, [FP, #12] 
    /*00000070*/ CMP         R7, #0 
    /*00000074*/ BEQ         _ZNSt8_Rb_treeIP16hiRUNTIME_BLOB_SSt4pairIKS1_NSt7__cxx1112basic_stringIcSt11char_traitsIcESaIcEEEESt10_Select1stISA_ESt4lessIS1_ESaISA_EE8_M_eraseEPSt13_Rb_tree_nodeISA_E_x118
    _ZNSt8_Rb_treeIP16hiRUNTIME_BLOB_SSt4pairIKS1_NSt7__cxx1112basic_stringIcSt11char_traitsIcESaIcEEEESt10_Select1stISA_ESt4lessIS1_ESaISA_EE8_M_eraseEPSt13_Rb_tree_nodeISA_E_x78:
    /*00000078*/ LDR         R6, [R7, #12] 
    /*0000007c*/ CMP         R6, #0 
    /*00000080*/ BEQ         _ZNSt8_Rb_treeIP16hiRUNTIME_BLOB_SSt4pairIKS1_NSt7__cxx1112basic_stringIcSt11char_traitsIcESaIcEEEESt10_Select1stISA_ESt4lessIS1_ESaISA_EE8_M_eraseEPSt13_Rb_tree_nodeISA_E_xf0
    _ZNSt8_Rb_treeIP16hiRUNTIME_BLOB_SSt4pairIKS1_NSt7__cxx1112basic_stringIcSt11char_traitsIcESaIcEEEESt10_Select1stISA_ESt4lessIS1_ESaISA_EE8_M_eraseEPSt13_Rb_tree_nodeISA_E_x84:
    /*00000084*/ LDR         R3, [R6, #12] 
    /*00000088*/ CMP         R3, #0 
    /*0000008c*/ MOVNE       R8, R3 
    /*00000090*/ BEQ         _ZNSt8_Rb_treeIP16hiRUNTIME_BLOB_SSt4pairIKS1_NSt7__cxx1112basic_stringIcSt11char_traitsIcESaIcEEEESt10_Select1stISA_ESt4lessIS1_ESaISA_EE8_M_eraseEPSt13_Rb_tree_nodeISA_E_xc8
    _ZNSt8_Rb_treeIP16hiRUNTIME_BLOB_SSt4pairIKS1_NSt7__cxx1112basic_stringIcSt11char_traitsIcESaIcEEEESt10_Select1stISA_ESt4lessIS1_ESaISA_EE8_M_eraseEPSt13_Rb_tree_nodeISA_E_x94:
    /*00000094*/ LDR         R1, [R8, #12] 
    /*00000098*/ MOV         R0, R5 
    /*0000009c*/ BL          _ZNSt8_Rb_treeIP16hiRUNTIME_BLOB_SSt4pairIKS1_NSt7__cxx1112basic_stringIcSt11char_traitsIcESaIcEEEESt10_Select1stISA_ESt4lessIS1_ESaISA_EE8_M_eraseEPSt13_Rb_tree_nodeISA_E
    /*000000a0*/ LDR         R0, [R8, #20] 
    /*000000a4*/ ADD         R2, R8, #28 
    /*000000a8*/ LDR         R4, [R8, #8] 
    /*000000ac*/ CMP         R0, R2 
    /*000000b0*/ BEQ         _ZNSt8_Rb_treeIP16hiRUNTIME_BLOB_SSt4pairIKS1_NSt7__cxx1112basic_stringIcSt11char_traitsIcESaIcEEEESt10_Select1stISA_ESt4lessIS1_ESaISA_EE8_M_eraseEPSt13_Rb_tree_nodeISA_E_xb8
    /*000000b4*/ BL          _ZdlPv
    _ZNSt8_Rb_treeIP16hiRUNTIME_BLOB_SSt4pairIKS1_NSt7__cxx1112basic_stringIcSt11char_traitsIcESaIcEEEESt10_Select1stISA_ESt4lessIS1_ESaISA_EE8_M_eraseEPSt13_Rb_tree_nodeISA_E_xb8:
    /*000000b8*/ MOV         R0, R8 
    /*000000bc*/ BL          _ZdlPv
    /*000000c0*/ SUBS        R8, R4, #0 
    /*000000c4*/ BNE         _ZNSt8_Rb_treeIP16hiRUNTIME_BLOB_SSt4pairIKS1_NSt7__cxx1112basic_stringIcSt11char_traitsIcESaIcEEEESt10_Select1stISA_ESt4lessIS1_ESaISA_EE8_M_eraseEPSt13_Rb_tree_nodeISA_E_x94
    _ZNSt8_Rb_treeIP16hiRUNTIME_BLOB_SSt4pairIKS1_NSt7__cxx1112basic_stringIcSt11char_traitsIcESaIcEEEESt10_Select1stISA_ESt4lessIS1_ESaISA_EE8_M_eraseEPSt13_Rb_tree_nodeISA_E_xc8:
    /*000000c8*/ LDR         R0, [R6, #20] 
    /*000000cc*/ ADD         R3, R6, #28 
    /*000000d0*/ LDR         R4, [R6, #8] 
    /*000000d4*/ CMP         R0, R3 
    /*000000d8*/ BEQ         _ZNSt8_Rb_treeIP16hiRUNTIME_BLOB_SSt4pairIKS1_NSt7__cxx1112basic_stringIcSt11char_traitsIcESaIcEEEESt10_Select1stISA_ESt4lessIS1_ESaISA_EE8_M_eraseEPSt13_Rb_tree_nodeISA_E_xe0
    /*000000dc*/ BL          _ZdlPv
    _ZNSt8_Rb_treeIP16hiRUNTIME_BLOB_SSt4pairIKS1_NSt7__cxx1112basic_stringIcSt11char_traitsIcESaIcEEEESt10_Select1stISA_ESt4lessIS1_ESaISA_EE8_M_eraseEPSt13_Rb_tree_nodeISA_E_xe0:
    /*000000e0*/ MOV         R0, R6 
    /*000000e4*/ BL          _ZdlPv
    /*000000e8*/ SUBS        R6, R4, #0 
    /*000000ec*/ BNE         _ZNSt8_Rb_treeIP16hiRUNTIME_BLOB_SSt4pairIKS1_NSt7__cxx1112basic_stringIcSt11char_traitsIcESaIcEEEESt10_Select1stISA_ESt4lessIS1_ESaISA_EE8_M_eraseEPSt13_Rb_tree_nodeISA_E_x84
    _ZNSt8_Rb_treeIP16hiRUNTIME_BLOB_SSt4pairIKS1_NSt7__cxx1112basic_stringIcSt11char_traitsIcESaIcEEEESt10_Select1stISA_ESt4lessIS1_ESaISA_EE8_M_eraseEPSt13_Rb_tree_nodeISA_E_xf0:
    /*000000f0*/ LDR         R0, [R7, #20] 
    /*000000f4*/ ADD         R3, R7, #28 
    /*000000f8*/ LDR         R4, [R7, #8] 
    /*000000fc*/ CMP         R0, R3 
    /*00000100*/ BEQ         _ZNSt8_Rb_treeIP16hiRUNTIME_BLOB_SSt4pairIKS1_NSt7__cxx1112basic_stringIcSt11char_traitsIcESaIcEEEESt10_Select1stISA_ESt4lessIS1_ESaISA_EE8_M_eraseEPSt13_Rb_tree_nodeISA_E_x108
    /*00000104*/ BL          _ZdlPv
    _ZNSt8_Rb_treeIP16hiRUNTIME_BLOB_SSt4pairIKS1_NSt7__cxx1112basic_stringIcSt11char_traitsIcESaIcEEEESt10_Select1stISA_ESt4lessIS1_ESaISA_EE8_M_eraseEPSt13_Rb_tree_nodeISA_E_x108:
    /*00000108*/ MOV         R0, R7 
    /*0000010c*/ BL          _ZdlPv
    /*00000110*/ SUBS        R7, R4, #0 
    /*00000114*/ BNE         _ZNSt8_Rb_treeIP16hiRUNTIME_BLOB_SSt4pairIKS1_NSt7__cxx1112basic_stringIcSt11char_traitsIcESaIcEEEESt10_Select1stISA_ESt4lessIS1_ESaISA_EE8_M_eraseEPSt13_Rb_tree_nodeISA_E_x78
    _ZNSt8_Rb_treeIP16hiRUNTIME_BLOB_SSt4pairIKS1_NSt7__cxx1112basic_stringIcSt11char_traitsIcESaIcEEEESt10_Select1stISA_ESt4lessIS1_ESaISA_EE8_M_eraseEPSt13_Rb_tree_nodeISA_E_x118:
    /*00000118*/ LDR         R0, [FP, #20] 
    /*0000011c*/ ADD         R3, FP, #28 
    /*00000120*/ LDR         R4, [FP, #8] 
    /*00000124*/ CMP         R0, R3 
    /*00000128*/ BEQ         _ZNSt8_Rb_treeIP16hiRUNTIME_BLOB_SSt4pairIKS1_NSt7__cxx1112basic_stringIcSt11char_traitsIcESaIcEEEESt10_Select1stISA_ESt4lessIS1_ESaISA_EE8_M_eraseEPSt13_Rb_tree_nodeISA_E_x130
    /*0000012c*/ BL          _ZdlPv
    _ZNSt8_Rb_treeIP16hiRUNTIME_BLOB_SSt4pairIKS1_NSt7__cxx1112basic_stringIcSt11char_traitsIcESaIcEEEESt10_Select1stISA_ESt4lessIS1_ESaISA_EE8_M_eraseEPSt13_Rb_tree_nodeISA_E_x130:
    /*00000130*/ MOV         R0, FP 
    /*00000134*/ BL          _ZdlPv
    /*00000138*/ SUBS        FP, R4, #0 
    /*0000013c*/ BNE         _ZNSt8_Rb_treeIP16hiRUNTIME_BLOB_SSt4pairIKS1_NSt7__cxx1112basic_stringIcSt11char_traitsIcESaIcEEEESt10_Select1stISA_ESt4lessIS1_ESaISA_EE8_M_eraseEPSt13_Rb_tree_nodeISA_E_x6c
    _ZNSt8_Rb_treeIP16hiRUNTIME_BLOB_SSt4pairIKS1_NSt7__cxx1112basic_stringIcSt11char_traitsIcESaIcEEEESt10_Select1stISA_ESt4lessIS1_ESaISA_EE8_M_eraseEPSt13_Rb_tree_nodeISA_E_x140:
    /*00000140*/ LDR         R0, [SL, #20] 
    /*00000144*/ ADD         R3, SL, #28 
    /*00000148*/ LDR         R4, [SL, #8] 
    /*0000014c*/ CMP         R0, R3 
    /*00000150*/ BEQ         _ZNSt8_Rb_treeIP16hiRUNTIME_BLOB_SSt4pairIKS1_NSt7__cxx1112basic_stringIcSt11char_traitsIcESaIcEEEESt10_Select1stISA_ESt4lessIS1_ESaISA_EE8_M_eraseEPSt13_Rb_tree_nodeISA_E_x158
    /*00000154*/ BL          _ZdlPv
    _ZNSt8_Rb_treeIP16hiRUNTIME_BLOB_SSt4pairIKS1_NSt7__cxx1112basic_stringIcSt11char_traitsIcESaIcEEEESt10_Select1stISA_ESt4lessIS1_ESaISA_EE8_M_eraseEPSt13_Rb_tree_nodeISA_E_x158:
    /*00000158*/ MOV         R0, SL 
    /*0000015c*/ BL          _ZdlPv
    /*00000160*/ SUBS        SL, R4, #0 
    /*00000164*/ BNE         _ZNSt8_Rb_treeIP16hiRUNTIME_BLOB_SSt4pairIKS1_NSt7__cxx1112basic_stringIcSt11char_traitsIcESaIcEEEESt10_Select1stISA_ESt4lessIS1_ESaISA_EE8_M_eraseEPSt13_Rb_tree_nodeISA_E_x60
    _ZNSt8_Rb_treeIP16hiRUNTIME_BLOB_SSt4pairIKS1_NSt7__cxx1112basic_stringIcSt11char_traitsIcESaIcEEEESt10_Select1stISA_ESt4lessIS1_ESaISA_EE8_M_eraseEPSt13_Rb_tree_nodeISA_E_x168:
    /*00000168*/ LDR         R0, [R9, #20] 
    /*0000016c*/ ADD         R3, R9, #28 
    /*00000170*/ LDR         R4, [R9, #8] 
    /*00000174*/ CMP         R0, R3 
    /*00000178*/ BEQ         _ZNSt8_Rb_treeIP16hiRUNTIME_BLOB_SSt4pairIKS1_NSt7__cxx1112basic_stringIcSt11char_traitsIcESaIcEEEESt10_Select1stISA_ESt4lessIS1_ESaISA_EE8_M_eraseEPSt13_Rb_tree_nodeISA_E_x180
    /*0000017c*/ BL          _ZdlPv
    _ZNSt8_Rb_treeIP16hiRUNTIME_BLOB_SSt4pairIKS1_NSt7__cxx1112basic_stringIcSt11char_traitsIcESaIcEEEESt10_Select1stISA_ESt4lessIS1_ESaISA_EE8_M_eraseEPSt13_Rb_tree_nodeISA_E_x180:
    /*00000180*/ MOV         R0, R9 
    /*00000184*/ BL          _ZdlPv
    /*00000188*/ SUBS        R9, R4, #0 
    /*0000018c*/ BNE         _ZNSt8_Rb_treeIP16hiRUNTIME_BLOB_SSt4pairIKS1_NSt7__cxx1112basic_stringIcSt11char_traitsIcESaIcEEEESt10_Select1stISA_ESt4lessIS1_ESaISA_EE8_M_eraseEPSt13_Rb_tree_nodeISA_E_x54
    _ZNSt8_Rb_treeIP16hiRUNTIME_BLOB_SSt4pairIKS1_NSt7__cxx1112basic_stringIcSt11char_traitsIcESaIcEEEESt10_Select1stISA_ESt4lessIS1_ESaISA_EE8_M_eraseEPSt13_Rb_tree_nodeISA_E_x190:
    /*00000190*/ LDR         R2, [SP, #4] 
    /*00000194*/ LDR         R0, [R2, #20] 
    /*00000198*/ ADD         R3, R2, #28 
    /*0000019c*/ LDR         R4, [R2, #8] 
    /*000001a0*/ CMP         R0, R3 
    /*000001a4*/ MOVEQ       R0, R2 
    /*000001a8*/ BEQ         _ZNSt8_Rb_treeIP16hiRUNTIME_BLOB_SSt4pairIKS1_NSt7__cxx1112basic_stringIcSt11char_traitsIcESaIcEEEESt10_Select1stISA_ESt4lessIS1_ESaISA_EE8_M_eraseEPSt13_Rb_tree_nodeISA_E_x1b4
    /*000001ac*/ BL          _ZdlPv
    /*000001b0*/ LDR         R0, [SP, #4] 
    _ZNSt8_Rb_treeIP16hiRUNTIME_BLOB_SSt4pairIKS1_NSt7__cxx1112basic_stringIcSt11char_traitsIcESaIcEEEESt10_Select1stISA_ESt4lessIS1_ESaISA_EE8_M_eraseEPSt13_Rb_tree_nodeISA_E_x1b4:
    /*000001b4*/ BL          _ZdlPv
    /*000001b8*/ SUBS        R3, R4, #0 
    /*000001bc*/ STR         R3, [SP, #4] 
    /*000001c0*/ BNE         _ZNSt8_Rb_treeIP16hiRUNTIME_BLOB_SSt4pairIKS1_NSt7__cxx1112basic_stringIcSt11char_traitsIcESaIcEEEESt10_Select1stISA_ESt4lessIS1_ESaISA_EE8_M_eraseEPSt13_Rb_tree_nodeISA_E_x48
    _ZNSt8_Rb_treeIP16hiRUNTIME_BLOB_SSt4pairIKS1_NSt7__cxx1112basic_stringIcSt11char_traitsIcESaIcEEEESt10_Select1stISA_ESt4lessIS1_ESaISA_EE8_M_eraseEPSt13_Rb_tree_nodeISA_E_x1c4:
    /*000001c4*/ LDR         R2, [SP, #8] 
    /*000001c8*/ LDR         R0, [R2, #20] 
    /*000001cc*/ ADD         R3, R2, #28 
    /*000001d0*/ LDR         R4, [R2, #8] 
    /*000001d4*/ CMP         R0, R3 
    /*000001d8*/ MOVEQ       R0, R2 
    /*000001dc*/ BEQ         _ZNSt8_Rb_treeIP16hiRUNTIME_BLOB_SSt4pairIKS1_NSt7__cxx1112basic_stringIcSt11char_traitsIcESaIcEEEESt10_Select1stISA_ESt4lessIS1_ESaISA_EE8_M_eraseEPSt13_Rb_tree_nodeISA_E_x1e8
    /*000001e0*/ BL          _ZdlPv
    /*000001e4*/ LDR         R0, [SP, #8] 
    _ZNSt8_Rb_treeIP16hiRUNTIME_BLOB_SSt4pairIKS1_NSt7__cxx1112basic_stringIcSt11char_traitsIcESaIcEEEESt10_Select1stISA_ESt4lessIS1_ESaISA_EE8_M_eraseEPSt13_Rb_tree_nodeISA_E_x1e8:
    /*000001e8*/ BL          _ZdlPv
    /*000001ec*/ SUBS        R3, R4, #0 
    /*000001f0*/ STR         R3, [SP, #8] 
    /*000001f4*/ BNE         _ZNSt8_Rb_treeIP16hiRUNTIME_BLOB_SSt4pairIKS1_NSt7__cxx1112basic_stringIcSt11char_traitsIcESaIcEEEESt10_Select1stISA_ESt4lessIS1_ESaISA_EE8_M_eraseEPSt13_Rb_tree_nodeISA_E_x34
    _ZNSt8_Rb_treeIP16hiRUNTIME_BLOB_SSt4pairIKS1_NSt7__cxx1112basic_stringIcSt11char_traitsIcESaIcEEEESt10_Select1stISA_ESt4lessIS1_ESaISA_EE8_M_eraseEPSt13_Rb_tree_nodeISA_E_x1f8:
    /*000001f8*/ LDR         R2, [SP, #12] 
    /*000001fc*/ LDR         R0, [R2, #20] 
    /*00000200*/ ADD         R3, R2, #28 
    /*00000204*/ LDR         R4, [R2, #8] 
    /*00000208*/ CMP         R0, R3 
    /*0000020c*/ MOVEQ       R0, R2 
    /*00000210*/ BEQ         _ZNSt8_Rb_treeIP16hiRUNTIME_BLOB_SSt4pairIKS1_NSt7__cxx1112basic_stringIcSt11char_traitsIcESaIcEEEESt10_Select1stISA_ESt4lessIS1_ESaISA_EE8_M_eraseEPSt13_Rb_tree_nodeISA_E_x21c
    /*00000214*/ BL          _ZdlPv
    /*00000218*/ LDR         R0, [SP, #12] 
    _ZNSt8_Rb_treeIP16hiRUNTIME_BLOB_SSt4pairIKS1_NSt7__cxx1112basic_stringIcSt11char_traitsIcESaIcEEEESt10_Select1stISA_ESt4lessIS1_ESaISA_EE8_M_eraseEPSt13_Rb_tree_nodeISA_E_x21c:
    /*0000021c*/ BL          _ZdlPv
    /*00000220*/ SUBS        R3, R4, #0 
    /*00000224*/ STR         R3, [SP, #12] 
    /*00000228*/ BNE         _ZNSt8_Rb_treeIP16hiRUNTIME_BLOB_SSt4pairIKS1_NSt7__cxx1112basic_stringIcSt11char_traitsIcESaIcEEEESt10_Select1stISA_ESt4lessIS1_ESaISA_EE8_M_eraseEPSt13_Rb_tree_nodeISA_E_x24
    _ZNSt8_Rb_treeIP16hiRUNTIME_BLOB_SSt4pairIKS1_NSt7__cxx1112basic_stringIcSt11char_traitsIcESaIcEEEESt10_Select1stISA_ESt4lessIS1_ESaISA_EE8_M_eraseEPSt13_Rb_tree_nodeISA_E_x22c:
    /*0000022c*/ ADD         SP, SP, #20 
    /*00000230*/ POP         {R4, R5, R6, R7, R8, R9, SL, FP, PC} 
FUNC_END _ZNSt8_Rb_treeIP16hiRUNTIME_BLOB_SSt4pairIKS1_NSt7__cxx1112basic_stringIcSt11char_traitsIcESaIcEEEESt10_Select1stISA_ESt4lessIS1_ESaISA_EE8_M_eraseEPSt13_Rb_tree_nodeISA_E


@ - - - - - - - - - - - - - - - - - - - - - - - - - - - - - 
@ .text._ZNSt8_Rb_treeIP16hiRUNTIME_BLOB_SSt4pairIKS1_7HI_BOOLESt10_Select1stIS5_ESt4lessIS1_ESaIS5_EE8_M_eraseEPSt13_Rb_tree_nodeIS5_E
@ Size: 0x178
@ - - - - - - - - - - - - - - - - - - - - - - - - - - - - - 

FUNC_BEGIN _ZNSt8_Rb_treeIP16hiRUNTIME_BLOB_SSt4pairIKS1_7HI_BOOLESt10_Select1stIS5_ESt4lessIS1_ESaIS5_EE8_M_eraseEPSt13_Rb_tree_nodeIS5_E
    /*00000000*/ MOV         IP, #16384                  @ 0x4000 
    /*00000004*/ PUSH        {R4, R5, R6, R7, R8, R9, SL, FP, LR} 
    /*00000008*/ SUB         IP, SP, IP 
    /*0000000c*/ STR         R0, [IP, #4040]             @ 0xfc8 
    /*00000010*/ SUB         SP, SP, #20 
    /*00000014*/ SUBS        R3, R1, #0 
    /*00000018*/ STR         R3, [SP, #12] 
    /*0000001c*/ BEQ         _ZNSt8_Rb_treeIP16hiRUNTIME_BLOB_SSt4pairIKS1_7HI_BOOLESt10_Select1stIS5_ESt4lessIS1_ESaIS5_EE8_M_eraseEPSt13_Rb_tree_nodeIS5_E_x170
    /*00000020*/ MOV         R4, R0 
    _ZNSt8_Rb_treeIP16hiRUNTIME_BLOB_SSt4pairIKS1_7HI_BOOLESt10_Select1stIS5_ESt4lessIS1_ESaIS5_EE8_M_eraseEPSt13_Rb_tree_nodeIS5_E_x24:
    /*00000024*/ LDR         R7, [R3, #12] 
    /*00000028*/ CMP         R7, #0 
    /*0000002c*/ STRNE       R7, [SP, #4] 
    /*00000030*/ MOVNE       R3, R7 
    /*00000034*/ BEQ         _ZNSt8_Rb_treeIP16hiRUNTIME_BLOB_SSt4pairIKS1_7HI_BOOLESt10_Select1stIS5_ESt4lessIS1_ESaIS5_EE8_M_eraseEPSt13_Rb_tree_nodeIS5_E_x158
    _ZNSt8_Rb_treeIP16hiRUNTIME_BLOB_SSt4pairIKS1_7HI_BOOLESt10_Select1stIS5_ESt4lessIS1_ESaIS5_EE8_M_eraseEPSt13_Rb_tree_nodeIS5_E_x38:
    /*00000038*/ LDR         R8, [R3, #12] 
    /*0000003c*/ CMP         R8, #0 
    /*00000040*/ STRNE       R8, [SP, #8] 
    /*00000044*/ MOVNE       R3, R8 
    /*00000048*/ BEQ         _ZNSt8_Rb_treeIP16hiRUNTIME_BLOB_SSt4pairIKS1_7HI_BOOLESt10_Select1stIS5_ESt4lessIS1_ESaIS5_EE8_M_eraseEPSt13_Rb_tree_nodeIS5_E_x13c
    _ZNSt8_Rb_treeIP16hiRUNTIME_BLOB_SSt4pairIKS1_7HI_BOOLESt10_Select1stIS5_ESt4lessIS1_ESaIS5_EE8_M_eraseEPSt13_Rb_tree_nodeIS5_E_x4c:
    /*0000004c*/ LDR         R9, [R3, #12] 
    /*00000050*/ CMP         R9, #0 
    /*00000054*/ BEQ         _ZNSt8_Rb_treeIP16hiRUNTIME_BLOB_SSt4pairIKS1_7HI_BOOLESt10_Select1stIS5_ESt4lessIS1_ESaIS5_EE8_M_eraseEPSt13_Rb_tree_nodeIS5_E_x120
    _ZNSt8_Rb_treeIP16hiRUNTIME_BLOB_SSt4pairIKS1_7HI_BOOLESt10_Select1stIS5_ESt4lessIS1_ESaIS5_EE8_M_eraseEPSt13_Rb_tree_nodeIS5_E_x58:
    /*00000058*/ LDR         SL, [R9, #12] 
    /*0000005c*/ CMP         SL, #0 
    /*00000060*/ BEQ         _ZNSt8_Rb_treeIP16hiRUNTIME_BLOB_SSt4pairIKS1_7HI_BOOLESt10_Select1stIS5_ESt4lessIS1_ESaIS5_EE8_M_eraseEPSt13_Rb_tree_nodeIS5_E_x108
    _ZNSt8_Rb_treeIP16hiRUNTIME_BLOB_SSt4pairIKS1_7HI_BOOLESt10_Select1stIS5_ESt4lessIS1_ESaIS5_EE8_M_eraseEPSt13_Rb_tree_nodeIS5_E_x64:
    /*00000064*/ LDR         FP, [SL, #12] 
    /*00000068*/ CMP         FP, #0 
    /*0000006c*/ BEQ         _ZNSt8_Rb_treeIP16hiRUNTIME_BLOB_SSt4pairIKS1_7HI_BOOLESt10_Select1stIS5_ESt4lessIS1_ESaIS5_EE8_M_eraseEPSt13_Rb_tree_nodeIS5_E_xf4
    _ZNSt8_Rb_treeIP16hiRUNTIME_BLOB_SSt4pairIKS1_7HI_BOOLESt10_Select1stIS5_ESt4lessIS1_ESaIS5_EE8_M_eraseEPSt13_Rb_tree_nodeIS5_E_x70:
    /*00000070*/ LDR         R6, [FP, #12] 
    /*00000074*/ CMP         R6, #0 
    /*00000078*/ BEQ         _ZNSt8_Rb_treeIP16hiRUNTIME_BLOB_SSt4pairIKS1_7HI_BOOLESt10_Select1stIS5_ESt4lessIS1_ESaIS5_EE8_M_eraseEPSt13_Rb_tree_nodeIS5_E_xe0
    _ZNSt8_Rb_treeIP16hiRUNTIME_BLOB_SSt4pairIKS1_7HI_BOOLESt10_Select1stIS5_ESt4lessIS1_ESaIS5_EE8_M_eraseEPSt13_Rb_tree_nodeIS5_E_x7c:
    /*0000007c*/ LDR         R5, [R6, #12] 
    /*00000080*/ CMP         R5, #0 
    /*00000084*/ BEQ         _ZNSt8_Rb_treeIP16hiRUNTIME_BLOB_SSt4pairIKS1_7HI_BOOLESt10_Select1stIS5_ESt4lessIS1_ESaIS5_EE8_M_eraseEPSt13_Rb_tree_nodeIS5_E_xcc
    _ZNSt8_Rb_treeIP16hiRUNTIME_BLOB_SSt4pairIKS1_7HI_BOOLESt10_Select1stIS5_ESt4lessIS1_ESaIS5_EE8_M_eraseEPSt13_Rb_tree_nodeIS5_E_x88:
    /*00000088*/ LDR         R3, [R5, #12] 
    /*0000008c*/ CMP         R3, #0 
    /*00000090*/ MOVNE       R7, R3 
    /*00000094*/ BEQ         _ZNSt8_Rb_treeIP16hiRUNTIME_BLOB_SSt4pairIKS1_7HI_BOOLESt10_Select1stIS5_ESt4lessIS1_ESaIS5_EE8_M_eraseEPSt13_Rb_tree_nodeIS5_E_xb8
    _ZNSt8_Rb_treeIP16hiRUNTIME_BLOB_SSt4pairIKS1_7HI_BOOLESt10_Select1stIS5_ESt4lessIS1_ESaIS5_EE8_M_eraseEPSt13_Rb_tree_nodeIS5_E_x98:
    /*00000098*/ LDR         R1, [R7, #12] 
    /*0000009c*/ MOV         R0, R4 
    /*000000a0*/ BL          _ZNSt8_Rb_treeIP16hiRUNTIME_BLOB_SSt4pairIKS1_7HI_BOOLESt10_Select1stIS5_ESt4lessIS1_ESaIS5_EE8_M_eraseEPSt13_Rb_tree_nodeIS5_E
    /*000000a4*/ LDR         R8, [R7, #8] 
    /*000000a8*/ MOV         R0, R7 
    /*000000ac*/ BL          _ZdlPv
    /*000000b0*/ SUBS        R7, R8, #0 
    /*000000b4*/ BNE         _ZNSt8_Rb_treeIP16hiRUNTIME_BLOB_SSt4pairIKS1_7HI_BOOLESt10_Select1stIS5_ESt4lessIS1_ESaIS5_EE8_M_eraseEPSt13_Rb_tree_nodeIS5_E_x98
    _ZNSt8_Rb_treeIP16hiRUNTIME_BLOB_SSt4pairIKS1_7HI_BOOLESt10_Select1stIS5_ESt4lessIS1_ESaIS5_EE8_M_eraseEPSt13_Rb_tree_nodeIS5_E_xb8:
    /*000000b8*/ LDR         R7, [R5, #8] 
    /*000000bc*/ MOV         R0, R5 
    /*000000c0*/ BL          _ZdlPv
    /*000000c4*/ SUBS        R5, R7, #0 
    /*000000c8*/ BNE         _ZNSt8_Rb_treeIP16hiRUNTIME_BLOB_SSt4pairIKS1_7HI_BOOLESt10_Select1stIS5_ESt4lessIS1_ESaIS5_EE8_M_eraseEPSt13_Rb_tree_nodeIS5_E_x88
    _ZNSt8_Rb_treeIP16hiRUNTIME_BLOB_SSt4pairIKS1_7HI_BOOLESt10_Select1stIS5_ESt4lessIS1_ESaIS5_EE8_M_eraseEPSt13_Rb_tree_nodeIS5_E_xcc:
    /*000000cc*/ LDR         R5, [R6, #8] 
    /*000000d0*/ MOV         R0, R6 
    /*000000d4*/ BL          _ZdlPv
    /*000000d8*/ SUBS        R6, R5, #0 
    /*000000dc*/ BNE         _ZNSt8_Rb_treeIP16hiRUNTIME_BLOB_SSt4pairIKS1_7HI_BOOLESt10_Select1stIS5_ESt4lessIS1_ESaIS5_EE8_M_eraseEPSt13_Rb_tree_nodeIS5_E_x7c
    _ZNSt8_Rb_treeIP16hiRUNTIME_BLOB_SSt4pairIKS1_7HI_BOOLESt10_Select1stIS5_ESt4lessIS1_ESaIS5_EE8_M_eraseEPSt13_Rb_tree_nodeIS5_E_xe0:
    /*000000e0*/ LDR         R5, [FP, #8] 
    /*000000e4*/ MOV         R0, FP 
    /*000000e8*/ BL          _ZdlPv
    /*000000ec*/ SUBS        FP, R5, #0 
    /*000000f0*/ BNE         _ZNSt8_Rb_treeIP16hiRUNTIME_BLOB_SSt4pairIKS1_7HI_BOOLESt10_Select1stIS5_ESt4lessIS1_ESaIS5_EE8_M_eraseEPSt13_Rb_tree_nodeIS5_E_x70
    _ZNSt8_Rb_treeIP16hiRUNTIME_BLOB_SSt4pairIKS1_7HI_BOOLESt10_Select1stIS5_ESt4lessIS1_ESaIS5_EE8_M_eraseEPSt13_Rb_tree_nodeIS5_E_xf4:
    /*000000f4*/ LDR         R5, [SL, #8] 
    /*000000f8*/ MOV         R0, SL 
    /*000000fc*/ BL          _ZdlPv
    /*00000100*/ SUBS        SL, R5, #0 
    /*00000104*/ BNE         _ZNSt8_Rb_treeIP16hiRUNTIME_BLOB_SSt4pairIKS1_7HI_BOOLESt10_Select1stIS5_ESt4lessIS1_ESaIS5_EE8_M_eraseEPSt13_Rb_tree_nodeIS5_E_x64
    _ZNSt8_Rb_treeIP16hiRUNTIME_BLOB_SSt4pairIKS1_7HI_BOOLESt10_Select1stIS5_ESt4lessIS1_ESaIS5_EE8_M_eraseEPSt13_Rb_tree_nodeIS5_E_x108:
    /*00000108*/ LDR         R5, [R9, #8] 
    /*0000010c*/ MOV         R0, R9 
    /*00000110*/ BL          _ZdlPv
    /*00000114*/ SUBS        R9, R5, #0 
    /*00000118*/ BNE         _ZNSt8_Rb_treeIP16hiRUNTIME_BLOB_SSt4pairIKS1_7HI_BOOLESt10_Select1stIS5_ESt4lessIS1_ESaIS5_EE8_M_eraseEPSt13_Rb_tree_nodeIS5_E_x58
    /*0000011c*/ LDR         R3, [SP, #8] 
    _ZNSt8_Rb_treeIP16hiRUNTIME_BLOB_SSt4pairIKS1_7HI_BOOLESt10_Select1stIS5_ESt4lessIS1_ESaIS5_EE8_M_eraseEPSt13_Rb_tree_nodeIS5_E_x120:
    /*00000120*/ LDR         R5, [R3, #8] 
    /*00000124*/ MOV         R0, R3 
    /*00000128*/ BL          _ZdlPv
    /*0000012c*/ SUBS        R3, R5, #0 
    /*00000130*/ STR         R3, [SP, #8] 
    /*00000134*/ BNE         _ZNSt8_Rb_treeIP16hiRUNTIME_BLOB_SSt4pairIKS1_7HI_BOOLESt10_Select1stIS5_ESt4lessIS1_ESaIS5_EE8_M_eraseEPSt13_Rb_tree_nodeIS5_E_x4c
    /*00000138*/ LDR         R3, [SP, #4] 
    _ZNSt8_Rb_treeIP16hiRUNTIME_BLOB_SSt4pairIKS1_7HI_BOOLESt10_Select1stIS5_ESt4lessIS1_ESaIS5_EE8_M_eraseEPSt13_Rb_tree_nodeIS5_E_x13c:
    /*0000013c*/ LDR         R5, [R3, #8] 
    /*00000140*/ MOV         R0, R3 
    /*00000144*/ BL          _ZdlPv
    /*00000148*/ SUBS        R3, R5, #0 
    /*0000014c*/ STR         R3, [SP, #4] 
    /*00000150*/ BNE         _ZNSt8_Rb_treeIP16hiRUNTIME_BLOB_SSt4pairIKS1_7HI_BOOLESt10_Select1stIS5_ESt4lessIS1_ESaIS5_EE8_M_eraseEPSt13_Rb_tree_nodeIS5_E_x38
    /*00000154*/ LDR         R3, [SP, #12] 
    _ZNSt8_Rb_treeIP16hiRUNTIME_BLOB_SSt4pairIKS1_7HI_BOOLESt10_Select1stIS5_ESt4lessIS1_ESaIS5_EE8_M_eraseEPSt13_Rb_tree_nodeIS5_E_x158:
    /*00000158*/ LDR         R5, [R3, #8] 
    /*0000015c*/ MOV         R0, R3 
    /*00000160*/ BL          _ZdlPv
    /*00000164*/ SUBS        R3, R5, #0 
    /*00000168*/ STR         R3, [SP, #12] 
    /*0000016c*/ BNE         _ZNSt8_Rb_treeIP16hiRUNTIME_BLOB_SSt4pairIKS1_7HI_BOOLESt10_Select1stIS5_ESt4lessIS1_ESaIS5_EE8_M_eraseEPSt13_Rb_tree_nodeIS5_E_x24
    _ZNSt8_Rb_treeIP16hiRUNTIME_BLOB_SSt4pairIKS1_7HI_BOOLESt10_Select1stIS5_ESt4lessIS1_ESaIS5_EE8_M_eraseEPSt13_Rb_tree_nodeIS5_E_x170:
    /*00000170*/ ADD         SP, SP, #20 
    /*00000174*/ POP         {R4, R5, R6, R7, R8, R9, SL, FP, PC} 
FUNC_END _ZNSt8_Rb_treeIP16hiRUNTIME_BLOB_SSt4pairIKS1_7HI_BOOLESt10_Select1stIS5_ESt4lessIS1_ESaIS5_EE8_M_eraseEPSt13_Rb_tree_nodeIS5_E


@ - - - - - - - - - - - - - - - - - - - - - - - - - - - - - 
@ .text._ZN4hirt14ModelGroupTaskD2Ev
@ Size: 0x254
@ - - - - - - - - - - - - - - - - - - - - - - - - - - - - - 

FUNC_BEGIN _ZN4hirt14ModelGroupTaskD2Ev
    /*00000000*/ MOV         IP, #16384                  @ 0x4000 
    /*00000004*/ PUSH        {R4, R5, R6, R7, R8, LR} 
    /*00000008*/ SUB         IP, SP, IP 
    /*0000000c*/ STR         R0, [IP, #4072]             @ 0xfe8 
    /*00000010*/ LDR         R3, WORD_0250               @ LDR         R3, [PC, #568]              @ 0x0000000000000250 
    /*00000014*/ ADD         R6, R0, #152                @ 0x98 
    /*00000018*/ LDR         R4, [R0, #160]              @ 0xa0 
    /*0000001c*/ MOV         R5, R0 
    /*00000020*/ ADD         R3, PC, R3 
    /*00000024*/ CMP         R4, R6 
    /*00000028*/ ADD         R3, R3, #8 
    /*0000002c*/ STR         R3, [R0] 
    /*00000030*/ BNE         _ZN4hirt14ModelGroupTaskD2Ev_x4c
    /*00000034*/ B           _ZN4hirt14ModelGroupTaskD2Ev_x70
    _ZN4hirt14ModelGroupTaskD2Ev_x38:
    /*00000038*/ MOV         R0, R4 
    /*0000003c*/ BL          _ZSt18_Rb_tree_incrementPSt18_Rb_tree_node_base
    /*00000040*/ CMP         R0, R6 
    /*00000044*/ MOV         R4, R0 
    /*00000048*/ BEQ         _ZN4hirt14ModelGroupTaskD2Ev_x70
    _ZN4hirt14ModelGroupTaskD2Ev_x4c:
    /*0000004c*/ LDR         R3, [R4, #20] 
    /*00000050*/ CMP         R3, #1 
    /*00000054*/ BNE         _ZN4hirt14ModelGroupTaskD2Ev_x38
    /*00000058*/ LDR         R0, [R4, #16] 
    /*0000005c*/ MOV         R1, #48                     @ 0x30 
    /*00000060*/ CMP         R0, #0 
    /*00000064*/ BEQ         _ZN4hirt14ModelGroupTaskD2Ev_x38
    /*00000068*/ BL          _ZdlPvj
    /*0000006c*/ B           _ZN4hirt14ModelGroupTaskD2Ev_x38
    _ZN4hirt14ModelGroupTaskD2Ev_x70:
    /*00000070*/ LDR         R0, [R5, #144]              @ 0x90 
    /*00000074*/ CMP         R0, #0 
    /*00000078*/ BEQ         _ZN4hirt14ModelGroupTaskD2Ev_xac
    /*0000007c*/ LDR         R3, [R0, #4] 
    /*00000080*/ CMP         R3, #0 
    /*00000084*/ BEQ         _ZN4hirt14ModelGroupTaskD2Ev_x9c
    /*00000088*/ MOV         R0, R3 
    /*0000008c*/ BL          _ZdaPv
    /*00000090*/ LDR         R0, [R5, #144]              @ 0x90 
    /*00000094*/ MOV         R3, #0 
    /*00000098*/ STR         R3, [R0, #4] 
    _ZN4hirt14ModelGroupTaskD2Ev_x9c:
    /*0000009c*/ MOV         R1, #8 
    /*000000a0*/ BL          _ZdlPvj
    /*000000a4*/ MOV         R3, #0 
    /*000000a8*/ STR         R3, [R5, #144]              @ 0x90 
    _ZN4hirt14ModelGroupTaskD2Ev_xac:
    /*000000ac*/ LDR         R4, [R5, #8] 
    /*000000b0*/ LDR         R3, [R5, #12] 
    /*000000b4*/ CMP         R3, R4 
    /*000000b8*/ ADDNE       R6, R4, #4 
    /*000000bc*/ MOVNE       R7, #0 
    /*000000c0*/ BNE         _ZN4hirt14ModelGroupTaskD2Ev_xd8
    /*000000c4*/ B           _ZN4hirt14ModelGroupTaskD2Ev_x12c
    _ZN4hirt14ModelGroupTaskD2Ev_xc8:
    /*000000c8*/ SUB         R3, R3, #4 
    /*000000cc*/ CMP         R4, R3 
    /*000000d0*/ STR         R3, [R5, #12] 
    /*000000d4*/ BEQ         _ZN4hirt14ModelGroupTaskD2Ev_x12c
    _ZN4hirt14ModelGroupTaskD2Ev_xd8:
    /*000000d8*/ LDR         R2, [R4] 
    /*000000dc*/ SUBS        R0, R2, #0 
    /*000000e0*/ BEQ         _ZN4hirt14ModelGroupTaskD2Ev_xf8
    /*000000e4*/ LDR         R3, [R2] 
    /*000000e8*/ LDR         R3, [R3, #4] 
    /*000000ec*/ BLX         R3 
    /*000000f0*/ LDR         R3, [R5, #12] 
    /*000000f4*/ STR         R7, [R4] 
    _ZN4hirt14ModelGroupTaskD2Ev_xf8:
    /*000000f8*/ CMP         R3, R6 
    /*000000fc*/ SUB         R2, R3, R6 
    /*00000100*/ BEQ         _ZN4hirt14ModelGroupTaskD2Ev_xc8
    /*00000104*/ LSRS        R1, R2, #2 
    /*00000108*/ BEQ         _ZN4hirt14ModelGroupTaskD2Ev_xc8
    /*0000010c*/ MOV         R1, R6 
    /*00000110*/ MOV         R0, R4 
    /*00000114*/ BL          memmove
    /*00000118*/ LDR         R3, [R5, #12] 
    /*0000011c*/ SUB         R3, R3, #4 
    /*00000120*/ CMP         R4, R3 
    /*00000124*/ STR         R3, [R5, #12] 
    /*00000128*/ BNE         _ZN4hirt14ModelGroupTaskD2Ev_xd8
    _ZN4hirt14ModelGroupTaskD2Ev_x12c:
    /*0000012c*/ LDR         R4, [R5, #60]               @ 0x3c 
    /*00000130*/ ADD         R7, R5, #52                 @ 0x34 
    /*00000134*/ CMP         R4, R7 
    /*00000138*/ MOVNE       R6, #0 
    /*0000013c*/ BEQ         _ZN4hirt14ModelGroupTaskD2Ev_x184
    _ZN4hirt14ModelGroupTaskD2Ev_x140:
    /*00000140*/ LDR         R3, [R4, #40]               @ 0x28 
    /*00000144*/ CMP         R3, #0 
    /*00000148*/ BEQ         _ZN4hirt14ModelGroupTaskD2Ev_x170
    /*0000014c*/ LDR         R2, [R3, #4] 
    /*00000150*/ SUBS        R0, R2, #0 
    /*00000154*/ BEQ         _ZN4hirt14ModelGroupTaskD2Ev_x164
    /*00000158*/ BL          free
    /*0000015c*/ LDR         R3, [R4, #40]               @ 0x28 
    /*00000160*/ STR         R6, [R3, #4] 
    _ZN4hirt14ModelGroupTaskD2Ev_x164:
    /*00000164*/ MOV         R0, R3 
    /*00000168*/ BL          free
    /*0000016c*/ STR         R6, [R4, #40]               @ 0x28 
    _ZN4hirt14ModelGroupTaskD2Ev_x170:
    /*00000170*/ MOV         R0, R4 
    /*00000174*/ BL          _ZSt18_Rb_tree_incrementPSt18_Rb_tree_node_base
    /*00000178*/ CMP         R0, R7 
    /*0000017c*/ MOV         R4, R0 
    /*00000180*/ BNE         _ZN4hirt14ModelGroupTaskD2Ev_x140
    _ZN4hirt14ModelGroupTaskD2Ev_x184:
    /*00000184*/ LDR         R4, [R5, #84]               @ 0x54 
    /*00000188*/ ADD         R7, R5, #76                 @ 0x4c 
    /*0000018c*/ CMP         R7, R4 
    /*00000190*/ MOVNE       R6, #0 
    /*00000194*/ BEQ         _ZN4hirt14ModelGroupTaskD2Ev_x1dc
    _ZN4hirt14ModelGroupTaskD2Ev_x198:
    /*00000198*/ LDR         R3, [R4, #40]               @ 0x28 
    /*0000019c*/ CMP         R3, #0 
    /*000001a0*/ BEQ         _ZN4hirt14ModelGroupTaskD2Ev_x1c8
    /*000001a4*/ LDR         R2, [R3, #4] 
    /*000001a8*/ SUBS        R0, R2, #0 
    /*000001ac*/ BEQ         _ZN4hirt14ModelGroupTaskD2Ev_x1bc
    /*000001b0*/ BL          free
    /*000001b4*/ LDR         R3, [R4, #40]               @ 0x28 
    /*000001b8*/ STR         R6, [R3, #4] 
    _ZN4hirt14ModelGroupTaskD2Ev_x1bc:
    /*000001bc*/ MOV         R0, R3 
    /*000001c0*/ BL          free
    /*000001c4*/ STR         R6, [R4, #40]               @ 0x28 
    _ZN4hirt14ModelGroupTaskD2Ev_x1c8:
    /*000001c8*/ MOV         R0, R4 
    /*000001cc*/ BL          _ZSt18_Rb_tree_incrementPSt18_Rb_tree_node_base
    /*000001d0*/ CMP         R7, R0 
    /*000001d4*/ MOV         R4, R0 
    /*000001d8*/ BNE         _ZN4hirt14ModelGroupTaskD2Ev_x198
    _ZN4hirt14ModelGroupTaskD2Ev_x1dc:
    /*000001dc*/ LDR         R0, [R5, #176]              @ 0xb0 
    /*000001e0*/ CMP         R0, #0 
    /*000001e4*/ BEQ         _ZN4hirt14ModelGroupTaskD2Ev_x1ec
    /*000001e8*/ BL          _ZdlPv
    _ZN4hirt14ModelGroupTaskD2Ev_x1ec:
    /*000001ec*/ LDR         R1, [R5, #156]              @ 0x9c 
    /*000001f0*/ ADD         R0, R5, #148                @ 0x94 
    /*000001f4*/ BL          _ZNSt8_Rb_treeIP16hiRUNTIME_BLOB_SSt4pairIKS1_7HI_BOOLESt10_Select1stIS5_ESt4lessIS1_ESaIS5_EE8_M_eraseEPSt13_Rb_tree_nodeIS5_E
    /*000001f8*/ LDR         R1, [R5, #128]              @ 0x80 
    /*000001fc*/ ADD         R0, R5, #120                @ 0x78 
    /*00000200*/ BL          _ZNSt8_Rb_treeIP16hiRUNTIME_BLOB_SSt4pairIKS1_NSt7__cxx1112basic_stringIcSt11char_traitsIcESaIcEEEESt10_Select1stISA_ESt4lessIS1_ESaISA_EE8_M_eraseEPSt13_Rb_tree_nodeISA_E
    /*00000204*/ LDR         R1, [R5, #104]              @ 0x68 
    /*00000208*/ ADD         R0, R5, #96                 @ 0x60 
    /*0000020c*/ BL          _ZNSt8_Rb_treeINSt7__cxx1112basic_stringIcSt11char_traitsIcESaIcEEESt4pairIKS5_NS0_4listIP16hiRUNTIME_BLOB_SSaISA_EEEESt10_Select1stISD_ESt4lessIS5_ESaISD_EE8_M_eraseEPSt13_Rb_tree_nodeISD_E
    /*00000210*/ LDR         R1, [R5, #80]               @ 0x50 
    /*00000214*/ ADD         R0, R5, #72                 @ 0x48 
    /*00000218*/ BL          _ZNSt8_Rb_treeINSt7__cxx1112basic_stringIcSt11char_traitsIcESaIcEEESt4pairIKS5_P26hiRUNTIME_SRC_BLOB_ARRAY_SESt10_Select1stISA_ESt4lessIS5_ESaISA_EE8_M_eraseEPSt13_Rb_tree_nodeISA_E
    /*0000021c*/ LDR         R1, [R5, #56]               @ 0x38 
    /*00000220*/ ADD         R0, R5, #48                 @ 0x30 
    /*00000224*/ BL          _ZNSt8_Rb_treeINSt7__cxx1112basic_stringIcSt11char_traitsIcESaIcEEESt4pairIKS5_P26hiRUNTIME_SRC_BLOB_ARRAY_SESt10_Select1stISA_ESt4lessIS5_ESaISA_EE8_M_eraseEPSt13_Rb_tree_nodeISA_E
    /*00000228*/ LDR         R0, [R5, #20] 
    /*0000022c*/ CMP         R0, #0 
    /*00000230*/ BEQ         _ZN4hirt14ModelGroupTaskD2Ev_x238
    /*00000234*/ BL          _ZdlPv
    _ZN4hirt14ModelGroupTaskD2Ev_x238:
    /*00000238*/ LDR         R0, [R5, #8] 
    /*0000023c*/ CMP         R0, #0 
    /*00000240*/ BEQ         _ZN4hirt14ModelGroupTaskD2Ev_x248
    /*00000244*/ BL          _ZdlPv
    _ZN4hirt14ModelGroupTaskD2Ev_x248:
    /*00000248*/ MOV         R0, R5 
    /*0000024c*/ POP         {R4, R5, R6, R7, R8, PC} 
    /*00000250*/ WORD_0250: .word 0x00000228
FUNC_END _ZN4hirt14ModelGroupTaskD2Ev


FUNC_BEGIN _ZN4hirt14ModelGroupTaskD1Ev
    /*00000000*/ MOV         IP, #16384                  @ 0x4000 
    /*00000004*/ PUSH        {R4, R5, R6, R7, R8, LR} 
    /*00000008*/ SUB         IP, SP, IP 
    /*0000000c*/ STR         R0, [IP, #4072]             @ 0xfe8 
    /*00000010*/ LDR         R3, WORD_0250               @ LDR         R3, [PC, #568]              @ 0x0000000000000250 
    /*00000014*/ ADD         R6, R0, #152                @ 0x98 
    /*00000018*/ LDR         R4, [R0, #160]              @ 0xa0 
    /*0000001c*/ MOV         R5, R0 
    /*00000020*/ ADD         R3, PC, R3 
    /*00000024*/ CMP         R4, R6 
    /*00000028*/ ADD         R3, R3, #8 
    /*0000002c*/ STR         R3, [R0] 
    /*00000030*/ BNE         _ZN4hirt14ModelGroupTaskD1Ev_x4c
    /*00000034*/ B           _ZN4hirt14ModelGroupTaskD1Ev_x70
    _ZN4hirt14ModelGroupTaskD1Ev_x38:
    /*00000038*/ MOV         R0, R4 
    /*0000003c*/ BL          _ZSt18_Rb_tree_incrementPSt18_Rb_tree_node_base
    /*00000040*/ CMP         R0, R6 
    /*00000044*/ MOV         R4, R0 
    /*00000048*/ BEQ         _ZN4hirt14ModelGroupTaskD1Ev_x70
    _ZN4hirt14ModelGroupTaskD1Ev_x4c:
    /*0000004c*/ LDR         R3, [R4, #20] 
    /*00000050*/ CMP         R3, #1 
    /*00000054*/ BNE         _ZN4hirt14ModelGroupTaskD1Ev_x38
    /*00000058*/ LDR         R0, [R4, #16] 
    /*0000005c*/ MOV         R1, #48                     @ 0x30 
    /*00000060*/ CMP         R0, #0 
    /*00000064*/ BEQ         _ZN4hirt14ModelGroupTaskD1Ev_x38
    /*00000068*/ BL          _ZdlPvj
    /*0000006c*/ B           _ZN4hirt14ModelGroupTaskD1Ev_x38
    _ZN4hirt14ModelGroupTaskD1Ev_x70:
    /*00000070*/ LDR         R0, [R5, #144]              @ 0x90 
    /*00000074*/ CMP         R0, #0 
    /*00000078*/ BEQ         _ZN4hirt14ModelGroupTaskD1Ev_xac
    /*0000007c*/ LDR         R3, [R0, #4] 
    /*00000080*/ CMP         R3, #0 
    /*00000084*/ BEQ         _ZN4hirt14ModelGroupTaskD1Ev_x9c
    /*00000088*/ MOV         R0, R3 
    /*0000008c*/ BL          _ZdaPv
    /*00000090*/ LDR         R0, [R5, #144]              @ 0x90 
    /*00000094*/ MOV         R3, #0 
    /*00000098*/ STR         R3, [R0, #4] 
    _ZN4hirt14ModelGroupTaskD1Ev_x9c:
    /*0000009c*/ MOV         R1, #8 
    /*000000a0*/ BL          _ZdlPvj
    /*000000a4*/ MOV         R3, #0 
    /*000000a8*/ STR         R3, [R5, #144]              @ 0x90 
    _ZN4hirt14ModelGroupTaskD1Ev_xac:
    /*000000ac*/ LDR         R4, [R5, #8] 
    /*000000b0*/ LDR         R3, [R5, #12] 
    /*000000b4*/ CMP         R3, R4 
    /*000000b8*/ ADDNE       R6, R4, #4 
    /*000000bc*/ MOVNE       R7, #0 
    /*000000c0*/ BNE         _ZN4hirt14ModelGroupTaskD1Ev_xd8
    /*000000c4*/ B           _ZN4hirt14ModelGroupTaskD1Ev_x12c
    _ZN4hirt14ModelGroupTaskD1Ev_xc8:
    /*000000c8*/ SUB         R3, R3, #4 
    /*000000cc*/ CMP         R4, R3 
    /*000000d0*/ STR         R3, [R5, #12] 
    /*000000d4*/ BEQ         _ZN4hirt14ModelGroupTaskD1Ev_x12c
    _ZN4hirt14ModelGroupTaskD1Ev_xd8:
    /*000000d8*/ LDR         R2, [R4] 
    /*000000dc*/ SUBS        R0, R2, #0 
    /*000000e0*/ BEQ         _ZN4hirt14ModelGroupTaskD1Ev_xf8
    /*000000e4*/ LDR         R3, [R2] 
    /*000000e8*/ LDR         R3, [R3, #4] 
    /*000000ec*/ BLX         R3 
    /*000000f0*/ LDR         R3, [R5, #12] 
    /*000000f4*/ STR         R7, [R4] 
    _ZN4hirt14ModelGroupTaskD1Ev_xf8:
    /*000000f8*/ CMP         R3, R6 
    /*000000fc*/ SUB         R2, R3, R6 
    /*00000100*/ BEQ         _ZN4hirt14ModelGroupTaskD1Ev_xc8
    /*00000104*/ LSRS        R1, R2, #2 
    /*00000108*/ BEQ         _ZN4hirt14ModelGroupTaskD1Ev_xc8
    /*0000010c*/ MOV         R1, R6 
    /*00000110*/ MOV         R0, R4 
    /*00000114*/ BL          memmove
    /*00000118*/ LDR         R3, [R5, #12] 
    /*0000011c*/ SUB         R3, R3, #4 
    /*00000120*/ CMP         R4, R3 
    /*00000124*/ STR         R3, [R5, #12] 
    /*00000128*/ BNE         _ZN4hirt14ModelGroupTaskD1Ev_xd8
    _ZN4hirt14ModelGroupTaskD1Ev_x12c:
    /*0000012c*/ LDR         R4, [R5, #60]               @ 0x3c 
    /*00000130*/ ADD         R7, R5, #52                 @ 0x34 
    /*00000134*/ CMP         R4, R7 
    /*00000138*/ MOVNE       R6, #0 
    /*0000013c*/ BEQ         _ZN4hirt14ModelGroupTaskD1Ev_x184
    _ZN4hirt14ModelGroupTaskD1Ev_x140:
    /*00000140*/ LDR         R3, [R4, #40]               @ 0x28 
    /*00000144*/ CMP         R3, #0 
    /*00000148*/ BEQ         _ZN4hirt14ModelGroupTaskD1Ev_x170
    /*0000014c*/ LDR         R2, [R3, #4] 
    /*00000150*/ SUBS        R0, R2, #0 
    /*00000154*/ BEQ         _ZN4hirt14ModelGroupTaskD1Ev_x164
    /*00000158*/ BL          free
    /*0000015c*/ LDR         R3, [R4, #40]               @ 0x28 
    /*00000160*/ STR         R6, [R3, #4] 
    _ZN4hirt14ModelGroupTaskD1Ev_x164:
    /*00000164*/ MOV         R0, R3 
    /*00000168*/ BL          free
    /*0000016c*/ STR         R6, [R4, #40]               @ 0x28 
    _ZN4hirt14ModelGroupTaskD1Ev_x170:
    /*00000170*/ MOV         R0, R4 
    /*00000174*/ BL          _ZSt18_Rb_tree_incrementPSt18_Rb_tree_node_base
    /*00000178*/ CMP         R0, R7 
    /*0000017c*/ MOV         R4, R0 
    /*00000180*/ BNE         _ZN4hirt14ModelGroupTaskD1Ev_x140
    _ZN4hirt14ModelGroupTaskD1Ev_x184:
    /*00000184*/ LDR         R4, [R5, #84]               @ 0x54 
    /*00000188*/ ADD         R7, R5, #76                 @ 0x4c 
    /*0000018c*/ CMP         R7, R4 
    /*00000190*/ MOVNE       R6, #0 
    /*00000194*/ BEQ         _ZN4hirt14ModelGroupTaskD1Ev_x1dc
    _ZN4hirt14ModelGroupTaskD1Ev_x198:
    /*00000198*/ LDR         R3, [R4, #40]               @ 0x28 
    /*0000019c*/ CMP         R3, #0 
    /*000001a0*/ BEQ         _ZN4hirt14ModelGroupTaskD1Ev_x1c8
    /*000001a4*/ LDR         R2, [R3, #4] 
    /*000001a8*/ SUBS        R0, R2, #0 
    /*000001ac*/ BEQ         _ZN4hirt14ModelGroupTaskD1Ev_x1bc
    /*000001b0*/ BL          free
    /*000001b4*/ LDR         R3, [R4, #40]               @ 0x28 
    /*000001b8*/ STR         R6, [R3, #4] 
    _ZN4hirt14ModelGroupTaskD1Ev_x1bc:
    /*000001bc*/ MOV         R0, R3 
    /*000001c0*/ BL          free
    /*000001c4*/ STR         R6, [R4, #40]               @ 0x28 
    _ZN4hirt14ModelGroupTaskD1Ev_x1c8:
    /*000001c8*/ MOV         R0, R4 
    /*000001cc*/ BL          _ZSt18_Rb_tree_incrementPSt18_Rb_tree_node_base
    /*000001d0*/ CMP         R7, R0 
    /*000001d4*/ MOV         R4, R0 
    /*000001d8*/ BNE         _ZN4hirt14ModelGroupTaskD1Ev_x198
    _ZN4hirt14ModelGroupTaskD1Ev_x1dc:
    /*000001dc*/ LDR         R0, [R5, #176]              @ 0xb0 
    /*000001e0*/ CMP         R0, #0 
    /*000001e4*/ BEQ         _ZN4hirt14ModelGroupTaskD1Ev_x1ec
    /*000001e8*/ BL          _ZdlPv
    _ZN4hirt14ModelGroupTaskD1Ev_x1ec:
    /*000001ec*/ LDR         R1, [R5, #156]              @ 0x9c 
    /*000001f0*/ ADD         R0, R5, #148                @ 0x94 
    /*000001f4*/ BL          _ZNSt8_Rb_treeIP16hiRUNTIME_BLOB_SSt4pairIKS1_7HI_BOOLESt10_Select1stIS5_ESt4lessIS1_ESaIS5_EE8_M_eraseEPSt13_Rb_tree_nodeIS5_E
    /*000001f8*/ LDR         R1, [R5, #128]              @ 0x80 
    /*000001fc*/ ADD         R0, R5, #120                @ 0x78 
    /*00000200*/ BL          _ZNSt8_Rb_treeIP16hiRUNTIME_BLOB_SSt4pairIKS1_NSt7__cxx1112basic_stringIcSt11char_traitsIcESaIcEEEESt10_Select1stISA_ESt4lessIS1_ESaISA_EE8_M_eraseEPSt13_Rb_tree_nodeISA_E
    /*00000204*/ LDR         R1, [R5, #104]              @ 0x68 
    /*00000208*/ ADD         R0, R5, #96                 @ 0x60 
    /*0000020c*/ BL          _ZNSt8_Rb_treeINSt7__cxx1112basic_stringIcSt11char_traitsIcESaIcEEESt4pairIKS5_NS0_4listIP16hiRUNTIME_BLOB_SSaISA_EEEESt10_Select1stISD_ESt4lessIS5_ESaISD_EE8_M_eraseEPSt13_Rb_tree_nodeISD_E
    /*00000210*/ LDR         R1, [R5, #80]               @ 0x50 
    /*00000214*/ ADD         R0, R5, #72                 @ 0x48 
    /*00000218*/ BL          _ZNSt8_Rb_treeINSt7__cxx1112basic_stringIcSt11char_traitsIcESaIcEEESt4pairIKS5_P26hiRUNTIME_SRC_BLOB_ARRAY_SESt10_Select1stISA_ESt4lessIS5_ESaISA_EE8_M_eraseEPSt13_Rb_tree_nodeISA_E
    /*0000021c*/ LDR         R1, [R5, #56]               @ 0x38 
    /*00000220*/ ADD         R0, R5, #48                 @ 0x30 
    /*00000224*/ BL          _ZNSt8_Rb_treeINSt7__cxx1112basic_stringIcSt11char_traitsIcESaIcEEESt4pairIKS5_P26hiRUNTIME_SRC_BLOB_ARRAY_SESt10_Select1stISA_ESt4lessIS5_ESaISA_EE8_M_eraseEPSt13_Rb_tree_nodeISA_E
    /*00000228*/ LDR         R0, [R5, #20] 
    /*0000022c*/ CMP         R0, #0 
    /*00000230*/ BEQ         _ZN4hirt14ModelGroupTaskD1Ev_x238
    /*00000234*/ BL          _ZdlPv
    _ZN4hirt14ModelGroupTaskD1Ev_x238:
    /*00000238*/ LDR         R0, [R5, #8] 
    /*0000023c*/ CMP         R0, #0 
    /*00000240*/ BEQ         _ZN4hirt14ModelGroupTaskD1Ev_x248
    /*00000244*/ BL          _ZdlPv
    _ZN4hirt14ModelGroupTaskD1Ev_x248:
    /*00000248*/ MOV         R0, R5 
    /*0000024c*/ POP         {R4, R5, R6, R7, R8, PC} 
    /*00000250*/ WORD_0250: .word 0x00000228
FUNC_END _ZN4hirt14ModelGroupTaskD1Ev


@ - - - - - - - - - - - - - - - - - - - - - - - - - - - - - 
@ .text._ZN4hirt14ModelGroupTaskD0Ev
@ Size: 0x260
@ - - - - - - - - - - - - - - - - - - - - - - - - - - - - - 

FUNC_BEGIN _ZN4hirt14ModelGroupTaskD0Ev
    /*00000000*/ MOV         IP, #16384                  @ 0x4000 
    /*00000004*/ PUSH        {R4, R5, R6, R7, R8, LR} 
    /*00000008*/ SUB         IP, SP, IP 
    /*0000000c*/ STR         R0, [IP, #4072]             @ 0xfe8 
    /*00000010*/ LDR         R3, WORD_025c               @ LDR         R3, [PC, #580]              @ 0x000000000000025c 
    /*00000014*/ ADD         R6, R0, #152                @ 0x98 
    /*00000018*/ LDR         R4, [R0, #160]              @ 0xa0 
    /*0000001c*/ MOV         R5, R0 
    /*00000020*/ ADD         R3, PC, R3 
    /*00000024*/ CMP         R4, R6 
    /*00000028*/ ADD         R3, R3, #8 
    /*0000002c*/ STR         R3, [R0] 
    /*00000030*/ BNE         _ZN4hirt14ModelGroupTaskD0Ev_x4c
    /*00000034*/ B           _ZN4hirt14ModelGroupTaskD0Ev_x70
    _ZN4hirt14ModelGroupTaskD0Ev_x38:
    /*00000038*/ MOV         R0, R4 
    /*0000003c*/ BL          _ZSt18_Rb_tree_incrementPSt18_Rb_tree_node_base
    /*00000040*/ CMP         R0, R6 
    /*00000044*/ MOV         R4, R0 
    /*00000048*/ BEQ         _ZN4hirt14ModelGroupTaskD0Ev_x70
    _ZN4hirt14ModelGroupTaskD0Ev_x4c:
    /*0000004c*/ LDR         R3, [R4, #20] 
    /*00000050*/ CMP         R3, #1 
    /*00000054*/ BNE         _ZN4hirt14ModelGroupTaskD0Ev_x38
    /*00000058*/ LDR         R0, [R4, #16] 
    /*0000005c*/ MOV         R1, #48                     @ 0x30 
    /*00000060*/ CMP         R0, #0 
    /*00000064*/ BEQ         _ZN4hirt14ModelGroupTaskD0Ev_x38
    /*00000068*/ BL          _ZdlPvj
    /*0000006c*/ B           _ZN4hirt14ModelGroupTaskD0Ev_x38
    _ZN4hirt14ModelGroupTaskD0Ev_x70:
    /*00000070*/ LDR         R0, [R5, #144]              @ 0x90 
    /*00000074*/ CMP         R0, #0 
    /*00000078*/ BEQ         _ZN4hirt14ModelGroupTaskD0Ev_xac
    /*0000007c*/ LDR         R3, [R0, #4] 
    /*00000080*/ CMP         R3, #0 
    /*00000084*/ BEQ         _ZN4hirt14ModelGroupTaskD0Ev_x9c
    /*00000088*/ MOV         R0, R3 
    /*0000008c*/ BL          _ZdaPv
    /*00000090*/ LDR         R0, [R5, #144]              @ 0x90 
    /*00000094*/ MOV         R3, #0 
    /*00000098*/ STR         R3, [R0, #4] 
    _ZN4hirt14ModelGroupTaskD0Ev_x9c:
    /*0000009c*/ MOV         R1, #8 
    /*000000a0*/ BL          _ZdlPvj
    /*000000a4*/ MOV         R3, #0 
    /*000000a8*/ STR         R3, [R5, #144]              @ 0x90 
    _ZN4hirt14ModelGroupTaskD0Ev_xac:
    /*000000ac*/ LDR         R4, [R5, #8] 
    /*000000b0*/ LDR         R3, [R5, #12] 
    /*000000b4*/ CMP         R3, R4 
    /*000000b8*/ ADDNE       R6, R4, #4 
    /*000000bc*/ MOVNE       R7, #0 
    /*000000c0*/ BNE         _ZN4hirt14ModelGroupTaskD0Ev_xd8
    /*000000c4*/ B           _ZN4hirt14ModelGroupTaskD0Ev_x12c
    _ZN4hirt14ModelGroupTaskD0Ev_xc8:
    /*000000c8*/ SUB         R3, R3, #4 
    /*000000cc*/ CMP         R4, R3 
    /*000000d0*/ STR         R3, [R5, #12] 
    /*000000d4*/ BEQ         _ZN4hirt14ModelGroupTaskD0Ev_x12c
    _ZN4hirt14ModelGroupTaskD0Ev_xd8:
    /*000000d8*/ LDR         R2, [R4] 
    /*000000dc*/ SUBS        R0, R2, #0 
    /*000000e0*/ BEQ         _ZN4hirt14ModelGroupTaskD0Ev_xf8
    /*000000e4*/ LDR         R3, [R2] 
    /*000000e8*/ LDR         R3, [R3, #4] 
    /*000000ec*/ BLX         R3 
    /*000000f0*/ LDR         R3, [R5, #12] 
    /*000000f4*/ STR         R7, [R4] 
    _ZN4hirt14ModelGroupTaskD0Ev_xf8:
    /*000000f8*/ CMP         R6, R3 
    /*000000fc*/ SUB         R2, R3, R6 
    /*00000100*/ BEQ         _ZN4hirt14ModelGroupTaskD0Ev_xc8
    /*00000104*/ LSRS        R1, R2, #2 
    /*00000108*/ BEQ         _ZN4hirt14ModelGroupTaskD0Ev_xc8
    /*0000010c*/ MOV         R1, R6 
    /*00000110*/ MOV         R0, R4 
    /*00000114*/ BL          memmove
    /*00000118*/ LDR         R3, [R5, #12] 
    /*0000011c*/ SUB         R3, R3, #4 
    /*00000120*/ CMP         R4, R3 
    /*00000124*/ STR         R3, [R5, #12] 
    /*00000128*/ BNE         _ZN4hirt14ModelGroupTaskD0Ev_xd8
    _ZN4hirt14ModelGroupTaskD0Ev_x12c:
    /*0000012c*/ LDR         R4, [R5, #60]               @ 0x3c 
    /*00000130*/ ADD         R7, R5, #52                 @ 0x34 
    /*00000134*/ CMP         R4, R7 
    /*00000138*/ MOVNE       R6, #0 
    /*0000013c*/ BEQ         _ZN4hirt14ModelGroupTaskD0Ev_x184
    _ZN4hirt14ModelGroupTaskD0Ev_x140:
    /*00000140*/ LDR         R3, [R4, #40]               @ 0x28 
    /*00000144*/ CMP         R3, #0 
    /*00000148*/ BEQ         _ZN4hirt14ModelGroupTaskD0Ev_x170
    /*0000014c*/ LDR         R2, [R3, #4] 
    /*00000150*/ SUBS        R0, R2, #0 
    /*00000154*/ BEQ         _ZN4hirt14ModelGroupTaskD0Ev_x164
    /*00000158*/ BL          free
    /*0000015c*/ LDR         R3, [R4, #40]               @ 0x28 
    /*00000160*/ STR         R6, [R3, #4] 
    _ZN4hirt14ModelGroupTaskD0Ev_x164:
    /*00000164*/ MOV         R0, R3 
    /*00000168*/ BL          free
    /*0000016c*/ STR         R6, [R4, #40]               @ 0x28 
    _ZN4hirt14ModelGroupTaskD0Ev_x170:
    /*00000170*/ MOV         R0, R4 
    /*00000174*/ BL          _ZSt18_Rb_tree_incrementPSt18_Rb_tree_node_base
    /*00000178*/ CMP         R0, R7 
    /*0000017c*/ MOV         R4, R0 
    /*00000180*/ BNE         _ZN4hirt14ModelGroupTaskD0Ev_x140
    _ZN4hirt14ModelGroupTaskD0Ev_x184:
    /*00000184*/ LDR         R4, [R5, #84]               @ 0x54 
    /*00000188*/ ADD         R7, R5, #76                 @ 0x4c 
    /*0000018c*/ CMP         R7, R4 
    /*00000190*/ MOVNE       R6, #0 
    /*00000194*/ BEQ         _ZN4hirt14ModelGroupTaskD0Ev_x1dc
    _ZN4hirt14ModelGroupTaskD0Ev_x198:
    /*00000198*/ LDR         R3, [R4, #40]               @ 0x28 
    /*0000019c*/ CMP         R3, #0 
    /*000001a0*/ BEQ         _ZN4hirt14ModelGroupTaskD0Ev_x1c8
    /*000001a4*/ LDR         R2, [R3, #4] 
    /*000001a8*/ SUBS        R0, R2, #0 
    /*000001ac*/ BEQ         _ZN4hirt14ModelGroupTaskD0Ev_x1bc
    /*000001b0*/ BL          free
    /*000001b4*/ LDR         R3, [R4, #40]               @ 0x28 
    /*000001b8*/ STR         R6, [R3, #4] 
    _ZN4hirt14ModelGroupTaskD0Ev_x1bc:
    /*000001bc*/ MOV         R0, R3 
    /*000001c0*/ BL          free
    /*000001c4*/ STR         R6, [R4, #40]               @ 0x28 
    _ZN4hirt14ModelGroupTaskD0Ev_x1c8:
    /*000001c8*/ MOV         R0, R4 
    /*000001cc*/ BL          _ZSt18_Rb_tree_incrementPSt18_Rb_tree_node_base
    /*000001d0*/ CMP         R7, R0 
    /*000001d4*/ MOV         R4, R0 
    /*000001d8*/ BNE         _ZN4hirt14ModelGroupTaskD0Ev_x198
    _ZN4hirt14ModelGroupTaskD0Ev_x1dc:
    /*000001dc*/ LDR         R0, [R5, #176]              @ 0xb0 
    /*000001e0*/ CMP         R0, #0 
    /*000001e4*/ BEQ         _ZN4hirt14ModelGroupTaskD0Ev_x1ec
    /*000001e8*/ BL          _ZdlPv
    _ZN4hirt14ModelGroupTaskD0Ev_x1ec:
    /*000001ec*/ LDR         R1, [R5, #156]              @ 0x9c 
    /*000001f0*/ ADD         R0, R5, #148                @ 0x94 
    /*000001f4*/ BL          _ZNSt8_Rb_treeIP16hiRUNTIME_BLOB_SSt4pairIKS1_7HI_BOOLESt10_Select1stIS5_ESt4lessIS1_ESaIS5_EE8_M_eraseEPSt13_Rb_tree_nodeIS5_E
    /*000001f8*/ LDR         R1, [R5, #128]              @ 0x80 
    /*000001fc*/ ADD         R0, R5, #120                @ 0x78 
    /*00000200*/ BL          _ZNSt8_Rb_treeIP16hiRUNTIME_BLOB_SSt4pairIKS1_NSt7__cxx1112basic_stringIcSt11char_traitsIcESaIcEEEESt10_Select1stISA_ESt4lessIS1_ESaISA_EE8_M_eraseEPSt13_Rb_tree_nodeISA_E
    /*00000204*/ LDR         R1, [R5, #104]              @ 0x68 
    /*00000208*/ ADD         R0, R5, #96                 @ 0x60 
    /*0000020c*/ BL          _ZNSt8_Rb_treeINSt7__cxx1112basic_stringIcSt11char_traitsIcESaIcEEESt4pairIKS5_NS0_4listIP16hiRUNTIME_BLOB_SSaISA_EEEESt10_Select1stISD_ESt4lessIS5_ESaISD_EE8_M_eraseEPSt13_Rb_tree_nodeISD_E
    /*00000210*/ LDR         R1, [R5, #80]               @ 0x50 
    /*00000214*/ ADD         R0, R5, #72                 @ 0x48 
    /*00000218*/ BL          _ZNSt8_Rb_treeINSt7__cxx1112basic_stringIcSt11char_traitsIcESaIcEEESt4pairIKS5_P26hiRUNTIME_SRC_BLOB_ARRAY_SESt10_Select1stISA_ESt4lessIS5_ESaISA_EE8_M_eraseEPSt13_Rb_tree_nodeISA_E
    /*0000021c*/ LDR         R1, [R5, #56]               @ 0x38 
    /*00000220*/ ADD         R0, R5, #48                 @ 0x30 
    /*00000224*/ BL          _ZNSt8_Rb_treeINSt7__cxx1112basic_stringIcSt11char_traitsIcESaIcEEESt4pairIKS5_P26hiRUNTIME_SRC_BLOB_ARRAY_SESt10_Select1stISA_ESt4lessIS5_ESaISA_EE8_M_eraseEPSt13_Rb_tree_nodeISA_E
    /*00000228*/ LDR         R0, [R5, #20] 
    /*0000022c*/ CMP         R0, #0 
    /*00000230*/ BEQ         _ZN4hirt14ModelGroupTaskD0Ev_x238
    /*00000234*/ BL          _ZdlPv
    _ZN4hirt14ModelGroupTaskD0Ev_x238:
    /*00000238*/ LDR         R0, [R5, #8] 
    /*0000023c*/ CMP         R0, #0 
    /*00000240*/ BEQ         _ZN4hirt14ModelGroupTaskD0Ev_x248
    /*00000244*/ BL          _ZdlPv
    _ZN4hirt14ModelGroupTaskD0Ev_x248:
    /*00000248*/ MOV         R0, R5 
    /*0000024c*/ MOV         R1, #304                    @ 0x130 
    /*00000250*/ BL          _ZdlPvj
    /*00000254*/ MOV         R0, R5 
    /*00000258*/ POP         {R4, R5, R6, R7, R8, PC} 
    /*0000025c*/ WORD_025c: .word 0x00000234
FUNC_END _ZN4hirt14ModelGroupTaskD0Ev


@ - - - - - - - - - - - - - - - - - - - - - - - - - - - - - 
@ .text._ZNSt6vectorIPN4hirt7SegTaskESaIS2_EE14_M_fill_assignEjRKS2_
@ Size: 0x520
@ - - - - - - - - - - - - - - - - - - - - - - - - - - - - - 

FUNC_BEGIN _ZNSt6vectorIPN4hirt7SegTaskESaIS2_EE14_M_fill_assignEjRKS2_
    /*00000000*/ MOV         IP, #16384                  @ 0x4000 
    /*00000004*/ PUSH        {R4, R5, R6, R7, R8, R9, SL, LR} 
    /*00000008*/ SUB         IP, SP, IP 
    /*0000000c*/ STR         R0, [IP, #4064]             @ 0xfe0 
    /*00000010*/ LDR         R3, [R0] 
    /*00000014*/ LDR         IP, [R0, #8] 
    /*00000018*/ SUB         IP, IP, R3 
    /*0000001c*/ CMP         R1, IP, ASR #2 
    /*00000020*/ BHI         _ZNSt6vectorIPN4hirt7SegTaskESaIS2_EE14_M_fill_assignEjRKS2__x364
    /*00000024*/ LDR         LR, [R0, #4] 
    /*00000028*/ SUB         IP, LR, R3 
    /*0000002c*/ ASR         IP, IP, #2 
    /*00000030*/ CMP         R1, IP 
    /*00000034*/ BLS         _ZNSt6vectorIPN4hirt7SegTaskESaIS2_EE14_M_fill_assignEjRKS2__x24c
    /*00000038*/ CMP         R3, LR 
    /*0000003c*/ LDR         R5, [R2] 
    /*00000040*/ BEQ         _ZNSt6vectorIPN4hirt7SegTaskESaIS2_EE14_M_fill_assignEjRKS2__x13c
    /*00000044*/ SBFX        R4, R3, #2, #1 
    /*00000048*/ ADD         R6, R3, #4 
    /*0000004c*/ SUB         R7, LR, R6 
    /*00000050*/ AND         R4, R4, #3 
    /*00000054*/ LSR         R7, R7, #2 
    /*00000058*/ ADD         R8, R7, #1 
    /*0000005c*/ CMP         R4, R8 
    /*00000060*/ MOVCS       R4, R8 
    /*00000064*/ CMP         R8, #6 
    /*00000068*/ MOVLS       R4, R8 
    /*0000006c*/ BHI         _ZNSt6vectorIPN4hirt7SegTaskESaIS2_EE14_M_fill_assignEjRKS2__x4e8
    _ZNSt6vectorIPN4hirt7SegTaskESaIS2_EE14_M_fill_assignEjRKS2__x70:
    /*00000070*/ STR         R5, [R3] 
    /*00000074*/ CMP         R4, #1 
    /*00000078*/ BEQ         _ZNSt6vectorIPN4hirt7SegTaskESaIS2_EE14_M_fill_assignEjRKS2__xc0
    /*0000007c*/ STR         R5, [R3, #4] 
    /*00000080*/ CMP         R4, #2 
    /*00000084*/ ADD         R6, R3, #8 
    /*00000088*/ BEQ         _ZNSt6vectorIPN4hirt7SegTaskESaIS2_EE14_M_fill_assignEjRKS2__xc0
    /*0000008c*/ STR         R5, [R3, #8] 
    /*00000090*/ CMP         R4, #3 
    /*00000094*/ ADD         R6, R3, #12 
    /*00000098*/ BEQ         _ZNSt6vectorIPN4hirt7SegTaskESaIS2_EE14_M_fill_assignEjRKS2__xc0
    /*0000009c*/ STR         R5, [R3, #12] 
    /*000000a0*/ CMP         R4, #4 
    /*000000a4*/ ADD         R6, R3, #16 
    /*000000a8*/ BEQ         _ZNSt6vectorIPN4hirt7SegTaskESaIS2_EE14_M_fill_assignEjRKS2__xc0
    /*000000ac*/ STR         R5, [R3, #16] 
    /*000000b0*/ CMP         R4, #5 
    /*000000b4*/ STRNE       R5, [R3, #20] 
    /*000000b8*/ ADD         R6, R3, #20 
    /*000000bc*/ ADDNE       R6, R3, #24 
    _ZNSt6vectorIPN4hirt7SegTaskESaIS2_EE14_M_fill_assignEjRKS2__xc0:
    /*000000c0*/ CMP         R8, R4 
    /*000000c4*/ BEQ         _ZNSt6vectorIPN4hirt7SegTaskESaIS2_EE14_M_fill_assignEjRKS2__x138
    _ZNSt6vectorIPN4hirt7SegTaskESaIS2_EE14_M_fill_assignEjRKS2__xc8:
    /*000000c8*/ SUB         R8, R8, R4 
    /*000000cc*/ SUB         R7, R7, R4 
    /*000000d0*/ SUB         R9, R8, #4 
    /*000000d4*/ CMP         R7, #2 
    /*000000d8*/ LSR         R7, R9, #2 
    /*000000dc*/ ADD         R7, R7, #1 
    /*000000e0*/ LSL         R9, R7, #2 
    /*000000e4*/ BLS         _ZNSt6vectorIPN4hirt7SegTaskESaIS2_EE14_M_fill_assignEjRKS2__x118
    /*000000e8*/ VDUP.32     Q8, R5 
    /*000000ec*/ ADD         R3, R3, R4, LSL #2 
    /*000000f0*/ MOV         R4, #0 
    _ZNSt6vectorIPN4hirt7SegTaskESaIS2_EE14_M_fill_assignEjRKS2__xf4:
    /*000000f4*/ ADD         R4, R4, #1 
    /*000000f8*/ ADD         R3, R3, #16 
    /*000000fc*/ CMP         R7, R4 
    /*00000100*/ VSTR        D16, [R3, #-16] 
    /*00000104*/ VSTR        D17, [R3, #-8] 
    /*00000108*/ BHI         _ZNSt6vectorIPN4hirt7SegTaskESaIS2_EE14_M_fill_assignEjRKS2__xf4
    /*0000010c*/ CMP         R8, R9 
    /*00000110*/ ADD         R6, R6, R9, LSL #2 
    /*00000114*/ BEQ         _ZNSt6vectorIPN4hirt7SegTaskESaIS2_EE14_M_fill_assignEjRKS2__x138
    _ZNSt6vectorIPN4hirt7SegTaskESaIS2_EE14_M_fill_assignEjRKS2__x118:
    /*00000118*/ MOV         R3, R6 
    /*0000011c*/ STR         R5, [R3], #4 
    /*00000120*/ CMP         LR, R3 
    /*00000124*/ BEQ         _ZNSt6vectorIPN4hirt7SegTaskESaIS2_EE14_M_fill_assignEjRKS2__x138
    /*00000128*/ STR         R5, [R6, #4] 
    /*0000012c*/ ADD         R3, R6, #8 
    /*00000130*/ CMP         LR, R3 
    /*00000134*/ STRNE       R5, [R6, #8] 
    _ZNSt6vectorIPN4hirt7SegTaskESaIS2_EE14_M_fill_assignEjRKS2__x138:
    /*00000138*/ LDR         R5, [R2] 
    _ZNSt6vectorIPN4hirt7SegTaskESaIS2_EE14_M_fill_assignEjRKS2__x13c:
    /*0000013c*/ SBFX        R3, LR, #2, #1 
    /*00000140*/ SUB         R1, R1, IP 
    /*00000144*/ AND         R3, R3, #3 
    /*00000148*/ CMP         R3, R1 
    /*0000014c*/ MOVCS       R3, R1 
    /*00000150*/ CMP         R1, #6 
    /*00000154*/ MOVLS       R3, R1 
    /*00000158*/ BHI         _ZNSt6vectorIPN4hirt7SegTaskESaIS2_EE14_M_fill_assignEjRKS2__x4d0
    _ZNSt6vectorIPN4hirt7SegTaskESaIS2_EE14_M_fill_assignEjRKS2__x15c:
    /*0000015c*/ MOV         IP, LR 
    /*00000160*/ CMP         R3, #1 
    /*00000164*/ SUB         R2, R1, #1 
    /*00000168*/ STR         R5, [IP], #4 
    /*0000016c*/ MOV         R6, R2 
    /*00000170*/ BEQ         _ZNSt6vectorIPN4hirt7SegTaskESaIS2_EE14_M_fill_assignEjRKS2__x1cc
    /*00000174*/ STR         R5, [LR, #4] 
    /*00000178*/ CMP         R3, #2 
    /*0000017c*/ SUB         R6, R1, #2 
    /*00000180*/ ADD         IP, LR, #8 
    /*00000184*/ BEQ         _ZNSt6vectorIPN4hirt7SegTaskESaIS2_EE14_M_fill_assignEjRKS2__x1cc
    /*00000188*/ STR         R5, [LR, #8] 
    /*0000018c*/ CMP         R3, #3 
    /*00000190*/ SUB         R6, R1, #3 
    /*00000194*/ ADD         IP, LR, #12 
    /*00000198*/ BEQ         _ZNSt6vectorIPN4hirt7SegTaskESaIS2_EE14_M_fill_assignEjRKS2__x1cc
    /*0000019c*/ STR         R5, [LR, #12] 
    /*000001a0*/ CMP         R3, #4 
    /*000001a4*/ SUB         R6, R1, #4 
    /*000001a8*/ ADD         IP, LR, #16 
    /*000001ac*/ BEQ         _ZNSt6vectorIPN4hirt7SegTaskESaIS2_EE14_M_fill_assignEjRKS2__x1cc
    /*000001b0*/ STR         R5, [LR, #16] 
    /*000001b4*/ CMP         R3, #5 
    /*000001b8*/ STRNE       R5, [LR, #20] 
    /*000001bc*/ SUB         R6, R1, #5 
    /*000001c0*/ ADD         IP, LR, #20 
    /*000001c4*/ SUBNE       R6, R1, #6 
    /*000001c8*/ ADDNE       IP, LR, #24 
    _ZNSt6vectorIPN4hirt7SegTaskESaIS2_EE14_M_fill_assignEjRKS2__x1cc:
    /*000001cc*/ CMP         R1, R3 
    /*000001d0*/ BEQ         _ZNSt6vectorIPN4hirt7SegTaskESaIS2_EE14_M_fill_assignEjRKS2__x240
    _ZNSt6vectorIPN4hirt7SegTaskESaIS2_EE14_M_fill_assignEjRKS2__x1d4:
    /*000001d4*/ SUB         R7, R1, R3 
    /*000001d8*/ SUB         R4, R2, R3 
    /*000001dc*/ SUB         R2, R7, #4 
    /*000001e0*/ CMP         R4, #2 
    /*000001e4*/ LSR         R2, R2, #2 
    /*000001e8*/ ADD         R2, R2, #1 
    /*000001ec*/ LSL         R8, R2, #2 
    /*000001f0*/ BLS         _ZNSt6vectorIPN4hirt7SegTaskESaIS2_EE14_M_fill_assignEjRKS2__x228
    /*000001f4*/ VDUP.32     Q8, R5 
    /*000001f8*/ ADD         R3, LR, R3, LSL #2 
    /*000001fc*/ MOV         R4, #0 
    _ZNSt6vectorIPN4hirt7SegTaskESaIS2_EE14_M_fill_assignEjRKS2__x200:
    /*00000200*/ ADD         R4, R4, #1 
    /*00000204*/ ADD         R3, R3, #16 
    /*00000208*/ CMP         R2, R4 
    /*0000020c*/ VSTR        D16, [R3, #-16] 
    /*00000210*/ VSTR        D17, [R3, #-8] 
    /*00000214*/ BHI         _ZNSt6vectorIPN4hirt7SegTaskESaIS2_EE14_M_fill_assignEjRKS2__x200
    /*00000218*/ CMP         R7, R8 
    /*0000021c*/ SUB         R6, R6, R8 
    /*00000220*/ ADD         IP, IP, R8, LSL #2 
    /*00000224*/ BEQ         _ZNSt6vectorIPN4hirt7SegTaskESaIS2_EE14_M_fill_assignEjRKS2__x240
    _ZNSt6vectorIPN4hirt7SegTaskESaIS2_EE14_M_fill_assignEjRKS2__x228:
    /*00000228*/ STR         R5, [IP] 
    /*0000022c*/ CMP         R6, #1 
    /*00000230*/ BEQ         _ZNSt6vectorIPN4hirt7SegTaskESaIS2_EE14_M_fill_assignEjRKS2__x240
    /*00000234*/ STR         R5, [IP, #4] 
    /*00000238*/ CMP         R6, #2 
    /*0000023c*/ STRNE       R5, [IP, #8] 
    _ZNSt6vectorIPN4hirt7SegTaskESaIS2_EE14_M_fill_assignEjRKS2__x240:
    /*00000240*/ ADD         LR, LR, R1, LSL #2 
    /*00000244*/ STR         LR, [R0, #4] 
    /*00000248*/ POP         {R4, R5, R6, R7, R8, R9, SL, PC} 
    _ZNSt6vectorIPN4hirt7SegTaskESaIS2_EE14_M_fill_assignEjRKS2__x24c:
    /*0000024c*/ LDR         R5, [R2] 
    /*00000250*/ CMP         R1, #0 
    /*00000254*/ BEQ         _ZNSt6vectorIPN4hirt7SegTaskESaIS2_EE14_M_fill_assignEjRKS2__x35c
    /*00000258*/ SBFX        R2, R3, #2, #1 
    /*0000025c*/ AND         R2, R2, #3 
    /*00000260*/ CMP         R2, R1 
    /*00000264*/ MOVCS       R2, R1 
    /*00000268*/ CMP         R1, #6 
    /*0000026c*/ MOVLS       R2, R1 
    /*00000270*/ BHI         _ZNSt6vectorIPN4hirt7SegTaskESaIS2_EE14_M_fill_assignEjRKS2__x4f8
    _ZNSt6vectorIPN4hirt7SegTaskESaIS2_EE14_M_fill_assignEjRKS2__x274:
    /*00000274*/ MOV         R4, R3 
    /*00000278*/ CMP         R2, #1 
    /*0000027c*/ SUB         IP, R1, #1 
    /*00000280*/ STR         R5, [R4], #4 
    /*00000284*/ MOV         R6, IP 
    /*00000288*/ BEQ         _ZNSt6vectorIPN4hirt7SegTaskESaIS2_EE14_M_fill_assignEjRKS2__x2e4
    /*0000028c*/ STR         R5, [R3, #4] 
    /*00000290*/ CMP         R2, #2 
    /*00000294*/ SUB         R6, R1, #2 
    /*00000298*/ ADD         R4, R3, #8 
    /*0000029c*/ BEQ         _ZNSt6vectorIPN4hirt7SegTaskESaIS2_EE14_M_fill_assignEjRKS2__x2e4
    /*000002a0*/ STR         R5, [R3, #8] 
    /*000002a4*/ CMP         R2, #3 
    /*000002a8*/ SUB         R6, R1, #3 
    /*000002ac*/ ADD         R4, R3, #12 
    /*000002b0*/ BEQ         _ZNSt6vectorIPN4hirt7SegTaskESaIS2_EE14_M_fill_assignEjRKS2__x2e4
    /*000002b4*/ STR         R5, [R3, #12] 
    /*000002b8*/ CMP         R2, #4 
    /*000002bc*/ SUB         R6, R1, #4 
    /*000002c0*/ ADD         R4, R3, #16 
    /*000002c4*/ BEQ         _ZNSt6vectorIPN4hirt7SegTaskESaIS2_EE14_M_fill_assignEjRKS2__x2e4
    /*000002c8*/ STR         R5, [R3, #16] 
    /*000002cc*/ CMP         R2, #5 
    /*000002d0*/ STRNE       R5, [R3, #20] 
    /*000002d4*/ SUB         R6, R1, #5 
    /*000002d8*/ ADD         R4, R3, #20 
    /*000002dc*/ SUBNE       R6, R1, #6 
    /*000002e0*/ ADDNE       R4, R3, #24 
    _ZNSt6vectorIPN4hirt7SegTaskESaIS2_EE14_M_fill_assignEjRKS2__x2e4:
    /*000002e4*/ CMP         R1, R2 
    /*000002e8*/ BEQ         _ZNSt6vectorIPN4hirt7SegTaskESaIS2_EE14_M_fill_assignEjRKS2__x358
    _ZNSt6vectorIPN4hirt7SegTaskESaIS2_EE14_M_fill_assignEjRKS2__x2ec:
    /*000002ec*/ SUB         R7, R1, R2 
    /*000002f0*/ SUB         IP, IP, R2 
    /*000002f4*/ SUB         LR, R7, #4 
    /*000002f8*/ CMP         IP, #2 
    /*000002fc*/ LSR         IP, LR, #2 
    /*00000300*/ ADD         IP, IP, #1 
    /*00000304*/ LSL         R8, IP, #2 
    /*00000308*/ BLS         _ZNSt6vectorIPN4hirt7SegTaskESaIS2_EE14_M_fill_assignEjRKS2__x340
    /*0000030c*/ VDUP.32     Q8, R5 
    /*00000310*/ ADD         R2, R3, R2, LSL #2 
    /*00000314*/ MOV         LR, #0 
    _ZNSt6vectorIPN4hirt7SegTaskESaIS2_EE14_M_fill_assignEjRKS2__x318:
    /*00000318*/ ADD         LR, LR, #1 
    /*0000031c*/ ADD         R2, R2, #16 
    /*00000320*/ CMP         IP, LR 
    /*00000324*/ VSTR        D16, [R2, #-16] 
    /*00000328*/ VSTR        D17, [R2, #-8] 
    /*0000032c*/ BHI         _ZNSt6vectorIPN4hirt7SegTaskESaIS2_EE14_M_fill_assignEjRKS2__x318
    /*00000330*/ CMP         R7, R8 
    /*00000334*/ SUB         R6, R6, R8 
    /*00000338*/ ADD         R4, R4, R8, LSL #2 
    /*0000033c*/ BEQ         _ZNSt6vectorIPN4hirt7SegTaskESaIS2_EE14_M_fill_assignEjRKS2__x358
    _ZNSt6vectorIPN4hirt7SegTaskESaIS2_EE14_M_fill_assignEjRKS2__x340:
    /*00000340*/ STR         R5, [R4] 
    /*00000344*/ CMP         R6, #1 
    /*00000348*/ BEQ         _ZNSt6vectorIPN4hirt7SegTaskESaIS2_EE14_M_fill_assignEjRKS2__x358
    /*0000034c*/ STR         R5, [R4, #4] 
    /*00000350*/ CMP         R6, #2 
    /*00000354*/ STRNE       R5, [R4, #8] 
    _ZNSt6vectorIPN4hirt7SegTaskESaIS2_EE14_M_fill_assignEjRKS2__x358:
    /*00000358*/ ADD         R3, R3, R1, LSL #2 
    _ZNSt6vectorIPN4hirt7SegTaskESaIS2_EE14_M_fill_assignEjRKS2__x35c:
    /*0000035c*/ STR         R3, [R0, #4] 
    /*00000360*/ POP         {R4, R5, R6, R7, R8, R9, SL, PC} 
    _ZNSt6vectorIPN4hirt7SegTaskESaIS2_EE14_M_fill_assignEjRKS2__x364:
    /*00000364*/ CMP         R1, #0 
    /*00000368*/ MOV         R7, R2 
    /*0000036c*/ MOV         R4, R1 
    /*00000370*/ MOV         R5, R0 
    /*00000374*/ BEQ         _ZNSt6vectorIPN4hirt7SegTaskESaIS2_EE14_M_fill_assignEjRKS2__x510
    /*00000378*/ CMN         R1, #-1073741823            @ 0xc0000001 
    /*0000037c*/ BHI         _ZNSt6vectorIPN4hirt7SegTaskESaIS2_EE14_M_fill_assignEjRKS2__x51c
    /*00000380*/ LSL         R6, R1, #2 
    /*00000384*/ MOV         R0, R6 
    /*00000388*/ BL          _Znwj
    /*0000038c*/ SBFX        R3, R0, #2, #1 
    /*00000390*/ ADD         R6, R0, R6 
    /*00000394*/ AND         R3, R3, #3 
    /*00000398*/ CMP         R3, R4 
    /*0000039c*/ LDR         R7, [R7] 
    /*000003a0*/ MOVCS       R3, R4 
    /*000003a4*/ CMP         R4, #6 
    /*000003a8*/ MOVLS       R3, R4 
    /*000003ac*/ BHI         _ZNSt6vectorIPN4hirt7SegTaskESaIS2_EE14_M_fill_assignEjRKS2__x4b8
    _ZNSt6vectorIPN4hirt7SegTaskESaIS2_EE14_M_fill_assignEjRKS2__x3b0:
    /*000003b0*/ MOV         LR, R0 
    /*000003b4*/ CMP         R3, #1 
    /*000003b8*/ SUB         IP, R4, #1 
    /*000003bc*/ STR         R7, [LR], #4 
    /*000003c0*/ MOV         R8, IP 
    /*000003c4*/ BEQ         _ZNSt6vectorIPN4hirt7SegTaskESaIS2_EE14_M_fill_assignEjRKS2__x420
    /*000003c8*/ STR         R7, [R0, #4] 
    /*000003cc*/ CMP         R3, #2 
    /*000003d0*/ SUB         R8, R4, #2 
    /*000003d4*/ ADD         LR, R0, #8 
    /*000003d8*/ BEQ         _ZNSt6vectorIPN4hirt7SegTaskESaIS2_EE14_M_fill_assignEjRKS2__x420
    /*000003dc*/ STR         R7, [R0, #8] 
    /*000003e0*/ CMP         R3, #3 
    /*000003e4*/ SUB         R8, R4, #3 
    /*000003e8*/ ADD         LR, R0, #12 
    /*000003ec*/ BEQ         _ZNSt6vectorIPN4hirt7SegTaskESaIS2_EE14_M_fill_assignEjRKS2__x420
    /*000003f0*/ STR         R7, [R0, #12] 
    /*000003f4*/ CMP         R3, #4 
    /*000003f8*/ SUB         R8, R4, #4 
    /*000003fc*/ ADD         LR, R0, #16 
    /*00000400*/ BEQ         _ZNSt6vectorIPN4hirt7SegTaskESaIS2_EE14_M_fill_assignEjRKS2__x420
    /*00000404*/ STR         R7, [R0, #16] 
    /*00000408*/ CMP         R3, #5 
    /*0000040c*/ STRNE       R7, [R0, #20] 
    /*00000410*/ SUB         R8, R4, #5 
    /*00000414*/ ADD         LR, R0, #20 
    /*00000418*/ SUBNE       R8, R4, #6 
    /*0000041c*/ ADDNE       LR, R0, #24 
    _ZNSt6vectorIPN4hirt7SegTaskESaIS2_EE14_M_fill_assignEjRKS2__x420:
    /*00000420*/ CMP         R4, R3 
    /*00000424*/ BEQ         _ZNSt6vectorIPN4hirt7SegTaskESaIS2_EE14_M_fill_assignEjRKS2__x494
    _ZNSt6vectorIPN4hirt7SegTaskESaIS2_EE14_M_fill_assignEjRKS2__x428:
    /*00000428*/ SUB         R1, R4, R3 
    /*0000042c*/ SUB         IP, IP, R3 
    /*00000430*/ SUB         R2, R1, #4 
    /*00000434*/ CMP         IP, #2 
    /*00000438*/ LSR         R2, R2, #2 
    /*0000043c*/ ADD         R2, R2, #1 
    /*00000440*/ LSL         R4, R2, #2 
    /*00000444*/ BLS         _ZNSt6vectorIPN4hirt7SegTaskESaIS2_EE14_M_fill_assignEjRKS2__x47c
    /*00000448*/ VDUP.32     Q8, R7 
    /*0000044c*/ ADD         R3, R0, R3, LSL #2 
    /*00000450*/ MOV         IP, #0 
    _ZNSt6vectorIPN4hirt7SegTaskESaIS2_EE14_M_fill_assignEjRKS2__x454:
    /*00000454*/ ADD         IP, IP, #1 
    /*00000458*/ ADD         R3, R3, #16 
    /*0000045c*/ CMP         R2, IP 
    /*00000460*/ VSTR        D16, [R3, #-16] 
    /*00000464*/ VSTR        D17, [R3, #-8] 
    /*00000468*/ BHI         _ZNSt6vectorIPN4hirt7SegTaskESaIS2_EE14_M_fill_assignEjRKS2__x454
    /*0000046c*/ CMP         R1, R4 
    /*00000470*/ SUB         R8, R8, R4 
    /*00000474*/ ADD         LR, LR, R4, LSL #2 
    /*00000478*/ BEQ         _ZNSt6vectorIPN4hirt7SegTaskESaIS2_EE14_M_fill_assignEjRKS2__x494
    _ZNSt6vectorIPN4hirt7SegTaskESaIS2_EE14_M_fill_assignEjRKS2__x47c:
    /*0000047c*/ STR         R7, [LR] 
    /*00000480*/ CMP         R8, #1 
    /*00000484*/ BEQ         _ZNSt6vectorIPN4hirt7SegTaskESaIS2_EE14_M_fill_assignEjRKS2__x494
    /*00000488*/ STR         R7, [LR, #4] 
    /*0000048c*/ CMP         R8, #2 
    /*00000490*/ STRNE       R7, [LR, #8] 
    _ZNSt6vectorIPN4hirt7SegTaskESaIS2_EE14_M_fill_assignEjRKS2__x494:
    /*00000494*/ LDR         R3, [R5] 
    _ZNSt6vectorIPN4hirt7SegTaskESaIS2_EE14_M_fill_assignEjRKS2__x498:
    /*00000498*/ STR         R0, [R5] 
    /*0000049c*/ CMP         R3, #0 
    /*000004a0*/ STR         R6, [R5, #4] 
    /*000004a4*/ STR         R6, [R5, #8] 
    /*000004a8*/ POPEQ       {R4, R5, R6, R7, R8, R9, SL, PC} 
    /*000004ac*/ MOV         R0, R3 
    /*000004b0*/ POP         {R4, R5, R6, R7, R8, R9, SL, LR} 
    _ZNSt6vectorIPN4hirt7SegTaskESaIS2_EE14_M_fill_assignEjRKS2__x4b4:
    /*000004b4*/ B           _ZNSt6vectorIPN4hirt7SegTaskESaIS2_EE14_M_fill_assignEjRKS2__x4b4@ _ZdlPv [R_ARM_JUMP24: +0x0] 
    _ZNSt6vectorIPN4hirt7SegTaskESaIS2_EE14_M_fill_assignEjRKS2__x4b8:
    /*000004b8*/ CMP         R3, #0 
    /*000004bc*/ MOVEQ       LR, R0 
    /*000004c0*/ MOVEQ       R8, R4 
    /*000004c4*/ SUBEQ       IP, R4, #1 
    /*000004c8*/ BEQ         _ZNSt6vectorIPN4hirt7SegTaskESaIS2_EE14_M_fill_assignEjRKS2__x428
    /*000004cc*/ B           _ZNSt6vectorIPN4hirt7SegTaskESaIS2_EE14_M_fill_assignEjRKS2__x3b0
    _ZNSt6vectorIPN4hirt7SegTaskESaIS2_EE14_M_fill_assignEjRKS2__x4d0:
    /*000004d0*/ CMP         R3, #0 
    /*000004d4*/ MOVEQ       IP, LR 
    /*000004d8*/ MOVEQ       R6, R1 
    /*000004dc*/ SUBEQ       R2, R1, #1 
    /*000004e0*/ BEQ         _ZNSt6vectorIPN4hirt7SegTaskESaIS2_EE14_M_fill_assignEjRKS2__x1d4
    /*000004e4*/ B           _ZNSt6vectorIPN4hirt7SegTaskESaIS2_EE14_M_fill_assignEjRKS2__x15c
    _ZNSt6vectorIPN4hirt7SegTaskESaIS2_EE14_M_fill_assignEjRKS2__x4e8:
    /*000004e8*/ CMP         R4, #0 
    /*000004ec*/ MOVEQ       R6, R3 
    /*000004f0*/ BEQ         _ZNSt6vectorIPN4hirt7SegTaskESaIS2_EE14_M_fill_assignEjRKS2__xc8
    /*000004f4*/ B           _ZNSt6vectorIPN4hirt7SegTaskESaIS2_EE14_M_fill_assignEjRKS2__x70
    _ZNSt6vectorIPN4hirt7SegTaskESaIS2_EE14_M_fill_assignEjRKS2__x4f8:
    /*000004f8*/ CMP         R2, #0 
    /*000004fc*/ MOVEQ       R4, R3 
    /*00000500*/ MOVEQ       R6, R1 
    /*00000504*/ SUBEQ       IP, R1, #1 
    /*00000508*/ BEQ         _ZNSt6vectorIPN4hirt7SegTaskESaIS2_EE14_M_fill_assignEjRKS2__x2ec
    /*0000050c*/ B           _ZNSt6vectorIPN4hirt7SegTaskESaIS2_EE14_M_fill_assignEjRKS2__x274
    _ZNSt6vectorIPN4hirt7SegTaskESaIS2_EE14_M_fill_assignEjRKS2__x510:
    /*00000510*/ MOV         R0, R1 
    /*00000514*/ MOV         R6, R1 
    /*00000518*/ B           _ZNSt6vectorIPN4hirt7SegTaskESaIS2_EE14_M_fill_assignEjRKS2__x498
    _ZNSt6vectorIPN4hirt7SegTaskESaIS2_EE14_M_fill_assignEjRKS2__x51c:
    /*0000051c*/ BL          _ZSt17__throw_bad_allocv
FUNC_END _ZNSt6vectorIPN4hirt7SegTaskESaIS2_EE14_M_fill_assignEjRKS2_


@ - - - - - - - - - - - - - - - - - - - - - - - - - - - - - 
@ .text._ZNSt8_Rb_treeINSt7__cxx1112basic_stringIcSt11char_traitsIcESaIcEEESt4pairIKS5_P16hiRUNTIME_BLOB_SESt10_Select1stISA_ESt4lessIS5_ESaISA_EE8_M_eraseEPSt13_Rb_tree_nodeISA_E
@ Size: 0x234
@ - - - - - - - - - - - - - - - - - - - - - - - - - - - - - 

FUNC_BEGIN _ZNSt8_Rb_treeINSt7__cxx1112basic_stringIcSt11char_traitsIcESaIcEEESt4pairIKS5_P16hiRUNTIME_BLOB_SESt10_Select1stISA_ESt4lessIS5_ESaISA_EE8_M_eraseEPSt13_Rb_tree_nodeISA_E
    /*00000000*/ MOV         IP, #16384                  @ 0x4000 
    /*00000004*/ PUSH        {R4, R5, R6, R7, R8, R9, SL, FP, LR} 
    /*00000008*/ SUB         IP, SP, IP 
    /*0000000c*/ STR         R0, [IP, #4040]             @ 0xfc8 
    /*00000010*/ SUB         SP, SP, #20 
    /*00000014*/ SUBS        R3, R1, #0 
    /*00000018*/ STR         R3, [SP, #12] 
    /*0000001c*/ BEQ         _ZNSt8_Rb_treeINSt7__cxx1112basic_stringIcSt11char_traitsIcESaIcEEESt4pairIKS5_P16hiRUNTIME_BLOB_SESt10_Select1stISA_ESt4lessIS5_ESaISA_EE8_M_eraseEPSt13_Rb_tree_nodeISA_E_x22c
    /*00000020*/ MOV         R5, R0 
    _ZNSt8_Rb_treeINSt7__cxx1112basic_stringIcSt11char_traitsIcESaIcEEESt4pairIKS5_P16hiRUNTIME_BLOB_SESt10_Select1stISA_ESt4lessIS5_ESaISA_EE8_M_eraseEPSt13_Rb_tree_nodeISA_E_x24:
    /*00000024*/ LDR         R3, [R3, #12] 
    /*00000028*/ CMP         R3, #0 
    /*0000002c*/ STRNE       R3, [SP, #8] 
    /*00000030*/ BEQ         _ZNSt8_Rb_treeINSt7__cxx1112basic_stringIcSt11char_traitsIcESaIcEEESt4pairIKS5_P16hiRUNTIME_BLOB_SESt10_Select1stISA_ESt4lessIS5_ESaISA_EE8_M_eraseEPSt13_Rb_tree_nodeISA_E_x1f8
    _ZNSt8_Rb_treeINSt7__cxx1112basic_stringIcSt11char_traitsIcESaIcEEESt4pairIKS5_P16hiRUNTIME_BLOB_SESt10_Select1stISA_ESt4lessIS5_ESaISA_EE8_M_eraseEPSt13_Rb_tree_nodeISA_E_x34:
    /*00000034*/ LDR         R8, [R3, #12] 
    /*00000038*/ CMP         R8, #0 
    /*0000003c*/ STRNE       R8, [SP, #4] 
    /*00000040*/ MOVNE       R3, R8 
    /*00000044*/ BEQ         _ZNSt8_Rb_treeINSt7__cxx1112basic_stringIcSt11char_traitsIcESaIcEEESt4pairIKS5_P16hiRUNTIME_BLOB_SESt10_Select1stISA_ESt4lessIS5_ESaISA_EE8_M_eraseEPSt13_Rb_tree_nodeISA_E_x1c4
    _ZNSt8_Rb_treeINSt7__cxx1112basic_stringIcSt11char_traitsIcESaIcEEESt4pairIKS5_P16hiRUNTIME_BLOB_SESt10_Select1stISA_ESt4lessIS5_ESaISA_EE8_M_eraseEPSt13_Rb_tree_nodeISA_E_x48:
    /*00000048*/ LDR         R9, [R3, #12] 
    /*0000004c*/ CMP         R9, #0 
    /*00000050*/ BEQ         _ZNSt8_Rb_treeINSt7__cxx1112basic_stringIcSt11char_traitsIcESaIcEEESt4pairIKS5_P16hiRUNTIME_BLOB_SESt10_Select1stISA_ESt4lessIS5_ESaISA_EE8_M_eraseEPSt13_Rb_tree_nodeISA_E_x190
    _ZNSt8_Rb_treeINSt7__cxx1112basic_stringIcSt11char_traitsIcESaIcEEESt4pairIKS5_P16hiRUNTIME_BLOB_SESt10_Select1stISA_ESt4lessIS5_ESaISA_EE8_M_eraseEPSt13_Rb_tree_nodeISA_E_x54:
    /*00000054*/ LDR         SL, [R9, #12] 
    /*00000058*/ CMP         SL, #0 
    /*0000005c*/ BEQ         _ZNSt8_Rb_treeINSt7__cxx1112basic_stringIcSt11char_traitsIcESaIcEEESt4pairIKS5_P16hiRUNTIME_BLOB_SESt10_Select1stISA_ESt4lessIS5_ESaISA_EE8_M_eraseEPSt13_Rb_tree_nodeISA_E_x168
    _ZNSt8_Rb_treeINSt7__cxx1112basic_stringIcSt11char_traitsIcESaIcEEESt4pairIKS5_P16hiRUNTIME_BLOB_SESt10_Select1stISA_ESt4lessIS5_ESaISA_EE8_M_eraseEPSt13_Rb_tree_nodeISA_E_x60:
    /*00000060*/ LDR         FP, [SL, #12] 
    /*00000064*/ CMP         FP, #0 
    /*00000068*/ BEQ         _ZNSt8_Rb_treeINSt7__cxx1112basic_stringIcSt11char_traitsIcESaIcEEESt4pairIKS5_P16hiRUNTIME_BLOB_SESt10_Select1stISA_ESt4lessIS5_ESaISA_EE8_M_eraseEPSt13_Rb_tree_nodeISA_E_x140
    _ZNSt8_Rb_treeINSt7__cxx1112basic_stringIcSt11char_traitsIcESaIcEEESt4pairIKS5_P16hiRUNTIME_BLOB_SESt10_Select1stISA_ESt4lessIS5_ESaISA_EE8_M_eraseEPSt13_Rb_tree_nodeISA_E_x6c:
    /*0000006c*/ LDR         R7, [FP, #12] 
    /*00000070*/ CMP         R7, #0 
    /*00000074*/ BEQ         _ZNSt8_Rb_treeINSt7__cxx1112basic_stringIcSt11char_traitsIcESaIcEEESt4pairIKS5_P16hiRUNTIME_BLOB_SESt10_Select1stISA_ESt4lessIS5_ESaISA_EE8_M_eraseEPSt13_Rb_tree_nodeISA_E_x118
    _ZNSt8_Rb_treeINSt7__cxx1112basic_stringIcSt11char_traitsIcESaIcEEESt4pairIKS5_P16hiRUNTIME_BLOB_SESt10_Select1stISA_ESt4lessIS5_ESaISA_EE8_M_eraseEPSt13_Rb_tree_nodeISA_E_x78:
    /*00000078*/ LDR         R6, [R7, #12] 
    /*0000007c*/ CMP         R6, #0 
    /*00000080*/ BEQ         _ZNSt8_Rb_treeINSt7__cxx1112basic_stringIcSt11char_traitsIcESaIcEEESt4pairIKS5_P16hiRUNTIME_BLOB_SESt10_Select1stISA_ESt4lessIS5_ESaISA_EE8_M_eraseEPSt13_Rb_tree_nodeISA_E_xf0
    _ZNSt8_Rb_treeINSt7__cxx1112basic_stringIcSt11char_traitsIcESaIcEEESt4pairIKS5_P16hiRUNTIME_BLOB_SESt10_Select1stISA_ESt4lessIS5_ESaISA_EE8_M_eraseEPSt13_Rb_tree_nodeISA_E_x84:
    /*00000084*/ LDR         R3, [R6, #12] 
    /*00000088*/ CMP         R3, #0 
    /*0000008c*/ MOVNE       R8, R3 
    /*00000090*/ BEQ         _ZNSt8_Rb_treeINSt7__cxx1112basic_stringIcSt11char_traitsIcESaIcEEESt4pairIKS5_P16hiRUNTIME_BLOB_SESt10_Select1stISA_ESt4lessIS5_ESaISA_EE8_M_eraseEPSt13_Rb_tree_nodeISA_E_xc8
    _ZNSt8_Rb_treeINSt7__cxx1112basic_stringIcSt11char_traitsIcESaIcEEESt4pairIKS5_P16hiRUNTIME_BLOB_SESt10_Select1stISA_ESt4lessIS5_ESaISA_EE8_M_eraseEPSt13_Rb_tree_nodeISA_E_x94:
    /*00000094*/ LDR         R1, [R8, #12] 
    /*00000098*/ MOV         R0, R5 
    /*0000009c*/ BL          _ZNSt8_Rb_treeINSt7__cxx1112basic_stringIcSt11char_traitsIcESaIcEEESt4pairIKS5_P16hiRUNTIME_BLOB_SESt10_Select1stISA_ESt4lessIS5_ESaISA_EE8_M_eraseEPSt13_Rb_tree_nodeISA_E
    /*000000a0*/ LDR         R0, [R8, #16] 
    /*000000a4*/ ADD         R2, R8, #24 
    /*000000a8*/ LDR         R4, [R8, #8] 
    /*000000ac*/ CMP         R0, R2 
    /*000000b0*/ BEQ         _ZNSt8_Rb_treeINSt7__cxx1112basic_stringIcSt11char_traitsIcESaIcEEESt4pairIKS5_P16hiRUNTIME_BLOB_SESt10_Select1stISA_ESt4lessIS5_ESaISA_EE8_M_eraseEPSt13_Rb_tree_nodeISA_E_xb8
    /*000000b4*/ BL          _ZdlPv
    _ZNSt8_Rb_treeINSt7__cxx1112basic_stringIcSt11char_traitsIcESaIcEEESt4pairIKS5_P16hiRUNTIME_BLOB_SESt10_Select1stISA_ESt4lessIS5_ESaISA_EE8_M_eraseEPSt13_Rb_tree_nodeISA_E_xb8:
    /*000000b8*/ MOV         R0, R8 
    /*000000bc*/ BL          _ZdlPv
    /*000000c0*/ SUBS        R8, R4, #0 
    /*000000c4*/ BNE         _ZNSt8_Rb_treeINSt7__cxx1112basic_stringIcSt11char_traitsIcESaIcEEESt4pairIKS5_P16hiRUNTIME_BLOB_SESt10_Select1stISA_ESt4lessIS5_ESaISA_EE8_M_eraseEPSt13_Rb_tree_nodeISA_E_x94
    _ZNSt8_Rb_treeINSt7__cxx1112basic_stringIcSt11char_traitsIcESaIcEEESt4pairIKS5_P16hiRUNTIME_BLOB_SESt10_Select1stISA_ESt4lessIS5_ESaISA_EE8_M_eraseEPSt13_Rb_tree_nodeISA_E_xc8:
    /*000000c8*/ LDR         R0, [R6, #16] 
    /*000000cc*/ ADD         R3, R6, #24 
    /*000000d0*/ LDR         R4, [R6, #8] 
    /*000000d4*/ CMP         R0, R3 
    /*000000d8*/ BEQ         _ZNSt8_Rb_treeINSt7__cxx1112basic_stringIcSt11char_traitsIcESaIcEEESt4pairIKS5_P16hiRUNTIME_BLOB_SESt10_Select1stISA_ESt4lessIS5_ESaISA_EE8_M_eraseEPSt13_Rb_tree_nodeISA_E_xe0
    /*000000dc*/ BL          _ZdlPv
    _ZNSt8_Rb_treeINSt7__cxx1112basic_stringIcSt11char_traitsIcESaIcEEESt4pairIKS5_P16hiRUNTIME_BLOB_SESt10_Select1stISA_ESt4lessIS5_ESaISA_EE8_M_eraseEPSt13_Rb_tree_nodeISA_E_xe0:
    /*000000e0*/ MOV         R0, R6 
    /*000000e4*/ BL          _ZdlPv
    /*000000e8*/ SUBS        R6, R4, #0 
    /*000000ec*/ BNE         _ZNSt8_Rb_treeINSt7__cxx1112basic_stringIcSt11char_traitsIcESaIcEEESt4pairIKS5_P16hiRUNTIME_BLOB_SESt10_Select1stISA_ESt4lessIS5_ESaISA_EE8_M_eraseEPSt13_Rb_tree_nodeISA_E_x84
    _ZNSt8_Rb_treeINSt7__cxx1112basic_stringIcSt11char_traitsIcESaIcEEESt4pairIKS5_P16hiRUNTIME_BLOB_SESt10_Select1stISA_ESt4lessIS5_ESaISA_EE8_M_eraseEPSt13_Rb_tree_nodeISA_E_xf0:
    /*000000f0*/ LDR         R0, [R7, #16] 
    /*000000f4*/ ADD         R3, R7, #24 
    /*000000f8*/ LDR         R4, [R7, #8] 
    /*000000fc*/ CMP         R0, R3 
    /*00000100*/ BEQ         _ZNSt8_Rb_treeINSt7__cxx1112basic_stringIcSt11char_traitsIcESaIcEEESt4pairIKS5_P16hiRUNTIME_BLOB_SESt10_Select1stISA_ESt4lessIS5_ESaISA_EE8_M_eraseEPSt13_Rb_tree_nodeISA_E_x108
    /*00000104*/ BL          _ZdlPv
    _ZNSt8_Rb_treeINSt7__cxx1112basic_stringIcSt11char_traitsIcESaIcEEESt4pairIKS5_P16hiRUNTIME_BLOB_SESt10_Select1stISA_ESt4lessIS5_ESaISA_EE8_M_eraseEPSt13_Rb_tree_nodeISA_E_x108:
    /*00000108*/ MOV         R0, R7 
    /*0000010c*/ BL          _ZdlPv
    /*00000110*/ SUBS        R7, R4, #0 
    /*00000114*/ BNE         _ZNSt8_Rb_treeINSt7__cxx1112basic_stringIcSt11char_traitsIcESaIcEEESt4pairIKS5_P16hiRUNTIME_BLOB_SESt10_Select1stISA_ESt4lessIS5_ESaISA_EE8_M_eraseEPSt13_Rb_tree_nodeISA_E_x78
    _ZNSt8_Rb_treeINSt7__cxx1112basic_stringIcSt11char_traitsIcESaIcEEESt4pairIKS5_P16hiRUNTIME_BLOB_SESt10_Select1stISA_ESt4lessIS5_ESaISA_EE8_M_eraseEPSt13_Rb_tree_nodeISA_E_x118:
    /*00000118*/ LDR         R0, [FP, #16] 
    /*0000011c*/ ADD         R3, FP, #24 
    /*00000120*/ LDR         R4, [FP, #8] 
    /*00000124*/ CMP         R0, R3 
    /*00000128*/ BEQ         _ZNSt8_Rb_treeINSt7__cxx1112basic_stringIcSt11char_traitsIcESaIcEEESt4pairIKS5_P16hiRUNTIME_BLOB_SESt10_Select1stISA_ESt4lessIS5_ESaISA_EE8_M_eraseEPSt13_Rb_tree_nodeISA_E_x130
    /*0000012c*/ BL          _ZdlPv
    _ZNSt8_Rb_treeINSt7__cxx1112basic_stringIcSt11char_traitsIcESaIcEEESt4pairIKS5_P16hiRUNTIME_BLOB_SESt10_Select1stISA_ESt4lessIS5_ESaISA_EE8_M_eraseEPSt13_Rb_tree_nodeISA_E_x130:
    /*00000130*/ MOV         R0, FP 
    /*00000134*/ BL          _ZdlPv
    /*00000138*/ SUBS        FP, R4, #0 
    /*0000013c*/ BNE         _ZNSt8_Rb_treeINSt7__cxx1112basic_stringIcSt11char_traitsIcESaIcEEESt4pairIKS5_P16hiRUNTIME_BLOB_SESt10_Select1stISA_ESt4lessIS5_ESaISA_EE8_M_eraseEPSt13_Rb_tree_nodeISA_E_x6c
    _ZNSt8_Rb_treeINSt7__cxx1112basic_stringIcSt11char_traitsIcESaIcEEESt4pairIKS5_P16hiRUNTIME_BLOB_SESt10_Select1stISA_ESt4lessIS5_ESaISA_EE8_M_eraseEPSt13_Rb_tree_nodeISA_E_x140:
    /*00000140*/ LDR         R0, [SL, #16] 
    /*00000144*/ ADD         R3, SL, #24 
    /*00000148*/ LDR         R4, [SL, #8] 
    /*0000014c*/ CMP         R0, R3 
    /*00000150*/ BEQ         _ZNSt8_Rb_treeINSt7__cxx1112basic_stringIcSt11char_traitsIcESaIcEEESt4pairIKS5_P16hiRUNTIME_BLOB_SESt10_Select1stISA_ESt4lessIS5_ESaISA_EE8_M_eraseEPSt13_Rb_tree_nodeISA_E_x158
    /*00000154*/ BL          _ZdlPv
    _ZNSt8_Rb_treeINSt7__cxx1112basic_stringIcSt11char_traitsIcESaIcEEESt4pairIKS5_P16hiRUNTIME_BLOB_SESt10_Select1stISA_ESt4lessIS5_ESaISA_EE8_M_eraseEPSt13_Rb_tree_nodeISA_E_x158:
    /*00000158*/ MOV         R0, SL 
    /*0000015c*/ BL          _ZdlPv
    /*00000160*/ SUBS        SL, R4, #0 
    /*00000164*/ BNE         _ZNSt8_Rb_treeINSt7__cxx1112basic_stringIcSt11char_traitsIcESaIcEEESt4pairIKS5_P16hiRUNTIME_BLOB_SESt10_Select1stISA_ESt4lessIS5_ESaISA_EE8_M_eraseEPSt13_Rb_tree_nodeISA_E_x60
    _ZNSt8_Rb_treeINSt7__cxx1112basic_stringIcSt11char_traitsIcESaIcEEESt4pairIKS5_P16hiRUNTIME_BLOB_SESt10_Select1stISA_ESt4lessIS5_ESaISA_EE8_M_eraseEPSt13_Rb_tree_nodeISA_E_x168:
    /*00000168*/ LDR         R0, [R9, #16] 
    /*0000016c*/ ADD         R3, R9, #24 
    /*00000170*/ LDR         R4, [R9, #8] 
    /*00000174*/ CMP         R0, R3 
    /*00000178*/ BEQ         _ZNSt8_Rb_treeINSt7__cxx1112basic_stringIcSt11char_traitsIcESaIcEEESt4pairIKS5_P16hiRUNTIME_BLOB_SESt10_Select1stISA_ESt4lessIS5_ESaISA_EE8_M_eraseEPSt13_Rb_tree_nodeISA_E_x180
    /*0000017c*/ BL          _ZdlPv
    _ZNSt8_Rb_treeINSt7__cxx1112basic_stringIcSt11char_traitsIcESaIcEEESt4pairIKS5_P16hiRUNTIME_BLOB_SESt10_Select1stISA_ESt4lessIS5_ESaISA_EE8_M_eraseEPSt13_Rb_tree_nodeISA_E_x180:
    /*00000180*/ MOV         R0, R9 
    /*00000184*/ BL          _ZdlPv
    /*00000188*/ SUBS        R9, R4, #0 
    /*0000018c*/ BNE         _ZNSt8_Rb_treeINSt7__cxx1112basic_stringIcSt11char_traitsIcESaIcEEESt4pairIKS5_P16hiRUNTIME_BLOB_SESt10_Select1stISA_ESt4lessIS5_ESaISA_EE8_M_eraseEPSt13_Rb_tree_nodeISA_E_x54
    _ZNSt8_Rb_treeINSt7__cxx1112basic_stringIcSt11char_traitsIcESaIcEEESt4pairIKS5_P16hiRUNTIME_BLOB_SESt10_Select1stISA_ESt4lessIS5_ESaISA_EE8_M_eraseEPSt13_Rb_tree_nodeISA_E_x190:
    /*00000190*/ LDR         R2, [SP, #4] 
    /*00000194*/ LDR         R0, [R2, #16] 
    /*00000198*/ ADD         R3, R2, #24 
    /*0000019c*/ LDR         R4, [R2, #8] 
    /*000001a0*/ CMP         R0, R3 
    /*000001a4*/ MOVEQ       R0, R2 
    /*000001a8*/ BEQ         _ZNSt8_Rb_treeINSt7__cxx1112basic_stringIcSt11char_traitsIcESaIcEEESt4pairIKS5_P16hiRUNTIME_BLOB_SESt10_Select1stISA_ESt4lessIS5_ESaISA_EE8_M_eraseEPSt13_Rb_tree_nodeISA_E_x1b4
    /*000001ac*/ BL          _ZdlPv
    /*000001b0*/ LDR         R0, [SP, #4] 
    _ZNSt8_Rb_treeINSt7__cxx1112basic_stringIcSt11char_traitsIcESaIcEEESt4pairIKS5_P16hiRUNTIME_BLOB_SESt10_Select1stISA_ESt4lessIS5_ESaISA_EE8_M_eraseEPSt13_Rb_tree_nodeISA_E_x1b4:
    /*000001b4*/ BL          _ZdlPv
    /*000001b8*/ SUBS        R3, R4, #0 
    /*000001bc*/ STR         R3, [SP, #4] 
    /*000001c0*/ BNE         _ZNSt8_Rb_treeINSt7__cxx1112basic_stringIcSt11char_traitsIcESaIcEEESt4pairIKS5_P16hiRUNTIME_BLOB_SESt10_Select1stISA_ESt4lessIS5_ESaISA_EE8_M_eraseEPSt13_Rb_tree_nodeISA_E_x48
    _ZNSt8_Rb_treeINSt7__cxx1112basic_stringIcSt11char_traitsIcESaIcEEESt4pairIKS5_P16hiRUNTIME_BLOB_SESt10_Select1stISA_ESt4lessIS5_ESaISA_EE8_M_eraseEPSt13_Rb_tree_nodeISA_E_x1c4:
    /*000001c4*/ LDR         R2, [SP, #8] 
    /*000001c8*/ LDR         R0, [R2, #16] 
    /*000001cc*/ ADD         R3, R2, #24 
    /*000001d0*/ LDR         R4, [R2, #8] 
    /*000001d4*/ CMP         R0, R3 
    /*000001d8*/ MOVEQ       R0, R2 
    /*000001dc*/ BEQ         _ZNSt8_Rb_treeINSt7__cxx1112basic_stringIcSt11char_traitsIcESaIcEEESt4pairIKS5_P16hiRUNTIME_BLOB_SESt10_Select1stISA_ESt4lessIS5_ESaISA_EE8_M_eraseEPSt13_Rb_tree_nodeISA_E_x1e8
    /*000001e0*/ BL          _ZdlPv
    /*000001e4*/ LDR         R0, [SP, #8] 
    _ZNSt8_Rb_treeINSt7__cxx1112basic_stringIcSt11char_traitsIcESaIcEEESt4pairIKS5_P16hiRUNTIME_BLOB_SESt10_Select1stISA_ESt4lessIS5_ESaISA_EE8_M_eraseEPSt13_Rb_tree_nodeISA_E_x1e8:
    /*000001e8*/ BL          _ZdlPv
    /*000001ec*/ SUBS        R3, R4, #0 
    /*000001f0*/ STR         R3, [SP, #8] 
    /*000001f4*/ BNE         _ZNSt8_Rb_treeINSt7__cxx1112basic_stringIcSt11char_traitsIcESaIcEEESt4pairIKS5_P16hiRUNTIME_BLOB_SESt10_Select1stISA_ESt4lessIS5_ESaISA_EE8_M_eraseEPSt13_Rb_tree_nodeISA_E_x34
    _ZNSt8_Rb_treeINSt7__cxx1112basic_stringIcSt11char_traitsIcESaIcEEESt4pairIKS5_P16hiRUNTIME_BLOB_SESt10_Select1stISA_ESt4lessIS5_ESaISA_EE8_M_eraseEPSt13_Rb_tree_nodeISA_E_x1f8:
    /*000001f8*/ LDR         R2, [SP, #12] 
    /*000001fc*/ LDR         R0, [R2, #16] 
    /*00000200*/ ADD         R3, R2, #24 
    /*00000204*/ LDR         R4, [R2, #8] 
    /*00000208*/ CMP         R0, R3 
    /*0000020c*/ MOVEQ       R0, R2 
    /*00000210*/ BEQ         _ZNSt8_Rb_treeINSt7__cxx1112basic_stringIcSt11char_traitsIcESaIcEEESt4pairIKS5_P16hiRUNTIME_BLOB_SESt10_Select1stISA_ESt4lessIS5_ESaISA_EE8_M_eraseEPSt13_Rb_tree_nodeISA_E_x21c
    /*00000214*/ BL          _ZdlPv
    /*00000218*/ LDR         R0, [SP, #12] 
    _ZNSt8_Rb_treeINSt7__cxx1112basic_stringIcSt11char_traitsIcESaIcEEESt4pairIKS5_P16hiRUNTIME_BLOB_SESt10_Select1stISA_ESt4lessIS5_ESaISA_EE8_M_eraseEPSt13_Rb_tree_nodeISA_E_x21c:
    /*0000021c*/ BL          _ZdlPv
    /*00000220*/ SUBS        R3, R4, #0 
    /*00000224*/ STR         R3, [SP, #12] 
    /*00000228*/ BNE         _ZNSt8_Rb_treeINSt7__cxx1112basic_stringIcSt11char_traitsIcESaIcEEESt4pairIKS5_P16hiRUNTIME_BLOB_SESt10_Select1stISA_ESt4lessIS5_ESaISA_EE8_M_eraseEPSt13_Rb_tree_nodeISA_E_x24
    _ZNSt8_Rb_treeINSt7__cxx1112basic_stringIcSt11char_traitsIcESaIcEEESt4pairIKS5_P16hiRUNTIME_BLOB_SESt10_Select1stISA_ESt4lessIS5_ESaISA_EE8_M_eraseEPSt13_Rb_tree_nodeISA_E_x22c:
    /*0000022c*/ ADD         SP, SP, #20 
    /*00000230*/ POP         {R4, R5, R6, R7, R8, R9, SL, FP, PC} 
FUNC_END _ZNSt8_Rb_treeINSt7__cxx1112basic_stringIcSt11char_traitsIcESaIcEEESt4pairIKS5_P16hiRUNTIME_BLOB_SESt10_Select1stISA_ESt4lessIS5_ESaISA_EE8_M_eraseEPSt13_Rb_tree_nodeISA_E


@ - - - - - - - - - - - - - - - - - - - - - - - - - - - - - 
@ .text._ZNSt6vectorIP16hiRUNTIME_BLOB_SSaIS1_EE19_M_emplace_back_auxIJRKS1_EEEvDpOT_
@ Size: 0xd4
@ - - - - - - - - - - - - - - - - - - - - - - - - - - - - - 

FUNC_BEGIN _ZNSt6vectorIP16hiRUNTIME_BLOB_SSaIS1_EE19_M_emplace_back_auxIJRKS1_EEEvDpOT_
    /*00000000*/ MOV         IP, #16384                  @ 0x4000 
    /*00000004*/ PUSH        {R4, R5, R6, R7, R8, R9, SL, LR} 
    /*00000008*/ SUB         IP, SP, IP 
    /*0000000c*/ STR         R0, [IP, #4064]             @ 0xfe0 
    /*00000010*/ LDM         R0, {R2, R3} 
    /*00000014*/ MOV         R6, R0 
    /*00000018*/ MOV         R9, R1 
    /*0000001c*/ SUB         R3, R3, R2 
    /*00000020*/ ASRS        R3, R3, #2 
    /*00000024*/ BEQ         _ZNSt6vectorIP16hiRUNTIME_BLOB_SSaIS1_EE19_M_emplace_back_auxIJRKS1_EEEvDpOT__x3c
    /*00000028*/ LSL         R5, R3, #1 
    /*0000002c*/ CMP         R3, R5 
    /*00000030*/ BLS         _ZNSt6vectorIP16hiRUNTIME_BLOB_SSaIS1_EE19_M_emplace_back_auxIJRKS1_EEEvDpOT__xb8
    _ZNSt6vectorIP16hiRUNTIME_BLOB_SSaIS1_EE19_M_emplace_back_auxIJRKS1_EEEvDpOT__x34:
    /*00000034*/ MVN         R5, #3 
    /*00000038*/ B           _ZNSt6vectorIP16hiRUNTIME_BLOB_SSaIS1_EE19_M_emplace_back_auxIJRKS1_EEEvDpOT__x40
    _ZNSt6vectorIP16hiRUNTIME_BLOB_SSaIS1_EE19_M_emplace_back_auxIJRKS1_EEEvDpOT__x3c:
    /*0000003c*/ MOV         R5, #4 
    _ZNSt6vectorIP16hiRUNTIME_BLOB_SSaIS1_EE19_M_emplace_back_auxIJRKS1_EEEvDpOT__x40:
    /*00000040*/ MOV         R0, R5 
    /*00000044*/ BL          _Znwj
    /*00000048*/ MOV         R7, R0 
    _ZNSt6vectorIP16hiRUNTIME_BLOB_SSaIS1_EE19_M_emplace_back_auxIJRKS1_EEEvDpOT__x4c:
    /*0000004c*/ LDR         R8, [R6] 
    /*00000050*/ LDR         R4, [R6, #4] 
    /*00000054*/ LDR         R2, [R9] 
    /*00000058*/ SUB         R4, R4, R8 
    /*0000005c*/ CMN         R7, R4 
    /*00000060*/ ASR         R3, R4, #2 
    /*00000064*/ STRNE       R2, [R7, R4] 
    /*00000068*/ CMP         R3, #0 
    /*0000006c*/ BNE         _ZNSt6vectorIP16hiRUNTIME_BLOB_SSaIS1_EE19_M_emplace_back_auxIJRKS1_EEEvDpOT__x9c
    /*00000070*/ CMP         R8, #0 
    /*00000074*/ ADD         R4, R4, #4 
    /*00000078*/ ADD         R4, R7, R4 
    /*0000007c*/ BEQ         _ZNSt6vectorIP16hiRUNTIME_BLOB_SSaIS1_EE19_M_emplace_back_auxIJRKS1_EEEvDpOT__x88
    _ZNSt6vectorIP16hiRUNTIME_BLOB_SSaIS1_EE19_M_emplace_back_auxIJRKS1_EEEvDpOT__x80:
    /*00000080*/ MOV         R0, R8 
    /*00000084*/ BL          _ZdlPv
    _ZNSt6vectorIP16hiRUNTIME_BLOB_SSaIS1_EE19_M_emplace_back_auxIJRKS1_EEEvDpOT__x88:
    /*00000088*/ ADD         R5, R7, R5 
    /*0000008c*/ STR         R5, [R6, #8] 
    /*00000090*/ STR         R7, [R6] 
    /*00000094*/ STR         R4, [R6, #4] 
    /*00000098*/ POP         {R4, R5, R6, R7, R8, R9, SL, PC} 
    _ZNSt6vectorIP16hiRUNTIME_BLOB_SSaIS1_EE19_M_emplace_back_auxIJRKS1_EEEvDpOT__x9c:
    /*0000009c*/ MOV         R2, R4 
    /*000000a0*/ MOV         R1, R8 
    /*000000a4*/ MOV         R0, R7 
    /*000000a8*/ ADD         R4, R4, #4 
    /*000000ac*/ ADD         R4, R7, R4 
    /*000000b0*/ BL          memmove
    /*000000b4*/ B           _ZNSt6vectorIP16hiRUNTIME_BLOB_SSaIS1_EE19_M_emplace_back_auxIJRKS1_EEEvDpOT__x80
    _ZNSt6vectorIP16hiRUNTIME_BLOB_SSaIS1_EE19_M_emplace_back_auxIJRKS1_EEEvDpOT__xb8:
    /*000000b8*/ CMN         R5, #-1073741823            @ 0xc0000001 
    /*000000bc*/ BHI         _ZNSt6vectorIP16hiRUNTIME_BLOB_SSaIS1_EE19_M_emplace_back_auxIJRKS1_EEEvDpOT__x34
    /*000000c0*/ CMP         R5, #0 
    /*000000c4*/ LSLNE       R5, R3, #3 
    /*000000c8*/ BNE         _ZNSt6vectorIP16hiRUNTIME_BLOB_SSaIS1_EE19_M_emplace_back_auxIJRKS1_EEEvDpOT__x40
    /*000000cc*/ MOV         R7, R5 
    /*000000d0*/ B           _ZNSt6vectorIP16hiRUNTIME_BLOB_SSaIS1_EE19_M_emplace_back_auxIJRKS1_EEEvDpOT__x4c
FUNC_END _ZNSt6vectorIP16hiRUNTIME_BLOB_SSaIS1_EE19_M_emplace_back_auxIJRKS1_EEEvDpOT_


@ - - - - - - - - - - - - - - - - - - - - - - - - - - - - - 
@ .text._ZNSt6vectorIPN4hirt13GroupItemTaskESaIS2_EE19_M_emplace_back_auxIJRKS2_EEEvDpOT_
@ Size: 0xd4
@ - - - - - - - - - - - - - - - - - - - - - - - - - - - - - 

FUNC_BEGIN _ZNSt6vectorIPN4hirt13GroupItemTaskESaIS2_EE19_M_emplace_back_auxIJRKS2_EEEvDpOT_
    /*00000000*/ MOV         IP, #16384                  @ 0x4000 
    /*00000004*/ PUSH        {R4, R5, R6, R7, R8, R9, SL, LR} 
    /*00000008*/ SUB         IP, SP, IP 
    /*0000000c*/ STR         R0, [IP, #4064]             @ 0xfe0 
    /*00000010*/ LDM         R0, {R2, R3} 
    /*00000014*/ MOV         R6, R0 
    /*00000018*/ MOV         R9, R1 
    /*0000001c*/ SUB         R3, R3, R2 
    /*00000020*/ ASRS        R3, R3, #2 
    /*00000024*/ BEQ         _ZNSt6vectorIPN4hirt13GroupItemTaskESaIS2_EE19_M_emplace_back_auxIJRKS2_EEEvDpOT__x3c
    /*00000028*/ LSL         R5, R3, #1 
    /*0000002c*/ CMP         R3, R5 
    /*00000030*/ BLS         _ZNSt6vectorIPN4hirt13GroupItemTaskESaIS2_EE19_M_emplace_back_auxIJRKS2_EEEvDpOT__xb8
    _ZNSt6vectorIPN4hirt13GroupItemTaskESaIS2_EE19_M_emplace_back_auxIJRKS2_EEEvDpOT__x34:
    /*00000034*/ MVN         R5, #3 
    /*00000038*/ B           _ZNSt6vectorIPN4hirt13GroupItemTaskESaIS2_EE19_M_emplace_back_auxIJRKS2_EEEvDpOT__x40
    _ZNSt6vectorIPN4hirt13GroupItemTaskESaIS2_EE19_M_emplace_back_auxIJRKS2_EEEvDpOT__x3c:
    /*0000003c*/ MOV         R5, #4 
    _ZNSt6vectorIPN4hirt13GroupItemTaskESaIS2_EE19_M_emplace_back_auxIJRKS2_EEEvDpOT__x40:
    /*00000040*/ MOV         R0, R5 
    /*00000044*/ BL          _Znwj
    /*00000048*/ MOV         R7, R0 
    _ZNSt6vectorIPN4hirt13GroupItemTaskESaIS2_EE19_M_emplace_back_auxIJRKS2_EEEvDpOT__x4c:
    /*0000004c*/ LDR         R8, [R6] 
    /*00000050*/ LDR         R4, [R6, #4] 
    /*00000054*/ LDR         R2, [R9] 
    /*00000058*/ SUB         R4, R4, R8 
    /*0000005c*/ CMN         R7, R4 
    /*00000060*/ ASR         R3, R4, #2 
    /*00000064*/ STRNE       R2, [R7, R4] 
    /*00000068*/ CMP         R3, #0 
    /*0000006c*/ BNE         _ZNSt6vectorIPN4hirt13GroupItemTaskESaIS2_EE19_M_emplace_back_auxIJRKS2_EEEvDpOT__x9c
    /*00000070*/ CMP         R8, #0 
    /*00000074*/ ADD         R4, R4, #4 
    /*00000078*/ ADD         R4, R7, R4 
    /*0000007c*/ BEQ         _ZNSt6vectorIPN4hirt13GroupItemTaskESaIS2_EE19_M_emplace_back_auxIJRKS2_EEEvDpOT__x88
    _ZNSt6vectorIPN4hirt13GroupItemTaskESaIS2_EE19_M_emplace_back_auxIJRKS2_EEEvDpOT__x80:
    /*00000080*/ MOV         R0, R8 
    /*00000084*/ BL          _ZdlPv
    _ZNSt6vectorIPN4hirt13GroupItemTaskESaIS2_EE19_M_emplace_back_auxIJRKS2_EEEvDpOT__x88:
    /*00000088*/ ADD         R5, R7, R5 
    /*0000008c*/ STR         R5, [R6, #8] 
    /*00000090*/ STR         R7, [R6] 
    /*00000094*/ STR         R4, [R6, #4] 
    /*00000098*/ POP         {R4, R5, R6, R7, R8, R9, SL, PC} 
    _ZNSt6vectorIPN4hirt13GroupItemTaskESaIS2_EE19_M_emplace_back_auxIJRKS2_EEEvDpOT__x9c:
    /*0000009c*/ MOV         R2, R4 
    /*000000a0*/ MOV         R1, R8 
    /*000000a4*/ MOV         R0, R7 
    /*000000a8*/ ADD         R4, R4, #4 
    /*000000ac*/ ADD         R4, R7, R4 
    /*000000b0*/ BL          memmove
    /*000000b4*/ B           _ZNSt6vectorIPN4hirt13GroupItemTaskESaIS2_EE19_M_emplace_back_auxIJRKS2_EEEvDpOT__x80
    _ZNSt6vectorIPN4hirt13GroupItemTaskESaIS2_EE19_M_emplace_back_auxIJRKS2_EEEvDpOT__xb8:
    /*000000b8*/ CMN         R5, #-1073741823            @ 0xc0000001 
    /*000000bc*/ BHI         _ZNSt6vectorIPN4hirt13GroupItemTaskESaIS2_EE19_M_emplace_back_auxIJRKS2_EEEvDpOT__x34
    /*000000c0*/ CMP         R5, #0 
    /*000000c4*/ LSLNE       R5, R3, #3 
    /*000000c8*/ BNE         _ZNSt6vectorIPN4hirt13GroupItemTaskESaIS2_EE19_M_emplace_back_auxIJRKS2_EEEvDpOT__x40
    /*000000cc*/ MOV         R7, R5 
    /*000000d0*/ B           _ZNSt6vectorIPN4hirt13GroupItemTaskESaIS2_EE19_M_emplace_back_auxIJRKS2_EEEvDpOT__x4c
FUNC_END _ZNSt6vectorIPN4hirt13GroupItemTaskESaIS2_EE19_M_emplace_back_auxIJRKS2_EEEvDpOT_


@ - - - - - - - - - - - - - - - - - - - - - - - - - - - - - 
@ .text._ZNSt6vectorIPN4hirt7SegTaskESaIS2_EE19_M_emplace_back_auxIJRKS2_EEEvDpOT_
@ Size: 0xd4
@ - - - - - - - - - - - - - - - - - - - - - - - - - - - - - 

FUNC_BEGIN _ZNSt6vectorIPN4hirt7SegTaskESaIS2_EE19_M_emplace_back_auxIJRKS2_EEEvDpOT_
    /*00000000*/ MOV         IP, #16384                  @ 0x4000 
    /*00000004*/ PUSH        {R4, R5, R6, R7, R8, R9, SL, LR} 
    /*00000008*/ SUB         IP, SP, IP 
    /*0000000c*/ STR         R0, [IP, #4064]             @ 0xfe0 
    /*00000010*/ LDM         R0, {R2, R3} 
    /*00000014*/ MOV         R6, R0 
    /*00000018*/ MOV         R9, R1 
    /*0000001c*/ SUB         R3, R3, R2 
    /*00000020*/ ASRS        R3, R3, #2 
    /*00000024*/ BEQ         _ZNSt6vectorIPN4hirt7SegTaskESaIS2_EE19_M_emplace_back_auxIJRKS2_EEEvDpOT__x3c
    /*00000028*/ LSL         R5, R3, #1 
    /*0000002c*/ CMP         R3, R5 
    /*00000030*/ BLS         _ZNSt6vectorIPN4hirt7SegTaskESaIS2_EE19_M_emplace_back_auxIJRKS2_EEEvDpOT__xb8
    _ZNSt6vectorIPN4hirt7SegTaskESaIS2_EE19_M_emplace_back_auxIJRKS2_EEEvDpOT__x34:
    /*00000034*/ MVN         R5, #3 
    /*00000038*/ B           _ZNSt6vectorIPN4hirt7SegTaskESaIS2_EE19_M_emplace_back_auxIJRKS2_EEEvDpOT__x40
    _ZNSt6vectorIPN4hirt7SegTaskESaIS2_EE19_M_emplace_back_auxIJRKS2_EEEvDpOT__x3c:
    /*0000003c*/ MOV         R5, #4 
    _ZNSt6vectorIPN4hirt7SegTaskESaIS2_EE19_M_emplace_back_auxIJRKS2_EEEvDpOT__x40:
    /*00000040*/ MOV         R0, R5 
    /*00000044*/ BL          _Znwj
    /*00000048*/ MOV         R7, R0 
    _ZNSt6vectorIPN4hirt7SegTaskESaIS2_EE19_M_emplace_back_auxIJRKS2_EEEvDpOT__x4c:
    /*0000004c*/ LDR         R8, [R6] 
    /*00000050*/ LDR         R4, [R6, #4] 
    /*00000054*/ LDR         R2, [R9] 
    /*00000058*/ SUB         R4, R4, R8 
    /*0000005c*/ CMN         R7, R4 
    /*00000060*/ ASR         R3, R4, #2 
    /*00000064*/ STRNE       R2, [R7, R4] 
    /*00000068*/ CMP         R3, #0 
    /*0000006c*/ BNE         _ZNSt6vectorIPN4hirt7SegTaskESaIS2_EE19_M_emplace_back_auxIJRKS2_EEEvDpOT__x9c
    /*00000070*/ CMP         R8, #0 
    /*00000074*/ ADD         R4, R4, #4 
    /*00000078*/ ADD         R4, R7, R4 
    /*0000007c*/ BEQ         _ZNSt6vectorIPN4hirt7SegTaskESaIS2_EE19_M_emplace_back_auxIJRKS2_EEEvDpOT__x88
    _ZNSt6vectorIPN4hirt7SegTaskESaIS2_EE19_M_emplace_back_auxIJRKS2_EEEvDpOT__x80:
    /*00000080*/ MOV         R0, R8 
    /*00000084*/ BL          _ZdlPv
    _ZNSt6vectorIPN4hirt7SegTaskESaIS2_EE19_M_emplace_back_auxIJRKS2_EEEvDpOT__x88:
    /*00000088*/ ADD         R5, R7, R5 
    /*0000008c*/ STR         R5, [R6, #8] 
    /*00000090*/ STR         R7, [R6] 
    /*00000094*/ STR         R4, [R6, #4] 
    /*00000098*/ POP         {R4, R5, R6, R7, R8, R9, SL, PC} 
    _ZNSt6vectorIPN4hirt7SegTaskESaIS2_EE19_M_emplace_back_auxIJRKS2_EEEvDpOT__x9c:
    /*0000009c*/ MOV         R2, R4 
    /*000000a0*/ MOV         R1, R8 
    /*000000a4*/ MOV         R0, R7 
    /*000000a8*/ ADD         R4, R4, #4 
    /*000000ac*/ ADD         R4, R7, R4 
    /*000000b0*/ BL          memmove
    /*000000b4*/ B           _ZNSt6vectorIPN4hirt7SegTaskESaIS2_EE19_M_emplace_back_auxIJRKS2_EEEvDpOT__x80
    _ZNSt6vectorIPN4hirt7SegTaskESaIS2_EE19_M_emplace_back_auxIJRKS2_EEEvDpOT__xb8:
    /*000000b8*/ CMN         R5, #-1073741823            @ 0xc0000001 
    /*000000bc*/ BHI         _ZNSt6vectorIPN4hirt7SegTaskESaIS2_EE19_M_emplace_back_auxIJRKS2_EEEvDpOT__x34
    /*000000c0*/ CMP         R5, #0 
    /*000000c4*/ LSLNE       R5, R3, #3 
    /*000000c8*/ BNE         _ZNSt6vectorIPN4hirt7SegTaskESaIS2_EE19_M_emplace_back_auxIJRKS2_EEEvDpOT__x40
    /*000000cc*/ MOV         R7, R5 
    /*000000d0*/ B           _ZNSt6vectorIPN4hirt7SegTaskESaIS2_EE19_M_emplace_back_auxIJRKS2_EEEvDpOT__x4c
FUNC_END _ZNSt6vectorIPN4hirt7SegTaskESaIS2_EE19_M_emplace_back_auxIJRKS2_EEEvDpOT_


@ - - - - - - - - - - - - - - - - - - - - - - - - - - - - - 
@ .text._ZNSt6vectorIPN4hirt14ModelGroupTaskESaIS2_EE19_M_emplace_back_auxIJRKS2_EEEvDpOT_
@ Size: 0xd4
@ - - - - - - - - - - - - - - - - - - - - - - - - - - - - - 

FUNC_BEGIN _ZNSt6vectorIPN4hirt14ModelGroupTaskESaIS2_EE19_M_emplace_back_auxIJRKS2_EEEvDpOT_
    /*00000000*/ MOV         IP, #16384                  @ 0x4000 
    /*00000004*/ PUSH        {R4, R5, R6, R7, R8, R9, SL, LR} 
    /*00000008*/ SUB         IP, SP, IP 
    /*0000000c*/ STR         R0, [IP, #4064]             @ 0xfe0 
    /*00000010*/ LDM         R0, {R2, R3} 
    /*00000014*/ MOV         R6, R0 
    /*00000018*/ MOV         R9, R1 
    /*0000001c*/ SUB         R3, R3, R2 
    /*00000020*/ ASRS        R3, R3, #2 
    /*00000024*/ BEQ         _ZNSt6vectorIPN4hirt14ModelGroupTaskESaIS2_EE19_M_emplace_back_auxIJRKS2_EEEvDpOT__x3c
    /*00000028*/ LSL         R5, R3, #1 
    /*0000002c*/ CMP         R3, R5 
    /*00000030*/ BLS         _ZNSt6vectorIPN4hirt14ModelGroupTaskESaIS2_EE19_M_emplace_back_auxIJRKS2_EEEvDpOT__xb8
    _ZNSt6vectorIPN4hirt14ModelGroupTaskESaIS2_EE19_M_emplace_back_auxIJRKS2_EEEvDpOT__x34:
    /*00000034*/ MVN         R5, #3 
    /*00000038*/ B           _ZNSt6vectorIPN4hirt14ModelGroupTaskESaIS2_EE19_M_emplace_back_auxIJRKS2_EEEvDpOT__x40
    _ZNSt6vectorIPN4hirt14ModelGroupTaskESaIS2_EE19_M_emplace_back_auxIJRKS2_EEEvDpOT__x3c:
    /*0000003c*/ MOV         R5, #4 
    _ZNSt6vectorIPN4hirt14ModelGroupTaskESaIS2_EE19_M_emplace_back_auxIJRKS2_EEEvDpOT__x40:
    /*00000040*/ MOV         R0, R5 
    /*00000044*/ BL          _Znwj
    /*00000048*/ MOV         R7, R0 
    _ZNSt6vectorIPN4hirt14ModelGroupTaskESaIS2_EE19_M_emplace_back_auxIJRKS2_EEEvDpOT__x4c:
    /*0000004c*/ LDR         R8, [R6] 
    /*00000050*/ LDR         R4, [R6, #4] 
    /*00000054*/ LDR         R2, [R9] 
    /*00000058*/ SUB         R4, R4, R8 
    /*0000005c*/ CMN         R7, R4 
    /*00000060*/ ASR         R3, R4, #2 
    /*00000064*/ STRNE       R2, [R7, R4] 
    /*00000068*/ CMP         R3, #0 
    /*0000006c*/ BNE         _ZNSt6vectorIPN4hirt14ModelGroupTaskESaIS2_EE19_M_emplace_back_auxIJRKS2_EEEvDpOT__x9c
    /*00000070*/ CMP         R8, #0 
    /*00000074*/ ADD         R4, R4, #4 
    /*00000078*/ ADD         R4, R7, R4 
    /*0000007c*/ BEQ         _ZNSt6vectorIPN4hirt14ModelGroupTaskESaIS2_EE19_M_emplace_back_auxIJRKS2_EEEvDpOT__x88
    _ZNSt6vectorIPN4hirt14ModelGroupTaskESaIS2_EE19_M_emplace_back_auxIJRKS2_EEEvDpOT__x80:
    /*00000080*/ MOV         R0, R8 
    /*00000084*/ BL          _ZdlPv
    _ZNSt6vectorIPN4hirt14ModelGroupTaskESaIS2_EE19_M_emplace_back_auxIJRKS2_EEEvDpOT__x88:
    /*00000088*/ ADD         R5, R7, R5 
    /*0000008c*/ STR         R5, [R6, #8] 
    /*00000090*/ STR         R7, [R6] 
    /*00000094*/ STR         R4, [R6, #4] 
    /*00000098*/ POP         {R4, R5, R6, R7, R8, R9, SL, PC} 
    _ZNSt6vectorIPN4hirt14ModelGroupTaskESaIS2_EE19_M_emplace_back_auxIJRKS2_EEEvDpOT__x9c:
    /*0000009c*/ MOV         R2, R4 
    /*000000a0*/ MOV         R1, R8 
    /*000000a4*/ MOV         R0, R7 
    /*000000a8*/ ADD         R4, R4, #4 
    /*000000ac*/ ADD         R4, R7, R4 
    /*000000b0*/ BL          memmove
    /*000000b4*/ B           _ZNSt6vectorIPN4hirt14ModelGroupTaskESaIS2_EE19_M_emplace_back_auxIJRKS2_EEEvDpOT__x80
    _ZNSt6vectorIPN4hirt14ModelGroupTaskESaIS2_EE19_M_emplace_back_auxIJRKS2_EEEvDpOT__xb8:
    /*000000b8*/ CMN         R5, #-1073741823            @ 0xc0000001 
    /*000000bc*/ BHI         _ZNSt6vectorIPN4hirt14ModelGroupTaskESaIS2_EE19_M_emplace_back_auxIJRKS2_EEEvDpOT__x34
    /*000000c0*/ CMP         R5, #0 
    /*000000c4*/ LSLNE       R5, R3, #3 
    /*000000c8*/ BNE         _ZNSt6vectorIPN4hirt14ModelGroupTaskESaIS2_EE19_M_emplace_back_auxIJRKS2_EEEvDpOT__x40
    /*000000cc*/ MOV         R7, R5 
    /*000000d0*/ B           _ZNSt6vectorIPN4hirt14ModelGroupTaskESaIS2_EE19_M_emplace_back_auxIJRKS2_EEEvDpOT__x4c
FUNC_END _ZNSt6vectorIPN4hirt14ModelGroupTaskESaIS2_EE19_M_emplace_back_auxIJRKS2_EEEvDpOT_


@ - - - - - - - - - - - - - - - - - - - - - - - - - - - - - 
@ .text._ZNSt8_Rb_treeIP16hiRUNTIME_BLOB_SSt4pairIKS1_NSt7__cxx1112basic_stringIcSt11char_traitsIcESaIcEEEESt10_Select1stISA_ESt4lessIS1_ESaISA_EE29_M_get_insert_hint_unique_posESt23_Rb_tree_const_iteratorISA_ERS3_
@ Size: 0x29c
@ - - - - - - - - - - - - - - - - - - - - - - - - - - - - - 

FUNC_BEGIN _ZNSt8_Rb_treeIP16hiRUNTIME_BLOB_SSt4pairIKS1_NSt7__cxx1112basic_stringIcSt11char_traitsIcESaIcEEEESt10_Select1stISA_ESt4lessIS1_ESaISA_EE29_M_get_insert_hint_unique_posESt23_Rb_tree_const_iteratorISA_ERS3_
    /*00000000*/ MOV         IP, #16384                  @ 0x4000 
    /*00000004*/ PUSH        {R4, R5, R6, R7, R8, R9, LR} 
    /*00000008*/ SUB         IP, SP, IP 
    /*0000000c*/ STR         R0, [IP, #4056]             @ 0xfd8 
    /*00000010*/ ADD         R8, R1, #4 
    /*00000014*/ SUB         SP, SP, #12 
    /*00000018*/ CMP         R2, R8 
    /*0000001c*/ MOV         R7, R1 
    /*00000020*/ MOV         R5, R0 
    /*00000024*/ BEQ         _ZNSt8_Rb_treeIP16hiRUNTIME_BLOB_SSt4pairIKS1_NSt7__cxx1112basic_stringIcSt11char_traitsIcESaIcEEEESt10_Select1stISA_ESt4lessIS1_ESaISA_EE29_M_get_insert_hint_unique_posESt23_Rb_tree_const_iteratorISA_ERS3__xf0
    /*00000028*/ LDR         R6, [R3] 
    /*0000002c*/ MOV         R4, R2 
    /*00000030*/ LDR         R3, [R2, #16] 
    /*00000034*/ CMP         R6, R3 
    /*00000038*/ BCS         _ZNSt8_Rb_treeIP16hiRUNTIME_BLOB_SSt4pairIKS1_NSt7__cxx1112basic_stringIcSt11char_traitsIcESaIcEEEESt10_Select1stISA_ESt4lessIS1_ESaISA_EE29_M_get_insert_hint_unique_posESt23_Rb_tree_const_iteratorISA_ERS3__x88
    /*0000003c*/ LDR         R9, [R1, #12] 
    /*00000040*/ CMP         R9, R2 
    /*00000044*/ STREQ       R9, [R0] 
    /*00000048*/ STREQ       R9, [R0, #4] 
    /*0000004c*/ BEQ         _ZNSt8_Rb_treeIP16hiRUNTIME_BLOB_SSt4pairIKS1_NSt7__cxx1112basic_stringIcSt11char_traitsIcESaIcEEEESt10_Select1stISA_ESt4lessIS1_ESaISA_EE29_M_get_insert_hint_unique_posESt23_Rb_tree_const_iteratorISA_ERS3__x7c
    /*00000050*/ MOV         R0, R2 
    /*00000054*/ BL          _ZSt18_Rb_tree_decrementPSt18_Rb_tree_node_base
    /*00000058*/ LDR         R3, [R0, #16] 
    /*0000005c*/ CMP         R6, R3 
    /*00000060*/ BLS         _ZNSt8_Rb_treeIP16hiRUNTIME_BLOB_SSt4pairIKS1_NSt7__cxx1112basic_stringIcSt11char_traitsIcESaIcEEEESt10_Select1stISA_ESt4lessIS1_ESaISA_EE29_M_get_insert_hint_unique_posESt23_Rb_tree_const_iteratorISA_ERS3__x188
    /*00000064*/ LDR         R3, [R0, #12] 
    /*00000068*/ CMP         R3, #0 
    /*0000006c*/ STREQ       R3, [R5] 
    /*00000070*/ STREQ       R0, [R5, #4] 
    /*00000074*/ STRNE       R4, [R5] 
    /*00000078*/ STRNE       R4, [R5, #4] 
    _ZNSt8_Rb_treeIP16hiRUNTIME_BLOB_SSt4pairIKS1_NSt7__cxx1112basic_stringIcSt11char_traitsIcESaIcEEEESt10_Select1stISA_ESt4lessIS1_ESaISA_EE29_M_get_insert_hint_unique_posESt23_Rb_tree_const_iteratorISA_ERS3__x7c:
    /*0000007c*/ MOV         R0, R5 
    /*00000080*/ ADD         SP, SP, #12 
    /*00000084*/ POP         {R4, R5, R6, R7, R8, R9, PC} 
    _ZNSt8_Rb_treeIP16hiRUNTIME_BLOB_SSt4pairIKS1_NSt7__cxx1112basic_stringIcSt11char_traitsIcESaIcEEEESt10_Select1stISA_ESt4lessIS1_ESaISA_EE29_M_get_insert_hint_unique_posESt23_Rb_tree_const_iteratorISA_ERS3__x88:
    /*00000088*/ BLS         _ZNSt8_Rb_treeIP16hiRUNTIME_BLOB_SSt4pairIKS1_NSt7__cxx1112basic_stringIcSt11char_traitsIcESaIcEEEESt10_Select1stISA_ESt4lessIS1_ESaISA_EE29_M_get_insert_hint_unique_posESt23_Rb_tree_const_iteratorISA_ERS3__xd8
    /*0000008c*/ LDR         R3, [R1, #16] 
    /*00000090*/ CMP         R3, R2 
    /*00000094*/ STREQ       R3, [R0, #4] 
    /*00000098*/ MOVEQ       R3, #0 
    /*0000009c*/ STREQ       R3, [R0] 
    /*000000a0*/ BEQ         _ZNSt8_Rb_treeIP16hiRUNTIME_BLOB_SSt4pairIKS1_NSt7__cxx1112basic_stringIcSt11char_traitsIcESaIcEEEESt10_Select1stISA_ESt4lessIS1_ESaISA_EE29_M_get_insert_hint_unique_posESt23_Rb_tree_const_iteratorISA_ERS3__x7c
    /*000000a4*/ MOV         R0, R2 
    /*000000a8*/ BL          _ZSt18_Rb_tree_incrementPSt18_Rb_tree_node_base
    /*000000ac*/ LDR         R3, [R0, #16] 
    /*000000b0*/ CMP         R6, R3 
    /*000000b4*/ BCS         _ZNSt8_Rb_treeIP16hiRUNTIME_BLOB_SSt4pairIKS1_NSt7__cxx1112basic_stringIcSt11char_traitsIcESaIcEEEESt10_Select1stISA_ESt4lessIS1_ESaISA_EE29_M_get_insert_hint_unique_posESt23_Rb_tree_const_iteratorISA_ERS3__x208
    /*000000b8*/ LDR         R3, [R4, #12] 
    /*000000bc*/ CMP         R3, #0 
    /*000000c0*/ STRNE       R0, [R5] 
    /*000000c4*/ STRNE       R0, [R5, #4] 
    /*000000c8*/ MOV         R0, R5 
    /*000000cc*/ STMEQ       R5, {R3, R4} 
    /*000000d0*/ ADD         SP, SP, #12 
    /*000000d4*/ POP         {R4, R5, R6, R7, R8, R9, PC} 
    _ZNSt8_Rb_treeIP16hiRUNTIME_BLOB_SSt4pairIKS1_NSt7__cxx1112basic_stringIcSt11char_traitsIcESaIcEEEESt10_Select1stISA_ESt4lessIS1_ESaISA_EE29_M_get_insert_hint_unique_posESt23_Rb_tree_const_iteratorISA_ERS3__xd8:
    /*000000d8*/ STR         R2, [R5] 
    /*000000dc*/ MOV         R3, #0 
    /*000000e0*/ STR         R3, [R0, #4] 
    /*000000e4*/ MOV         R0, R5 
    /*000000e8*/ ADD         SP, SP, #12 
    /*000000ec*/ POP         {R4, R5, R6, R7, R8, R9, PC} 
    _ZNSt8_Rb_treeIP16hiRUNTIME_BLOB_SSt4pairIKS1_NSt7__cxx1112basic_stringIcSt11char_traitsIcESaIcEEEESt10_Select1stISA_ESt4lessIS1_ESaISA_EE29_M_get_insert_hint_unique_posESt23_Rb_tree_const_iteratorISA_ERS3__xf0:
    /*000000f0*/ LDR         R2, [R1, #20] 
    /*000000f4*/ CMP         R2, #0 
    /*000000f8*/ BEQ         _ZNSt8_Rb_treeIP16hiRUNTIME_BLOB_SSt4pairIKS1_NSt7__cxx1112basic_stringIcSt11char_traitsIcESaIcEEEESt10_Select1stISA_ESt4lessIS1_ESaISA_EE29_M_get_insert_hint_unique_posESt23_Rb_tree_const_iteratorISA_ERS3__x110
    /*000000fc*/ LDR         R2, [R1, #16] 
    /*00000100*/ LDR         R1, [R3] 
    /*00000104*/ LDR         R0, [R2, #16] 
    /*00000108*/ CMP         R0, R1 
    /*0000010c*/ BCC         _ZNSt8_Rb_treeIP16hiRUNTIME_BLOB_SSt4pairIKS1_NSt7__cxx1112basic_stringIcSt11char_traitsIcESaIcEEEESt10_Select1stISA_ESt4lessIS1_ESaISA_EE29_M_get_insert_hint_unique_posESt23_Rb_tree_const_iteratorISA_ERS3__x170
    _ZNSt8_Rb_treeIP16hiRUNTIME_BLOB_SSt4pairIKS1_NSt7__cxx1112basic_stringIcSt11char_traitsIcESaIcEEEESt10_Select1stISA_ESt4lessIS1_ESaISA_EE29_M_get_insert_hint_unique_posESt23_Rb_tree_const_iteratorISA_ERS3__x110:
    /*00000110*/ LDR         R2, [R7, #8] 
    /*00000114*/ CMP         R2, #0 
    /*00000118*/ BEQ         _ZNSt8_Rb_treeIP16hiRUNTIME_BLOB_SSt4pairIKS1_NSt7__cxx1112basic_stringIcSt11char_traitsIcESaIcEEEESt10_Select1stISA_ESt4lessIS1_ESaISA_EE29_M_get_insert_hint_unique_posESt23_Rb_tree_const_iteratorISA_ERS3__x258
    /*0000011c*/ LDR         IP, [R3] 
    /*00000120*/ MOV         R8, R2 
    /*00000124*/ B           _ZNSt8_Rb_treeIP16hiRUNTIME_BLOB_SSt4pairIKS1_NSt7__cxx1112basic_stringIcSt11char_traitsIcESaIcEEEESt10_Select1stISA_ESt4lessIS1_ESaISA_EE29_M_get_insert_hint_unique_posESt23_Rb_tree_const_iteratorISA_ERS3__x12c
    _ZNSt8_Rb_treeIP16hiRUNTIME_BLOB_SSt4pairIKS1_NSt7__cxx1112basic_stringIcSt11char_traitsIcESaIcEEEESt10_Select1stISA_ESt4lessIS1_ESaISA_EE29_M_get_insert_hint_unique_posESt23_Rb_tree_const_iteratorISA_ERS3__x128:
    /*00000128*/ MOV         R8, R2 
    _ZNSt8_Rb_treeIP16hiRUNTIME_BLOB_SSt4pairIKS1_NSt7__cxx1112basic_stringIcSt11char_traitsIcESaIcEEEESt10_Select1stISA_ESt4lessIS1_ESaISA_EE29_M_get_insert_hint_unique_posESt23_Rb_tree_const_iteratorISA_ERS3__x12c:
    /*0000012c*/ LDR         R1, [R8, #16] 
    /*00000130*/ MOV         R0, #1 
    /*00000134*/ CMP         R1, IP 
    /*00000138*/ MOVLS       R0, #0 
    /*0000013c*/ LDRHI       R2, [R8, #8] 
    /*00000140*/ LDRLS       R2, [R8, #12] 
    /*00000144*/ CMP         R2, #0 
    /*00000148*/ BNE         _ZNSt8_Rb_treeIP16hiRUNTIME_BLOB_SSt4pairIKS1_NSt7__cxx1112basic_stringIcSt11char_traitsIcESaIcEEEESt10_Select1stISA_ESt4lessIS1_ESaISA_EE29_M_get_insert_hint_unique_posESt23_Rb_tree_const_iteratorISA_ERS3__x128
    /*0000014c*/ CMP         R0, #0 
    /*00000150*/ MOVEQ       R0, R8 
    /*00000154*/ BNE         _ZNSt8_Rb_treeIP16hiRUNTIME_BLOB_SSt4pairIKS1_NSt7__cxx1112basic_stringIcSt11char_traitsIcESaIcEEEESt10_Select1stISA_ESt4lessIS1_ESaISA_EE29_M_get_insert_hint_unique_posESt23_Rb_tree_const_iteratorISA_ERS3__x258
    _ZNSt8_Rb_treeIP16hiRUNTIME_BLOB_SSt4pairIKS1_NSt7__cxx1112basic_stringIcSt11char_traitsIcESaIcEEEESt10_Select1stISA_ESt4lessIS1_ESaISA_EE29_M_get_insert_hint_unique_posESt23_Rb_tree_const_iteratorISA_ERS3__x158:
    /*00000158*/ CMP         IP, R1 
    /*0000015c*/ BHI         _ZNSt8_Rb_treeIP16hiRUNTIME_BLOB_SSt4pairIKS1_NSt7__cxx1112basic_stringIcSt11char_traitsIcESaIcEEEESt10_Select1stISA_ESt4lessIS1_ESaISA_EE29_M_get_insert_hint_unique_posESt23_Rb_tree_const_iteratorISA_ERS3__x1d4
    _ZNSt8_Rb_treeIP16hiRUNTIME_BLOB_SSt4pairIKS1_NSt7__cxx1112basic_stringIcSt11char_traitsIcESaIcEEEESt10_Select1stISA_ESt4lessIS1_ESaISA_EE29_M_get_insert_hint_unique_posESt23_Rb_tree_const_iteratorISA_ERS3__x160:
    /*00000160*/ STR         R0, [R5] 
    /*00000164*/ MOV         R3, #0 
    /*00000168*/ STR         R3, [R5, #4] 
    /*0000016c*/ B           _ZNSt8_Rb_treeIP16hiRUNTIME_BLOB_SSt4pairIKS1_NSt7__cxx1112basic_stringIcSt11char_traitsIcESaIcEEEESt10_Select1stISA_ESt4lessIS1_ESaISA_EE29_M_get_insert_hint_unique_posESt23_Rb_tree_const_iteratorISA_ERS3__x7c
    _ZNSt8_Rb_treeIP16hiRUNTIME_BLOB_SSt4pairIKS1_NSt7__cxx1112basic_stringIcSt11char_traitsIcESaIcEEEESt10_Select1stISA_ESt4lessIS1_ESaISA_EE29_M_get_insert_hint_unique_posESt23_Rb_tree_const_iteratorISA_ERS3__x170:
    /*00000170*/ STR         R2, [R5, #4] 
    /*00000174*/ MOV         R3, #0 
    /*00000178*/ STR         R3, [R5] 
    /*0000017c*/ MOV         R0, R5 
    /*00000180*/ ADD         SP, SP, #12 
    /*00000184*/ POP         {R4, R5, R6, R7, R8, R9, PC} 
    _ZNSt8_Rb_treeIP16hiRUNTIME_BLOB_SSt4pairIKS1_NSt7__cxx1112basic_stringIcSt11char_traitsIcESaIcEEEESt10_Select1stISA_ESt4lessIS1_ESaISA_EE29_M_get_insert_hint_unique_posESt23_Rb_tree_const_iteratorISA_ERS3__x188:
    /*00000188*/ LDR         R3, [R7, #8] 
    /*0000018c*/ CMP         R3, #0 
    /*00000190*/ BNE         _ZNSt8_Rb_treeIP16hiRUNTIME_BLOB_SSt4pairIKS1_NSt7__cxx1112basic_stringIcSt11char_traitsIcESaIcEEEESt10_Select1stISA_ESt4lessIS1_ESaISA_EE29_M_get_insert_hint_unique_posESt23_Rb_tree_const_iteratorISA_ERS3__x19c
    /*00000194*/ B           _ZNSt8_Rb_treeIP16hiRUNTIME_BLOB_SSt4pairIKS1_NSt7__cxx1112basic_stringIcSt11char_traitsIcESaIcEEEESt10_Select1stISA_ESt4lessIS1_ESaISA_EE29_M_get_insert_hint_unique_posESt23_Rb_tree_const_iteratorISA_ERS3__x1e4
    _ZNSt8_Rb_treeIP16hiRUNTIME_BLOB_SSt4pairIKS1_NSt7__cxx1112basic_stringIcSt11char_traitsIcESaIcEEEESt10_Select1stISA_ESt4lessIS1_ESaISA_EE29_M_get_insert_hint_unique_posESt23_Rb_tree_const_iteratorISA_ERS3__x198:
    /*00000198*/ MOV         R3, R2 
    _ZNSt8_Rb_treeIP16hiRUNTIME_BLOB_SSt4pairIKS1_NSt7__cxx1112basic_stringIcSt11char_traitsIcESaIcEEEESt10_Select1stISA_ESt4lessIS1_ESaISA_EE29_M_get_insert_hint_unique_posESt23_Rb_tree_const_iteratorISA_ERS3__x19c:
    /*0000019c*/ LDR         R1, [R3, #16] 
    /*000001a0*/ MOV         R0, #1 
    /*000001a4*/ CMP         R6, R1 
    /*000001a8*/ MOVCS       R0, #0 
    /*000001ac*/ LDRCC       R2, [R3, #8] 
    /*000001b0*/ LDRCS       R2, [R3, #12] 
    /*000001b4*/ CMP         R2, #0 
    /*000001b8*/ BNE         _ZNSt8_Rb_treeIP16hiRUNTIME_BLOB_SSt4pairIKS1_NSt7__cxx1112basic_stringIcSt11char_traitsIcESaIcEEEESt10_Select1stISA_ESt4lessIS1_ESaISA_EE29_M_get_insert_hint_unique_posESt23_Rb_tree_const_iteratorISA_ERS3__x198
    /*000001bc*/ CMP         R0, #0 
    /*000001c0*/ MOV         R8, R3 
    /*000001c4*/ MOVEQ       R0, R3 
    /*000001c8*/ BNE         _ZNSt8_Rb_treeIP16hiRUNTIME_BLOB_SSt4pairIKS1_NSt7__cxx1112basic_stringIcSt11char_traitsIcESaIcEEEESt10_Select1stISA_ESt4lessIS1_ESaISA_EE29_M_get_insert_hint_unique_posESt23_Rb_tree_const_iteratorISA_ERS3__x1e4
    _ZNSt8_Rb_treeIP16hiRUNTIME_BLOB_SSt4pairIKS1_NSt7__cxx1112basic_stringIcSt11char_traitsIcESaIcEEEESt10_Select1stISA_ESt4lessIS1_ESaISA_EE29_M_get_insert_hint_unique_posESt23_Rb_tree_const_iteratorISA_ERS3__x1cc:
    /*000001cc*/ CMP         R1, R6 
    /*000001d0*/ BCS         _ZNSt8_Rb_treeIP16hiRUNTIME_BLOB_SSt4pairIKS1_NSt7__cxx1112basic_stringIcSt11char_traitsIcESaIcEEEESt10_Select1stISA_ESt4lessIS1_ESaISA_EE29_M_get_insert_hint_unique_posESt23_Rb_tree_const_iteratorISA_ERS3__x160
    _ZNSt8_Rb_treeIP16hiRUNTIME_BLOB_SSt4pairIKS1_NSt7__cxx1112basic_stringIcSt11char_traitsIcESaIcEEEESt10_Select1stISA_ESt4lessIS1_ESaISA_EE29_M_get_insert_hint_unique_posESt23_Rb_tree_const_iteratorISA_ERS3__x1d4:
    /*000001d4*/ STR         R8, [R5, #4] 
    /*000001d8*/ MOV         R3, #0 
    /*000001dc*/ STR         R3, [R5] 
    /*000001e0*/ B           _ZNSt8_Rb_treeIP16hiRUNTIME_BLOB_SSt4pairIKS1_NSt7__cxx1112basic_stringIcSt11char_traitsIcESaIcEEEESt10_Select1stISA_ESt4lessIS1_ESaISA_EE29_M_get_insert_hint_unique_posESt23_Rb_tree_const_iteratorISA_ERS3__x7c
    _ZNSt8_Rb_treeIP16hiRUNTIME_BLOB_SSt4pairIKS1_NSt7__cxx1112basic_stringIcSt11char_traitsIcESaIcEEEESt10_Select1stISA_ESt4lessIS1_ESaISA_EE29_M_get_insert_hint_unique_posESt23_Rb_tree_const_iteratorISA_ERS3__x1e4:
    /*000001e4*/ CMP         R9, R8 
    /*000001e8*/ STREQ       R9, [R5, #4] 
    /*000001ec*/ MOVEQ       R3, #0 
    /*000001f0*/ STREQ       R3, [R5] 
    /*000001f4*/ BEQ         _ZNSt8_Rb_treeIP16hiRUNTIME_BLOB_SSt4pairIKS1_NSt7__cxx1112basic_stringIcSt11char_traitsIcESaIcEEEESt10_Select1stISA_ESt4lessIS1_ESaISA_EE29_M_get_insert_hint_unique_posESt23_Rb_tree_const_iteratorISA_ERS3__x7c
    /*000001f8*/ MOV         R0, R8 
    /*000001fc*/ BL          _ZSt18_Rb_tree_decrementPSt18_Rb_tree_node_base
    /*00000200*/ LDR         R1, [R0, #16] 
    /*00000204*/ B           _ZNSt8_Rb_treeIP16hiRUNTIME_BLOB_SSt4pairIKS1_NSt7__cxx1112basic_stringIcSt11char_traitsIcESaIcEEEESt10_Select1stISA_ESt4lessIS1_ESaISA_EE29_M_get_insert_hint_unique_posESt23_Rb_tree_const_iteratorISA_ERS3__x1cc
    _ZNSt8_Rb_treeIP16hiRUNTIME_BLOB_SSt4pairIKS1_NSt7__cxx1112basic_stringIcSt11char_traitsIcESaIcEEEESt10_Select1stISA_ESt4lessIS1_ESaISA_EE29_M_get_insert_hint_unique_posESt23_Rb_tree_const_iteratorISA_ERS3__x208:
    /*00000208*/ LDR         R3, [R7, #8] 
    /*0000020c*/ CMP         R3, #0 
    /*00000210*/ BNE         _ZNSt8_Rb_treeIP16hiRUNTIME_BLOB_SSt4pairIKS1_NSt7__cxx1112basic_stringIcSt11char_traitsIcESaIcEEEESt10_Select1stISA_ESt4lessIS1_ESaISA_EE29_M_get_insert_hint_unique_posESt23_Rb_tree_const_iteratorISA_ERS3__x21c
    /*00000214*/ B           _ZNSt8_Rb_treeIP16hiRUNTIME_BLOB_SSt4pairIKS1_NSt7__cxx1112basic_stringIcSt11char_traitsIcESaIcEEEESt10_Select1stISA_ESt4lessIS1_ESaISA_EE29_M_get_insert_hint_unique_posESt23_Rb_tree_const_iteratorISA_ERS3__x280
    _ZNSt8_Rb_treeIP16hiRUNTIME_BLOB_SSt4pairIKS1_NSt7__cxx1112basic_stringIcSt11char_traitsIcESaIcEEEESt10_Select1stISA_ESt4lessIS1_ESaISA_EE29_M_get_insert_hint_unique_posESt23_Rb_tree_const_iteratorISA_ERS3__x218:
    /*00000218*/ MOV         R3, R2 
    _ZNSt8_Rb_treeIP16hiRUNTIME_BLOB_SSt4pairIKS1_NSt7__cxx1112basic_stringIcSt11char_traitsIcESaIcEEEESt10_Select1stISA_ESt4lessIS1_ESaISA_EE29_M_get_insert_hint_unique_posESt23_Rb_tree_const_iteratorISA_ERS3__x21c:
    /*0000021c*/ LDR         R1, [R3, #16] 
    /*00000220*/ MOV         R0, #1 
    /*00000224*/ CMP         R6, R1 
    /*00000228*/ MOVCS       R0, #0 
    /*0000022c*/ LDRCC       R2, [R3, #8] 
    /*00000230*/ LDRCS       R2, [R3, #12] 
    /*00000234*/ CMP         R2, #0 
    /*00000238*/ BNE         _ZNSt8_Rb_treeIP16hiRUNTIME_BLOB_SSt4pairIKS1_NSt7__cxx1112basic_stringIcSt11char_traitsIcESaIcEEEESt10_Select1stISA_ESt4lessIS1_ESaISA_EE29_M_get_insert_hint_unique_posESt23_Rb_tree_const_iteratorISA_ERS3__x218
    /*0000023c*/ CMP         R0, #0 
    /*00000240*/ MOV         R8, R3 
    /*00000244*/ MOVEQ       R0, R3 
    /*00000248*/ BNE         _ZNSt8_Rb_treeIP16hiRUNTIME_BLOB_SSt4pairIKS1_NSt7__cxx1112basic_stringIcSt11char_traitsIcESaIcEEEESt10_Select1stISA_ESt4lessIS1_ESaISA_EE29_M_get_insert_hint_unique_posESt23_Rb_tree_const_iteratorISA_ERS3__x280
    _ZNSt8_Rb_treeIP16hiRUNTIME_BLOB_SSt4pairIKS1_NSt7__cxx1112basic_stringIcSt11char_traitsIcESaIcEEEESt10_Select1stISA_ESt4lessIS1_ESaISA_EE29_M_get_insert_hint_unique_posESt23_Rb_tree_const_iteratorISA_ERS3__x24c:
    /*0000024c*/ CMP         R6, R1 
    /*00000250*/ BLS         _ZNSt8_Rb_treeIP16hiRUNTIME_BLOB_SSt4pairIKS1_NSt7__cxx1112basic_stringIcSt11char_traitsIcESaIcEEEESt10_Select1stISA_ESt4lessIS1_ESaISA_EE29_M_get_insert_hint_unique_posESt23_Rb_tree_const_iteratorISA_ERS3__x160
    /*00000254*/ B           _ZNSt8_Rb_treeIP16hiRUNTIME_BLOB_SSt4pairIKS1_NSt7__cxx1112basic_stringIcSt11char_traitsIcESaIcEEEESt10_Select1stISA_ESt4lessIS1_ESaISA_EE29_M_get_insert_hint_unique_posESt23_Rb_tree_const_iteratorISA_ERS3__x1d4
    _ZNSt8_Rb_treeIP16hiRUNTIME_BLOB_SSt4pairIKS1_NSt7__cxx1112basic_stringIcSt11char_traitsIcESaIcEEEESt10_Select1stISA_ESt4lessIS1_ESaISA_EE29_M_get_insert_hint_unique_posESt23_Rb_tree_const_iteratorISA_ERS3__x258:
    /*00000258*/ LDR         R2, [R7, #12] 
    /*0000025c*/ CMP         R2, R8 
    /*00000260*/ BEQ         _ZNSt8_Rb_treeIP16hiRUNTIME_BLOB_SSt4pairIKS1_NSt7__cxx1112basic_stringIcSt11char_traitsIcESaIcEEEESt10_Select1stISA_ESt4lessIS1_ESaISA_EE29_M_get_insert_hint_unique_posESt23_Rb_tree_const_iteratorISA_ERS3__x1d4
    /*00000264*/ STR         R3, [SP, #4] 
    /*00000268*/ MOV         R0, R8 
    /*0000026c*/ BL          _ZSt18_Rb_tree_decrementPSt18_Rb_tree_node_base
    /*00000270*/ LDR         R3, [SP, #4] 
    /*00000274*/ LDR         R1, [R0, #16] 
    /*00000278*/ LDR         IP, [R3] 
    /*0000027c*/ B           _ZNSt8_Rb_treeIP16hiRUNTIME_BLOB_SSt4pairIKS1_NSt7__cxx1112basic_stringIcSt11char_traitsIcESaIcEEEESt10_Select1stISA_ESt4lessIS1_ESaISA_EE29_M_get_insert_hint_unique_posESt23_Rb_tree_const_iteratorISA_ERS3__x158
    _ZNSt8_Rb_treeIP16hiRUNTIME_BLOB_SSt4pairIKS1_NSt7__cxx1112basic_stringIcSt11char_traitsIcESaIcEEEESt10_Select1stISA_ESt4lessIS1_ESaISA_EE29_M_get_insert_hint_unique_posESt23_Rb_tree_const_iteratorISA_ERS3__x280:
    /*00000280*/ LDR         R3, [R7, #12] 
    /*00000284*/ CMP         R3, R8 
    /*00000288*/ BEQ         _ZNSt8_Rb_treeIP16hiRUNTIME_BLOB_SSt4pairIKS1_NSt7__cxx1112basic_stringIcSt11char_traitsIcESaIcEEEESt10_Select1stISA_ESt4lessIS1_ESaISA_EE29_M_get_insert_hint_unique_posESt23_Rb_tree_const_iteratorISA_ERS3__x1d4
    /*0000028c*/ MOV         R0, R8 
    /*00000290*/ BL          _ZSt18_Rb_tree_decrementPSt18_Rb_tree_node_base
    /*00000294*/ LDR         R1, [R0, #16] 
    /*00000298*/ B           _ZNSt8_Rb_treeIP16hiRUNTIME_BLOB_SSt4pairIKS1_NSt7__cxx1112basic_stringIcSt11char_traitsIcESaIcEEEESt10_Select1stISA_ESt4lessIS1_ESaISA_EE29_M_get_insert_hint_unique_posESt23_Rb_tree_const_iteratorISA_ERS3__x24c
FUNC_END _ZNSt8_Rb_treeIP16hiRUNTIME_BLOB_SSt4pairIKS1_NSt7__cxx1112basic_stringIcSt11char_traitsIcESaIcEEEESt10_Select1stISA_ESt4lessIS1_ESaISA_EE29_M_get_insert_hint_unique_posESt23_Rb_tree_const_iteratorISA_ERS3_


@ - - - - - - - - - - - - - - - - - - - - - - - - - - - - - 
@ .text._ZNSt8_Rb_treeINSt7__cxx1112basic_stringIcSt11char_traitsIcESaIcEEESt4pairIKS5_NS0_4listIP16hiRUNTIME_BLOB_SSaISA_EEEESt10_Select1stISD_ESt4lessIS5_ESaISD_EE24_M_get_insert_unique_posERS7_
@ Size: 0x144
@ - - - - - - - - - - - - - - - - - - - - - - - - - - - - - 

FUNC_BEGIN _ZNSt8_Rb_treeINSt7__cxx1112basic_stringIcSt11char_traitsIcESaIcEEESt4pairIKS5_NS0_4listIP16hiRUNTIME_BLOB_SSaISA_EEEESt10_Select1stISD_ESt4lessIS5_ESaISD_EE24_M_get_insert_unique_posERS7_
    /*00000000*/ MOV         IP, #16384                  @ 0x4000 
    /*00000004*/ PUSH        {R4, R5, R6, R7, R8, R9, SL, FP, LR} 
    /*00000008*/ SUB         IP, SP, IP 
    /*0000000c*/ STR         R0, [IP, #4048]             @ 0xfd0 
    /*00000010*/ LDR         R4, [R1, #8] 
    /*00000014*/ SUB         SP, SP, #12 
    /*00000018*/ MOV         R9, R0 
    /*0000001c*/ MOV         SL, R2 
    /*00000020*/ STR         R1, [SP, #4] 
    /*00000024*/ CMP         R4, #0 
    /*00000028*/ MOVEQ       R3, R1 
    /*0000002c*/ ADDEQ       R4, R3, #4 
    /*00000030*/ BEQ         _ZNSt8_Rb_treeINSt7__cxx1112basic_stringIcSt11char_traitsIcESaIcEEESt4pairIKS5_NS0_4listIP16hiRUNTIME_BLOB_SSaISA_EEEESt10_Select1stISD_ESt4lessIS5_ESaISD_EE24_M_get_insert_unique_posERS7__xd4
    /*00000034*/ LDR         R7, [R2, #4] 
    /*00000038*/ LDR         FP, [R2] 
    /*0000003c*/ B           _ZNSt8_Rb_treeINSt7__cxx1112basic_stringIcSt11char_traitsIcESaIcEEESt4pairIKS5_NS0_4listIP16hiRUNTIME_BLOB_SSaISA_EEEESt10_Select1stISD_ESt4lessIS5_ESaISD_EE24_M_get_insert_unique_posERS7__x6c
    _ZNSt8_Rb_treeINSt7__cxx1112basic_stringIcSt11char_traitsIcESaIcEEESt4pairIKS5_NS0_4listIP16hiRUNTIME_BLOB_SSaISA_EEEESt10_Select1stISD_ESt4lessIS5_ESaISD_EE24_M_get_insert_unique_posERS7__x40:
    /*00000040*/ BL          memcmp
    /*00000044*/ CMP         R0, #0 
    /*00000048*/ BEQ         _ZNSt8_Rb_treeINSt7__cxx1112basic_stringIcSt11char_traitsIcESaIcEEESt4pairIKS5_NS0_4listIP16hiRUNTIME_BLOB_SSaISA_EEEESt10_Select1stISD_ESt4lessIS5_ESaISD_EE24_M_get_insert_unique_posERS7__x90
    _ZNSt8_Rb_treeINSt7__cxx1112basic_stringIcSt11char_traitsIcESaIcEEESt4pairIKS5_NS0_4listIP16hiRUNTIME_BLOB_SSaISA_EEEESt10_Select1stISD_ESt4lessIS5_ESaISD_EE24_M_get_insert_unique_posERS7__x4c:
    /*0000004c*/ CMP         R0, #0 
    /*00000050*/ MOV         R1, #0 
    /*00000054*/ MOVLT       R1, #1 
    /*00000058*/ LDRLT       R2, [R4, #8] 
    /*0000005c*/ LDRGE       R2, [R4, #12] 
    /*00000060*/ CMP         R2, #0 
    /*00000064*/ BEQ         _ZNSt8_Rb_treeINSt7__cxx1112basic_stringIcSt11char_traitsIcESaIcEEESt4pairIKS5_NS0_4listIP16hiRUNTIME_BLOB_SSaISA_EEEESt10_Select1stISD_ESt4lessIS5_ESaISD_EE24_M_get_insert_unique_posERS7__x98
    /*00000068*/ MOV         R4, R2 
    _ZNSt8_Rb_treeINSt7__cxx1112basic_stringIcSt11char_traitsIcESaIcEEESt4pairIKS5_NS0_4listIP16hiRUNTIME_BLOB_SSaISA_EEEESt10_Select1stISD_ESt4lessIS5_ESaISD_EE24_M_get_insert_unique_posERS7__x6c:
    /*0000006c*/ LDR         R5, [R4, #20] 
    /*00000070*/ MOV         R0, FP 
    /*00000074*/ LDR         R8, [R4, #16] 
    /*00000078*/ CMP         R5, R7 
    /*0000007c*/ MOVCC       R6, R5 
    /*00000080*/ MOVCS       R6, R7 
    /*00000084*/ SUBS        R2, R6, #0 
    /*00000088*/ MOV         R1, R8 
    /*0000008c*/ BNE         _ZNSt8_Rb_treeINSt7__cxx1112basic_stringIcSt11char_traitsIcESaIcEEESt4pairIKS5_NS0_4listIP16hiRUNTIME_BLOB_SSaISA_EEEESt10_Select1stISD_ESt4lessIS5_ESaISD_EE24_M_get_insert_unique_posERS7__x40
    _ZNSt8_Rb_treeINSt7__cxx1112basic_stringIcSt11char_traitsIcESaIcEEESt4pairIKS5_NS0_4listIP16hiRUNTIME_BLOB_SSaISA_EEEESt10_Select1stISD_ESt4lessIS5_ESaISD_EE24_M_get_insert_unique_posERS7__x90:
    /*00000090*/ SUB         R0, R7, R5 
    /*00000094*/ B           _ZNSt8_Rb_treeINSt7__cxx1112basic_stringIcSt11char_traitsIcESaIcEEESt4pairIKS5_NS0_4listIP16hiRUNTIME_BLOB_SSaISA_EEEESt10_Select1stISD_ESt4lessIS5_ESaISD_EE24_M_get_insert_unique_posERS7__x4c
    _ZNSt8_Rb_treeINSt7__cxx1112basic_stringIcSt11char_traitsIcESaIcEEESt4pairIKS5_NS0_4listIP16hiRUNTIME_BLOB_SSaISA_EEEESt10_Select1stISD_ESt4lessIS5_ESaISD_EE24_M_get_insert_unique_posERS7__x98:
    /*00000098*/ CMP         R1, #0 
    /*0000009c*/ MOVEQ       R2, R6 
    /*000000a0*/ MOVEQ       R6, R4 
    /*000000a4*/ BNE         _ZNSt8_Rb_treeINSt7__cxx1112basic_stringIcSt11char_traitsIcESaIcEEESt4pairIKS5_NS0_4listIP16hiRUNTIME_BLOB_SSaISA_EEEESt10_Select1stISD_ESt4lessIS5_ESaISD_EE24_M_get_insert_unique_posERS7__xd4
    /*000000a8*/ CMP         R2, #0 
    /*000000ac*/ BNE         _ZNSt8_Rb_treeINSt7__cxx1112basic_stringIcSt11char_traitsIcESaIcEEESt4pairIKS5_NS0_4listIP16hiRUNTIME_BLOB_SSaISA_EEEESt10_Select1stISD_ESt4lessIS5_ESaISD_EE24_M_get_insert_unique_posERS7__x114
    _ZNSt8_Rb_treeINSt7__cxx1112basic_stringIcSt11char_traitsIcESaIcEEESt4pairIKS5_NS0_4listIP16hiRUNTIME_BLOB_SSaISA_EEEESt10_Select1stISD_ESt4lessIS5_ESaISD_EE24_M_get_insert_unique_posERS7__xb0:
    /*000000b0*/ SUB         R0, R5, R7 
    _ZNSt8_Rb_treeINSt7__cxx1112basic_stringIcSt11char_traitsIcESaIcEEESt4pairIKS5_NS0_4listIP16hiRUNTIME_BLOB_SSaISA_EEEESt10_Select1stISD_ESt4lessIS5_ESaISD_EE24_M_get_insert_unique_posERS7__xb4:
    /*000000b4*/ CMP         R0, #0 
    /*000000b8*/ STRGE       R6, [R9] 
    /*000000bc*/ MOVGE       R3, #0 
    /*000000c0*/ STRGE       R3, [R9, #4] 
    /*000000c4*/ BLT         _ZNSt8_Rb_treeINSt7__cxx1112basic_stringIcSt11char_traitsIcESaIcEEESt4pairIKS5_NS0_4listIP16hiRUNTIME_BLOB_SSaISA_EEEESt10_Select1stISD_ESt4lessIS5_ESaISD_EE24_M_get_insert_unique_posERS7__x12c
    /*000000c8*/ MOV         R0, R9 
    /*000000cc*/ ADD         SP, SP, #12 
    /*000000d0*/ POP         {R4, R5, R6, R7, R8, R9, SL, FP, PC} 
    _ZNSt8_Rb_treeINSt7__cxx1112basic_stringIcSt11char_traitsIcESaIcEEESt4pairIKS5_NS0_4listIP16hiRUNTIME_BLOB_SSaISA_EEEESt10_Select1stISD_ESt4lessIS5_ESaISD_EE24_M_get_insert_unique_posERS7__xd4:
    /*000000d4*/ LDR         R3, [SP, #4] 
    /*000000d8*/ LDR         R3, [R3, #12] 
    /*000000dc*/ CMP         R3, R4 
    /*000000e0*/ BEQ         _ZNSt8_Rb_treeINSt7__cxx1112basic_stringIcSt11char_traitsIcESaIcEEESt4pairIKS5_NS0_4listIP16hiRUNTIME_BLOB_SSaISA_EEEESt10_Select1stISD_ESt4lessIS5_ESaISD_EE24_M_get_insert_unique_posERS7__x12c
    /*000000e4*/ MOV         R0, R4 
    /*000000e8*/ BL          _ZSt18_Rb_tree_decrementPSt18_Rb_tree_node_base
    /*000000ec*/ LDR         R5, [R0, #20] 
    /*000000f0*/ MOV         R6, R0 
    /*000000f4*/ LDR         R7, [SL, #4] 
    /*000000f8*/ LDR         FP, [SL] 
    /*000000fc*/ CMP         R5, R7 
    /*00000100*/ LDR         R8, [R0, #16] 
    /*00000104*/ MOVCC       R2, R5 
    /*00000108*/ MOVCS       R2, R7 
    /*0000010c*/ CMP         R2, #0 
    /*00000110*/ BEQ         _ZNSt8_Rb_treeINSt7__cxx1112basic_stringIcSt11char_traitsIcESaIcEEESt4pairIKS5_NS0_4listIP16hiRUNTIME_BLOB_SSaISA_EEEESt10_Select1stISD_ESt4lessIS5_ESaISD_EE24_M_get_insert_unique_posERS7__xb0
    _ZNSt8_Rb_treeINSt7__cxx1112basic_stringIcSt11char_traitsIcESaIcEEESt4pairIKS5_NS0_4listIP16hiRUNTIME_BLOB_SSaISA_EEEESt10_Select1stISD_ESt4lessIS5_ESaISD_EE24_M_get_insert_unique_posERS7__x114:
    /*00000114*/ MOV         R1, FP 
    /*00000118*/ MOV         R0, R8 
    /*0000011c*/ BL          memcmp
    /*00000120*/ CMP         R0, #0 
    /*00000124*/ BNE         _ZNSt8_Rb_treeINSt7__cxx1112basic_stringIcSt11char_traitsIcESaIcEEESt4pairIKS5_NS0_4listIP16hiRUNTIME_BLOB_SSaISA_EEEESt10_Select1stISD_ESt4lessIS5_ESaISD_EE24_M_get_insert_unique_posERS7__xb4
    /*00000128*/ B           _ZNSt8_Rb_treeINSt7__cxx1112basic_stringIcSt11char_traitsIcESaIcEEESt4pairIKS5_NS0_4listIP16hiRUNTIME_BLOB_SSaISA_EEEESt10_Select1stISD_ESt4lessIS5_ESaISD_EE24_M_get_insert_unique_posERS7__xb0
    _ZNSt8_Rb_treeINSt7__cxx1112basic_stringIcSt11char_traitsIcESaIcEEESt4pairIKS5_NS0_4listIP16hiRUNTIME_BLOB_SSaISA_EEEESt10_Select1stISD_ESt4lessIS5_ESaISD_EE24_M_get_insert_unique_posERS7__x12c:
    /*0000012c*/ STR         R4, [R9, #4] 
    /*00000130*/ MOV         R3, #0 
    /*00000134*/ STR         R3, [R9] 
    /*00000138*/ MOV         R0, R9 
    /*0000013c*/ ADD         SP, SP, #12 
    /*00000140*/ POP         {R4, R5, R6, R7, R8, R9, SL, FP, PC} 
FUNC_END _ZNSt8_Rb_treeINSt7__cxx1112basic_stringIcSt11char_traitsIcESaIcEEESt4pairIKS5_NS0_4listIP16hiRUNTIME_BLOB_SSaISA_EEEESt10_Select1stISD_ESt4lessIS5_ESaISD_EE24_M_get_insert_unique_posERS7_


@ - - - - - - - - - - - - - - - - - - - - - - - - - - - - - 
@ .text._ZNSt8_Rb_treeINSt7__cxx1112basic_stringIcSt11char_traitsIcESaIcEEESt4pairIKS5_NS0_4listIP16hiRUNTIME_BLOB_SSaISA_EEEESt10_Select1stISD_ESt4lessIS5_ESaISD_EE29_M_get_insert_hint_unique_posESt23_Rb_tree_const_iteratorISD_ERS7_
@ Size: 0x23c
@ - - - - - - - - - - - - - - - - - - - - - - - - - - - - - 

FUNC_BEGIN _ZNSt8_Rb_treeINSt7__cxx1112basic_stringIcSt11char_traitsIcESaIcEEESt4pairIKS5_NS0_4listIP16hiRUNTIME_BLOB_SSaISA_EEEESt10_Select1stISD_ESt4lessIS5_ESaISD_EE29_M_get_insert_hint_unique_posESt23_Rb_tree_const_iteratorISD_ERS7_
    /*00000000*/ MOV         IP, #16384                  @ 0x4000 
    /*00000004*/ PUSH        {R4, R5, R6, R7, R8, R9, SL, FP, LR} 
    /*00000008*/ SUB         IP, SP, IP 
    /*0000000c*/ STR         R0, [IP, #4048]             @ 0xfd0 
    /*00000010*/ MOV         R4, R2 
    /*00000014*/ ADD         R2, R1, #4 
    /*00000018*/ CMP         R4, R2 
    /*0000001c*/ SUB         SP, SP, #12 
    /*00000020*/ MOV         R9, R1 
    /*00000024*/ MOV         R6, R0 
    /*00000028*/ MOV         R8, R3 
    /*0000002c*/ BEQ         _ZNSt8_Rb_treeINSt7__cxx1112basic_stringIcSt11char_traitsIcESaIcEEESt4pairIKS5_NS0_4listIP16hiRUNTIME_BLOB_SSaISA_EEEESt10_Select1stISD_ESt4lessIS5_ESaISD_EE29_M_get_insert_hint_unique_posESt23_Rb_tree_const_iteratorISD_ERS7__x144
    /*00000030*/ LDR         R5, [R3, #4] 
    /*00000034*/ LDR         R7, [R4, #20] 
    /*00000038*/ LDR         FP, [R3] 
    /*0000003c*/ CMP         R5, R7 
    /*00000040*/ LDR         R3, [R4, #16] 
    /*00000044*/ MOVCC       SL, R5 
    /*00000048*/ MOVCS       SL, R7 
    /*0000004c*/ CMP         SL, #0 
    /*00000050*/ BNE         _ZNSt8_Rb_treeINSt7__cxx1112basic_stringIcSt11char_traitsIcESaIcEEESt4pairIKS5_NS0_4listIP16hiRUNTIME_BLOB_SSaISA_EEEESt10_Select1stISD_ESt4lessIS5_ESaISD_EE29_M_get_insert_hint_unique_posESt23_Rb_tree_const_iteratorISD_ERS7__x84
    /*00000054*/ SUB         R3, R5, R7 
    /*00000058*/ CMP         R3, #0 
    /*0000005c*/ BLT         _ZNSt8_Rb_treeINSt7__cxx1112basic_stringIcSt11char_traitsIcESaIcEEESt4pairIKS5_NS0_4listIP16hiRUNTIME_BLOB_SSaISA_EEEESt10_Select1stISD_ESt4lessIS5_ESaISD_EE29_M_get_insert_hint_unique_posESt23_Rb_tree_const_iteratorISD_ERS7__xc4
    _ZNSt8_Rb_treeINSt7__cxx1112basic_stringIcSt11char_traitsIcESaIcEEESt4pairIKS5_NS0_4listIP16hiRUNTIME_BLOB_SSaISA_EEEESt10_Select1stISD_ESt4lessIS5_ESaISD_EE29_M_get_insert_hint_unique_posESt23_Rb_tree_const_iteratorISD_ERS7__x60:
    /*00000060*/ SUB         R0, R7, R5 
    _ZNSt8_Rb_treeINSt7__cxx1112basic_stringIcSt11char_traitsIcESaIcEEESt4pairIKS5_NS0_4listIP16hiRUNTIME_BLOB_SSaISA_EEEESt10_Select1stISD_ESt4lessIS5_ESaISD_EE29_M_get_insert_hint_unique_posESt23_Rb_tree_const_iteratorISD_ERS7__x64:
    /*00000064*/ CMP         R0, #0 
    /*00000068*/ STRGE       R4, [R6] 
    /*0000006c*/ MOVGE       R3, #0 
    /*00000070*/ STRGE       R3, [R6, #4] 
    /*00000074*/ BLT         _ZNSt8_Rb_treeINSt7__cxx1112basic_stringIcSt11char_traitsIcESaIcEEESt4pairIKS5_NS0_4listIP16hiRUNTIME_BLOB_SSaISA_EEEESt10_Select1stISD_ESt4lessIS5_ESaISD_EE29_M_get_insert_hint_unique_posESt23_Rb_tree_const_iteratorISD_ERS7__x198
    _ZNSt8_Rb_treeINSt7__cxx1112basic_stringIcSt11char_traitsIcESaIcEEESt4pairIKS5_NS0_4listIP16hiRUNTIME_BLOB_SSaISA_EEEESt10_Select1stISD_ESt4lessIS5_ESaISD_EE29_M_get_insert_hint_unique_posESt23_Rb_tree_const_iteratorISD_ERS7__x78:
    /*00000078*/ MOV         R0, R6 
    /*0000007c*/ ADD         SP, SP, #12 
    /*00000080*/ POP         {R4, R5, R6, R7, R8, R9, SL, FP, PC} 
    _ZNSt8_Rb_treeINSt7__cxx1112basic_stringIcSt11char_traitsIcESaIcEEESt4pairIKS5_NS0_4listIP16hiRUNTIME_BLOB_SSaISA_EEEESt10_Select1stISD_ESt4lessIS5_ESaISD_EE29_M_get_insert_hint_unique_posESt23_Rb_tree_const_iteratorISD_ERS7__x84:
    /*00000084*/ STR         R3, [SP, #4] 
    /*00000088*/ MOV         R1, R3 
    /*0000008c*/ MOV         R2, SL 
    /*00000090*/ MOV         R0, FP 
    /*00000094*/ BL          memcmp
    /*00000098*/ LDR         R3, [SP, #4] 
    /*0000009c*/ CMP         R0, #0 
    /*000000a0*/ BEQ         _ZNSt8_Rb_treeINSt7__cxx1112basic_stringIcSt11char_traitsIcESaIcEEESt4pairIKS5_NS0_4listIP16hiRUNTIME_BLOB_SSaISA_EEEESt10_Select1stISD_ESt4lessIS5_ESaISD_EE29_M_get_insert_hint_unique_posESt23_Rb_tree_const_iteratorISD_ERS7__x138
    _ZNSt8_Rb_treeINSt7__cxx1112basic_stringIcSt11char_traitsIcESaIcEEESt4pairIKS5_NS0_4listIP16hiRUNTIME_BLOB_SSaISA_EEEESt10_Select1stISD_ESt4lessIS5_ESaISD_EE29_M_get_insert_hint_unique_posESt23_Rb_tree_const_iteratorISD_ERS7__xa4:
    /*000000a4*/ BLT         _ZNSt8_Rb_treeINSt7__cxx1112basic_stringIcSt11char_traitsIcESaIcEEESt4pairIKS5_NS0_4listIP16hiRUNTIME_BLOB_SSaISA_EEEESt10_Select1stISD_ESt4lessIS5_ESaISD_EE29_M_get_insert_hint_unique_posESt23_Rb_tree_const_iteratorISD_ERS7__xc4
    /*000000a8*/ MOV         R2, SL 
    /*000000ac*/ MOV         R0, R3 
    /*000000b0*/ MOV         R1, FP 
    /*000000b4*/ BL          memcmp
    /*000000b8*/ CMP         R0, #0 
    /*000000bc*/ BNE         _ZNSt8_Rb_treeINSt7__cxx1112basic_stringIcSt11char_traitsIcESaIcEEESt4pairIKS5_NS0_4listIP16hiRUNTIME_BLOB_SSaISA_EEEESt10_Select1stISD_ESt4lessIS5_ESaISD_EE29_M_get_insert_hint_unique_posESt23_Rb_tree_const_iteratorISD_ERS7__x64
    /*000000c0*/ B           _ZNSt8_Rb_treeINSt7__cxx1112basic_stringIcSt11char_traitsIcESaIcEEESt4pairIKS5_NS0_4listIP16hiRUNTIME_BLOB_SSaISA_EEEESt10_Select1stISD_ESt4lessIS5_ESaISD_EE29_M_get_insert_hint_unique_posESt23_Rb_tree_const_iteratorISD_ERS7__x60
    _ZNSt8_Rb_treeINSt7__cxx1112basic_stringIcSt11char_traitsIcESaIcEEESt4pairIKS5_NS0_4listIP16hiRUNTIME_BLOB_SSaISA_EEEESt10_Select1stISD_ESt4lessIS5_ESaISD_EE29_M_get_insert_hint_unique_posESt23_Rb_tree_const_iteratorISD_ERS7__xc4:
    /*000000c4*/ LDR         R3, [R9, #12] 
    /*000000c8*/ CMP         R3, R4 
    /*000000cc*/ BEQ         _ZNSt8_Rb_treeINSt7__cxx1112basic_stringIcSt11char_traitsIcESaIcEEESt4pairIKS5_NS0_4listIP16hiRUNTIME_BLOB_SSaISA_EEEESt10_Select1stISD_ESt4lessIS5_ESaISD_EE29_M_get_insert_hint_unique_posESt23_Rb_tree_const_iteratorISD_ERS7__x10c
    /*000000d0*/ MOV         R0, R4 
    /*000000d4*/ BL          _ZSt18_Rb_tree_decrementPSt18_Rb_tree_node_base
    /*000000d8*/ LDR         R7, [R0, #20] 
    /*000000dc*/ MOV         SL, R0 
    /*000000e0*/ CMP         R5, R7 
    /*000000e4*/ MOVCC       R2, R5 
    /*000000e8*/ MOVCS       R2, R7 
    /*000000ec*/ CMP         R2, #0 
    /*000000f0*/ BNE         _ZNSt8_Rb_treeINSt7__cxx1112basic_stringIcSt11char_traitsIcESaIcEEESt4pairIKS5_NS0_4listIP16hiRUNTIME_BLOB_SSaISA_EEEESt10_Select1stISD_ESt4lessIS5_ESaISD_EE29_M_get_insert_hint_unique_posESt23_Rb_tree_const_iteratorISD_ERS7__x120
    _ZNSt8_Rb_treeINSt7__cxx1112basic_stringIcSt11char_traitsIcESaIcEEESt4pairIKS5_NS0_4listIP16hiRUNTIME_BLOB_SSaISA_EEEESt10_Select1stISD_ESt4lessIS5_ESaISD_EE29_M_get_insert_hint_unique_posESt23_Rb_tree_const_iteratorISD_ERS7__xf4:
    /*000000f4*/ SUB         R0, R7, R5 
    _ZNSt8_Rb_treeINSt7__cxx1112basic_stringIcSt11char_traitsIcESaIcEEESt4pairIKS5_NS0_4listIP16hiRUNTIME_BLOB_SSaISA_EEEESt10_Select1stISD_ESt4lessIS5_ESaISD_EE29_M_get_insert_hint_unique_posESt23_Rb_tree_const_iteratorISD_ERS7__xf8:
    /*000000f8*/ CMP         R0, #0 
    /*000000fc*/ BGE         _ZNSt8_Rb_treeINSt7__cxx1112basic_stringIcSt11char_traitsIcESaIcEEESt4pairIKS5_NS0_4listIP16hiRUNTIME_BLOB_SSaISA_EEEESt10_Select1stISD_ESt4lessIS5_ESaISD_EE29_M_get_insert_hint_unique_posESt23_Rb_tree_const_iteratorISD_ERS7__x17c
    /*00000100*/ LDR         R3, [SL, #12] 
    /*00000104*/ CMP         R3, #0 
    /*00000108*/ BEQ         _ZNSt8_Rb_treeINSt7__cxx1112basic_stringIcSt11char_traitsIcESaIcEEESt4pairIKS5_NS0_4listIP16hiRUNTIME_BLOB_SSaISA_EEEESt10_Select1stISD_ESt4lessIS5_ESaISD_EE29_M_get_insert_hint_unique_posESt23_Rb_tree_const_iteratorISD_ERS7__x234
    _ZNSt8_Rb_treeINSt7__cxx1112basic_stringIcSt11char_traitsIcESaIcEEESt4pairIKS5_NS0_4listIP16hiRUNTIME_BLOB_SSaISA_EEEESt10_Select1stISD_ESt4lessIS5_ESaISD_EE29_M_get_insert_hint_unique_posESt23_Rb_tree_const_iteratorISD_ERS7__x10c:
    /*0000010c*/ STR         R4, [R6] 
    /*00000110*/ MOV         R0, R6 
    /*00000114*/ STR         R4, [R6, #4] 
    /*00000118*/ ADD         SP, SP, #12 
    /*0000011c*/ POP         {R4, R5, R6, R7, R8, R9, SL, FP, PC} 
    _ZNSt8_Rb_treeINSt7__cxx1112basic_stringIcSt11char_traitsIcESaIcEEESt4pairIKS5_NS0_4listIP16hiRUNTIME_BLOB_SSaISA_EEEESt10_Select1stISD_ESt4lessIS5_ESaISD_EE29_M_get_insert_hint_unique_posESt23_Rb_tree_const_iteratorISD_ERS7__x120:
    /*00000120*/ LDR         R0, [R0, #16] 
    /*00000124*/ MOV         R1, FP 
    /*00000128*/ BL          memcmp
    /*0000012c*/ CMP         R0, #0 
    /*00000130*/ BNE         _ZNSt8_Rb_treeINSt7__cxx1112basic_stringIcSt11char_traitsIcESaIcEEESt4pairIKS5_NS0_4listIP16hiRUNTIME_BLOB_SSaISA_EEEESt10_Select1stISD_ESt4lessIS5_ESaISD_EE29_M_get_insert_hint_unique_posESt23_Rb_tree_const_iteratorISD_ERS7__xf8
    /*00000134*/ B           _ZNSt8_Rb_treeINSt7__cxx1112basic_stringIcSt11char_traitsIcESaIcEEESt4pairIKS5_NS0_4listIP16hiRUNTIME_BLOB_SSaISA_EEEESt10_Select1stISD_ESt4lessIS5_ESaISD_EE29_M_get_insert_hint_unique_posESt23_Rb_tree_const_iteratorISD_ERS7__xf4
    _ZNSt8_Rb_treeINSt7__cxx1112basic_stringIcSt11char_traitsIcESaIcEEESt4pairIKS5_NS0_4listIP16hiRUNTIME_BLOB_SSaISA_EEEESt10_Select1stISD_ESt4lessIS5_ESaISD_EE29_M_get_insert_hint_unique_posESt23_Rb_tree_const_iteratorISD_ERS7__x138:
    /*00000138*/ SUB         R2, R5, R7 
    /*0000013c*/ CMP         R2, #0 
    /*00000140*/ B           _ZNSt8_Rb_treeINSt7__cxx1112basic_stringIcSt11char_traitsIcESaIcEEESt4pairIKS5_NS0_4listIP16hiRUNTIME_BLOB_SSaISA_EEEESt10_Select1stISD_ESt4lessIS5_ESaISD_EE29_M_get_insert_hint_unique_posESt23_Rb_tree_const_iteratorISD_ERS7__xa4
    _ZNSt8_Rb_treeINSt7__cxx1112basic_stringIcSt11char_traitsIcESaIcEEESt4pairIKS5_NS0_4listIP16hiRUNTIME_BLOB_SSaISA_EEEESt10_Select1stISD_ESt4lessIS5_ESaISD_EE29_M_get_insert_hint_unique_posESt23_Rb_tree_const_iteratorISD_ERS7__x144:
    /*00000144*/ LDR         R3, [R1, #20] 
    /*00000148*/ CMP         R3, #0 
    /*0000014c*/ BEQ         _ZNSt8_Rb_treeINSt7__cxx1112basic_stringIcSt11char_traitsIcESaIcEEESt4pairIKS5_NS0_4listIP16hiRUNTIME_BLOB_SSaISA_EEEESt10_Select1stISD_ESt4lessIS5_ESaISD_EE29_M_get_insert_hint_unique_posESt23_Rb_tree_const_iteratorISD_ERS7__x17c
    /*00000150*/ LDR         R4, [R1, #16] 
    /*00000154*/ LDR         R5, [R8, #4] 
    /*00000158*/ LDR         R7, [R4, #20] 
    /*0000015c*/ CMP         R7, R5 
    /*00000160*/ MOVCC       R2, R7 
    /*00000164*/ MOVCS       R2, R5 
    /*00000168*/ CMP         R2, #0 
    /*0000016c*/ BNE         _ZNSt8_Rb_treeINSt7__cxx1112basic_stringIcSt11char_traitsIcESaIcEEESt4pairIKS5_NS0_4listIP16hiRUNTIME_BLOB_SSaISA_EEEESt10_Select1stISD_ESt4lessIS5_ESaISD_EE29_M_get_insert_hint_unique_posESt23_Rb_tree_const_iteratorISD_ERS7__x21c
    _ZNSt8_Rb_treeINSt7__cxx1112basic_stringIcSt11char_traitsIcESaIcEEESt4pairIKS5_NS0_4listIP16hiRUNTIME_BLOB_SSaISA_EEEESt10_Select1stISD_ESt4lessIS5_ESaISD_EE29_M_get_insert_hint_unique_posESt23_Rb_tree_const_iteratorISD_ERS7__x170:
    /*00000170*/ SUB         R0, R7, R5 
    _ZNSt8_Rb_treeINSt7__cxx1112basic_stringIcSt11char_traitsIcESaIcEEESt4pairIKS5_NS0_4listIP16hiRUNTIME_BLOB_SSaISA_EEEESt10_Select1stISD_ESt4lessIS5_ESaISD_EE29_M_get_insert_hint_unique_posESt23_Rb_tree_const_iteratorISD_ERS7__x174:
    /*00000174*/ CMP         R0, #0 
    /*00000178*/ BLT         _ZNSt8_Rb_treeINSt7__cxx1112basic_stringIcSt11char_traitsIcESaIcEEESt4pairIKS5_NS0_4listIP16hiRUNTIME_BLOB_SSaISA_EEEESt10_Select1stISD_ESt4lessIS5_ESaISD_EE29_M_get_insert_hint_unique_posESt23_Rb_tree_const_iteratorISD_ERS7__x1fc
    _ZNSt8_Rb_treeINSt7__cxx1112basic_stringIcSt11char_traitsIcESaIcEEESt4pairIKS5_NS0_4listIP16hiRUNTIME_BLOB_SSaISA_EEEESt10_Select1stISD_ESt4lessIS5_ESaISD_EE29_M_get_insert_hint_unique_posESt23_Rb_tree_const_iteratorISD_ERS7__x17c:
    /*0000017c*/ MOV         R0, R6 
    /*00000180*/ MOV         R2, R8 
    /*00000184*/ MOV         R1, R9 
    /*00000188*/ BL          _ZNSt8_Rb_treeINSt7__cxx1112basic_stringIcSt11char_traitsIcESaIcEEESt4pairIKS5_NS0_4listIP16hiRUNTIME_BLOB_SSaISA_EEEESt10_Select1stISD_ESt4lessIS5_ESaISD_EE24_M_get_insert_unique_posERS7_
    /*0000018c*/ MOV         R0, R6 
    /*00000190*/ ADD         SP, SP, #12 
    /*00000194*/ POP         {R4, R5, R6, R7, R8, R9, SL, FP, PC} 
    _ZNSt8_Rb_treeINSt7__cxx1112basic_stringIcSt11char_traitsIcESaIcEEESt4pairIKS5_NS0_4listIP16hiRUNTIME_BLOB_SSaISA_EEEESt10_Select1stISD_ESt4lessIS5_ESaISD_EE29_M_get_insert_hint_unique_posESt23_Rb_tree_const_iteratorISD_ERS7__x198:
    /*00000198*/ LDR         R3, [R9, #16] 
    /*0000019c*/ CMP         R3, R4 
    /*000001a0*/ BEQ         _ZNSt8_Rb_treeINSt7__cxx1112basic_stringIcSt11char_traitsIcESaIcEEESt4pairIKS5_NS0_4listIP16hiRUNTIME_BLOB_SSaISA_EEEESt10_Select1stISD_ESt4lessIS5_ESaISD_EE29_M_get_insert_hint_unique_posESt23_Rb_tree_const_iteratorISD_ERS7__x1fc
    /*000001a4*/ MOV         R0, R4 
    /*000001a8*/ BL          _ZSt18_Rb_tree_incrementPSt18_Rb_tree_node_base
    /*000001ac*/ LDR         R7, [R0, #20] 
    /*000001b0*/ MOV         SL, R0 
    /*000001b4*/ CMP         R5, R7 
    /*000001b8*/ MOVCC       R2, R5 
    /*000001bc*/ MOVCS       R2, R7 
    /*000001c0*/ CMP         R2, #0 
    /*000001c4*/ BEQ         _ZNSt8_Rb_treeINSt7__cxx1112basic_stringIcSt11char_traitsIcESaIcEEESt4pairIKS5_NS0_4listIP16hiRUNTIME_BLOB_SSaISA_EEEESt10_Select1stISD_ESt4lessIS5_ESaISD_EE29_M_get_insert_hint_unique_posESt23_Rb_tree_const_iteratorISD_ERS7__x214
    /*000001c8*/ LDR         R1, [R0, #16] 
    /*000001cc*/ MOV         R0, FP 
    /*000001d0*/ BL          memcmp
    /*000001d4*/ CMP         R0, #0 
    /*000001d8*/ BEQ         _ZNSt8_Rb_treeINSt7__cxx1112basic_stringIcSt11char_traitsIcESaIcEEESt4pairIKS5_NS0_4listIP16hiRUNTIME_BLOB_SSaISA_EEEESt10_Select1stISD_ESt4lessIS5_ESaISD_EE29_M_get_insert_hint_unique_posESt23_Rb_tree_const_iteratorISD_ERS7__x214
    _ZNSt8_Rb_treeINSt7__cxx1112basic_stringIcSt11char_traitsIcESaIcEEESt4pairIKS5_NS0_4listIP16hiRUNTIME_BLOB_SSaISA_EEEESt10_Select1stISD_ESt4lessIS5_ESaISD_EE29_M_get_insert_hint_unique_posESt23_Rb_tree_const_iteratorISD_ERS7__x1dc:
    /*000001dc*/ CMP         R0, #0 
    /*000001e0*/ BGE         _ZNSt8_Rb_treeINSt7__cxx1112basic_stringIcSt11char_traitsIcESaIcEEESt4pairIKS5_NS0_4listIP16hiRUNTIME_BLOB_SSaISA_EEEESt10_Select1stISD_ESt4lessIS5_ESaISD_EE29_M_get_insert_hint_unique_posESt23_Rb_tree_const_iteratorISD_ERS7__x17c
    /*000001e4*/ LDR         R3, [R4, #12] 
    /*000001e8*/ CMP         R3, #0 
    /*000001ec*/ STMEQ       R6, {R3, R4} 
    /*000001f0*/ STRNE       SL, [R6] 
    /*000001f4*/ STRNE       SL, [R6, #4] 
    /*000001f8*/ B           _ZNSt8_Rb_treeINSt7__cxx1112basic_stringIcSt11char_traitsIcESaIcEEESt4pairIKS5_NS0_4listIP16hiRUNTIME_BLOB_SSaISA_EEEESt10_Select1stISD_ESt4lessIS5_ESaISD_EE29_M_get_insert_hint_unique_posESt23_Rb_tree_const_iteratorISD_ERS7__x78
    _ZNSt8_Rb_treeINSt7__cxx1112basic_stringIcSt11char_traitsIcESaIcEEESt4pairIKS5_NS0_4listIP16hiRUNTIME_BLOB_SSaISA_EEEESt10_Select1stISD_ESt4lessIS5_ESaISD_EE29_M_get_insert_hint_unique_posESt23_Rb_tree_const_iteratorISD_ERS7__x1fc:
    /*000001fc*/ STR         R4, [R6, #4] 
    /*00000200*/ MOV         R3, #0 
    /*00000204*/ STR         R3, [R6] 
    /*00000208*/ MOV         R0, R6 
    /*0000020c*/ ADD         SP, SP, #12 
    /*00000210*/ POP         {R4, R5, R6, R7, R8, R9, SL, FP, PC} 
    _ZNSt8_Rb_treeINSt7__cxx1112basic_stringIcSt11char_traitsIcESaIcEEESt4pairIKS5_NS0_4listIP16hiRUNTIME_BLOB_SSaISA_EEEESt10_Select1stISD_ESt4lessIS5_ESaISD_EE29_M_get_insert_hint_unique_posESt23_Rb_tree_const_iteratorISD_ERS7__x214:
    /*00000214*/ SUB         R0, R5, R7 
    /*00000218*/ B           _ZNSt8_Rb_treeINSt7__cxx1112basic_stringIcSt11char_traitsIcESaIcEEESt4pairIKS5_NS0_4listIP16hiRUNTIME_BLOB_SSaISA_EEEESt10_Select1stISD_ESt4lessIS5_ESaISD_EE29_M_get_insert_hint_unique_posESt23_Rb_tree_const_iteratorISD_ERS7__x1dc
    _ZNSt8_Rb_treeINSt7__cxx1112basic_stringIcSt11char_traitsIcESaIcEEESt4pairIKS5_NS0_4listIP16hiRUNTIME_BLOB_SSaISA_EEEESt10_Select1stISD_ESt4lessIS5_ESaISD_EE29_M_get_insert_hint_unique_posESt23_Rb_tree_const_iteratorISD_ERS7__x21c:
    /*0000021c*/ LDR         R1, [R8] 
    /*00000220*/ LDR         R0, [R4, #16] 
    /*00000224*/ BL          memcmp
    /*00000228*/ CMP         R0, #0 
    /*0000022c*/ BNE         _ZNSt8_Rb_treeINSt7__cxx1112basic_stringIcSt11char_traitsIcESaIcEEESt4pairIKS5_NS0_4listIP16hiRUNTIME_BLOB_SSaISA_EEEESt10_Select1stISD_ESt4lessIS5_ESaISD_EE29_M_get_insert_hint_unique_posESt23_Rb_tree_const_iteratorISD_ERS7__x174
    /*00000230*/ B           _ZNSt8_Rb_treeINSt7__cxx1112basic_stringIcSt11char_traitsIcESaIcEEESt4pairIKS5_NS0_4listIP16hiRUNTIME_BLOB_SSaISA_EEEESt10_Select1stISD_ESt4lessIS5_ESaISD_EE29_M_get_insert_hint_unique_posESt23_Rb_tree_const_iteratorISD_ERS7__x170
    _ZNSt8_Rb_treeINSt7__cxx1112basic_stringIcSt11char_traitsIcESaIcEEESt4pairIKS5_NS0_4listIP16hiRUNTIME_BLOB_SSaISA_EEEESt10_Select1stISD_ESt4lessIS5_ESaISD_EE29_M_get_insert_hint_unique_posESt23_Rb_tree_const_iteratorISD_ERS7__x234:
    /*00000234*/ STM         R6, {R3, SL} 
    /*00000238*/ B           _ZNSt8_Rb_treeINSt7__cxx1112basic_stringIcSt11char_traitsIcESaIcEEESt4pairIKS5_NS0_4listIP16hiRUNTIME_BLOB_SSaISA_EEEESt10_Select1stISD_ESt4lessIS5_ESaISD_EE29_M_get_insert_hint_unique_posESt23_Rb_tree_const_iteratorISD_ERS7__x78
FUNC_END _ZNSt8_Rb_treeINSt7__cxx1112basic_stringIcSt11char_traitsIcESaIcEEESt4pairIKS5_NS0_4listIP16hiRUNTIME_BLOB_SSaISA_EEEESt10_Select1stISD_ESt4lessIS5_ESaISD_EE29_M_get_insert_hint_unique_posESt23_Rb_tree_const_iteratorISD_ERS7_


@ - - - - - - - - - - - - - - - - - - - - - - - - - - - - - 
@ .text._ZNSt8_Rb_treeINSt7__cxx1112basic_stringIcSt11char_traitsIcESaIcEEESt4pairIKS5_NS0_4listIP16hiRUNTIME_BLOB_SSaISA_EEEESt10_Select1stISD_ESt4lessIS5_ESaISD_EE16_M_insert_uniqueISD_EES6_ISt17_Rb_tree_iteratorISD_EbEOT_
@ Size: 0x214
@ - - - - - - - - - - - - - - - - - - - - - - - - - - - - - 

FUNC_BEGIN _ZNSt8_Rb_treeINSt7__cxx1112basic_stringIcSt11char_traitsIcESaIcEEESt4pairIKS5_NS0_4listIP16hiRUNTIME_BLOB_SSaISA_EEEESt10_Select1stISD_ESt4lessIS5_ESaISD_EE16_M_insert_uniqueISD_EES6_ISt17_Rb_tree_iteratorISD_EbEOT_
    /*00000000*/ MOV         IP, #16384                  @ 0x4000 
    /*00000004*/ PUSH        {R4, R5, R6, R7, R8, R9, SL, FP, LR} 
    /*00000008*/ SUB         IP, SP, IP 
    /*0000000c*/ STR         R0, [IP, #4040]             @ 0xfc8 
    /*00000010*/ SUB         SP, SP, #20 
    /*00000014*/ MOV         R6, R0 
    /*00000018*/ ADD         R0, SP, #8 
    /*0000001c*/ MOV         R9, R1 
    /*00000020*/ MOV         R5, R2 
    /*00000024*/ BL          _ZNSt8_Rb_treeINSt7__cxx1112basic_stringIcSt11char_traitsIcESaIcEEESt4pairIKS5_NS0_4listIP16hiRUNTIME_BLOB_SSaISA_EEEESt10_Select1stISD_ESt4lessIS5_ESaISD_EE24_M_get_insert_unique_posERS7_
    /*00000028*/ LDR         R8, [SP, #12] 
    /*0000002c*/ LDR         R3, [SP, #8] 
    /*00000030*/ CMP         R8, #0 
    /*00000034*/ BEQ         _ZNSt8_Rb_treeINSt7__cxx1112basic_stringIcSt11char_traitsIcESaIcEEESt4pairIKS5_NS0_4listIP16hiRUNTIME_BLOB_SSaISA_EEEESt10_Select1stISD_ESt4lessIS5_ESaISD_EE16_M_insert_uniqueISD_EES6_ISt17_Rb_tree_iteratorISD_EbEOT__x148
    /*00000038*/ CMP         R3, #0 
    /*0000003c*/ BEQ         _ZNSt8_Rb_treeINSt7__cxx1112basic_stringIcSt11char_traitsIcESaIcEEESt4pairIKS5_NS0_4listIP16hiRUNTIME_BLOB_SSaISA_EEEESt10_Select1stISD_ESt4lessIS5_ESaISD_EE16_M_insert_uniqueISD_EES6_ISt17_Rb_tree_iteratorISD_EbEOT__x15c
    _ZNSt8_Rb_treeINSt7__cxx1112basic_stringIcSt11char_traitsIcESaIcEEESt4pairIKS5_NS0_4listIP16hiRUNTIME_BLOB_SSaISA_EEEESt10_Select1stISD_ESt4lessIS5_ESaISD_EE16_M_insert_uniqueISD_EES6_ISt17_Rb_tree_iteratorISD_EbEOT__x40:
    /*00000040*/ MOV         FP, #1 
    _ZNSt8_Rb_treeINSt7__cxx1112basic_stringIcSt11char_traitsIcESaIcEEESt4pairIKS5_NS0_4listIP16hiRUNTIME_BLOB_SSaISA_EEEESt10_Select1stISD_ESt4lessIS5_ESaISD_EE16_M_insert_uniqueISD_EES6_ISt17_Rb_tree_iteratorISD_EbEOT__x44:
    /*00000044*/ MOV         R0, #52                     @ 0x34 
    /*00000048*/ BL          _Znwj
    /*0000004c*/ MOV         R4, R0 
    /*00000050*/ ADD         R0, R0, #16 
    _ZNSt8_Rb_treeINSt7__cxx1112basic_stringIcSt11char_traitsIcESaIcEEESt4pairIKS5_NS0_4listIP16hiRUNTIME_BLOB_SSaISA_EEEESt10_Select1stISD_ESt4lessIS5_ESaISD_EE16_M_insert_uniqueISD_EES6_ISt17_Rb_tree_iteratorISD_EbEOT__x54:
    /*00000054*/ LDR         SL, [R5] 
    /*00000058*/ ADD         R3, R4, #24 
    /*0000005c*/ LDR         R7, [R5, #4] 
    /*00000060*/ CLZ         R2, SL 
    /*00000064*/ RSB         R1, R7, #0 
    /*00000068*/ CMP         SL, R1 
    /*0000006c*/ LSR         R2, R2, #5 
    /*00000070*/ MOVEQ       R2, #0 
    /*00000074*/ STR         R3, [R4, #16] 
    /*00000078*/ CMP         R2, #0 
    /*0000007c*/ BEQ         _ZNSt8_Rb_treeINSt7__cxx1112basic_stringIcSt11char_traitsIcESaIcEEESt4pairIKS5_NS0_4listIP16hiRUNTIME_BLOB_SSaISA_EEEESt10_Select1stISD_ESt4lessIS5_ESaISD_EE16_M_insert_uniqueISD_EES6_ISt17_Rb_tree_iteratorISD_EbEOT__x8c
    /*00000080*/ LDR         R0, WORD_0210               @ LDR         R0, [PC, #392]              @ 0x0000000000000210 
    /*00000084*/ ADD         R0, PC, R0 
    /*00000088*/ BL          _ZSt19__throw_logic_errorPKc
    _ZNSt8_Rb_treeINSt7__cxx1112basic_stringIcSt11char_traitsIcESaIcEEESt4pairIKS5_NS0_4listIP16hiRUNTIME_BLOB_SSaISA_EEEESt10_Select1stISD_ESt4lessIS5_ESaISD_EE16_M_insert_uniqueISD_EES6_ISt17_Rb_tree_iteratorISD_EbEOT__x8c:
    /*0000008c*/ STR         R7, [SP, #4] 
    /*00000090*/ CMP         R7, #15 
    /*00000094*/ BHI         _ZNSt8_Rb_treeINSt7__cxx1112basic_stringIcSt11char_traitsIcESaIcEEESt4pairIKS5_NS0_4listIP16hiRUNTIME_BLOB_SSaISA_EEEESt10_Select1stISD_ESt4lessIS5_ESaISD_EE16_M_insert_uniqueISD_EES6_ISt17_Rb_tree_iteratorISD_EbEOT__x1c4
    /*00000098*/ CMP         R7, #1 
    /*0000009c*/ LDRBEQ      R2, [SL] 
    /*000000a0*/ STRBEQ      R2, [R4, #24] 
    /*000000a4*/ BEQ         _ZNSt8_Rb_treeINSt7__cxx1112basic_stringIcSt11char_traitsIcESaIcEEESt4pairIKS5_NS0_4listIP16hiRUNTIME_BLOB_SSaISA_EEEESt10_Select1stISD_ESt4lessIS5_ESaISD_EE16_M_insert_uniqueISD_EES6_ISt17_Rb_tree_iteratorISD_EbEOT__xb0
    /*000000a8*/ CMP         R7, #0 
    /*000000ac*/ BNE         _ZNSt8_Rb_treeINSt7__cxx1112basic_stringIcSt11char_traitsIcESaIcEEESt4pairIKS5_NS0_4listIP16hiRUNTIME_BLOB_SSaISA_EEEESt10_Select1stISD_ESt4lessIS5_ESaISD_EE16_M_insert_uniqueISD_EES6_ISt17_Rb_tree_iteratorISD_EbEOT__x200
    _ZNSt8_Rb_treeINSt7__cxx1112basic_stringIcSt11char_traitsIcESaIcEEESt4pairIKS5_NS0_4listIP16hiRUNTIME_BLOB_SSaISA_EEEESt10_Select1stISD_ESt4lessIS5_ESaISD_EE16_M_insert_uniqueISD_EES6_ISt17_Rb_tree_iteratorISD_EbEOT__xb0:
    /*000000b0*/ STR         R7, [R4, #20] 
    /*000000b4*/ MOV         R0, #0 
    /*000000b8*/ STRB        R0, [R3, R7] 
    /*000000bc*/ ADD         R2, R5, #24 
    /*000000c0*/ VMOV.I32    D16, #0                     @ 0x00000000 
    /*000000c4*/ LDR         R1, [R5, #24] 
    /*000000c8*/ ADD         R3, R4, #40                 @ 0x28 
    /*000000cc*/ CMP         R2, R1 
    /*000000d0*/ VSTR        D16, [R4, #40]              @ 0x28 
    /*000000d4*/ VSTR        D16, [R3, #4] 
    /*000000d8*/ STREQ       R3, [R4, #40]               @ 0x28 
    /*000000dc*/ STREQ       R3, [R4, #44]               @ 0x2c 
    /*000000e0*/ STREQ       R0, [R4, #48]               @ 0x30 
    /*000000e4*/ BEQ         _ZNSt8_Rb_treeINSt7__cxx1112basic_stringIcSt11char_traitsIcESaIcEEESt4pairIKS5_NS0_4listIP16hiRUNTIME_BLOB_SSaISA_EEEESt10_Select1stISD_ESt4lessIS5_ESaISD_EE16_M_insert_uniqueISD_EES6_ISt17_Rb_tree_iteratorISD_EbEOT__x110
    /*000000e8*/ LDR         IP, [R5, #28] 
    /*000000ec*/ LDR         LR, [R5, #32] 
    /*000000f0*/ STR         R1, [R4, #40]               @ 0x28 
    /*000000f4*/ STR         IP, [R4, #44]               @ 0x2c 
    /*000000f8*/ STR         R3, [IP] 
    /*000000fc*/ STR         R3, [R1, #4] 
    /*00000100*/ STR         R2, [R5, #24] 
    /*00000104*/ STR         R2, [R5, #28] 
    /*00000108*/ STR         LR, [R4, #48]               @ 0x30 
    /*0000010c*/ STR         R0, [R5, #32] 
    _ZNSt8_Rb_treeINSt7__cxx1112basic_stringIcSt11char_traitsIcESaIcEEESt4pairIKS5_NS0_4listIP16hiRUNTIME_BLOB_SSaISA_EEEESt10_Select1stISD_ESt4lessIS5_ESaISD_EE16_M_insert_uniqueISD_EES6_ISt17_Rb_tree_iteratorISD_EbEOT__x110:
    /*00000110*/ MOV         R2, R8 
    /*00000114*/ MOV         R0, FP 
    /*00000118*/ ADD         R3, R9, #4 
    /*0000011c*/ MOV         R1, R4 
    /*00000120*/ BL          _ZSt29_Rb_tree_insert_and_rebalancebPSt18_Rb_tree_node_baseS0_RS_
    /*00000124*/ LDR         R3, [R9, #20] 
    /*00000128*/ MOV         R2, #1 
    /*0000012c*/ STR         R4, [R6] 
    /*00000130*/ MOV         R0, R6 
    /*00000134*/ ADD         R3, R3, R2 
    /*00000138*/ STRB        R2, [R6, #4] 
    /*0000013c*/ STR         R3, [R9, #20] 
    /*00000140*/ ADD         SP, SP, #20 
    /*00000144*/ POP         {R4, R5, R6, R7, R8, R9, SL, FP, PC} 
    _ZNSt8_Rb_treeINSt7__cxx1112basic_stringIcSt11char_traitsIcESaIcEEESt4pairIKS5_NS0_4listIP16hiRUNTIME_BLOB_SSaISA_EEEESt10_Select1stISD_ESt4lessIS5_ESaISD_EE16_M_insert_uniqueISD_EES6_ISt17_Rb_tree_iteratorISD_EbEOT__x148:
    /*00000148*/ STR         R3, [R6] 
    /*0000014c*/ MOV         R0, R6 
    /*00000150*/ STRB        R8, [R6, #4] 
    /*00000154*/ ADD         SP, SP, #20 
    /*00000158*/ POP         {R4, R5, R6, R7, R8, R9, SL, FP, PC} 
    _ZNSt8_Rb_treeINSt7__cxx1112basic_stringIcSt11char_traitsIcESaIcEEESt4pairIKS5_NS0_4listIP16hiRUNTIME_BLOB_SSaISA_EEEESt10_Select1stISD_ESt4lessIS5_ESaISD_EE16_M_insert_uniqueISD_EES6_ISt17_Rb_tree_iteratorISD_EbEOT__x15c:
    /*0000015c*/ ADD         R3, R9, #4 
    /*00000160*/ CMP         R8, R3 
    /*00000164*/ BEQ         _ZNSt8_Rb_treeINSt7__cxx1112basic_stringIcSt11char_traitsIcESaIcEEESt4pairIKS5_NS0_4listIP16hiRUNTIME_BLOB_SSaISA_EEEESt10_Select1stISD_ESt4lessIS5_ESaISD_EE16_M_insert_uniqueISD_EES6_ISt17_Rb_tree_iteratorISD_EbEOT__x40
    /*00000168*/ LDR         R7, [R5, #4] 
    /*0000016c*/ LDR         R4, [R8, #20] 
    /*00000170*/ CMP         R7, R4 
    /*00000174*/ MOVCC       R2, R7 
    /*00000178*/ MOVCS       R2, R4 
    /*0000017c*/ CMP         R2, #0 
    /*00000180*/ BEQ         _ZNSt8_Rb_treeINSt7__cxx1112basic_stringIcSt11char_traitsIcESaIcEEESt4pairIKS5_NS0_4listIP16hiRUNTIME_BLOB_SSaISA_EEEESt10_Select1stISD_ESt4lessIS5_ESaISD_EE16_M_insert_uniqueISD_EES6_ISt17_Rb_tree_iteratorISD_EbEOT__x1bc
    /*00000184*/ LDR         R1, [R8, #16] 
    /*00000188*/ LDR         R0, [R5] 
    /*0000018c*/ BL          memcmp
    /*00000190*/ CMP         R0, #0 
    /*00000194*/ BEQ         _ZNSt8_Rb_treeINSt7__cxx1112basic_stringIcSt11char_traitsIcESaIcEEESt4pairIKS5_NS0_4listIP16hiRUNTIME_BLOB_SSaISA_EEEESt10_Select1stISD_ESt4lessIS5_ESaISD_EE16_M_insert_uniqueISD_EES6_ISt17_Rb_tree_iteratorISD_EbEOT__x1bc
    _ZNSt8_Rb_treeINSt7__cxx1112basic_stringIcSt11char_traitsIcESaIcEEESt4pairIKS5_NS0_4listIP16hiRUNTIME_BLOB_SSaISA_EEEESt10_Select1stISD_ESt4lessIS5_ESaISD_EE16_M_insert_uniqueISD_EES6_ISt17_Rb_tree_iteratorISD_EbEOT__x198:
    /*00000198*/ CMP         R0, #0 
    /*0000019c*/ MOVGE       FP, #0 
    /*000001a0*/ BGE         _ZNSt8_Rb_treeINSt7__cxx1112basic_stringIcSt11char_traitsIcESaIcEEESt4pairIKS5_NS0_4listIP16hiRUNTIME_BLOB_SSaISA_EEEESt10_Select1stISD_ESt4lessIS5_ESaISD_EE16_M_insert_uniqueISD_EES6_ISt17_Rb_tree_iteratorISD_EbEOT__x44
    /*000001a4*/ MOV         R0, #52                     @ 0x34 
    /*000001a8*/ MOV         FP, #1 
    /*000001ac*/ BL          _Znwj
    /*000001b0*/ MOV         R4, R0 
    /*000001b4*/ ADD         R0, R0, #16 
    /*000001b8*/ B           _ZNSt8_Rb_treeINSt7__cxx1112basic_stringIcSt11char_traitsIcESaIcEEESt4pairIKS5_NS0_4listIP16hiRUNTIME_BLOB_SSaISA_EEEESt10_Select1stISD_ESt4lessIS5_ESaISD_EE16_M_insert_uniqueISD_EES6_ISt17_Rb_tree_iteratorISD_EbEOT__x54
    _ZNSt8_Rb_treeINSt7__cxx1112basic_stringIcSt11char_traitsIcESaIcEEESt4pairIKS5_NS0_4listIP16hiRUNTIME_BLOB_SSaISA_EEEESt10_Select1stISD_ESt4lessIS5_ESaISD_EE16_M_insert_uniqueISD_EES6_ISt17_Rb_tree_iteratorISD_EbEOT__x1bc:
    /*000001bc*/ SUB         R0, R7, R4 
    /*000001c0*/ B           _ZNSt8_Rb_treeINSt7__cxx1112basic_stringIcSt11char_traitsIcESaIcEEESt4pairIKS5_NS0_4listIP16hiRUNTIME_BLOB_SSaISA_EEEESt10_Select1stISD_ESt4lessIS5_ESaISD_EE16_M_insert_uniqueISD_EES6_ISt17_Rb_tree_iteratorISD_EbEOT__x198
    _ZNSt8_Rb_treeINSt7__cxx1112basic_stringIcSt11char_traitsIcESaIcEEESt4pairIKS5_NS0_4listIP16hiRUNTIME_BLOB_SSaISA_EEEESt10_Select1stISD_ESt4lessIS5_ESaISD_EE16_M_insert_uniqueISD_EES6_ISt17_Rb_tree_iteratorISD_EbEOT__x1c4:
    /*000001c4*/ ADD         R1, SP, #4 
    /*000001c8*/ BL          _ZNSt7__cxx1112basic_stringIcSt11char_traitsIcESaIcEE9_M_createERjj
    /*000001cc*/ LDR         R3, [SP, #4] 
    /*000001d0*/ STR         R0, [R4, #16] 
    /*000001d4*/ STR         R3, [R4, #24] 
    _ZNSt8_Rb_treeINSt7__cxx1112basic_stringIcSt11char_traitsIcESaIcEEESt4pairIKS5_NS0_4listIP16hiRUNTIME_BLOB_SSaISA_EEEESt10_Select1stISD_ESt4lessIS5_ESaISD_EE16_M_insert_uniqueISD_EES6_ISt17_Rb_tree_iteratorISD_EbEOT__x1d8:
    /*000001d8*/ MOV         R2, R7 
    /*000001dc*/ MOV         R1, SL 
    /*000001e0*/ BL          memcpy
    /*000001e4*/ LDR         R7, [SP, #4] 
    /*000001e8*/ LDR         R3, [R4, #16] 
    /*000001ec*/ B           _ZNSt8_Rb_treeINSt7__cxx1112basic_stringIcSt11char_traitsIcESaIcEEESt4pairIKS5_NS0_4listIP16hiRUNTIME_BLOB_SSaISA_EEEESt10_Select1stISD_ESt4lessIS5_ESaISD_EE16_M_insert_uniqueISD_EES6_ISt17_Rb_tree_iteratorISD_EbEOT__xb0
    /*000001f0*/ BL          __cxa_begin_catch
    /*000001f4*/ MOV         R0, R4 
    /*000001f8*/ BL          _ZdlPv
    /*000001fc*/ BL          __cxa_rethrow
    _ZNSt8_Rb_treeINSt7__cxx1112basic_stringIcSt11char_traitsIcESaIcEEESt4pairIKS5_NS0_4listIP16hiRUNTIME_BLOB_SSaISA_EEEESt10_Select1stISD_ESt4lessIS5_ESaISD_EE16_M_insert_uniqueISD_EES6_ISt17_Rb_tree_iteratorISD_EbEOT__x200:
    /*00000200*/ MOV         R0, R3 
    /*00000204*/ B           _ZNSt8_Rb_treeINSt7__cxx1112basic_stringIcSt11char_traitsIcESaIcEEESt4pairIKS5_NS0_4listIP16hiRUNTIME_BLOB_SSaISA_EEEESt10_Select1stISD_ESt4lessIS5_ESaISD_EE16_M_insert_uniqueISD_EES6_ISt17_Rb_tree_iteratorISD_EbEOT__x1d8
    /*00000208*/ BL          __cxa_end_catch
    /*0000020c*/ BL          __cxa_end_cleanup
    /*00000210*/ WORD_0210: .word 0x00000184
FUNC_END _ZNSt8_Rb_treeINSt7__cxx1112basic_stringIcSt11char_traitsIcESaIcEEESt4pairIKS5_NS0_4listIP16hiRUNTIME_BLOB_SSaISA_EEEESt10_Select1stISD_ESt4lessIS5_ESaISD_EE16_M_insert_uniqueISD_EES6_ISt17_Rb_tree_iteratorISD_EbEOT_


@ - - - - - - - - - - - - - - - - - - - - - - - - - - - - - 
@ .ARM.extab.text._ZNSt8_Rb_treeINSt7__cxx1112basic_stringIcSt11char_traitsIcESaIcEEESt4pairIKS5_NS0_4listIP16hiRUNTIME_BLOB_SSaISA_EEEESt10_Select1stISD_ESt4lessIS5_ESaISD_EE16_M_insert_uniqueISD_EES6_ISt17_Rb_tree_iteratorISD_EbEOT_
@ Size: 0x34
@ - - - - - - - - - - - - - - - - - - - - - - - - - - - - - 

@ - - - - - - - - - - - - - - - - - - - - - - - - - - - - - 
@ .text._ZL12addBlobTablePN4hirt14ModelGroupTaskENSt7__cxx1112basic_stringIcSt11char_traitsIcESaIcEEEP16hiRUNTIME_BLOB_S
@ Size: 0x55c
@ - - - - - - - - - - - - - - - - - - - - - - - - - - - - - 

FUNC_BEGIN _ZL12addBlobTablePN4hirt14ModelGroupTaskENSt7__cxx1112basic_stringIcSt11char_traitsIcESaIcEEEP16hiRUNTIME_BLOB_S
    /*00000000*/ MOV         IP, #16384                  @ 0x4000 
    /*00000004*/ PUSH        {R4, R5, R6, R7, R8, R9, SL, FP, LR} 
    /*00000008*/ SUB         IP, SP, IP 
    /*0000000c*/ STR         R0, [IP, #3944]             @ 0xf68 
    /*00000010*/ LDR         R3, WORD_054c               @ LDR         R3, [PC, #1332]             @ 0x000000000000054c 
    /*00000014*/ MOV         SL, R1 
    /*00000018*/ LDR         R1, WORD_0550               @ LDR         R1, [PC, #1328]             @ 0x0000000000000550 
    /*0000001c*/ SUB         SP, SP, #116                @ 0x74 
    /*00000020*/ LDR         R7, [SL] 
    /*00000024*/ MOV         IP, R2 
    /*00000028*/ LDR         R4, [SL, #4] 
    /*0000002c*/ MOV         R8, R0 
    /*00000030*/ ADD         R3, PC, R3 
    /*00000034*/ ADD         R6, SP, #32 
    /*00000038*/ STR         R2, [SP, #4] 
    /*0000003c*/ ADD         R5, SP, #56                 @ 0x38 
    /*00000040*/ RSB         R0, R4, #0 
    /*00000044*/ CLZ         R2, R7 
    /*00000048*/ LDR         R3, [R3, R1] 
    /*0000004c*/ CMP         R7, R0 
    /*00000050*/ VMOV.I32    D16, #0                     @ 0x00000000 
    /*00000054*/ LSR         R2, R2, #5 
    /*00000058*/ MOVEQ       R2, #0 
    /*0000005c*/ STR         R3, [SP, #8] 
    /*00000060*/ CMP         R2, #0 
    /*00000064*/ LDR         R3, [R3] 
    /*00000068*/ VSTR        D16, [R6, #4] 
    /*0000006c*/ STR         IP, [SP, #44]               @ 0x2c 
    /*00000070*/ STR         R3, [SP, #108]              @ 0x6c 
    /*00000074*/ STR         R6, [SP, #32] 
    /*00000078*/ STR         R6, [SP, #36]               @ 0x24 
    /*0000007c*/ STR         R5, [SP, #48]               @ 0x30 
    /*00000080*/ BEQ         _ZL12addBlobTablePN4hirt14ModelGroupTaskENSt7__cxx1112basic_stringIcSt11char_traitsIcESaIcEEEP16hiRUNTIME_BLOB_S_x90
    /*00000084*/ LDR         R0, WORD_0554               @ LDR         R0, [PC, #1224]             @ 0x0000000000000554 
    /*00000088*/ ADD         R0, PC, R0 
    /*0000008c*/ BL          _ZSt19__throw_logic_errorPKc
    _ZL12addBlobTablePN4hirt14ModelGroupTaskENSt7__cxx1112basic_stringIcSt11char_traitsIcESaIcEEEP16hiRUNTIME_BLOB_S_x90:
    /*00000090*/ STR         R4, [SP, #16] 
    /*00000094*/ CMP         R4, #15 
    /*00000098*/ BHI         _ZL12addBlobTablePN4hirt14ModelGroupTaskENSt7__cxx1112basic_stringIcSt11char_traitsIcESaIcEEEP16hiRUNTIME_BLOB_S_x364
    /*0000009c*/ CMP         R4, #1 
    /*000000a0*/ BEQ         _ZL12addBlobTablePN4hirt14ModelGroupTaskENSt7__cxx1112basic_stringIcSt11char_traitsIcESaIcEEEP16hiRUNTIME_BLOB_S_x394
    /*000000a4*/ CMP         R4, #0 
    /*000000a8*/ MOVEQ       R2, R5 
    /*000000ac*/ BNE         _ZL12addBlobTablePN4hirt14ModelGroupTaskENSt7__cxx1112basic_stringIcSt11char_traitsIcESaIcEEEP16hiRUNTIME_BLOB_S_x488
    _ZL12addBlobTablePN4hirt14ModelGroupTaskENSt7__cxx1112basic_stringIcSt11char_traitsIcESaIcEEEP16hiRUNTIME_BLOB_S_xb0:
    /*000000b0*/ STR         R4, [SP, #52]               @ 0x34 
    /*000000b4*/ MOV         R3, #0 
    /*000000b8*/ STRB        R3, [R2, R4] 
    /*000000bc*/ ADD         R7, R8, #124                @ 0x7c 
    /*000000c0*/ LDR         R4, [R8, #128]              @ 0x80 
    /*000000c4*/ CMP         R4, R3 
    /*000000c8*/ BEQ         _ZL12addBlobTablePN4hirt14ModelGroupTaskENSt7__cxx1112basic_stringIcSt11char_traitsIcESaIcEEEP16hiRUNTIME_BLOB_S_x218
    /*000000cc*/ LDR         R1, [SP, #44]               @ 0x2c 
    /*000000d0*/ B           _ZL12addBlobTablePN4hirt14ModelGroupTaskENSt7__cxx1112basic_stringIcSt11char_traitsIcESaIcEEEP16hiRUNTIME_BLOB_S_xd8
    _ZL12addBlobTablePN4hirt14ModelGroupTaskENSt7__cxx1112basic_stringIcSt11char_traitsIcESaIcEEEP16hiRUNTIME_BLOB_S_xd4:
    /*000000d4*/ MOV         R4, R3 
    _ZL12addBlobTablePN4hirt14ModelGroupTaskENSt7__cxx1112basic_stringIcSt11char_traitsIcESaIcEEEP16hiRUNTIME_BLOB_S_xd8:
    /*000000d8*/ LDR         R2, [R4, #16] 
    /*000000dc*/ CMP         R2, R1 
    /*000000e0*/ MOVHI       R0, #1 
    /*000000e4*/ MOVLS       R0, #0 
    /*000000e8*/ LDRHI       R3, [R4, #8] 
    /*000000ec*/ LDRLS       R3, [R4, #12] 
    /*000000f0*/ CMP         R3, #0 
    /*000000f4*/ BNE         _ZL12addBlobTablePN4hirt14ModelGroupTaskENSt7__cxx1112basic_stringIcSt11char_traitsIcESaIcEEEP16hiRUNTIME_BLOB_S_xd4
    /*000000f8*/ CMP         R0, #0 
    /*000000fc*/ BNE         _ZL12addBlobTablePN4hirt14ModelGroupTaskENSt7__cxx1112basic_stringIcSt11char_traitsIcESaIcEEEP16hiRUNTIME_BLOB_S_x21c
    /*00000100*/ CMP         R2, R1 
    /*00000104*/ BCC         _ZL12addBlobTablePN4hirt14ModelGroupTaskENSt7__cxx1112basic_stringIcSt11char_traitsIcESaIcEEEP16hiRUNTIME_BLOB_S_x240
    _ZL12addBlobTablePN4hirt14ModelGroupTaskENSt7__cxx1112basic_stringIcSt11char_traitsIcESaIcEEEP16hiRUNTIME_BLOB_S_x108:
    /*00000108*/ LDR         R0, [SP, #48]               @ 0x30 
    /*0000010c*/ CMP         R0, R5 
    /*00000110*/ BEQ         _ZL12addBlobTablePN4hirt14ModelGroupTaskENSt7__cxx1112basic_stringIcSt11char_traitsIcESaIcEEEP16hiRUNTIME_BLOB_S_x118
    /*00000114*/ BL          _ZdlPv
    _ZL12addBlobTablePN4hirt14ModelGroupTaskENSt7__cxx1112basic_stringIcSt11char_traitsIcESaIcEEEP16hiRUNTIME_BLOB_S_x118:
    /*00000118*/ LDR         R4, [R8, #104]              @ 0x68 
    /*0000011c*/ ADD         R3, R8, #100                @ 0x64 
    /*00000120*/ STR         R3, [SP, #12] 
    /*00000124*/ CMP         R4, #0 
    /*00000128*/ BEQ         _ZL12addBlobTablePN4hirt14ModelGroupTaskENSt7__cxx1112basic_stringIcSt11char_traitsIcESaIcEEEP16hiRUNTIME_BLOB_S_x304
    /*0000012c*/ LDM         SL, {R9, FP} 
    /*00000130*/ MOV         R7, R3 
    /*00000134*/ B           _ZL12addBlobTablePN4hirt14ModelGroupTaskENSt7__cxx1112basic_stringIcSt11char_traitsIcESaIcEEEP16hiRUNTIME_BLOB_S_x164
    _ZL12addBlobTablePN4hirt14ModelGroupTaskENSt7__cxx1112basic_stringIcSt11char_traitsIcESaIcEEEP16hiRUNTIME_BLOB_S_x138:
    /*00000138*/ LDR         R0, [R4, #16] 
    /*0000013c*/ MOV         R1, R9 
    /*00000140*/ BL          memcmp
    /*00000144*/ CMP         R0, #0 
    /*00000148*/ BEQ         _ZL12addBlobTablePN4hirt14ModelGroupTaskENSt7__cxx1112basic_stringIcSt11char_traitsIcESaIcEEEP16hiRUNTIME_BLOB_S_x17c
    _ZL12addBlobTablePN4hirt14ModelGroupTaskENSt7__cxx1112basic_stringIcSt11char_traitsIcESaIcEEEP16hiRUNTIME_BLOB_S_x14c:
    /*0000014c*/ CMP         R0, #0 
    /*00000150*/ MOVGE       R7, R4 
    /*00000154*/ LDRLT       R4, [R4, #12] 
    /*00000158*/ LDRGE       R4, [R4, #8] 
    /*0000015c*/ CMP         R4, #0 
    /*00000160*/ BEQ         _ZL12addBlobTablePN4hirt14ModelGroupTaskENSt7__cxx1112basic_stringIcSt11char_traitsIcESaIcEEEP16hiRUNTIME_BLOB_S_x184
    _ZL12addBlobTablePN4hirt14ModelGroupTaskENSt7__cxx1112basic_stringIcSt11char_traitsIcESaIcEEEP16hiRUNTIME_BLOB_S_x164:
    /*00000164*/ LDR         R5, [R4, #20] 
    /*00000168*/ CMP         R5, FP 
    /*0000016c*/ MOVCC       R2, R5 
    /*00000170*/ MOVCS       R2, FP 
    /*00000174*/ CMP         R2, #0 
    /*00000178*/ BNE         _ZL12addBlobTablePN4hirt14ModelGroupTaskENSt7__cxx1112basic_stringIcSt11char_traitsIcESaIcEEEP16hiRUNTIME_BLOB_S_x138
    _ZL12addBlobTablePN4hirt14ModelGroupTaskENSt7__cxx1112basic_stringIcSt11char_traitsIcESaIcEEEP16hiRUNTIME_BLOB_S_x17c:
    /*0000017c*/ SUB         R0, R5, FP 
    /*00000180*/ B           _ZL12addBlobTablePN4hirt14ModelGroupTaskENSt7__cxx1112basic_stringIcSt11char_traitsIcESaIcEEEP16hiRUNTIME_BLOB_S_x14c
    _ZL12addBlobTablePN4hirt14ModelGroupTaskENSt7__cxx1112basic_stringIcSt11char_traitsIcESaIcEEEP16hiRUNTIME_BLOB_S_x184:
    /*00000184*/ LDR         R3, [SP, #12] 
    /*00000188*/ CMP         R3, R7 
    /*0000018c*/ BEQ         _ZL12addBlobTablePN4hirt14ModelGroupTaskENSt7__cxx1112basic_stringIcSt11char_traitsIcESaIcEEEP16hiRUNTIME_BLOB_S_x304
    /*00000190*/ LDR         R4, [R7, #20] 
    /*00000194*/ CMP         R4, FP 
    /*00000198*/ MOVCC       R2, R4 
    /*0000019c*/ MOVCS       R2, FP 
    /*000001a0*/ CMP         R2, #0 
    /*000001a4*/ BNE         _ZL12addBlobTablePN4hirt14ModelGroupTaskENSt7__cxx1112basic_stringIcSt11char_traitsIcESaIcEEEP16hiRUNTIME_BLOB_S_x2e8
    _ZL12addBlobTablePN4hirt14ModelGroupTaskENSt7__cxx1112basic_stringIcSt11char_traitsIcESaIcEEEP16hiRUNTIME_BLOB_S_x1a8:
    /*000001a8*/ SUB         R0, FP, R4 
    /*000001ac*/ CMP         R0, #0 
    /*000001b0*/ BLT         _ZL12addBlobTablePN4hirt14ModelGroupTaskENSt7__cxx1112basic_stringIcSt11char_traitsIcESaIcEEEP16hiRUNTIME_BLOB_S_x304
    _ZL12addBlobTablePN4hirt14ModelGroupTaskENSt7__cxx1112basic_stringIcSt11char_traitsIcESaIcEEEP16hiRUNTIME_BLOB_S_x1b4:
    /*000001b4*/ MOV         R0, #12 
    /*000001b8*/ ADD         R4, R7, #40                 @ 0x28 
    /*000001bc*/ BL          _Znwj
    /*000001c0*/ LDR         R3, [SP, #4] 
    /*000001c4*/ MOV         R1, R4 
    /*000001c8*/ STR         R3, [R0, #8] 
    /*000001cc*/ BL          _ZNSt8__detail15_List_node_base7_M_hookEPS0_
    /*000001d0*/ LDR         R3, [R7, #48]               @ 0x30 
    /*000001d4*/ ADD         R3, R3, #1 
    /*000001d8*/ STR         R3, [R7, #48]               @ 0x30 
    _ZL12addBlobTablePN4hirt14ModelGroupTaskENSt7__cxx1112basic_stringIcSt11char_traitsIcESaIcEEEP16hiRUNTIME_BLOB_S_x1dc:
    /*000001dc*/ LDR         R0, [SP, #32] 
    /*000001e0*/ CMP         R0, R6 
    /*000001e4*/ BEQ         _ZL12addBlobTablePN4hirt14ModelGroupTaskENSt7__cxx1112basic_stringIcSt11char_traitsIcESaIcEEEP16hiRUNTIME_BLOB_S_x1fc
    _ZL12addBlobTablePN4hirt14ModelGroupTaskENSt7__cxx1112basic_stringIcSt11char_traitsIcESaIcEEEP16hiRUNTIME_BLOB_S_x1e8:
    /*000001e8*/ LDR         R4, [R0] 
    /*000001ec*/ BL          _ZdlPv
    /*000001f0*/ CMP         R4, R6 
    /*000001f4*/ MOV         R0, R4 
    /*000001f8*/ BNE         _ZL12addBlobTablePN4hirt14ModelGroupTaskENSt7__cxx1112basic_stringIcSt11char_traitsIcESaIcEEEP16hiRUNTIME_BLOB_S_x1e8
    _ZL12addBlobTablePN4hirt14ModelGroupTaskENSt7__cxx1112basic_stringIcSt11char_traitsIcESaIcEEEP16hiRUNTIME_BLOB_S_x1fc:
    /*000001fc*/ LDR         R3, [SP, #8] 
    /*00000200*/ LDR         R2, [SP, #108]              @ 0x6c 
    /*00000204*/ LDR         R3, [R3] 
    /*00000208*/ CMP         R2, R3 
    /*0000020c*/ BNE         _ZL12addBlobTablePN4hirt14ModelGroupTaskENSt7__cxx1112basic_stringIcSt11char_traitsIcESaIcEEEP16hiRUNTIME_BLOB_S_x4e0
    /*00000210*/ ADD         SP, SP, #116                @ 0x74 
    /*00000214*/ POP         {R4, R5, R6, R7, R8, R9, SL, FP, PC} 
    _ZL12addBlobTablePN4hirt14ModelGroupTaskENSt7__cxx1112basic_stringIcSt11char_traitsIcESaIcEEEP16hiRUNTIME_BLOB_S_x218:
    /*00000218*/ MOV         R4, R7 
    _ZL12addBlobTablePN4hirt14ModelGroupTaskENSt7__cxx1112basic_stringIcSt11char_traitsIcESaIcEEEP16hiRUNTIME_BLOB_S_x21c:
    /*0000021c*/ LDR         R3, [R8, #132]              @ 0x84 
    /*00000220*/ CMP         R3, R4 
    /*00000224*/ BEQ         _ZL12addBlobTablePN4hirt14ModelGroupTaskENSt7__cxx1112basic_stringIcSt11char_traitsIcESaIcEEEP16hiRUNTIME_BLOB_S_x248
    /*00000228*/ MOV         R0, R4 
    /*0000022c*/ BL          _ZSt18_Rb_tree_decrementPSt18_Rb_tree_node_base
    /*00000230*/ LDR         R2, [R0, #16] 
    /*00000234*/ LDR         R1, [SP, #44]               @ 0x2c 
    /*00000238*/ CMP         R2, R1 
    /*0000023c*/ BCS         _ZL12addBlobTablePN4hirt14ModelGroupTaskENSt7__cxx1112basic_stringIcSt11char_traitsIcESaIcEEEP16hiRUNTIME_BLOB_S_x108
    _ZL12addBlobTablePN4hirt14ModelGroupTaskENSt7__cxx1112basic_stringIcSt11char_traitsIcESaIcEEEP16hiRUNTIME_BLOB_S_x240:
    /*00000240*/ CMP         R4, #0 
    /*00000244*/ BEQ         _ZL12addBlobTablePN4hirt14ModelGroupTaskENSt7__cxx1112basic_stringIcSt11char_traitsIcESaIcEEEP16hiRUNTIME_BLOB_S_x108
    _ZL12addBlobTablePN4hirt14ModelGroupTaskENSt7__cxx1112basic_stringIcSt11char_traitsIcESaIcEEEP16hiRUNTIME_BLOB_S_x248:
    /*00000248*/ CMP         R7, R4 
    /*0000024c*/ BEQ         _ZL12addBlobTablePN4hirt14ModelGroupTaskENSt7__cxx1112basic_stringIcSt11char_traitsIcESaIcEEEP16hiRUNTIME_BLOB_S_x490
    /*00000250*/ LDR         FP, [R4, #16] 
    /*00000254*/ LDR         R3, [SP, #44]               @ 0x2c 
    /*00000258*/ CMP         R3, FP 
    /*0000025c*/ MOVCS       FP, #0 
    /*00000260*/ MOVCC       FP, #1 
    _ZL12addBlobTablePN4hirt14ModelGroupTaskENSt7__cxx1112basic_stringIcSt11char_traitsIcESaIcEEEP16hiRUNTIME_BLOB_S_x264:
    /*00000264*/ MOV         R0, #44                     @ 0x2c 
    /*00000268*/ BL          _Znwj
    /*0000026c*/ LDR         R3, [SP, #48]               @ 0x30 
    /*00000270*/ ADD         LR, R0, #28 
    /*00000274*/ LDR         R2, [SP, #44]               @ 0x2c 
    /*00000278*/ MOV         IP, R0 
    /*0000027c*/ CMP         R3, R5 
    /*00000280*/ STR         R2, [R0, #16] 
    /*00000284*/ MOVEQ       R9, R5 
    /*00000288*/ STR         LR, [R0, #20] 
    /*0000028c*/ LDMEQ       R9!, {R0, R1, R2, R3} 
    /*00000290*/ LDRNE       R2, [SP, #56]               @ 0x38 
    /*00000294*/ STREQ       R1, [IP, #32] 
    /*00000298*/ LDR         R1, [SP, #52]               @ 0x34 
    /*0000029c*/ STREQ       R0, [IP, #28] 
    /*000002a0*/ MOV         R0, FP 
    /*000002a4*/ STREQ       R2, [IP, #36]               @ 0x24 
    /*000002a8*/ STREQ       R3, [IP, #40]               @ 0x28 
    /*000002ac*/ STRNE       R3, [IP, #20] 
    /*000002b0*/ MOV         R3, R7 
    /*000002b4*/ STRNE       R2, [IP, #28] 
    /*000002b8*/ MOV         R2, R4 
    /*000002bc*/ STR         R1, [IP, #24] 
    /*000002c0*/ MOV         R1, IP 
    /*000002c4*/ STR         R5, [SP, #48]               @ 0x30 
    /*000002c8*/ MOV         IP, #0 
    /*000002cc*/ STR         IP, [SP, #52]               @ 0x34 
    /*000002d0*/ STRB        IP, [SP, #56]               @ 0x38 
    /*000002d4*/ BL          _ZSt29_Rb_tree_insert_and_rebalancebPSt18_Rb_tree_node_baseS0_RS_
    /*000002d8*/ LDR         R3, [R8, #140]              @ 0x8c 
    /*000002dc*/ ADD         R3, R3, #1 
    /*000002e0*/ STR         R3, [R8, #140]              @ 0x8c 
    /*000002e4*/ B           _ZL12addBlobTablePN4hirt14ModelGroupTaskENSt7__cxx1112basic_stringIcSt11char_traitsIcESaIcEEEP16hiRUNTIME_BLOB_S_x108
    _ZL12addBlobTablePN4hirt14ModelGroupTaskENSt7__cxx1112basic_stringIcSt11char_traitsIcESaIcEEEP16hiRUNTIME_BLOB_S_x2e8:
    /*000002e8*/ LDR         R1, [R7, #16] 
    /*000002ec*/ MOV         R0, R9 
    /*000002f0*/ BL          memcmp
    /*000002f4*/ CMP         R0, #0 
    /*000002f8*/ BEQ         _ZL12addBlobTablePN4hirt14ModelGroupTaskENSt7__cxx1112basic_stringIcSt11char_traitsIcESaIcEEEP16hiRUNTIME_BLOB_S_x1a8
    /*000002fc*/ CMP         R0, #0 
    /*00000300*/ BGE         _ZL12addBlobTablePN4hirt14ModelGroupTaskENSt7__cxx1112basic_stringIcSt11char_traitsIcESaIcEEEP16hiRUNTIME_BLOB_S_x1b4
    _ZL12addBlobTablePN4hirt14ModelGroupTaskENSt7__cxx1112basic_stringIcSt11char_traitsIcESaIcEEEP16hiRUNTIME_BLOB_S_x304:
    /*00000304*/ MOV         R0, #12 
    /*00000308*/ BL          _Znwj
    /*0000030c*/ LDR         R3, [SP, #4] 
    /*00000310*/ MOV         R1, R6 
    /*00000314*/ ADD         R7, SP, #80                 @ 0x50 
    /*00000318*/ ADD         R9, SP, #72                 @ 0x48 
    /*0000031c*/ STR         R3, [R0, #8] 
    /*00000320*/ BL          _ZNSt8__detail15_List_node_base7_M_hookEPS0_
    /*00000324*/ LDR         R5, [SL] 
    /*00000328*/ LDR         R4, [SL, #4] 
    /*0000032c*/ CLZ         R2, R5 
    /*00000330*/ RSB         R1, R4, #0 
    /*00000334*/ CMP         R5, R1 
    /*00000338*/ LDR         R3, [SP, #40]               @ 0x28 
    /*0000033c*/ LSR         R2, R2, #5 
    /*00000340*/ MOVEQ       R2, #0 
    /*00000344*/ STR         R7, [SP, #72]               @ 0x48 
    /*00000348*/ CMP         R2, #0 
    /*0000034c*/ ADD         R3, R3, #1 
    /*00000350*/ STR         R3, [SP, #40]               @ 0x28 
    /*00000354*/ BEQ         _ZL12addBlobTablePN4hirt14ModelGroupTaskENSt7__cxx1112basic_stringIcSt11char_traitsIcESaIcEEEP16hiRUNTIME_BLOB_S_x3a4
    /*00000358*/ LDR         R0, WORD_0558               @ LDR         R0, [PC, #504]              @ 0x0000000000000558 
    /*0000035c*/ ADD         R0, PC, R0 
    /*00000360*/ BL          _ZSt19__throw_logic_errorPKc
    _ZL12addBlobTablePN4hirt14ModelGroupTaskENSt7__cxx1112basic_stringIcSt11char_traitsIcESaIcEEEP16hiRUNTIME_BLOB_S_x364:
    /*00000364*/ ADD         R1, SP, #16 
    /*00000368*/ ADD         R0, SP, #48                 @ 0x30 
    /*0000036c*/ BL          _ZNSt7__cxx1112basic_stringIcSt11char_traitsIcESaIcEE9_M_createERjj
    /*00000370*/ LDR         R3, [SP, #16] 
    /*00000374*/ STR         R0, [SP, #48]               @ 0x30 
    /*00000378*/ STR         R3, [SP, #56]               @ 0x38 
    _ZL12addBlobTablePN4hirt14ModelGroupTaskENSt7__cxx1112basic_stringIcSt11char_traitsIcESaIcEEEP16hiRUNTIME_BLOB_S_x37c:
    /*0000037c*/ MOV         R2, R4 
    /*00000380*/ MOV         R1, R7 
    /*00000384*/ BL          memcpy
    /*00000388*/ LDR         R4, [SP, #16] 
    /*0000038c*/ LDR         R2, [SP, #48]               @ 0x30 
    /*00000390*/ B           _ZL12addBlobTablePN4hirt14ModelGroupTaskENSt7__cxx1112basic_stringIcSt11char_traitsIcESaIcEEEP16hiRUNTIME_BLOB_S_xb0
    _ZL12addBlobTablePN4hirt14ModelGroupTaskENSt7__cxx1112basic_stringIcSt11char_traitsIcESaIcEEEP16hiRUNTIME_BLOB_S_x394:
    /*00000394*/ LDRB        R3, [R7] 
    /*00000398*/ MOV         R2, R5 
    /*0000039c*/ STRB        R3, [SP, #56]               @ 0x38 
    /*000003a0*/ B           _ZL12addBlobTablePN4hirt14ModelGroupTaskENSt7__cxx1112basic_stringIcSt11char_traitsIcESaIcEEEP16hiRUNTIME_BLOB_S_xb0
    _ZL12addBlobTablePN4hirt14ModelGroupTaskENSt7__cxx1112basic_stringIcSt11char_traitsIcESaIcEEEP16hiRUNTIME_BLOB_S_x3a4:
    /*000003a4*/ STR         R4, [SP, #20] 
    /*000003a8*/ CMP         R4, #15 
    /*000003ac*/ BHI         _ZL12addBlobTablePN4hirt14ModelGroupTaskENSt7__cxx1112basic_stringIcSt11char_traitsIcESaIcEEEP16hiRUNTIME_BLOB_S_x498
    /*000003b0*/ CMP         R4, #1 
    /*000003b4*/ BEQ         _ZL12addBlobTablePN4hirt14ModelGroupTaskENSt7__cxx1112basic_stringIcSt11char_traitsIcESaIcEEEP16hiRUNTIME_BLOB_S_x4c8
    /*000003b8*/ CMP         R4, #0 
    /*000003bc*/ MOVEQ       R2, R7 
    /*000003c0*/ BNE         _ZL12addBlobTablePN4hirt14ModelGroupTaskENSt7__cxx1112basic_stringIcSt11char_traitsIcESaIcEEEP16hiRUNTIME_BLOB_S_x4d8
    _ZL12addBlobTablePN4hirt14ModelGroupTaskENSt7__cxx1112basic_stringIcSt11char_traitsIcESaIcEEEP16hiRUNTIME_BLOB_S_x3c4:
    /*000003c4*/ STR         R4, [SP, #76]               @ 0x4c 
    /*000003c8*/ MOV         R3, #0 
    /*000003cc*/ STRB        R3, [R2, R4] 
    /*000003d0*/ ADD         R5, SP, #96                 @ 0x60 
    /*000003d4*/ LDR         R4, [SP, #32] 
    /*000003d8*/ VMOV.I32    D16, #0                     @ 0x00000000 
    /*000003dc*/ CMP         R4, R6 
    /*000003e0*/ STR         R5, [SP, #96]               @ 0x60 
    /*000003e4*/ VSTR        D16, [R5, #4] 
    /*000003e8*/ STR         R5, [SP, #100]              @ 0x64 
    /*000003ec*/ BEQ         _ZL12addBlobTablePN4hirt14ModelGroupTaskENSt7__cxx1112basic_stringIcSt11char_traitsIcESaIcEEEP16hiRUNTIME_BLOB_S_x420
    _ZL12addBlobTablePN4hirt14ModelGroupTaskENSt7__cxx1112basic_stringIcSt11char_traitsIcESaIcEEEP16hiRUNTIME_BLOB_S_x3f0:
    /*000003f0*/ MOV         R0, #12 
    /*000003f4*/ BL          _Znwj
    /*000003f8*/ LDR         R3, [R4, #8] 
    /*000003fc*/ MOV         R1, R5 
    /*00000400*/ STR         R3, [R0, #8] 
    /*00000404*/ BL          _ZNSt8__detail15_List_node_base7_M_hookEPS0_
    /*00000408*/ LDR         R4, [R4] 
    /*0000040c*/ LDR         R3, [SP, #104]              @ 0x68 
    /*00000410*/ CMP         R4, R6 
    /*00000414*/ ADD         R3, R3, #1 
    /*00000418*/ STR         R3, [SP, #104]              @ 0x68 
    /*0000041c*/ BNE         _ZL12addBlobTablePN4hirt14ModelGroupTaskENSt7__cxx1112basic_stringIcSt11char_traitsIcESaIcEEEP16hiRUNTIME_BLOB_S_x3f0
    _ZL12addBlobTablePN4hirt14ModelGroupTaskENSt7__cxx1112basic_stringIcSt11char_traitsIcESaIcEEEP16hiRUNTIME_BLOB_S_x420:
    /*00000420*/ MOV         R2, R9 
    /*00000424*/ ADD         R1, R8, #96                 @ 0x60 
    /*00000428*/ ADD         R0, SP, #24 
    /*0000042c*/ BL          _ZNSt8_Rb_treeINSt7__cxx1112basic_stringIcSt11char_traitsIcESaIcEEESt4pairIKS5_NS0_4listIP16hiRUNTIME_BLOB_SSaISA_EEEESt10_Select1stISD_ESt4lessIS5_ESaISD_EE16_M_insert_uniqueISD_EES6_ISt17_Rb_tree_iteratorISD_EbEOT_
    /*00000430*/ LDR         R0, [SP, #96]               @ 0x60 
    /*00000434*/ CMP         R0, R5 
    /*00000438*/ BEQ         _ZL12addBlobTablePN4hirt14ModelGroupTaskENSt7__cxx1112basic_stringIcSt11char_traitsIcESaIcEEEP16hiRUNTIME_BLOB_S_x450
    _ZL12addBlobTablePN4hirt14ModelGroupTaskENSt7__cxx1112basic_stringIcSt11char_traitsIcESaIcEEEP16hiRUNTIME_BLOB_S_x43c:
    /*0000043c*/ LDR         R4, [R0] 
    /*00000440*/ BL          _ZdlPv
    /*00000444*/ CMP         R4, R5 
    /*00000448*/ MOV         R0, R4 
    /*0000044c*/ BNE         _ZL12addBlobTablePN4hirt14ModelGroupTaskENSt7__cxx1112basic_stringIcSt11char_traitsIcESaIcEEEP16hiRUNTIME_BLOB_S_x43c
    _ZL12addBlobTablePN4hirt14ModelGroupTaskENSt7__cxx1112basic_stringIcSt11char_traitsIcESaIcEEEP16hiRUNTIME_BLOB_S_x450:
    /*00000450*/ LDR         R0, [SP, #72]               @ 0x48 
    /*00000454*/ CMP         R0, R7 
    /*00000458*/ BEQ         _ZL12addBlobTablePN4hirt14ModelGroupTaskENSt7__cxx1112basic_stringIcSt11char_traitsIcESaIcEEEP16hiRUNTIME_BLOB_S_x1dc
    /*0000045c*/ BL          _ZdlPv
    /*00000460*/ B           _ZL12addBlobTablePN4hirt14ModelGroupTaskENSt7__cxx1112basic_stringIcSt11char_traitsIcESaIcEEEP16hiRUNTIME_BLOB_S_x1dc
    _ZL12addBlobTablePN4hirt14ModelGroupTaskENSt7__cxx1112basic_stringIcSt11char_traitsIcESaIcEEEP16hiRUNTIME_BLOB_S_x464:
    /*00000464*/ LDR         R0, [SP, #32] 
    /*00000468*/ CMP         R0, R6 
    /*0000046c*/ BEQ         _ZL12addBlobTablePN4hirt14ModelGroupTaskENSt7__cxx1112basic_stringIcSt11char_traitsIcESaIcEEEP16hiRUNTIME_BLOB_S_x484
    _ZL12addBlobTablePN4hirt14ModelGroupTaskENSt7__cxx1112basic_stringIcSt11char_traitsIcESaIcEEEP16hiRUNTIME_BLOB_S_x470:
    /*00000470*/ LDR         R4, [R0] 
    /*00000474*/ BL          _ZdlPv
    /*00000478*/ CMP         R4, R6 
    /*0000047c*/ MOV         R0, R4 
    /*00000480*/ BNE         _ZL12addBlobTablePN4hirt14ModelGroupTaskENSt7__cxx1112basic_stringIcSt11char_traitsIcESaIcEEEP16hiRUNTIME_BLOB_S_x470
    _ZL12addBlobTablePN4hirt14ModelGroupTaskENSt7__cxx1112basic_stringIcSt11char_traitsIcESaIcEEEP16hiRUNTIME_BLOB_S_x484:
    /*00000484*/ BL          __cxa_end_cleanup
    _ZL12addBlobTablePN4hirt14ModelGroupTaskENSt7__cxx1112basic_stringIcSt11char_traitsIcESaIcEEEP16hiRUNTIME_BLOB_S_x488:
    /*00000488*/ MOV         R0, R5 
    /*0000048c*/ B           _ZL12addBlobTablePN4hirt14ModelGroupTaskENSt7__cxx1112basic_stringIcSt11char_traitsIcESaIcEEEP16hiRUNTIME_BLOB_S_x37c
    _ZL12addBlobTablePN4hirt14ModelGroupTaskENSt7__cxx1112basic_stringIcSt11char_traitsIcESaIcEEEP16hiRUNTIME_BLOB_S_x490:
    /*00000490*/ MOV         FP, #1 
    /*00000494*/ B           _ZL12addBlobTablePN4hirt14ModelGroupTaskENSt7__cxx1112basic_stringIcSt11char_traitsIcESaIcEEEP16hiRUNTIME_BLOB_S_x264
    _ZL12addBlobTablePN4hirt14ModelGroupTaskENSt7__cxx1112basic_stringIcSt11char_traitsIcESaIcEEEP16hiRUNTIME_BLOB_S_x498:
    /*00000498*/ ADD         R1, SP, #20 
    /*0000049c*/ MOV         R0, R9 
    /*000004a0*/ BL          _ZNSt7__cxx1112basic_stringIcSt11char_traitsIcESaIcEE9_M_createERjj
    /*000004a4*/ LDR         R3, [SP, #20] 
    /*000004a8*/ STR         R0, [SP, #72]               @ 0x48 
    /*000004ac*/ STR         R3, [SP, #80]               @ 0x50 
    _ZL12addBlobTablePN4hirt14ModelGroupTaskENSt7__cxx1112basic_stringIcSt11char_traitsIcESaIcEEEP16hiRUNTIME_BLOB_S_x4b0:
    /*000004b0*/ MOV         R2, R4 
    /*000004b4*/ MOV         R1, R5 
    /*000004b8*/ BL          memcpy
    /*000004bc*/ LDR         R4, [SP, #20] 
    /*000004c0*/ LDR         R2, [SP, #72]               @ 0x48 
    /*000004c4*/ B           _ZL12addBlobTablePN4hirt14ModelGroupTaskENSt7__cxx1112basic_stringIcSt11char_traitsIcESaIcEEEP16hiRUNTIME_BLOB_S_x3c4
    _ZL12addBlobTablePN4hirt14ModelGroupTaskENSt7__cxx1112basic_stringIcSt11char_traitsIcESaIcEEEP16hiRUNTIME_BLOB_S_x4c8:
    /*000004c8*/ LDRB        R3, [R5] 
    /*000004cc*/ MOV         R2, R7 
    /*000004d0*/ STRB        R3, [SP, #80]               @ 0x50 
    /*000004d4*/ B           _ZL12addBlobTablePN4hirt14ModelGroupTaskENSt7__cxx1112basic_stringIcSt11char_traitsIcESaIcEEEP16hiRUNTIME_BLOB_S_x3c4
    _ZL12addBlobTablePN4hirt14ModelGroupTaskENSt7__cxx1112basic_stringIcSt11char_traitsIcESaIcEEEP16hiRUNTIME_BLOB_S_x4d8:
    /*000004d8*/ MOV         R0, R7 
    /*000004dc*/ B           _ZL12addBlobTablePN4hirt14ModelGroupTaskENSt7__cxx1112basic_stringIcSt11char_traitsIcESaIcEEEP16hiRUNTIME_BLOB_S_x4b0
    _ZL12addBlobTablePN4hirt14ModelGroupTaskENSt7__cxx1112basic_stringIcSt11char_traitsIcESaIcEEEP16hiRUNTIME_BLOB_S_x4e0:
    /*000004e0*/ BL          __stack_chk_fail
    /*000004e4*/ LDR         R0, [SP, #48]               @ 0x30 
    /*000004e8*/ CMP         R0, R5 
    /*000004ec*/ BEQ         _ZL12addBlobTablePN4hirt14ModelGroupTaskENSt7__cxx1112basic_stringIcSt11char_traitsIcESaIcEEEP16hiRUNTIME_BLOB_S_x464
    _ZL12addBlobTablePN4hirt14ModelGroupTaskENSt7__cxx1112basic_stringIcSt11char_traitsIcESaIcEEEP16hiRUNTIME_BLOB_S_x4f0:
    /*000004f0*/ BL          _ZdlPv
    /*000004f4*/ B           _ZL12addBlobTablePN4hirt14ModelGroupTaskENSt7__cxx1112basic_stringIcSt11char_traitsIcESaIcEEEP16hiRUNTIME_BLOB_S_x464
    /*000004f8*/ LDR         R0, [SP, #96]               @ 0x60 
    /*000004fc*/ CMP         R0, R5 
    /*00000500*/ BEQ         _ZL12addBlobTablePN4hirt14ModelGroupTaskENSt7__cxx1112basic_stringIcSt11char_traitsIcESaIcEEEP16hiRUNTIME_BLOB_S_x518
    _ZL12addBlobTablePN4hirt14ModelGroupTaskENSt7__cxx1112basic_stringIcSt11char_traitsIcESaIcEEEP16hiRUNTIME_BLOB_S_x504:
    /*00000504*/ LDR         R4, [R0] 
    /*00000508*/ BL          _ZdlPv
    /*0000050c*/ CMP         R4, R5 
    /*00000510*/ MOV         R0, R4 
    /*00000514*/ BNE         _ZL12addBlobTablePN4hirt14ModelGroupTaskENSt7__cxx1112basic_stringIcSt11char_traitsIcESaIcEEEP16hiRUNTIME_BLOB_S_x504
    _ZL12addBlobTablePN4hirt14ModelGroupTaskENSt7__cxx1112basic_stringIcSt11char_traitsIcESaIcEEEP16hiRUNTIME_BLOB_S_x518:
    /*00000518*/ LDR         R0, [SP, #72]               @ 0x48 
    /*0000051c*/ CMP         R0, R7 
    /*00000520*/ BNE         _ZL12addBlobTablePN4hirt14ModelGroupTaskENSt7__cxx1112basic_stringIcSt11char_traitsIcESaIcEEEP16hiRUNTIME_BLOB_S_x4f0
    /*00000524*/ B           _ZL12addBlobTablePN4hirt14ModelGroupTaskENSt7__cxx1112basic_stringIcSt11char_traitsIcESaIcEEEP16hiRUNTIME_BLOB_S_x464
    /*00000528*/ LDR         R0, [SP, #96]               @ 0x60 
    /*0000052c*/ CMP         R0, R5 
    /*00000530*/ BEQ         _ZL12addBlobTablePN4hirt14ModelGroupTaskENSt7__cxx1112basic_stringIcSt11char_traitsIcESaIcEEEP16hiRUNTIME_BLOB_S_x518
    _ZL12addBlobTablePN4hirt14ModelGroupTaskENSt7__cxx1112basic_stringIcSt11char_traitsIcESaIcEEEP16hiRUNTIME_BLOB_S_x534:
    /*00000534*/ LDR         R4, [R0] 
    /*00000538*/ BL          _ZdlPv
    /*0000053c*/ CMP         R4, R5 
    /*00000540*/ MOV         R0, R4 
    /*00000544*/ BNE         _ZL12addBlobTablePN4hirt14ModelGroupTaskENSt7__cxx1112basic_stringIcSt11char_traitsIcESaIcEEEP16hiRUNTIME_BLOB_S_x534
    /*00000548*/ B           _ZL12addBlobTablePN4hirt14ModelGroupTaskENSt7__cxx1112basic_stringIcSt11char_traitsIcESaIcEEEP16hiRUNTIME_BLOB_S_x518
    /*0000054c*/ WORD_054c: .word 0x00000514
    /*00000550*/ WORD_0550: .word 0x00000000
    /*00000554*/ WORD_0554: .word 0x000004c4
    /*00000558*/ WORD_0558: .word 0x000001f4
FUNC_END _ZL12addBlobTablePN4hirt14ModelGroupTaskENSt7__cxx1112basic_stringIcSt11char_traitsIcESaIcEEEP16hiRUNTIME_BLOB_S


@ - - - - - - - - - - - - - - - - - - - - - - - - - - - - - 
@ .ARM.extab.text._ZL12addBlobTablePN4hirt14ModelGroupTaskENSt7__cxx1112basic_stringIcSt11char_traitsIcESaIcEEEP16hiRUNTIME_BLOB_S
@ Size: 0x36
@ - - - - - - - - - - - - - - - - - - - - - - - - - - - - - 

@ - - - - - - - - - - - - - - - - - - - - - - - - - - - - - 
@ .text._ZNSt8_Rb_treeINSt7__cxx1112basic_stringIcSt11char_traitsIcESaIcEEESt4pairIKS5_NS0_4listIP16hiRUNTIME_BLOB_SSaISA_EEEESt10_Select1stISD_ESt4lessIS5_ESaISD_EE22_M_emplace_hint_uniqueIJRKSt21piecewise_construct_tSt5tupleIJRS7_EESO_IJEEEEESt17_Rb_tree_iteratorISD_ESt23_Rb_tree_const_iteratorISD_EDpOT_.isra.266
@ Size: 0x3c4
@ - - - - - - - - - - - - - - - - - - - - - - - - - - - - - 

FUNC_BEGIN _ZNSt8_Rb_treeINSt7__cxx1112basic_stringIcSt11char_traitsIcESaIcEEESt4pairIKS5_NS0_4listIP16hiRUNTIME_BLOB_SSaISA_EEEESt10_Select1stISD_ESt4lessIS5_ESaISD_EE22_M_emplace_hint_uniqueIJRKSt21piecewise_construct_tSt5tupleIJRS7_EESO_IJEEEEESt17_Rb_tree_iteratorISD_ESt23_Rb_tree_const_iteratorISD_EDpOT_.isra.266
    /*00000000*/ MOV         IP, #16384                  @ 0x4000 
    /*00000004*/ PUSH        {R4, R5, R6, R7, R8, R9, SL, FP, LR} 
    /*00000008*/ SUB         IP, SP, IP 
    /*0000000c*/ STR         R0, [IP, #4040]             @ 0xfc8 
    /*00000010*/ MOV         R6, R2 
    /*00000014*/ SUB         SP, SP, #20 
    /*00000018*/ MOV         R7, R0 
    /*0000001c*/ MOV         R0, #52                     @ 0x34 
    /*00000020*/ MOV         R5, R1 
    /*00000024*/ BL          _Znwj
    /*00000028*/ LDR         R3, [R6] 
    /*0000002c*/ ADD         SL, R0, #24 
    /*00000030*/ STR         SL, [R0, #16] 
    /*00000034*/ ADD         R2, R0, #16 
    /*00000038*/ LDR         R8, [R3] 
    /*0000003c*/ MOV         R4, R0 
    /*00000040*/ LDR         R6, [R3, #4] 
    /*00000044*/ STR         R2, [SP] 
    /*00000048*/ RSB         R3, R6, #0 
    /*0000004c*/ CLZ         R2, R8 
    /*00000050*/ CMP         R8, R3 
    /*00000054*/ LSR         R2, R2, #5 
    /*00000058*/ MOVEQ       R2, #0 
    /*0000005c*/ CMP         R2, #0 
    /*00000060*/ BEQ         _ZNSt8_Rb_treeINSt7__cxx1112basic_stringIcSt11char_traitsIcESaIcEEESt4pairIKS5_NS0_4listIP16hiRUNTIME_BLOB_SSaISA_EEEESt10_Select1stISD_ESt4lessIS5_ESaISD_EE22_M_emplace_hint_uniqueIJRKSt21piecewise_construct_tSt5tupleIJRS7_EESO_IJEEEEESt17_Rb_tree_iteratorISD_ESt23_Rb_tree_const_iteratorISD_EDpOT_.isra.266_x70
    /*00000064*/ LDR         R0, WORD_03c0               @ LDR         R0, [PC, #852]              @ 0x00000000000003c0 
    /*00000068*/ ADD         R0, PC, R0 
    /*0000006c*/ BL          _ZSt19__throw_logic_errorPKc
    _ZNSt8_Rb_treeINSt7__cxx1112basic_stringIcSt11char_traitsIcESaIcEEESt4pairIKS5_NS0_4listIP16hiRUNTIME_BLOB_SSaISA_EEEESt10_Select1stISD_ESt4lessIS5_ESaISD_EE22_M_emplace_hint_uniqueIJRKSt21piecewise_construct_tSt5tupleIJRS7_EESO_IJEEEEESt17_Rb_tree_iteratorISD_ESt23_Rb_tree_const_iteratorISD_EDpOT_.isra.266_x70:
    /*00000070*/ STR         R6, [SP, #8] 
    /*00000074*/ CMP         R6, #15 
    /*00000078*/ BHI         _ZNSt8_Rb_treeINSt7__cxx1112basic_stringIcSt11char_traitsIcESaIcEEESt4pairIKS5_NS0_4listIP16hiRUNTIME_BLOB_SSaISA_EEEESt10_Select1stISD_ESt4lessIS5_ESaISD_EE22_M_emplace_hint_uniqueIJRKSt21piecewise_construct_tSt5tupleIJRS7_EESO_IJEEEEESt17_Rb_tree_iteratorISD_ESt23_Rb_tree_const_iteratorISD_EDpOT_.isra.266_x2a0
    /*0000007c*/ CMP         R6, #1 
    /*00000080*/ BEQ         _ZNSt8_Rb_treeINSt7__cxx1112basic_stringIcSt11char_traitsIcESaIcEEESt4pairIKS5_NS0_4listIP16hiRUNTIME_BLOB_SSaISA_EEEESt10_Select1stISD_ESt4lessIS5_ESaISD_EE22_M_emplace_hint_uniqueIJRKSt21piecewise_construct_tSt5tupleIJRS7_EESO_IJEEEEESt17_Rb_tree_iteratorISD_ESt23_Rb_tree_const_iteratorISD_EDpOT_.isra.266_x2d0
    /*00000084*/ CMP         R6, #0 
    /*00000088*/ MOVEQ       R3, SL 
    /*0000008c*/ BNE         _ZNSt8_Rb_treeINSt7__cxx1112basic_stringIcSt11char_traitsIcESaIcEEESt4pairIKS5_NS0_4listIP16hiRUNTIME_BLOB_SSaISA_EEEESt10_Select1stISD_ESt4lessIS5_ESaISD_EE22_M_emplace_hint_uniqueIJRKSt21piecewise_construct_tSt5tupleIJRS7_EESO_IJEEEEESt17_Rb_tree_iteratorISD_ESt23_Rb_tree_const_iteratorISD_EDpOT_.isra.266_x3b0
    _ZNSt8_Rb_treeINSt7__cxx1112basic_stringIcSt11char_traitsIcESaIcEEESt4pairIKS5_NS0_4listIP16hiRUNTIME_BLOB_SSaISA_EEEESt10_Select1stISD_ESt4lessIS5_ESaISD_EE22_M_emplace_hint_uniqueIJRKSt21piecewise_construct_tSt5tupleIJRS7_EESO_IJEEEEESt17_Rb_tree_iteratorISD_ESt23_Rb_tree_const_iteratorISD_EDpOT_.isra.266_x90:
    /*00000090*/ STR         R6, [R4, #20] 
    /*00000094*/ ADD         R9, R7, #4 
    /*00000098*/ CMP         R9, R5 
    /*0000009c*/ MOV         R2, #0 
    /*000000a0*/ STRB        R2, [R3, R6] 
    /*000000a4*/ ADD         R3, R4, #40                 @ 0x28 
    /*000000a8*/ STR         R2, [R4, #48]               @ 0x30 
    /*000000ac*/ STR         R3, [R4, #40]               @ 0x28 
    /*000000b0*/ STR         R3, [R4, #44]               @ 0x2c 
    /*000000b4*/ BEQ         _ZNSt8_Rb_treeINSt7__cxx1112basic_stringIcSt11char_traitsIcESaIcEEESt4pairIKS5_NS0_4listIP16hiRUNTIME_BLOB_SSaISA_EEEESt10_Select1stISD_ESt4lessIS5_ESaISD_EE22_M_emplace_hint_uniqueIJRKSt21piecewise_construct_tSt5tupleIJRS7_EESO_IJEEEEESt17_Rb_tree_iteratorISD_ESt23_Rb_tree_const_iteratorISD_EDpOT_.isra.266_x330
    /*000000b8*/ LDR         R6, [R4, #20] 
    /*000000bc*/ LDR         R8, [R5, #20] 
    /*000000c0*/ LDR         R3, [R4, #16] 
    /*000000c4*/ CMP         R6, R8 
    /*000000c8*/ STR         R3, [SP] 
    /*000000cc*/ MOVCC       FP, R6 
    /*000000d0*/ MOVCS       FP, R8 
    /*000000d4*/ MOV         R0, R3 
    /*000000d8*/ LDR         R3, [R5, #16] 
    /*000000dc*/ CMP         FP, #0 
    /*000000e0*/ BEQ         _ZNSt8_Rb_treeINSt7__cxx1112basic_stringIcSt11char_traitsIcESaIcEEESt4pairIKS5_NS0_4listIP16hiRUNTIME_BLOB_SSaISA_EEEESt10_Select1stISD_ESt4lessIS5_ESaISD_EE22_M_emplace_hint_uniqueIJRKSt21piecewise_construct_tSt5tupleIJRS7_EESO_IJEEEEESt17_Rb_tree_iteratorISD_ESt23_Rb_tree_const_iteratorISD_EDpOT_.isra.266_x150
    /*000000e4*/ STR         R3, [SP, #4] 
    /*000000e8*/ MOV         R1, R3 
    /*000000ec*/ MOV         R2, FP 
    /*000000f0*/ BL          memcmp
    /*000000f4*/ LDR         R3, [SP, #4] 
    /*000000f8*/ CMP         R0, #0 
    /*000000fc*/ BEQ         _ZNSt8_Rb_treeINSt7__cxx1112basic_stringIcSt11char_traitsIcESaIcEEESt4pairIKS5_NS0_4listIP16hiRUNTIME_BLOB_SSaISA_EEEESt10_Select1stISD_ESt4lessIS5_ESaISD_EE22_M_emplace_hint_uniqueIJRKSt21piecewise_construct_tSt5tupleIJRS7_EESO_IJEEEEESt17_Rb_tree_iteratorISD_ESt23_Rb_tree_const_iteratorISD_EDpOT_.isra.266_x2f8
    _ZNSt8_Rb_treeINSt7__cxx1112basic_stringIcSt11char_traitsIcESaIcEEESt4pairIKS5_NS0_4listIP16hiRUNTIME_BLOB_SSaISA_EEEESt10_Select1stISD_ESt4lessIS5_ESaISD_EE22_M_emplace_hint_uniqueIJRKSt21piecewise_construct_tSt5tupleIJRS7_EESO_IJEEEEESt17_Rb_tree_iteratorISD_ESt23_Rb_tree_const_iteratorISD_EDpOT_.isra.266_x100:
    /*00000100*/ BLT         _ZNSt8_Rb_treeINSt7__cxx1112basic_stringIcSt11char_traitsIcESaIcEEESt4pairIKS5_NS0_4listIP16hiRUNTIME_BLOB_SSaISA_EEEESt10_Select1stISD_ESt4lessIS5_ESaISD_EE22_M_emplace_hint_uniqueIJRKSt21piecewise_construct_tSt5tupleIJRS7_EESO_IJEEEEESt17_Rb_tree_iteratorISD_ESt23_Rb_tree_const_iteratorISD_EDpOT_.isra.266_x1d4
    /*00000104*/ LDR         R1, [SP] 
    /*00000108*/ MOV         R2, FP 
    /*0000010c*/ MOV         R0, R3 
    /*00000110*/ BL          memcmp
    /*00000114*/ CMP         R0, #0 
    /*00000118*/ BEQ         _ZNSt8_Rb_treeINSt7__cxx1112basic_stringIcSt11char_traitsIcESaIcEEESt4pairIKS5_NS0_4listIP16hiRUNTIME_BLOB_SSaISA_EEEESt10_Select1stISD_ESt4lessIS5_ESaISD_EE22_M_emplace_hint_uniqueIJRKSt21piecewise_construct_tSt5tupleIJRS7_EESO_IJEEEEESt17_Rb_tree_iteratorISD_ESt23_Rb_tree_const_iteratorISD_EDpOT_.isra.266_x15c
    /*0000011c*/ CMP         R0, #0 
    /*00000120*/ MOVGE       FP, R5 
    /*00000124*/ LDRGE       R3, [SP] 
    /*00000128*/ BLT         _ZNSt8_Rb_treeINSt7__cxx1112basic_stringIcSt11char_traitsIcESaIcEEESt4pairIKS5_NS0_4listIP16hiRUNTIME_BLOB_SSaISA_EEEESt10_Select1stISD_ESt4lessIS5_ESaISD_EE22_M_emplace_hint_uniqueIJRKSt21piecewise_construct_tSt5tupleIJRS7_EESO_IJEEEEESt17_Rb_tree_iteratorISD_ESt23_Rb_tree_const_iteratorISD_EDpOT_.isra.266_x170
    _ZNSt8_Rb_treeINSt7__cxx1112basic_stringIcSt11char_traitsIcESaIcEEESt4pairIKS5_NS0_4listIP16hiRUNTIME_BLOB_SSaISA_EEEESt10_Select1stISD_ESt4lessIS5_ESaISD_EE22_M_emplace_hint_uniqueIJRKSt21piecewise_construct_tSt5tupleIJRS7_EESO_IJEEEEESt17_Rb_tree_iteratorISD_ESt23_Rb_tree_const_iteratorISD_EDpOT_.isra.266_x12c:
    /*0000012c*/ CMP         SL, R3 
    /*00000130*/ BEQ         _ZNSt8_Rb_treeINSt7__cxx1112basic_stringIcSt11char_traitsIcESaIcEEESt4pairIKS5_NS0_4listIP16hiRUNTIME_BLOB_SSaISA_EEEESt10_Select1stISD_ESt4lessIS5_ESaISD_EE22_M_emplace_hint_uniqueIJRKSt21piecewise_construct_tSt5tupleIJRS7_EESO_IJEEEEESt17_Rb_tree_iteratorISD_ESt23_Rb_tree_const_iteratorISD_EDpOT_.isra.266_x13c
    /*00000134*/ MOV         R0, R3 
    /*00000138*/ BL          _ZdlPv
    _ZNSt8_Rb_treeINSt7__cxx1112basic_stringIcSt11char_traitsIcESaIcEEESt4pairIKS5_NS0_4listIP16hiRUNTIME_BLOB_SSaISA_EEEESt10_Select1stISD_ESt4lessIS5_ESaISD_EE22_M_emplace_hint_uniqueIJRKSt21piecewise_construct_tSt5tupleIJRS7_EESO_IJEEEEESt17_Rb_tree_iteratorISD_ESt23_Rb_tree_const_iteratorISD_EDpOT_.isra.266_x13c:
    /*0000013c*/ MOV         R0, R4 
    /*00000140*/ BL          _ZdlPv
    /*00000144*/ MOV         R0, FP 
    /*00000148*/ ADD         SP, SP, #20 
    /*0000014c*/ POP         {R4, R5, R6, R7, R8, R9, SL, FP, PC} 
    _ZNSt8_Rb_treeINSt7__cxx1112basic_stringIcSt11char_traitsIcESaIcEEESt4pairIKS5_NS0_4listIP16hiRUNTIME_BLOB_SSaISA_EEEESt10_Select1stISD_ESt4lessIS5_ESaISD_EE22_M_emplace_hint_uniqueIJRKSt21piecewise_construct_tSt5tupleIJRS7_EESO_IJEEEEESt17_Rb_tree_iteratorISD_ESt23_Rb_tree_const_iteratorISD_EDpOT_.isra.266_x150:
    /*00000150*/ SUB         R3, R6, R8 
    /*00000154*/ CMP         R3, #0 
    /*00000158*/ BLT         _ZNSt8_Rb_treeINSt7__cxx1112basic_stringIcSt11char_traitsIcESaIcEEESt4pairIKS5_NS0_4listIP16hiRUNTIME_BLOB_SSaISA_EEEESt10_Select1stISD_ESt4lessIS5_ESaISD_EE22_M_emplace_hint_uniqueIJRKSt21piecewise_construct_tSt5tupleIJRS7_EESO_IJEEEEESt17_Rb_tree_iteratorISD_ESt23_Rb_tree_const_iteratorISD_EDpOT_.isra.266_x1d4
    _ZNSt8_Rb_treeINSt7__cxx1112basic_stringIcSt11char_traitsIcESaIcEEESt4pairIKS5_NS0_4listIP16hiRUNTIME_BLOB_SSaISA_EEEESt10_Select1stISD_ESt4lessIS5_ESaISD_EE22_M_emplace_hint_uniqueIJRKSt21piecewise_construct_tSt5tupleIJRS7_EESO_IJEEEEESt17_Rb_tree_iteratorISD_ESt23_Rb_tree_const_iteratorISD_EDpOT_.isra.266_x15c:
    /*0000015c*/ SUB         R0, R8, R6 
    /*00000160*/ CMP         R0, #0 
    /*00000164*/ MOVGE       FP, R5 
    /*00000168*/ LDRGE       R3, [SP] 
    /*0000016c*/ BGE         _ZNSt8_Rb_treeINSt7__cxx1112basic_stringIcSt11char_traitsIcESaIcEEESt4pairIKS5_NS0_4listIP16hiRUNTIME_BLOB_SSaISA_EEEESt10_Select1stISD_ESt4lessIS5_ESaISD_EE22_M_emplace_hint_uniqueIJRKSt21piecewise_construct_tSt5tupleIJRS7_EESO_IJEEEEESt17_Rb_tree_iteratorISD_ESt23_Rb_tree_const_iteratorISD_EDpOT_.isra.266_x12c
    _ZNSt8_Rb_treeINSt7__cxx1112basic_stringIcSt11char_traitsIcESaIcEEESt4pairIKS5_NS0_4listIP16hiRUNTIME_BLOB_SSaISA_EEEESt10_Select1stISD_ESt4lessIS5_ESaISD_EE22_M_emplace_hint_uniqueIJRKSt21piecewise_construct_tSt5tupleIJRS7_EESO_IJEEEEESt17_Rb_tree_iteratorISD_ESt23_Rb_tree_const_iteratorISD_EDpOT_.isra.266_x170:
    /*00000170*/ LDR         R8, [R7, #16] 
    /*00000174*/ CMP         R8, R5 
    /*00000178*/ BEQ         _ZNSt8_Rb_treeINSt7__cxx1112basic_stringIcSt11char_traitsIcESaIcEEESt4pairIKS5_NS0_4listIP16hiRUNTIME_BLOB_SSaISA_EEEESt10_Select1stISD_ESt4lessIS5_ESaISD_EE22_M_emplace_hint_uniqueIJRKSt21piecewise_construct_tSt5tupleIJRS7_EESO_IJEEEEESt17_Rb_tree_iteratorISD_ESt23_Rb_tree_const_iteratorISD_EDpOT_.isra.266_x248
    /*0000017c*/ MOV         R0, R5 
    /*00000180*/ BL          _ZSt18_Rb_tree_incrementPSt18_Rb_tree_node_base
    /*00000184*/ LDR         R8, [R0, #20] 
    /*00000188*/ MOV         FP, R0 
    /*0000018c*/ CMP         R6, R8 
    /*00000190*/ MOVCC       R2, R6 
    /*00000194*/ MOVCS       R2, R8 
    /*00000198*/ CMP         R2, #0 
    /*0000019c*/ BEQ         _ZNSt8_Rb_treeINSt7__cxx1112basic_stringIcSt11char_traitsIcESaIcEEESt4pairIKS5_NS0_4listIP16hiRUNTIME_BLOB_SSaISA_EEEESt10_Select1stISD_ESt4lessIS5_ESaISD_EE22_M_emplace_hint_uniqueIJRKSt21piecewise_construct_tSt5tupleIJRS7_EESO_IJEEEEESt17_Rb_tree_iteratorISD_ESt23_Rb_tree_const_iteratorISD_EDpOT_.isra.266_x378
    /*000001a0*/ LDR         R1, [R0, #16] 
    /*000001a4*/ LDR         R0, [SP] 
    /*000001a8*/ BL          memcmp
    /*000001ac*/ CMP         R0, #0 
    /*000001b0*/ BEQ         _ZNSt8_Rb_treeINSt7__cxx1112basic_stringIcSt11char_traitsIcESaIcEEESt4pairIKS5_NS0_4listIP16hiRUNTIME_BLOB_SSaISA_EEEESt10_Select1stISD_ESt4lessIS5_ESaISD_EE22_M_emplace_hint_uniqueIJRKSt21piecewise_construct_tSt5tupleIJRS7_EESO_IJEEEEESt17_Rb_tree_iteratorISD_ESt23_Rb_tree_const_iteratorISD_EDpOT_.isra.266_x378
    _ZNSt8_Rb_treeINSt7__cxx1112basic_stringIcSt11char_traitsIcESaIcEEESt4pairIKS5_NS0_4listIP16hiRUNTIME_BLOB_SSaISA_EEEESt10_Select1stISD_ESt4lessIS5_ESaISD_EE22_M_emplace_hint_uniqueIJRKSt21piecewise_construct_tSt5tupleIJRS7_EESO_IJEEEEESt17_Rb_tree_iteratorISD_ESt23_Rb_tree_const_iteratorISD_EDpOT_.isra.266_x1b4:
    /*000001b4*/ CMP         R0, #0 
    /*000001b8*/ BGE         _ZNSt8_Rb_treeINSt7__cxx1112basic_stringIcSt11char_traitsIcESaIcEEESt4pairIKS5_NS0_4listIP16hiRUNTIME_BLOB_SSaISA_EEEESt10_Select1stISD_ESt4lessIS5_ESaISD_EE22_M_emplace_hint_uniqueIJRKSt21piecewise_construct_tSt5tupleIJRS7_EESO_IJEEEEESt17_Rb_tree_iteratorISD_ESt23_Rb_tree_const_iteratorISD_EDpOT_.isra.266_x304
    /*000001bc*/ LDR         R3, [R5, #12] 
    /*000001c0*/ CMP         R3, #0 
    /*000001c4*/ MOVNE       R8, FP 
    /*000001c8*/ BNE         _ZNSt8_Rb_treeINSt7__cxx1112basic_stringIcSt11char_traitsIcESaIcEEESt4pairIKS5_NS0_4listIP16hiRUNTIME_BLOB_SSaISA_EEEESt10_Select1stISD_ESt4lessIS5_ESaISD_EE22_M_emplace_hint_uniqueIJRKSt21piecewise_construct_tSt5tupleIJRS7_EESO_IJEEEEESt17_Rb_tree_iteratorISD_ESt23_Rb_tree_const_iteratorISD_EDpOT_.isra.266_x220
    /*000001cc*/ MOV         R8, R5 
    /*000001d0*/ B           _ZNSt8_Rb_treeINSt7__cxx1112basic_stringIcSt11char_traitsIcESaIcEEESt4pairIKS5_NS0_4listIP16hiRUNTIME_BLOB_SSaISA_EEEESt10_Select1stISD_ESt4lessIS5_ESaISD_EE22_M_emplace_hint_uniqueIJRKSt21piecewise_construct_tSt5tupleIJRS7_EESO_IJEEEEESt17_Rb_tree_iteratorISD_ESt23_Rb_tree_const_iteratorISD_EDpOT_.isra.266_x248
    _ZNSt8_Rb_treeINSt7__cxx1112basic_stringIcSt11char_traitsIcESaIcEEESt4pairIKS5_NS0_4listIP16hiRUNTIME_BLOB_SSaISA_EEEESt10_Select1stISD_ESt4lessIS5_ESaISD_EE22_M_emplace_hint_uniqueIJRKSt21piecewise_construct_tSt5tupleIJRS7_EESO_IJEEEEESt17_Rb_tree_iteratorISD_ESt23_Rb_tree_const_iteratorISD_EDpOT_.isra.266_x1d4:
    /*000001d4*/ LDR         FP, [R7, #12] 
    /*000001d8*/ CMP         FP, R5 
    /*000001dc*/ BEQ         _ZNSt8_Rb_treeINSt7__cxx1112basic_stringIcSt11char_traitsIcESaIcEEESt4pairIKS5_NS0_4listIP16hiRUNTIME_BLOB_SSaISA_EEEESt10_Select1stISD_ESt4lessIS5_ESaISD_EE22_M_emplace_hint_uniqueIJRKSt21piecewise_construct_tSt5tupleIJRS7_EESO_IJEEEEESt17_Rb_tree_iteratorISD_ESt23_Rb_tree_const_iteratorISD_EDpOT_.isra.266_x3a8
    /*000001e0*/ MOV         R0, R5 
    /*000001e4*/ BL          _ZSt18_Rb_tree_decrementPSt18_Rb_tree_node_base
    /*000001e8*/ LDR         FP, [R0, #20] 
    /*000001ec*/ MOV         R8, R0 
    /*000001f0*/ CMP         R6, FP 
    /*000001f4*/ MOVCC       R2, R6 
    /*000001f8*/ MOVCS       R2, FP 
    /*000001fc*/ CMP         R2, #0 
    /*00000200*/ BNE         _ZNSt8_Rb_treeINSt7__cxx1112basic_stringIcSt11char_traitsIcESaIcEEESt4pairIKS5_NS0_4listIP16hiRUNTIME_BLOB_SSaISA_EEEESt10_Select1stISD_ESt4lessIS5_ESaISD_EE22_M_emplace_hint_uniqueIJRKSt21piecewise_construct_tSt5tupleIJRS7_EESO_IJEEEEESt17_Rb_tree_iteratorISD_ESt23_Rb_tree_const_iteratorISD_EDpOT_.isra.266_x2e0
    _ZNSt8_Rb_treeINSt7__cxx1112basic_stringIcSt11char_traitsIcESaIcEEESt4pairIKS5_NS0_4listIP16hiRUNTIME_BLOB_SSaISA_EEEESt10_Select1stISD_ESt4lessIS5_ESaISD_EE22_M_emplace_hint_uniqueIJRKSt21piecewise_construct_tSt5tupleIJRS7_EESO_IJEEEEESt17_Rb_tree_iteratorISD_ESt23_Rb_tree_const_iteratorISD_EDpOT_.isra.266_x204:
    /*00000204*/ SUB         R0, FP, R6 
    _ZNSt8_Rb_treeINSt7__cxx1112basic_stringIcSt11char_traitsIcESaIcEEESt4pairIKS5_NS0_4listIP16hiRUNTIME_BLOB_SSaISA_EEEESt10_Select1stISD_ESt4lessIS5_ESaISD_EE22_M_emplace_hint_uniqueIJRKSt21piecewise_construct_tSt5tupleIJRS7_EESO_IJEEEEESt17_Rb_tree_iteratorISD_ESt23_Rb_tree_const_iteratorISD_EDpOT_.isra.266_x208:
    /*00000208*/ CMP         R0, #0 
    /*0000020c*/ BGE         _ZNSt8_Rb_treeINSt7__cxx1112basic_stringIcSt11char_traitsIcESaIcEEESt4pairIKS5_NS0_4listIP16hiRUNTIME_BLOB_SSaISA_EEEESt10_Select1stISD_ESt4lessIS5_ESaISD_EE22_M_emplace_hint_uniqueIJRKSt21piecewise_construct_tSt5tupleIJRS7_EESO_IJEEEEESt17_Rb_tree_iteratorISD_ESt23_Rb_tree_const_iteratorISD_EDpOT_.isra.266_x304
    /*00000210*/ LDR         FP, [R8, #12] 
    /*00000214*/ CMP         FP, #0 
    /*00000218*/ MOVNE       R8, R5 
    /*0000021c*/ MOVNE       FP, R8 
    _ZNSt8_Rb_treeINSt7__cxx1112basic_stringIcSt11char_traitsIcESaIcEEESt4pairIKS5_NS0_4listIP16hiRUNTIME_BLOB_SSaISA_EEEESt10_Select1stISD_ESt4lessIS5_ESaISD_EE22_M_emplace_hint_uniqueIJRKSt21piecewise_construct_tSt5tupleIJRS7_EESO_IJEEEEESt17_Rb_tree_iteratorISD_ESt23_Rb_tree_const_iteratorISD_EDpOT_.isra.266_x220:
    /*00000220*/ SUB         R0, R9, R8 
    /*00000224*/ CLZ         R0, R0 
    /*00000228*/ LSR         R0, R0, #5 
    /*0000022c*/ CMP         FP, #0 
    /*00000230*/ ORRNE       R0, R0, #1 
    /*00000234*/ CMP         R0, #0 
    /*00000238*/ BNE         _ZNSt8_Rb_treeINSt7__cxx1112basic_stringIcSt11char_traitsIcESaIcEEESt4pairIKS5_NS0_4listIP16hiRUNTIME_BLOB_SSaISA_EEEESt10_Select1stISD_ESt4lessIS5_ESaISD_EE22_M_emplace_hint_uniqueIJRKSt21piecewise_construct_tSt5tupleIJRS7_EESO_IJEEEEESt17_Rb_tree_iteratorISD_ESt23_Rb_tree_const_iteratorISD_EDpOT_.isra.266_x278
    /*0000023c*/ LDR         R3, [R4, #16] 
    /*00000240*/ LDR         R6, [R4, #20] 
    /*00000244*/ STR         R3, [SP] 
    _ZNSt8_Rb_treeINSt7__cxx1112basic_stringIcSt11char_traitsIcESaIcEEESt4pairIKS5_NS0_4listIP16hiRUNTIME_BLOB_SSaISA_EEEESt10_Select1stISD_ESt4lessIS5_ESaISD_EE22_M_emplace_hint_uniqueIJRKSt21piecewise_construct_tSt5tupleIJRS7_EESO_IJEEEEESt17_Rb_tree_iteratorISD_ESt23_Rb_tree_const_iteratorISD_EDpOT_.isra.266_x248:
    /*00000248*/ LDR         R5, [R8, #20] 
    /*0000024c*/ CMP         R5, R6 
    /*00000250*/ MOVCC       R2, R5 
    /*00000254*/ MOVCS       R2, R6 
    /*00000258*/ CMP         R2, #0 
    /*0000025c*/ BEQ         _ZNSt8_Rb_treeINSt7__cxx1112basic_stringIcSt11char_traitsIcESaIcEEESt4pairIKS5_NS0_4listIP16hiRUNTIME_BLOB_SSaISA_EEEESt10_Select1stISD_ESt4lessIS5_ESaISD_EE22_M_emplace_hint_uniqueIJRKSt21piecewise_construct_tSt5tupleIJRS7_EESO_IJEEEEESt17_Rb_tree_iteratorISD_ESt23_Rb_tree_const_iteratorISD_EDpOT_.isra.266_x370
    /*00000260*/ LDR         R1, [R8, #16] 
    /*00000264*/ LDR         R0, [SP] 
    /*00000268*/ BL          memcmp
    /*0000026c*/ CMP         R0, #0 
    /*00000270*/ BEQ         _ZNSt8_Rb_treeINSt7__cxx1112basic_stringIcSt11char_traitsIcESaIcEEESt4pairIKS5_NS0_4listIP16hiRUNTIME_BLOB_SSaISA_EEEESt10_Select1stISD_ESt4lessIS5_ESaISD_EE22_M_emplace_hint_uniqueIJRKSt21piecewise_construct_tSt5tupleIJRS7_EESO_IJEEEEESt17_Rb_tree_iteratorISD_ESt23_Rb_tree_const_iteratorISD_EDpOT_.isra.266_x370
    _ZNSt8_Rb_treeINSt7__cxx1112basic_stringIcSt11char_traitsIcESaIcEEESt4pairIKS5_NS0_4listIP16hiRUNTIME_BLOB_SSaISA_EEEESt10_Select1stISD_ESt4lessIS5_ESaISD_EE22_M_emplace_hint_uniqueIJRKSt21piecewise_construct_tSt5tupleIJRS7_EESO_IJEEEEESt17_Rb_tree_iteratorISD_ESt23_Rb_tree_const_iteratorISD_EDpOT_.isra.266_x274:
    /*00000274*/ LSR         R0, R0, #31 
    _ZNSt8_Rb_treeINSt7__cxx1112basic_stringIcSt11char_traitsIcESaIcEEESt4pairIKS5_NS0_4listIP16hiRUNTIME_BLOB_SSaISA_EEEESt10_Select1stISD_ESt4lessIS5_ESaISD_EE22_M_emplace_hint_uniqueIJRKSt21piecewise_construct_tSt5tupleIJRS7_EESO_IJEEEEESt17_Rb_tree_iteratorISD_ESt23_Rb_tree_const_iteratorISD_EDpOT_.isra.266_x278:
    /*00000278*/ MOV         R3, R9 
    /*0000027c*/ MOV         R2, R8 
    /*00000280*/ MOV         R1, R4 
    /*00000284*/ BL          _ZSt29_Rb_tree_insert_and_rebalancebPSt18_Rb_tree_node_baseS0_RS_
    /*00000288*/ LDR         R3, [R7, #20] 
    /*0000028c*/ MOV         R0, R4 
    /*00000290*/ ADD         R3, R3, #1 
    /*00000294*/ STR         R3, [R7, #20] 
    /*00000298*/ ADD         SP, SP, #20 
    /*0000029c*/ POP         {R4, R5, R6, R7, R8, R9, SL, FP, PC} 
    _ZNSt8_Rb_treeINSt7__cxx1112basic_stringIcSt11char_traitsIcESaIcEEESt4pairIKS5_NS0_4listIP16hiRUNTIME_BLOB_SSaISA_EEEESt10_Select1stISD_ESt4lessIS5_ESaISD_EE22_M_emplace_hint_uniqueIJRKSt21piecewise_construct_tSt5tupleIJRS7_EESO_IJEEEEESt17_Rb_tree_iteratorISD_ESt23_Rb_tree_const_iteratorISD_EDpOT_.isra.266_x2a0:
    /*000002a0*/ ADD         R1, SP, #8 
    /*000002a4*/ ADD         R0, R4, #16 
    /*000002a8*/ BL          _ZNSt7__cxx1112basic_stringIcSt11char_traitsIcESaIcEE9_M_createERjj
    /*000002ac*/ LDR         R3, [SP, #8] 
    /*000002b0*/ STR         R0, [R4, #16] 
    /*000002b4*/ STR         R3, [R4, #24] 
    _ZNSt8_Rb_treeINSt7__cxx1112basic_stringIcSt11char_traitsIcESaIcEEESt4pairIKS5_NS0_4listIP16hiRUNTIME_BLOB_SSaISA_EEEESt10_Select1stISD_ESt4lessIS5_ESaISD_EE22_M_emplace_hint_uniqueIJRKSt21piecewise_construct_tSt5tupleIJRS7_EESO_IJEEEEESt17_Rb_tree_iteratorISD_ESt23_Rb_tree_const_iteratorISD_EDpOT_.isra.266_x2b8:
    /*000002b8*/ MOV         R2, R6 
    /*000002bc*/ MOV         R1, R8 
    /*000002c0*/ BL          memcpy
    /*000002c4*/ LDR         R6, [SP, #8] 
    /*000002c8*/ LDR         R3, [R4, #16] 
    /*000002cc*/ B           _ZNSt8_Rb_treeINSt7__cxx1112basic_stringIcSt11char_traitsIcESaIcEEESt4pairIKS5_NS0_4listIP16hiRUNTIME_BLOB_SSaISA_EEEESt10_Select1stISD_ESt4lessIS5_ESaISD_EE22_M_emplace_hint_uniqueIJRKSt21piecewise_construct_tSt5tupleIJRS7_EESO_IJEEEEESt17_Rb_tree_iteratorISD_ESt23_Rb_tree_const_iteratorISD_EDpOT_.isra.266_x90
    _ZNSt8_Rb_treeINSt7__cxx1112basic_stringIcSt11char_traitsIcESaIcEEESt4pairIKS5_NS0_4listIP16hiRUNTIME_BLOB_SSaISA_EEEESt10_Select1stISD_ESt4lessIS5_ESaISD_EE22_M_emplace_hint_uniqueIJRKSt21piecewise_construct_tSt5tupleIJRS7_EESO_IJEEEEESt17_Rb_tree_iteratorISD_ESt23_Rb_tree_const_iteratorISD_EDpOT_.isra.266_x2d0:
    /*000002d0*/ LDRB        R2, [R8] 
    /*000002d4*/ MOV         R3, SL 
    /*000002d8*/ STRB        R2, [R4, #24] 
    /*000002dc*/ B           _ZNSt8_Rb_treeINSt7__cxx1112basic_stringIcSt11char_traitsIcESaIcEEESt4pairIKS5_NS0_4listIP16hiRUNTIME_BLOB_SSaISA_EEEESt10_Select1stISD_ESt4lessIS5_ESaISD_EE22_M_emplace_hint_uniqueIJRKSt21piecewise_construct_tSt5tupleIJRS7_EESO_IJEEEEESt17_Rb_tree_iteratorISD_ESt23_Rb_tree_const_iteratorISD_EDpOT_.isra.266_x90
    _ZNSt8_Rb_treeINSt7__cxx1112basic_stringIcSt11char_traitsIcESaIcEEESt4pairIKS5_NS0_4listIP16hiRUNTIME_BLOB_SSaISA_EEEESt10_Select1stISD_ESt4lessIS5_ESaISD_EE22_M_emplace_hint_uniqueIJRKSt21piecewise_construct_tSt5tupleIJRS7_EESO_IJEEEEESt17_Rb_tree_iteratorISD_ESt23_Rb_tree_const_iteratorISD_EDpOT_.isra.266_x2e0:
    /*000002e0*/ LDR         R0, [R0, #16] 
    /*000002e4*/ LDR         R1, [SP] 
    /*000002e8*/ BL          memcmp
    /*000002ec*/ CMP         R0, #0 
    /*000002f0*/ BNE         _ZNSt8_Rb_treeINSt7__cxx1112basic_stringIcSt11char_traitsIcESaIcEEESt4pairIKS5_NS0_4listIP16hiRUNTIME_BLOB_SSaISA_EEEESt10_Select1stISD_ESt4lessIS5_ESaISD_EE22_M_emplace_hint_uniqueIJRKSt21piecewise_construct_tSt5tupleIJRS7_EESO_IJEEEEESt17_Rb_tree_iteratorISD_ESt23_Rb_tree_const_iteratorISD_EDpOT_.isra.266_x208
    /*000002f4*/ B           _ZNSt8_Rb_treeINSt7__cxx1112basic_stringIcSt11char_traitsIcESaIcEEESt4pairIKS5_NS0_4listIP16hiRUNTIME_BLOB_SSaISA_EEEESt10_Select1stISD_ESt4lessIS5_ESaISD_EE22_M_emplace_hint_uniqueIJRKSt21piecewise_construct_tSt5tupleIJRS7_EESO_IJEEEEESt17_Rb_tree_iteratorISD_ESt23_Rb_tree_const_iteratorISD_EDpOT_.isra.266_x204
    _ZNSt8_Rb_treeINSt7__cxx1112basic_stringIcSt11char_traitsIcESaIcEEESt4pairIKS5_NS0_4listIP16hiRUNTIME_BLOB_SSaISA_EEEESt10_Select1stISD_ESt4lessIS5_ESaISD_EE22_M_emplace_hint_uniqueIJRKSt21piecewise_construct_tSt5tupleIJRS7_EESO_IJEEEEESt17_Rb_tree_iteratorISD_ESt23_Rb_tree_const_iteratorISD_EDpOT_.isra.266_x2f8:
    /*000002f8*/ SUB         R2, R6, R8 
    /*000002fc*/ CMP         R2, #0 
    /*00000300*/ B           _ZNSt8_Rb_treeINSt7__cxx1112basic_stringIcSt11char_traitsIcESaIcEEESt4pairIKS5_NS0_4listIP16hiRUNTIME_BLOB_SSaISA_EEEESt10_Select1stISD_ESt4lessIS5_ESaISD_EE22_M_emplace_hint_uniqueIJRKSt21piecewise_construct_tSt5tupleIJRS7_EESO_IJEEEEESt17_Rb_tree_iteratorISD_ESt23_Rb_tree_const_iteratorISD_EDpOT_.isra.266_x100
    _ZNSt8_Rb_treeINSt7__cxx1112basic_stringIcSt11char_traitsIcESaIcEEESt4pairIKS5_NS0_4listIP16hiRUNTIME_BLOB_SSaISA_EEEESt10_Select1stISD_ESt4lessIS5_ESaISD_EE22_M_emplace_hint_uniqueIJRKSt21piecewise_construct_tSt5tupleIJRS7_EESO_IJEEEEESt17_Rb_tree_iteratorISD_ESt23_Rb_tree_const_iteratorISD_EDpOT_.isra.266_x304:
    /*00000304*/ ADD         R2, R4, #16 
    /*00000308*/ MOV         R1, R7 
    /*0000030c*/ ADD         R0, SP, #8 
    /*00000310*/ BL          _ZNSt8_Rb_treeINSt7__cxx1112basic_stringIcSt11char_traitsIcESaIcEEESt4pairIKS5_NS0_4listIP16hiRUNTIME_BLOB_SSaISA_EEEESt10_Select1stISD_ESt4lessIS5_ESaISD_EE24_M_get_insert_unique_posERS7_
    /*00000314*/ LDR         R8, [SP, #12] 
    /*00000318*/ LDR         FP, [SP, #8] 
    /*0000031c*/ CMP         R8, #0 
    /*00000320*/ LDREQ       R3, [R4, #16] 
    /*00000324*/ STREQ       R3, [SP] 
    /*00000328*/ BNE         _ZNSt8_Rb_treeINSt7__cxx1112basic_stringIcSt11char_traitsIcESaIcEEESt4pairIKS5_NS0_4listIP16hiRUNTIME_BLOB_SSaISA_EEEESt10_Select1stISD_ESt4lessIS5_ESaISD_EE22_M_emplace_hint_uniqueIJRKSt21piecewise_construct_tSt5tupleIJRS7_EESO_IJEEEEESt17_Rb_tree_iteratorISD_ESt23_Rb_tree_const_iteratorISD_EDpOT_.isra.266_x220
    /*0000032c*/ B           _ZNSt8_Rb_treeINSt7__cxx1112basic_stringIcSt11char_traitsIcESaIcEEESt4pairIKS5_NS0_4listIP16hiRUNTIME_BLOB_SSaISA_EEEESt10_Select1stISD_ESt4lessIS5_ESaISD_EE22_M_emplace_hint_uniqueIJRKSt21piecewise_construct_tSt5tupleIJRS7_EESO_IJEEEEESt17_Rb_tree_iteratorISD_ESt23_Rb_tree_const_iteratorISD_EDpOT_.isra.266_x12c
    _ZNSt8_Rb_treeINSt7__cxx1112basic_stringIcSt11char_traitsIcESaIcEEESt4pairIKS5_NS0_4listIP16hiRUNTIME_BLOB_SSaISA_EEEESt10_Select1stISD_ESt4lessIS5_ESaISD_EE22_M_emplace_hint_uniqueIJRKSt21piecewise_construct_tSt5tupleIJRS7_EESO_IJEEEEESt17_Rb_tree_iteratorISD_ESt23_Rb_tree_const_iteratorISD_EDpOT_.isra.266_x330:
    /*00000330*/ LDR         R3, [R7, #20] 
    /*00000334*/ CMP         R3, #0 
    /*00000338*/ BEQ         _ZNSt8_Rb_treeINSt7__cxx1112basic_stringIcSt11char_traitsIcESaIcEEESt4pairIKS5_NS0_4listIP16hiRUNTIME_BLOB_SSaISA_EEEESt10_Select1stISD_ESt4lessIS5_ESaISD_EE22_M_emplace_hint_uniqueIJRKSt21piecewise_construct_tSt5tupleIJRS7_EESO_IJEEEEESt17_Rb_tree_iteratorISD_ESt23_Rb_tree_const_iteratorISD_EDpOT_.isra.266_x304
    /*0000033c*/ LDR         R8, [R7, #16] 
    /*00000340*/ LDR         R5, [R4, #20] 
    /*00000344*/ LDR         R6, [R8, #20] 
    /*00000348*/ CMP         R6, R5 
    /*0000034c*/ MOVCC       R2, R6 
    /*00000350*/ MOVCS       R2, R5 
    /*00000354*/ CMP         R2, #0 
    /*00000358*/ BNE         _ZNSt8_Rb_treeINSt7__cxx1112basic_stringIcSt11char_traitsIcESaIcEEESt4pairIKS5_NS0_4listIP16hiRUNTIME_BLOB_SSaISA_EEEESt10_Select1stISD_ESt4lessIS5_ESaISD_EE22_M_emplace_hint_uniqueIJRKSt21piecewise_construct_tSt5tupleIJRS7_EESO_IJEEEEESt17_Rb_tree_iteratorISD_ESt23_Rb_tree_const_iteratorISD_EDpOT_.isra.266_x390
    _ZNSt8_Rb_treeINSt7__cxx1112basic_stringIcSt11char_traitsIcESaIcEEESt4pairIKS5_NS0_4listIP16hiRUNTIME_BLOB_SSaISA_EEEESt10_Select1stISD_ESt4lessIS5_ESaISD_EE22_M_emplace_hint_uniqueIJRKSt21piecewise_construct_tSt5tupleIJRS7_EESO_IJEEEEESt17_Rb_tree_iteratorISD_ESt23_Rb_tree_const_iteratorISD_EDpOT_.isra.266_x35c:
    /*0000035c*/ SUB         R0, R6, R5 
    _ZNSt8_Rb_treeINSt7__cxx1112basic_stringIcSt11char_traitsIcESaIcEEESt4pairIKS5_NS0_4listIP16hiRUNTIME_BLOB_SSaISA_EEEESt10_Select1stISD_ESt4lessIS5_ESaISD_EE22_M_emplace_hint_uniqueIJRKSt21piecewise_construct_tSt5tupleIJRS7_EESO_IJEEEEESt17_Rb_tree_iteratorISD_ESt23_Rb_tree_const_iteratorISD_EDpOT_.isra.266_x360:
    /*00000360*/ CMP         R0, #0 
    /*00000364*/ BGE         _ZNSt8_Rb_treeINSt7__cxx1112basic_stringIcSt11char_traitsIcESaIcEEESt4pairIKS5_NS0_4listIP16hiRUNTIME_BLOB_SSaISA_EEEESt10_Select1stISD_ESt4lessIS5_ESaISD_EE22_M_emplace_hint_uniqueIJRKSt21piecewise_construct_tSt5tupleIJRS7_EESO_IJEEEEESt17_Rb_tree_iteratorISD_ESt23_Rb_tree_const_iteratorISD_EDpOT_.isra.266_x304
    /*00000368*/ MOV         FP, #0 
    /*0000036c*/ B           _ZNSt8_Rb_treeINSt7__cxx1112basic_stringIcSt11char_traitsIcESaIcEEESt4pairIKS5_NS0_4listIP16hiRUNTIME_BLOB_SSaISA_EEEESt10_Select1stISD_ESt4lessIS5_ESaISD_EE22_M_emplace_hint_uniqueIJRKSt21piecewise_construct_tSt5tupleIJRS7_EESO_IJEEEEESt17_Rb_tree_iteratorISD_ESt23_Rb_tree_const_iteratorISD_EDpOT_.isra.266_x220
    _ZNSt8_Rb_treeINSt7__cxx1112basic_stringIcSt11char_traitsIcESaIcEEESt4pairIKS5_NS0_4listIP16hiRUNTIME_BLOB_SSaISA_EEEESt10_Select1stISD_ESt4lessIS5_ESaISD_EE22_M_emplace_hint_uniqueIJRKSt21piecewise_construct_tSt5tupleIJRS7_EESO_IJEEEEESt17_Rb_tree_iteratorISD_ESt23_Rb_tree_const_iteratorISD_EDpOT_.isra.266_x370:
    /*00000370*/ SUB         R0, R6, R5 
    /*00000374*/ B           _ZNSt8_Rb_treeINSt7__cxx1112basic_stringIcSt11char_traitsIcESaIcEEESt4pairIKS5_NS0_4listIP16hiRUNTIME_BLOB_SSaISA_EEEESt10_Select1stISD_ESt4lessIS5_ESaISD_EE22_M_emplace_hint_uniqueIJRKSt21piecewise_construct_tSt5tupleIJRS7_EESO_IJEEEEESt17_Rb_tree_iteratorISD_ESt23_Rb_tree_const_iteratorISD_EDpOT_.isra.266_x274
    _ZNSt8_Rb_treeINSt7__cxx1112basic_stringIcSt11char_traitsIcESaIcEEESt4pairIKS5_NS0_4listIP16hiRUNTIME_BLOB_SSaISA_EEEESt10_Select1stISD_ESt4lessIS5_ESaISD_EE22_M_emplace_hint_uniqueIJRKSt21piecewise_construct_tSt5tupleIJRS7_EESO_IJEEEEESt17_Rb_tree_iteratorISD_ESt23_Rb_tree_const_iteratorISD_EDpOT_.isra.266_x378:
    /*00000378*/ SUB         R0, R6, R8 
    /*0000037c*/ B           _ZNSt8_Rb_treeINSt7__cxx1112basic_stringIcSt11char_traitsIcESaIcEEESt4pairIKS5_NS0_4listIP16hiRUNTIME_BLOB_SSaISA_EEEESt10_Select1stISD_ESt4lessIS5_ESaISD_EE22_M_emplace_hint_uniqueIJRKSt21piecewise_construct_tSt5tupleIJRS7_EESO_IJEEEEESt17_Rb_tree_iteratorISD_ESt23_Rb_tree_const_iteratorISD_EDpOT_.isra.266_x1b4
    /*00000380*/ BL          __cxa_begin_catch
    /*00000384*/ MOV         R0, R4 
    /*00000388*/ BL          _ZdlPv
    /*0000038c*/ BL          __cxa_rethrow
    _ZNSt8_Rb_treeINSt7__cxx1112basic_stringIcSt11char_traitsIcESaIcEEESt4pairIKS5_NS0_4listIP16hiRUNTIME_BLOB_SSaISA_EEEESt10_Select1stISD_ESt4lessIS5_ESaISD_EE22_M_emplace_hint_uniqueIJRKSt21piecewise_construct_tSt5tupleIJRS7_EESO_IJEEEEESt17_Rb_tree_iteratorISD_ESt23_Rb_tree_const_iteratorISD_EDpOT_.isra.266_x390:
    /*00000390*/ LDR         R1, [R4, #16] 
    /*00000394*/ LDR         R0, [R8, #16] 
    /*00000398*/ BL          memcmp
    /*0000039c*/ CMP         R0, #0 
    /*000003a0*/ BNE         _ZNSt8_Rb_treeINSt7__cxx1112basic_stringIcSt11char_traitsIcESaIcEEESt4pairIKS5_NS0_4listIP16hiRUNTIME_BLOB_SSaISA_EEEESt10_Select1stISD_ESt4lessIS5_ESaISD_EE22_M_emplace_hint_uniqueIJRKSt21piecewise_construct_tSt5tupleIJRS7_EESO_IJEEEEESt17_Rb_tree_iteratorISD_ESt23_Rb_tree_const_iteratorISD_EDpOT_.isra.266_x360
    /*000003a4*/ B           _ZNSt8_Rb_treeINSt7__cxx1112basic_stringIcSt11char_traitsIcESaIcEEESt4pairIKS5_NS0_4listIP16hiRUNTIME_BLOB_SSaISA_EEEESt10_Select1stISD_ESt4lessIS5_ESaISD_EE22_M_emplace_hint_uniqueIJRKSt21piecewise_construct_tSt5tupleIJRS7_EESO_IJEEEEESt17_Rb_tree_iteratorISD_ESt23_Rb_tree_const_iteratorISD_EDpOT_.isra.266_x35c
    _ZNSt8_Rb_treeINSt7__cxx1112basic_stringIcSt11char_traitsIcESaIcEEESt4pairIKS5_NS0_4listIP16hiRUNTIME_BLOB_SSaISA_EEEESt10_Select1stISD_ESt4lessIS5_ESaISD_EE22_M_emplace_hint_uniqueIJRKSt21piecewise_construct_tSt5tupleIJRS7_EESO_IJEEEEESt17_Rb_tree_iteratorISD_ESt23_Rb_tree_const_iteratorISD_EDpOT_.isra.266_x3a8:
    /*000003a8*/ MOV         R8, R5 
    /*000003ac*/ B           _ZNSt8_Rb_treeINSt7__cxx1112basic_stringIcSt11char_traitsIcESaIcEEESt4pairIKS5_NS0_4listIP16hiRUNTIME_BLOB_SSaISA_EEEESt10_Select1stISD_ESt4lessIS5_ESaISD_EE22_M_emplace_hint_uniqueIJRKSt21piecewise_construct_tSt5tupleIJRS7_EESO_IJEEEEESt17_Rb_tree_iteratorISD_ESt23_Rb_tree_const_iteratorISD_EDpOT_.isra.266_x220
    _ZNSt8_Rb_treeINSt7__cxx1112basic_stringIcSt11char_traitsIcESaIcEEESt4pairIKS5_NS0_4listIP16hiRUNTIME_BLOB_SSaISA_EEEESt10_Select1stISD_ESt4lessIS5_ESaISD_EE22_M_emplace_hint_uniqueIJRKSt21piecewise_construct_tSt5tupleIJRS7_EESO_IJEEEEESt17_Rb_tree_iteratorISD_ESt23_Rb_tree_const_iteratorISD_EDpOT_.isra.266_x3b0:
    /*000003b0*/ MOV         R0, SL 
    /*000003b4*/ B           _ZNSt8_Rb_treeINSt7__cxx1112basic_stringIcSt11char_traitsIcESaIcEEESt4pairIKS5_NS0_4listIP16hiRUNTIME_BLOB_SSaISA_EEEESt10_Select1stISD_ESt4lessIS5_ESaISD_EE22_M_emplace_hint_uniqueIJRKSt21piecewise_construct_tSt5tupleIJRS7_EESO_IJEEEEESt17_Rb_tree_iteratorISD_ESt23_Rb_tree_const_iteratorISD_EDpOT_.isra.266_x2b8
    /*000003b8*/ BL          __cxa_end_catch
    /*000003bc*/ BL          __cxa_end_cleanup
    /*000003c0*/ WORD_03c0: .word 0x00000350
FUNC_END _ZNSt8_Rb_treeINSt7__cxx1112basic_stringIcSt11char_traitsIcESaIcEEESt4pairIKS5_NS0_4listIP16hiRUNTIME_BLOB_SSaISA_EEEESt10_Select1stISD_ESt4lessIS5_ESaISD_EE22_M_emplace_hint_uniqueIJRKSt21piecewise_construct_tSt5tupleIJRS7_EESO_IJEEEEESt17_Rb_tree_iteratorISD_ESt23_Rb_tree_const_iteratorISD_EDpOT_.isra.266


@ - - - - - - - - - - - - - - - - - - - - - - - - - - - - - 
@ .ARM.extab.text._ZNSt8_Rb_treeINSt7__cxx1112basic_stringIcSt11char_traitsIcESaIcEEESt4pairIKS5_NS0_4listIP16hiRUNTIME_BLOB_SSaISA_EEEESt10_Select1stISD_ESt4lessIS5_ESaISD_EE22_M_emplace_hint_uniqueIJRKSt21piecewise_construct_tSt5tupleIJRS7_EESO_IJEEEEESt17_Rb_tree_iteratorISD_ESt23_Rb_tree_const_iteratorISD_EDpOT_.isra.266
@ Size: 0x28
@ - - - - - - - - - - - - - - - - - - - - - - - - - - - - - 

@ - - - - - - - - - - - - - - - - - - - - - - - - - - - - - 
@ .text._ZN4hirt16TaskGroupManager19computeConnectorSegEPNS_16ConnectorSegTaskE
@ Size: 0x2dc
@ - - - - - - - - - - - - - - - - - - - - - - - - - - - - - 

FUNC_BEGIN _ZN4hirt16TaskGroupManager19computeConnectorSegEPNS_16ConnectorSegTaskE
    /*00000000*/ MOV         IP, #16384                  @ 0x4000 
    /*00000004*/ PUSH        {R4, R5, R6, R7, R8, R9, SL, FP, LR} 
    /*00000008*/ SUB         IP, SP, IP 
    /*0000000c*/ STR         R0, [IP, #4008]             @ 0xfa8 
    /*00000010*/ LDR         R3, [R1, #88]               @ 0x58 
    /*00000014*/ MOV         FP, R1 
    /*00000018*/ SUB         SP, SP, #52                 @ 0x34 
    /*0000001c*/ ADD         R1, R1, #104                @ 0x68 
    /*00000020*/ LDR         R3, [R3, #28] 
    /*00000024*/ ADD         R0, FP, #96                 @ 0x60 
    /*00000028*/ LDR         IP, [FP, #116]              @ 0x74 
    /*0000002c*/ ADD         R3, R3, #256                @ 0x100 
    /*00000030*/ LDRD        R2, [R3] 
    /*00000034*/ LDR         R4, [FP, #112]              @ 0x70 
    /*00000038*/ STR         IP, [SP] 
    /*0000003c*/ BLX         R4 
    /*00000040*/ SUBS        R3, R0, #0 
    /*00000044*/ STR         R3, [SP, #28] 
    /*00000048*/ BNE         _ZN4hirt16TaskGroupManager19computeConnectorSegEPNS_16ConnectorSegTaskE_x2b0
    /*0000004c*/ LDR         R3, [FP, #104]              @ 0x68 
    /*00000050*/ LDR         R2, [FP, #88]               @ 0x58 
    /*00000054*/ CMP         R3, #0 
    /*00000058*/ LDR         R2, [R2, #28] 
    /*0000005c*/ STR         R2, [SP, #8] 
    /*00000060*/ BEQ         _ZN4hirt16TaskGroupManager19computeConnectorSegEPNS_16ConnectorSegTaskE_x264
    /*00000064*/ LDR         SL, [SP, #28] 
    /*00000068*/ ADD         R3, R2, #96                 @ 0x60 
    /*0000006c*/ STR         R3, [SP, #24] 
    /*00000070*/ ADD         R3, R2, #124                @ 0x7c 
    /*00000074*/ STR         R3, [SP, #12] 
    /*00000078*/ ADD         R3, R2, #100                @ 0x64 
    /*0000007c*/ STR         R3, [SP, #16] 
    _ZN4hirt16TaskGroupManager19computeConnectorSegEPNS_16ConnectorSegTaskE_x80:
    /*00000080*/ LDR         R3, [SP, #8] 
    /*00000084*/ MOV         R2, #48                     @ 0x30 
    /*00000088*/ MUL         R2, R2, SL 
    /*0000008c*/ LDR         R3, [R3, #128]              @ 0x80 
    /*00000090*/ LDR         R4, [FP, #108]              @ 0x6c 
    /*00000094*/ STR         R2, [SP, #20] 
    /*00000098*/ CMP         R3, #0 
    /*0000009c*/ LDR         R8, [SP, #12] 
    /*000000a0*/ ADD         R4, R4, R2 
    /*000000a4*/ BEQ         _ZN4hirt16TaskGroupManager19computeConnectorSegEPNS_16ConnectorSegTaskE_xdc
    _ZN4hirt16TaskGroupManager19computeConnectorSegEPNS_16ConnectorSegTaskE_xa8:
    /*000000a8*/ LDR         R2, [R3, #16] 
    /*000000ac*/ CMP         R4, R2 
    /*000000b0*/ MOVLS       R8, R3 
    /*000000b4*/ LDRHI       R3, [R3, #12] 
    /*000000b8*/ LDRLS       R3, [R3, #8] 
    /*000000bc*/ CMP         R3, #0 
    /*000000c0*/ BNE         _ZN4hirt16TaskGroupManager19computeConnectorSegEPNS_16ConnectorSegTaskE_xa8
    /*000000c4*/ LDR         R3, [SP, #12] 
    /*000000c8*/ CMP         R3, R8 
    /*000000cc*/ BEQ         _ZN4hirt16TaskGroupManager19computeConnectorSegEPNS_16ConnectorSegTaskE_xdc
    /*000000d0*/ LDR         R3, [R8, #16] 
    /*000000d4*/ CMP         R4, R3 
    /*000000d8*/ BCS         _ZN4hirt16TaskGroupManager19computeConnectorSegEPNS_16ConnectorSegTaskE_x278
    _ZN4hirt16TaskGroupManager19computeConnectorSegEPNS_16ConnectorSegTaskE_xdc:
    /*000000dc*/ MOV         R0, #44                     @ 0x2c 
    /*000000e0*/ BL          _Znwj
    /*000000e4*/ MOV         R5, R0 
    /*000000e8*/ MOV         R3, #0 
    /*000000ec*/ ADD         R1, R5, #28 
    /*000000f0*/ MOV         R2, R8 
    /*000000f4*/ STR         R1, [R5, #20] 
    /*000000f8*/ ADD         R0, SP, #40                 @ 0x28 
    /*000000fc*/ LDR         R1, [SP, #8] 
    /*00000100*/ STR         R3, [R5, #24] 
    /*00000104*/ STRB        R3, [R5, #28] 
    /*00000108*/ ADD         R1, R1, #120                @ 0x78 
    /*0000010c*/ STR         R4, [R5, #16] 
    /*00000110*/ ADD         R3, R5, #16 
    /*00000114*/ BL          _ZNSt8_Rb_treeIP16hiRUNTIME_BLOB_SSt4pairIKS1_NSt7__cxx1112basic_stringIcSt11char_traitsIcESaIcEEEESt10_Select1stISA_ESt4lessIS1_ESaISA_EE29_M_get_insert_hint_unique_posESt23_Rb_tree_const_iteratorISA_ERS3_
    /*00000118*/ LDR         R2, [SP, #44]               @ 0x2c 
    /*0000011c*/ LDR         R8, [SP, #40]               @ 0x28 
    /*00000120*/ CMP         R2, #0 
    /*00000124*/ BEQ         _ZN4hirt16TaskGroupManager19computeConnectorSegEPNS_16ConnectorSegTaskE_x270
    /*00000128*/ ADDS        R8, R8, #0 
    /*0000012c*/ LDR         R3, [SP, #12] 
    /*00000130*/ MOVNE       R8, #1 
    /*00000134*/ CMP         R2, R3 
    /*00000138*/ MOVNE       R0, R8 
    /*0000013c*/ ORREQ       R0, R8, #1 
    /*00000140*/ CMP         R0, #0 
    /*00000144*/ BNE         _ZN4hirt16TaskGroupManager19computeConnectorSegEPNS_16ConnectorSegTaskE_x158
    /*00000148*/ LDR         R0, [R2, #16] 
    /*0000014c*/ CMP         R4, R0 
    /*00000150*/ MOVCS       R0, #0 
    /*00000154*/ MOVCC       R0, #1 
    _ZN4hirt16TaskGroupManager19computeConnectorSegEPNS_16ConnectorSegTaskE_x158:
    /*00000158*/ MOV         R1, R5 
    /*0000015c*/ MOV         R8, R5 
    /*00000160*/ BL          _ZSt29_Rb_tree_insert_and_rebalancebPSt18_Rb_tree_node_baseS0_RS_
    /*00000164*/ LDR         R2, [SP, #8] 
    /*00000168*/ LDR         R3, [R2, #140]              @ 0x8c 
    /*0000016c*/ ADD         R3, R3, #1 
    /*00000170*/ STR         R3, [R2, #140]              @ 0x8c 
    /*00000174*/ MOV         R3, R2 
    /*00000178*/ LDR         R4, [R3, #104]              @ 0x68 
    /*0000017c*/ CMP         R4, #0 
    /*00000180*/ BEQ         _ZN4hirt16TaskGroupManager19computeConnectorSegEPNS_16ConnectorSegTaskE_x288
    _ZN4hirt16TaskGroupManager19computeConnectorSegEPNS_16ConnectorSegTaskE_x184:
    /*00000184*/ LDR         R6, [R8, #24] 
    /*00000188*/ LDR         R9, [R8, #20] 
    /*0000018c*/ LDR         R7, [SP, #16] 
    /*00000190*/ B           _ZN4hirt16TaskGroupManager19computeConnectorSegEPNS_16ConnectorSegTaskE_x1bc
    _ZN4hirt16TaskGroupManager19computeConnectorSegEPNS_16ConnectorSegTaskE_x194:
    /*00000194*/ LDR         R0, [R4, #16] 
    /*00000198*/ BL          memcmp
    /*0000019c*/ CMP         R0, #0 
    /*000001a0*/ BEQ         _ZN4hirt16TaskGroupManager19computeConnectorSegEPNS_16ConnectorSegTaskE_x1d8
    _ZN4hirt16TaskGroupManager19computeConnectorSegEPNS_16ConnectorSegTaskE_x1a4:
    /*000001a4*/ CMP         R0, #0 
    /*000001a8*/ MOVGE       R7, R4 
    /*000001ac*/ LDRLT       R4, [R4, #12] 
    /*000001b0*/ LDRGE       R4, [R4, #8] 
    /*000001b4*/ CMP         R4, #0 
    /*000001b8*/ BEQ         _ZN4hirt16TaskGroupManager19computeConnectorSegEPNS_16ConnectorSegTaskE_x1e0
    _ZN4hirt16TaskGroupManager19computeConnectorSegEPNS_16ConnectorSegTaskE_x1bc:
    /*000001bc*/ LDR         R5, [R4, #20] 
    /*000001c0*/ MOV         R1, R9 
    /*000001c4*/ CMP         R5, R6 
    /*000001c8*/ MOVCC       R3, R5 
    /*000001cc*/ MOVCS       R3, R6 
    /*000001d0*/ SUBS        R2, R3, #0 
    /*000001d4*/ BNE         _ZN4hirt16TaskGroupManager19computeConnectorSegEPNS_16ConnectorSegTaskE_x194
    _ZN4hirt16TaskGroupManager19computeConnectorSegEPNS_16ConnectorSegTaskE_x1d8:
    /*000001d8*/ SUB         R0, R5, R6 
    /*000001dc*/ B           _ZN4hirt16TaskGroupManager19computeConnectorSegEPNS_16ConnectorSegTaskE_x1a4
    _ZN4hirt16TaskGroupManager19computeConnectorSegEPNS_16ConnectorSegTaskE_x1e0:
    /*000001e0*/ LDR         R3, [SP, #16] 
    /*000001e4*/ CMP         R3, R7 
    /*000001e8*/ BEQ         _ZN4hirt16TaskGroupManager19computeConnectorSegEPNS_16ConnectorSegTaskE_x28c
    /*000001ec*/ LDR         R4, [R7, #20] 
    /*000001f0*/ CMP         R4, R6 
    /*000001f4*/ MOVCC       R2, R4 
    /*000001f8*/ MOVCS       R2, R6 
    /*000001fc*/ CMP         R2, #0 
    /*00000200*/ BEQ         _ZN4hirt16TaskGroupManager19computeConnectorSegEPNS_16ConnectorSegTaskE_x2a8
    /*00000204*/ LDR         R1, [R7, #16] 
    /*00000208*/ MOV         R0, R9 
    /*0000020c*/ BL          memcmp
    /*00000210*/ CMP         R0, #0 
    /*00000214*/ BEQ         _ZN4hirt16TaskGroupManager19computeConnectorSegEPNS_16ConnectorSegTaskE_x2a8
    _ZN4hirt16TaskGroupManager19computeConnectorSegEPNS_16ConnectorSegTaskE_x218:
    /*00000218*/ CMP         R0, #0 
    /*0000021c*/ BLT         _ZN4hirt16TaskGroupManager19computeConnectorSegEPNS_16ConnectorSegTaskE_x28c
    /*00000220*/ MOV         R0, R7 
    _ZN4hirt16TaskGroupManager19computeConnectorSegEPNS_16ConnectorSegTaskE_x224:
    /*00000224*/ LDR         R3, [R0, #40]!              @ 0x28 
    /*00000228*/ CMP         R3, R0 
    /*0000022c*/ BEQ         _ZN4hirt16TaskGroupManager19computeConnectorSegEPNS_16ConnectorSegTaskE_x254
    /*00000230*/ LDR         IP, [FP, #108]              @ 0x6c 
    /*00000234*/ LDR         R2, [SP, #20] 
    /*00000238*/ ADD         IP, IP, R2 
    _ZN4hirt16TaskGroupManager19computeConnectorSegEPNS_16ConnectorSegTaskE_x23c:
    /*0000023c*/ LDR         R2, [R3, #8] 
    /*00000240*/ LDR         R3, [R3] 
    /*00000244*/ LDR         R1, [IP, #24] 
    /*00000248*/ CMP         R3, R0 
    /*0000024c*/ STR         R1, [R2, #24] 
    /*00000250*/ BNE         _ZN4hirt16TaskGroupManager19computeConnectorSegEPNS_16ConnectorSegTaskE_x23c
    _ZN4hirt16TaskGroupManager19computeConnectorSegEPNS_16ConnectorSegTaskE_x254:
    /*00000254*/ LDR         R3, [FP, #104]              @ 0x68 
    /*00000258*/ ADD         SL, SL, #1 
    /*0000025c*/ CMP         R3, SL 
    /*00000260*/ BHI         _ZN4hirt16TaskGroupManager19computeConnectorSegEPNS_16ConnectorSegTaskE_x80
    _ZN4hirt16TaskGroupManager19computeConnectorSegEPNS_16ConnectorSegTaskE_x264:
    /*00000264*/ LDR         R0, [SP, #28] 
    /*00000268*/ ADD         SP, SP, #52                 @ 0x34 
    /*0000026c*/ POP         {R4, R5, R6, R7, R8, R9, SL, FP, PC} 
    _ZN4hirt16TaskGroupManager19computeConnectorSegEPNS_16ConnectorSegTaskE_x270:
    /*00000270*/ MOV         R0, R5 
    /*00000274*/ BL          _ZdlPv
    _ZN4hirt16TaskGroupManager19computeConnectorSegEPNS_16ConnectorSegTaskE_x278:
    /*00000278*/ LDR         R3, [SP, #8] 
    /*0000027c*/ LDR         R4, [R3, #104]              @ 0x68 
    /*00000280*/ CMP         R4, #0 
    /*00000284*/ BNE         _ZN4hirt16TaskGroupManager19computeConnectorSegEPNS_16ConnectorSegTaskE_x184
    _ZN4hirt16TaskGroupManager19computeConnectorSegEPNS_16ConnectorSegTaskE_x288:
    /*00000288*/ LDR         R7, [SP, #16] 
    _ZN4hirt16TaskGroupManager19computeConnectorSegEPNS_16ConnectorSegTaskE_x28c:
    /*0000028c*/ LDR         R0, [SP, #24] 
    /*00000290*/ ADD         R2, SP, #48                 @ 0x30 
    /*00000294*/ ADD         R8, R8, #20 
    /*00000298*/ MOV         R1, R7 
    /*0000029c*/ STR         R8, [R2, #-12]! 
    /*000002a0*/ BL          _ZNSt8_Rb_treeINSt7__cxx1112basic_stringIcSt11char_traitsIcESaIcEEESt4pairIKS5_NS0_4listIP16hiRUNTIME_BLOB_SSaISA_EEEESt10_Select1stISD_ESt4lessIS5_ESaISD_EE22_M_emplace_hint_uniqueIJRKSt21piecewise_construct_tSt5tupleIJRS7_EESO_IJEEEEESt17_Rb_tree_iteratorISD_ESt23_Rb_tree_const_iteratorISD_EDpOT_.isra.266
    /*000002a4*/ B           _ZN4hirt16TaskGroupManager19computeConnectorSegEPNS_16ConnectorSegTaskE_x224
    _ZN4hirt16TaskGroupManager19computeConnectorSegEPNS_16ConnectorSegTaskE_x2a8:
    /*000002a8*/ SUB         R0, R6, R4 
    /*000002ac*/ B           _ZN4hirt16TaskGroupManager19computeConnectorSegEPNS_16ConnectorSegTaskE_x218
    _ZN4hirt16TaskGroupManager19computeConnectorSegEPNS_16ConnectorSegTaskE_x2b0:
    /*000002b0*/ LDR         R2, WORD_02d4               @ LDR         R2, [PC, #28]               @ 0x00000000000002d4 
    /*000002b4*/ MVN         R3, #0 
    /*000002b8*/ LDR         R0, WORD_02d8               @ LDR         R0, [PC, #24]               @ 0x00000000000002d8 
    /*000002bc*/ MOV         R1, #4 
    /*000002c0*/ ADD         R2, PC, R2 
    /*000002c4*/ ADD         R0, PC, R0 
    /*000002c8*/ STR         R3, [SP, #28] 
    /*000002cc*/ BL          _Z15HIRT_LOG_PrintfPKc19tagHIRT_LOG_LEVEL_ES0_z
    /*000002d0*/ B           _ZN4hirt16TaskGroupManager19computeConnectorSegEPNS_16ConnectorSegTaskE_x264
    /*000002d4*/ WORD_02d4: .word 0x0000000c
    /*000002d8*/ WORD_02d8: .word 0x0000000c
FUNC_END _ZN4hirt16TaskGroupManager19computeConnectorSegEPNS_16ConnectorSegTaskE


@ - - - - - - - - - - - - - - - - - - - - - - - - - - - - - 
@ .text._ZN4hirt16TaskGroupManager14computeNnieSegEPNS_11NnieSegTaskEj
@ Size: 0xb90
@ - - - - - - - - - - - - - - - - - - - - - - - - - - - - - 

FUNC_BEGIN _ZN4hirt16TaskGroupManager14computeNnieSegEPNS_11NnieSegTaskEj
    /*00000000*/ MOV         IP, #16384                  @ 0x4000 
    /*00000004*/ PUSH        {R4, R5, R6, R7, R8, R9, SL, FP, LR} 
    /*00000008*/ VPUSH       {D8} 
    /*0000000c*/ SUB         IP, SP, IP 
    /*00000010*/ STR         R0, [IP, #3912]             @ 0xf48 
    /*00000014*/ LDR         R8, WORD_0878               @ LDR         R8, [PC, #2140]             @ 0x0000000000000878 
    /*00000018*/ MOV         FP, R1 
    /*0000001c*/ LDR         R1, WORD_087c               @ LDR         R1, [PC, #2136]             @ 0x000000000000087c 
    /*00000020*/ SUB         SP, SP, #140                @ 0x8c 
    /*00000024*/ ADD         R8, PC, R8 
    /*00000028*/ MOV         R4, R2 
    /*0000002c*/ LDR         IP, [FP, #88]               @ 0x58 
    /*00000030*/ MOV         R3, #0 
    /*00000034*/ LDR         R2, [R8, R1] 
    /*00000038*/ ADD         R1, SP, #116                @ 0x74 
    /*0000003c*/ LDR         SL, [IP, #12] 
    /*00000040*/ STR         R2, [SP, #44]               @ 0x2c 
    /*00000044*/ CMP         SL, R3 
    /*00000048*/ LDR         R2, [R2] 
    /*0000004c*/ STR         R1, [SP, #40]               @ 0x28 
    /*00000050*/ STR         R3, [SP, #48]               @ 0x30 
    /*00000054*/ STR         R2, [SP, #132]              @ 0x84 
    /*00000058*/ STR         R3, [SP, #52]               @ 0x34 
    /*0000005c*/ STR         R3, [SP, #112]              @ 0x70 
    /*00000060*/ STRB        R3, [SP, #116]              @ 0x74 
    /*00000064*/ STR         R1, [SP, #108]              @ 0x6c 
    /*00000068*/ BEQ         _ZN4hirt16TaskGroupManager14computeNnieSegEPNS_11NnieSegTaskEj_x168
    /*0000006c*/ LDR         R0, [FP, #368]              @ 0x170 
    /*00000070*/ CMP         R0, R3 
    /*00000074*/ ADDNE       R1, FP, #304                @ 0x130 
    /*00000078*/ BEQ         _ZN4hirt16TaskGroupManager14computeNnieSegEPNS_11NnieSegTaskEj_xa0
    _ZN4hirt16TaskGroupManager14computeNnieSegEPNS_11NnieSegTaskEj_x7c:
    /*0000007c*/ LDR         R2, [R1], #4 
    /*00000080*/ CMP         R2, #0 
    /*00000084*/ BEQ         _ZN4hirt16TaskGroupManager14computeNnieSegEPNS_11NnieSegTaskEj_x94
    /*00000088*/ LDR         R6, [R2, #24] 
    /*0000008c*/ CMP         R6, #0 
    /*00000090*/ BEQ         _ZN4hirt16TaskGroupManager14computeNnieSegEPNS_11NnieSegTaskEj_x4f4
    _ZN4hirt16TaskGroupManager14computeNnieSegEPNS_11NnieSegTaskEj_x94:
    /*00000094*/ ADD         R3, R3, #1 
    /*00000098*/ CMP         R3, R0 
    /*0000009c*/ BNE         _ZN4hirt16TaskGroupManager14computeNnieSegEPNS_11NnieSegTaskEj_x7c
    _ZN4hirt16TaskGroupManager14computeNnieSegEPNS_11NnieSegTaskEj_xa0:
    /*000000a0*/ LDR         R3, [FP, #96]               @ 0x60 
    /*000000a4*/ CMP         R3, #0 
    /*000000a8*/ BEQ         _ZN4hirt16TaskGroupManager14computeNnieSegEPNS_11NnieSegTaskEj_x400
    /*000000ac*/ LDR         R3, WORD_0880               @ LDR         R3, [PC, #1996]             @ 0x0000000000000880 
    /*000000b0*/ MOV         R6, #0 
    /*000000b4*/ LDR         SL, WORD_0884               @ LDR         SL, [PC, #1992]             @ 0x0000000000000884 
    /*000000b8*/ MOV         R5, R6 
    /*000000bc*/ LDR         R9, WORD_0888               @ LDR         R9, [PC, #1988]             @ 0x0000000000000888 
    /*000000c0*/ ADD         R7, SP, #80                 @ 0x50 
    /*000000c4*/ ADD         R3, PC, R3 
    /*000000c8*/ ADD         SL, PC, SL 
    /*000000cc*/ ADD         R9, PC, R9 
    /*000000d0*/ STR         R3, [SP, #20] 
    /*000000d4*/ B           _ZN4hirt16TaskGroupManager14computeNnieSegEPNS_11NnieSegTaskEj_xec
    _ZN4hirt16TaskGroupManager14computeNnieSegEPNS_11NnieSegTaskEj_xd8:
    /*000000d8*/ LDR         R3, [FP, #96]               @ 0x60 
    /*000000dc*/ ADD         R5, R5, #1 
    /*000000e0*/ ADD         R6, R6, #48                 @ 0x30 
    /*000000e4*/ CMP         R3, R5 
    /*000000e8*/ BLS         _ZN4hirt16TaskGroupManager14computeNnieSegEPNS_11NnieSegTaskEj_x400
    _ZN4hirt16TaskGroupManager14computeNnieSegEPNS_11NnieSegTaskEj_xec:
    /*000000ec*/ LDR         R2, [FP, #304]              @ 0x130 
    /*000000f0*/ MOV         R0, R7 
    /*000000f4*/ LDR         R3, [FP, #100]              @ 0x64 
    /*000000f8*/ CMP         R2, #0 
    /*000000fc*/ ADDEQ       R3, R3, R6 
    /*00000100*/ ADDNE       R3, R3, R6 
    /*00000104*/ LDREQ       R2, [R3, #24] 
    /*00000108*/ LDR         IP, [R3, #4] 
    /*0000010c*/ LDR         R1, [R3, #36]               @ 0x24 
    /*00000110*/ VLDR        D16, [R3, #8] 
    /*00000114*/ VLDR        D17, [R3, #16] 
    /*00000118*/ LDRNE       R2, [R2, #24] 
    /*0000011c*/ MUL         R1, R1, IP 
    /*00000120*/ STRNE       R2, [R3, #24] 
    /*00000124*/ VEXT.8      Q8, Q8, Q8, #8 
    /*00000128*/ LDR         R3, [R3, #40]               @ 0x28 
    /*0000012c*/ MUL         R2, R2, R1 
    /*00000130*/ VSTR        D16, [SP, #80]              @ 0x50 
    /*00000134*/ VSTR        D17, [SP, #88]              @ 0x58 
    /*00000138*/ MUL         R2, R3, R2 
    /*0000013c*/ STR         R2, [SP, #96]               @ 0x60 
    /*00000140*/ BL          HIRT_Utils_FlushCache
    /*00000144*/ CMP         R0, #0 
    /*00000148*/ BEQ         _ZN4hirt16TaskGroupManager14computeNnieSegEPNS_11NnieSegTaskEj_xd8
    /*0000014c*/ STR         R0, [SP] 
    /*00000150*/ MOV         R3, SL 
    /*00000154*/ LDR         R0, [SP, #20] 
    /*00000158*/ MOV         R2, R9 
    /*0000015c*/ MOV         R1, #4 
    /*00000160*/ BL          _Z15HIRT_LOG_PrintfPKc19tagHIRT_LOG_LEVEL_ES0_z
    /*00000164*/ B           _ZN4hirt16TaskGroupManager14computeNnieSegEPNS_11NnieSegTaskEj_xd8
    _ZN4hirt16TaskGroupManager14computeNnieSegEPNS_11NnieSegTaskEj_x168:
    /*00000168*/ LDR         R3, [FP, #436]              @ 0x1b4 
    /*0000016c*/ CMP         R3, #0 
    /*00000170*/ BEQ         _ZN4hirt16TaskGroupManager14computeNnieSegEPNS_11NnieSegTaskEj_xb44
    /*00000174*/ STR         SL, [SP, #20] 
    /*00000178*/ MOV         R7, SL 
    /*0000017c*/ ADD         R9, FP, #372                @ 0x174 
    /*00000180*/ ADD         R2, SP, #72                 @ 0x48 
    /*00000184*/ STR         R2, [SP, #36]               @ 0x24 
    _ZN4hirt16TaskGroupManager14computeNnieSegEPNS_11NnieSegTaskEj_x188:
    /*00000188*/ LDR         R1, [R9] 
    /*0000018c*/ CMP         R1, #0 
    /*00000190*/ BEQ         _ZN4hirt16TaskGroupManager14computeNnieSegEPNS_11NnieSegTaskEj_x36c
    /*00000194*/ LDR         R3, [FP, #88]               @ 0x58 
    /*00000198*/ STR         R7, [R1, #24] 
    /*0000019c*/ LDR         R6, [R3, #28] 
    /*000001a0*/ LDR         R3, [R6, #128]              @ 0x80 
    /*000001a4*/ ADD         R8, R6, #124                @ 0x7c 
    /*000001a8*/ MOV         R4, R8 
    /*000001ac*/ CMP         R3, #0 
    /*000001b0*/ BEQ         _ZN4hirt16TaskGroupManager14computeNnieSegEPNS_11NnieSegTaskEj_x1e4
    _ZN4hirt16TaskGroupManager14computeNnieSegEPNS_11NnieSegTaskEj_x1b4:
    /*000001b4*/ LDR         R2, [R3, #16] 
    /*000001b8*/ CMP         R1, R2 
    /*000001bc*/ MOVLS       R4, R3 
    /*000001c0*/ LDRHI       R3, [R3, #12] 
    /*000001c4*/ LDRLS       R3, [R3, #8] 
    /*000001c8*/ CMP         R3, #0 
    /*000001cc*/ BNE         _ZN4hirt16TaskGroupManager14computeNnieSegEPNS_11NnieSegTaskEj_x1b4
    /*000001d0*/ CMP         R8, R4 
    /*000001d4*/ BEQ         _ZN4hirt16TaskGroupManager14computeNnieSegEPNS_11NnieSegTaskEj_x1e4
    /*000001d8*/ LDR         R3, [R4, #16] 
    /*000001dc*/ CMP         R1, R3 
    /*000001e0*/ BCS         _ZN4hirt16TaskGroupManager14computeNnieSegEPNS_11NnieSegTaskEj_x274
    _ZN4hirt16TaskGroupManager14computeNnieSegEPNS_11NnieSegTaskEj_x1e4:
    /*000001e4*/ MOV         R0, #44                     @ 0x2c 
    /*000001e8*/ BL          _Znwj
    /*000001ec*/ LDR         SL, [R9] 
    /*000001f0*/ MOV         R5, R0 
    /*000001f4*/ LDR         R0, [SP, #36]               @ 0x24 
    /*000001f8*/ ADD         R1, R5, #28 
    /*000001fc*/ STR         R1, [R5, #20] 
    /*00000200*/ MOV         R2, R4 
    /*00000204*/ STR         R7, [R5, #24] 
    /*00000208*/ ADD         R3, R5, #16 
    /*0000020c*/ STRB        R7, [R5, #28] 
    /*00000210*/ ADD         R1, R6, #120                @ 0x78 
    /*00000214*/ STR         SL, [R5, #16] 
    /*00000218*/ BL          _ZNSt8_Rb_treeIP16hiRUNTIME_BLOB_SSt4pairIKS1_NSt7__cxx1112basic_stringIcSt11char_traitsIcESaIcEEEESt10_Select1stISA_ESt4lessIS1_ESaISA_EE29_M_get_insert_hint_unique_posESt23_Rb_tree_const_iteratorISA_ERS3_
    /*0000021c*/ LDR         R2, [SP, #76]               @ 0x4c 
    /*00000220*/ LDR         R4, [SP, #72]               @ 0x48 
    /*00000224*/ CMP         R2, #0 
    /*00000228*/ BEQ         _ZN4hirt16TaskGroupManager14computeNnieSegEPNS_11NnieSegTaskEj_x3ec
    /*0000022c*/ ADDS        R4, R4, #0 
    /*00000230*/ MOVNE       R4, #1 
    /*00000234*/ CMP         R8, R2 
    /*00000238*/ MOVNE       R0, R4 
    /*0000023c*/ ORREQ       R0, R4, #1 
    /*00000240*/ CMP         R0, #0 
    /*00000244*/ BNE         _ZN4hirt16TaskGroupManager14computeNnieSegEPNS_11NnieSegTaskEj_x258
    /*00000248*/ LDR         R0, [R2, #16] 
    /*0000024c*/ CMP         SL, R0 
    /*00000250*/ MOVCS       R0, #0 
    /*00000254*/ MOVCC       R0, #1 
    _ZN4hirt16TaskGroupManager14computeNnieSegEPNS_11NnieSegTaskEj_x258:
    /*00000258*/ MOV         R3, R8 
    /*0000025c*/ MOV         R1, R5 
    /*00000260*/ MOV         R4, R5 
    /*00000264*/ BL          _ZSt29_Rb_tree_insert_and_rebalancebPSt18_Rb_tree_node_baseS0_RS_
    /*00000268*/ LDR         R3, [R6, #140]              @ 0x8c 
    /*0000026c*/ ADD         R3, R3, #1 
    /*00000270*/ STR         R3, [R6, #140]              @ 0x8c 
    _ZN4hirt16TaskGroupManager14computeNnieSegEPNS_11NnieSegTaskEj_x274:
    /*00000274*/ ADD         R3, SP, #108                @ 0x6c 
    /*00000278*/ ADD         R1, R4, #20 
    /*0000027c*/ STR         R3, [SP, #24] 
    /*00000280*/ MOV         R0, R3 
    /*00000284*/ BL          _ZNSt7__cxx1112basic_stringIcSt11char_traitsIcESaIcEE9_M_assignERKS4_
    /*00000288*/ LDR         R3, [FP, #88]               @ 0x58 
    /*0000028c*/ LDR         R3, [R3, #28] 
    /*00000290*/ LDR         R4, [R3, #104]              @ 0x68 
    /*00000294*/ STR         R3, [SP, #32] 
    /*00000298*/ ADD         R3, R3, #100                @ 0x64 
    /*0000029c*/ STR         R3, [SP, #28] 
    /*000002a0*/ CMP         R4, #0 
    /*000002a4*/ BEQ         _ZN4hirt16TaskGroupManager14computeNnieSegEPNS_11NnieSegTaskEj_x3f8
    /*000002a8*/ LDR         R6, [SP, #112]              @ 0x70 
    /*000002ac*/ MOV         SL, R3 
    /*000002b0*/ LDR         R8, [SP, #108]              @ 0x6c 
    /*000002b4*/ B           _ZN4hirt16TaskGroupManager14computeNnieSegEPNS_11NnieSegTaskEj_x2e4
    _ZN4hirt16TaskGroupManager14computeNnieSegEPNS_11NnieSegTaskEj_x2b8:
    /*000002b8*/ LDR         R0, [R4, #16] 
    /*000002bc*/ MOV         R1, R8 
    /*000002c0*/ BL          memcmp
    /*000002c4*/ CMP         R0, #0 
    /*000002c8*/ BEQ         _ZN4hirt16TaskGroupManager14computeNnieSegEPNS_11NnieSegTaskEj_x2fc
    _ZN4hirt16TaskGroupManager14computeNnieSegEPNS_11NnieSegTaskEj_x2cc:
    /*000002cc*/ CMP         R0, #0 
    /*000002d0*/ MOVGE       SL, R4 
    /*000002d4*/ LDRLT       R4, [R4, #12] 
    /*000002d8*/ LDRGE       R4, [R4, #8] 
    /*000002dc*/ CMP         R4, #0 
    /*000002e0*/ BEQ         _ZN4hirt16TaskGroupManager14computeNnieSegEPNS_11NnieSegTaskEj_x304
    _ZN4hirt16TaskGroupManager14computeNnieSegEPNS_11NnieSegTaskEj_x2e4:
    /*000002e4*/ LDR         R5, [R4, #20] 
    /*000002e8*/ CMP         R5, R6 
    /*000002ec*/ MOVCC       R2, R5 
    /*000002f0*/ MOVCS       R2, R6 
    /*000002f4*/ CMP         R2, #0 
    /*000002f8*/ BNE         _ZN4hirt16TaskGroupManager14computeNnieSegEPNS_11NnieSegTaskEj_x2b8
    _ZN4hirt16TaskGroupManager14computeNnieSegEPNS_11NnieSegTaskEj_x2fc:
    /*000002fc*/ SUB         R0, R5, R6 
    /*00000300*/ B           _ZN4hirt16TaskGroupManager14computeNnieSegEPNS_11NnieSegTaskEj_x2cc
    _ZN4hirt16TaskGroupManager14computeNnieSegEPNS_11NnieSegTaskEj_x304:
    /*00000304*/ LDR         R3, [SP, #28] 
    /*00000308*/ CMP         R3, SL 
    /*0000030c*/ BEQ         _ZN4hirt16TaskGroupManager14computeNnieSegEPNS_11NnieSegTaskEj_x3cc
    /*00000310*/ LDR         R4, [SL, #20] 
    /*00000314*/ CMP         R4, R6 
    /*00000318*/ MOVCC       R2, R4 
    /*0000031c*/ MOVCS       R2, R6 
    /*00000320*/ CMP         R2, #0 
    /*00000324*/ BEQ         _ZN4hirt16TaskGroupManager14computeNnieSegEPNS_11NnieSegTaskEj_x3c0
    /*00000328*/ LDR         R1, [SL, #16] 
    /*0000032c*/ MOV         R0, R8 
    /*00000330*/ BL          memcmp
    /*00000334*/ CMP         R0, #0 
    /*00000338*/ BEQ         _ZN4hirt16TaskGroupManager14computeNnieSegEPNS_11NnieSegTaskEj_x3c0
    /*0000033c*/ CMP         R0, #0 
    /*00000340*/ BLT         _ZN4hirt16TaskGroupManager14computeNnieSegEPNS_11NnieSegTaskEj_x3cc
    _ZN4hirt16TaskGroupManager14computeNnieSegEPNS_11NnieSegTaskEj_x344:
    /*00000344*/ MOV         R0, SL 
    _ZN4hirt16TaskGroupManager14computeNnieSegEPNS_11NnieSegTaskEj_x348:
    /*00000348*/ LDR         R2, [R0, #40]!              @ 0x28 
    /*0000034c*/ CMP         R2, R0 
    /*00000350*/ BEQ         _ZN4hirt16TaskGroupManager14computeNnieSegEPNS_11NnieSegTaskEj_x368
    _ZN4hirt16TaskGroupManager14computeNnieSegEPNS_11NnieSegTaskEj_x354:
    /*00000354*/ LDR         R3, [R2, #8] 
    /*00000358*/ LDR         R2, [R2] 
    /*0000035c*/ STR         R7, [R3, #24] 
    /*00000360*/ CMP         R2, R0 
    /*00000364*/ BNE         _ZN4hirt16TaskGroupManager14computeNnieSegEPNS_11NnieSegTaskEj_x354
    _ZN4hirt16TaskGroupManager14computeNnieSegEPNS_11NnieSegTaskEj_x368:
    /*00000368*/ LDR         R3, [FP, #436]              @ 0x1b4 
    _ZN4hirt16TaskGroupManager14computeNnieSegEPNS_11NnieSegTaskEj_x36c:
    /*0000036c*/ LDR         R2, [SP, #20] 
    /*00000370*/ ADD         R9, R9, #4 
    /*00000374*/ ADD         R2, R2, #1 
    /*00000378*/ CMP         R2, R3 
    /*0000037c*/ STR         R2, [SP, #20] 
    /*00000380*/ BCC         _ZN4hirt16TaskGroupManager14computeNnieSegEPNS_11NnieSegTaskEj_x188
    _ZN4hirt16TaskGroupManager14computeNnieSegEPNS_11NnieSegTaskEj_x384:
    /*00000384*/ MOV         R4, #0 
    _ZN4hirt16TaskGroupManager14computeNnieSegEPNS_11NnieSegTaskEj_x388:
    /*00000388*/ LDR         R0, [SP, #108]              @ 0x6c 
    /*0000038c*/ LDR         R3, [SP, #40]               @ 0x28 
    /*00000390*/ CMP         R0, R3 
    /*00000394*/ BEQ         _ZN4hirt16TaskGroupManager14computeNnieSegEPNS_11NnieSegTaskEj_x39c
    /*00000398*/ BL          _ZdlPv
    _ZN4hirt16TaskGroupManager14computeNnieSegEPNS_11NnieSegTaskEj_x39c:
    /*0000039c*/ LDR         R3, [SP, #44]               @ 0x2c 
    /*000003a0*/ MOV         R0, R4 
    /*000003a4*/ LDR         R2, [SP, #132]              @ 0x84 
    /*000003a8*/ LDR         R3, [R3] 
    /*000003ac*/ CMP         R2, R3 
    /*000003b0*/ BNE         _ZN4hirt16TaskGroupManager14computeNnieSegEPNS_11NnieSegTaskEj_xb4c
    /*000003b4*/ ADD         SP, SP, #140                @ 0x8c 
    /*000003b8*/ VPOP        {D8} 
    /*000003bc*/ POP         {R4, R5, R6, R7, R8, R9, SL, FP, PC} 
    _ZN4hirt16TaskGroupManager14computeNnieSegEPNS_11NnieSegTaskEj_x3c0:
    /*000003c0*/ SUB         R0, R6, R4 
    /*000003c4*/ CMP         R0, #0 
    /*000003c8*/ BGE         _ZN4hirt16TaskGroupManager14computeNnieSegEPNS_11NnieSegTaskEj_x344
    _ZN4hirt16TaskGroupManager14computeNnieSegEPNS_11NnieSegTaskEj_x3cc:
    /*000003cc*/ LDR         R3, [SP, #24] 
    /*000003d0*/ ADD         R2, SP, #136                @ 0x88 
    /*000003d4*/ MOV         R1, SL 
    /*000003d8*/ STR         R3, [R2, #-80]!             @ 0xffffffb0 
    /*000003dc*/ LDR         R3, [SP, #32] 
    /*000003e0*/ ADD         R0, R3, #96                 @ 0x60 
    /*000003e4*/ BL          _ZNSt8_Rb_treeINSt7__cxx1112basic_stringIcSt11char_traitsIcESaIcEEESt4pairIKS5_NS0_4listIP16hiRUNTIME_BLOB_SSaISA_EEEESt10_Select1stISD_ESt4lessIS5_ESaISD_EE22_M_emplace_hint_uniqueIJRKSt21piecewise_construct_tSt5tupleIJRS7_EESO_IJEEEEESt17_Rb_tree_iteratorISD_ESt23_Rb_tree_const_iteratorISD_EDpOT_.isra.266
    /*000003e8*/ B           _ZN4hirt16TaskGroupManager14computeNnieSegEPNS_11NnieSegTaskEj_x348
    _ZN4hirt16TaskGroupManager14computeNnieSegEPNS_11NnieSegTaskEj_x3ec:
    /*000003ec*/ MOV         R0, R5 
    /*000003f0*/ BL          _ZdlPv
    /*000003f4*/ B           _ZN4hirt16TaskGroupManager14computeNnieSegEPNS_11NnieSegTaskEj_x274
    _ZN4hirt16TaskGroupManager14computeNnieSegEPNS_11NnieSegTaskEj_x3f8:
    /*000003f8*/ MOV         SL, R3 
    /*000003fc*/ B           _ZN4hirt16TaskGroupManager14computeNnieSegEPNS_11NnieSegTaskEj_x3cc
    _ZN4hirt16TaskGroupManager14computeNnieSegEPNS_11NnieSegTaskEj_x400:
    /*00000400*/ LDR         R2, [FP, #440]              @ 0x1b8 
    /*00000404*/ CMP         R2, #0 
    /*00000408*/ BNE         _ZN4hirt16TaskGroupManager14computeNnieSegEPNS_11NnieSegTaskEj_x9f8
    /*0000040c*/ LDR         R1, [FP, #304]              @ 0x130 
    /*00000410*/ CMP         R1, #0 
    /*00000414*/ BEQ         _ZN4hirt16TaskGroupManager14computeNnieSegEPNS_11NnieSegTaskEj_xb28
    /*00000418*/ LDR         R0, [FP, #112]              @ 0x70 
    /*0000041c*/ STR         R4, [FP, #140]              @ 0x8c 
    /*00000420*/ LDR         R3, [FP, #116]              @ 0x74 
    /*00000424*/ CMP         R0, #0 
    /*00000428*/ BEQ         _ZN4hirt16TaskGroupManager14computeNnieSegEPNS_11NnieSegTaskEj_x448
    /*0000042c*/ LDR         IP, [R1, #24] 
    /*00000430*/ MOV         R1, R3 
    _ZN4hirt16TaskGroupManager14computeNnieSegEPNS_11NnieSegTaskEj_x434:
    /*00000434*/ STR         IP, [R1, #24] 
    /*00000438*/ ADD         R2, R2, #1 
    /*0000043c*/ CMP         R2, R0 
    /*00000440*/ ADD         R1, R1, #48                 @ 0x30 
    /*00000444*/ BNE         _ZN4hirt16TaskGroupManager14computeNnieSegEPNS_11NnieSegTaskEj_x434
    _ZN4hirt16TaskGroupManager14computeNnieSegEPNS_11NnieSegTaskEj_x448:
    /*00000448*/ LDR         IP, [FP, #300]              @ 0x12c 
    /*0000044c*/ ADD         R0, FP, #128                @ 0x80 
    /*00000450*/ LDR         R2, [FP, #120]              @ 0x78 
    /*00000454*/ LDR         R1, [FP, #100]              @ 0x64 
    /*00000458*/ STM         SP, {R0, IP} 
    /*0000045c*/ ADD         R0, SP, #48                 @ 0x30 
    /*00000460*/ BL          HI_MPI_SVP_NNIE_Forward
    /*00000464*/ SUBS        R3, R0, #0 
    /*00000468*/ BNE         _ZN4hirt16TaskGroupManager14computeNnieSegEPNS_11NnieSegTaskEj_xb0c
    _ZN4hirt16TaskGroupManager14computeNnieSegEPNS_11NnieSegTaskEj_x46c:
    /*0000046c*/ LDR         R1, [SP, #48]               @ 0x30 
    /*00000470*/ ADD         R6, SP, #136                @ 0x88 
    /*00000474*/ MOV         R2, #0 
    /*00000478*/ MOV         R3, #1 
    /*0000047c*/ STR         R2, [R6, #-84]!             @ 0xffffffac 
    /*00000480*/ MOV         R0, R4 
    /*00000484*/ MOV         R2, R6 
    /*00000488*/ BL          HI_MPI_SVP_NNIE_Query
    /*0000048c*/ CMP         R0, #0 
    /*00000490*/ BNE         _ZN4hirt16TaskGroupManager14computeNnieSegEPNS_11NnieSegTaskEj_xaf0
    /*00000494*/ VLDR        D8, [PC, #980]              @ 0x0000000000000870 
    /*00000498*/ ADD         R5, SP, #64                 @ 0x40 
    /*0000049c*/ B           _ZN4hirt16TaskGroupManager14computeNnieSegEPNS_11NnieSegTaskEj_x4bc
    _ZN4hirt16TaskGroupManager14computeNnieSegEPNS_11NnieSegTaskEj_x4a0:
    /*000004a0*/ LDR         R1, [SP, #48]               @ 0x30 
    /*000004a4*/ MOV         R3, #1 
    /*000004a8*/ MOV         R2, R6 
    /*000004ac*/ MOV         R0, R4 
    /*000004b0*/ BL          HI_MPI_SVP_NNIE_Query
    /*000004b4*/ CMP         R0, #0 
    /*000004b8*/ BNE         _ZN4hirt16TaskGroupManager14computeNnieSegEPNS_11NnieSegTaskEj_xab8
    _ZN4hirt16TaskGroupManager14computeNnieSegEPNS_11NnieSegTaskEj_x4bc:
    /*000004bc*/ LDR         R3, [SP, #52]               @ 0x34 
    /*000004c0*/ CMP         R3, #0 
    /*000004c4*/ BNE         _ZN4hirt16TaskGroupManager14computeNnieSegEPNS_11NnieSegTaskEj_x760
    /*000004c8*/ VSTR        D8, [SP, #64]               @ 0x40 
    _ZN4hirt16TaskGroupManager14computeNnieSegEPNS_11NnieSegTaskEj_x4cc:
    /*000004cc*/ MOV         R1, R5 
    /*000004d0*/ MOV         R0, R5 
    /*000004d4*/ BL          nanosleep
    /*000004d8*/ CMN         R0, #1 
    /*000004dc*/ BNE         _ZN4hirt16TaskGroupManager14computeNnieSegEPNS_11NnieSegTaskEj_x4a0
    /*000004e0*/ BL          __errno_location
    /*000004e4*/ LDR         R3, [R0] 
    /*000004e8*/ CMP         R3, #4 
    /*000004ec*/ BNE         _ZN4hirt16TaskGroupManager14computeNnieSegEPNS_11NnieSegTaskEj_x4a0
    /*000004f0*/ B           _ZN4hirt16TaskGroupManager14computeNnieSegEPNS_11NnieSegTaskEj_x4cc
    _ZN4hirt16TaskGroupManager14computeNnieSegEPNS_11NnieSegTaskEj_x4f4:
    /*000004f4*/ LDR         R3, [FP, #436]              @ 0x1b4 
    /*000004f8*/ STR         R6, [IP, #12] 
    /*000004fc*/ CMP         R3, #0 
    /*00000500*/ BEQ         _ZN4hirt16TaskGroupManager14computeNnieSegEPNS_11NnieSegTaskEj_xb44
    /*00000504*/ ADD         R2, FP, #372                @ 0x174 
    /*00000508*/ MOV         R4, R6 
    /*0000050c*/ STR         R2, [SP, #20] 
    /*00000510*/ ADD         R2, SP, #80                 @ 0x50 
    /*00000514*/ STR         R2, [SP, #36]               @ 0x24 
    /*00000518*/ LDR         R2, [SP, #20] 
    _ZN4hirt16TaskGroupManager14computeNnieSegEPNS_11NnieSegTaskEj_x51c:
    /*0000051c*/ LDR         R1, [R2] 
    /*00000520*/ CMP         R1, #0 
    /*00000524*/ BEQ         _ZN4hirt16TaskGroupManager14computeNnieSegEPNS_11NnieSegTaskEj_x708
    /*00000528*/ LDR         R3, [FP, #88]               @ 0x58 
    /*0000052c*/ STR         R4, [R1, #24] 
    /*00000530*/ LDR         R8, [R3, #28] 
    /*00000534*/ LDR         R3, [R8, #128]              @ 0x80 
    /*00000538*/ ADD         R9, R8, #124                @ 0x7c 
    /*0000053c*/ MOV         R5, R9 
    /*00000540*/ CMP         R3, #0 
    /*00000544*/ BEQ         _ZN4hirt16TaskGroupManager14computeNnieSegEPNS_11NnieSegTaskEj_x578
    _ZN4hirt16TaskGroupManager14computeNnieSegEPNS_11NnieSegTaskEj_x548:
    /*00000548*/ LDR         R2, [R3, #16] 
    /*0000054c*/ CMP         R1, R2 
    /*00000550*/ MOVLS       R5, R3 
    /*00000554*/ LDRHI       R3, [R3, #12] 
    /*00000558*/ LDRLS       R3, [R3, #8] 
    /*0000055c*/ CMP         R3, #0 
    /*00000560*/ BNE         _ZN4hirt16TaskGroupManager14computeNnieSegEPNS_11NnieSegTaskEj_x548
    /*00000564*/ CMP         R9, R5 
    /*00000568*/ BEQ         _ZN4hirt16TaskGroupManager14computeNnieSegEPNS_11NnieSegTaskEj_x578
    /*0000056c*/ LDR         R3, [R5, #16] 
    /*00000570*/ CMP         R1, R3 
    /*00000574*/ BCS         _ZN4hirt16TaskGroupManager14computeNnieSegEPNS_11NnieSegTaskEj_x60c
    _ZN4hirt16TaskGroupManager14computeNnieSegEPNS_11NnieSegTaskEj_x578:
    /*00000578*/ MOV         R0, #44                     @ 0x2c 
    /*0000057c*/ BL          _Znwj
    /*00000580*/ LDR         R3, [SP, #20] 
    /*00000584*/ MOV         R7, R0 
    /*00000588*/ LDR         R0, [SP, #36]               @ 0x24 
    /*0000058c*/ ADD         R1, R7, #28 
    /*00000590*/ LDR         SL, [R3] 
    /*00000594*/ MOV         R2, R5 
    /*00000598*/ STR         R1, [R7, #20] 
    /*0000059c*/ ADD         R3, R7, #16 
    /*000005a0*/ STR         R4, [R7, #24] 
    /*000005a4*/ ADD         R1, R8, #120                @ 0x78 
    /*000005a8*/ STRB        R4, [R7, #28] 
    /*000005ac*/ STR         SL, [R7, #16] 
    /*000005b0*/ BL          _ZNSt8_Rb_treeIP16hiRUNTIME_BLOB_SSt4pairIKS1_NSt7__cxx1112basic_stringIcSt11char_traitsIcESaIcEEEESt10_Select1stISA_ESt4lessIS1_ESaISA_EE29_M_get_insert_hint_unique_posESt23_Rb_tree_const_iteratorISA_ERS3_
    /*000005b4*/ LDR         R2, [SP, #84]               @ 0x54 
    /*000005b8*/ LDR         R5, [SP, #80]               @ 0x50 
    /*000005bc*/ CMP         R2, #0 
    /*000005c0*/ BEQ         _ZN4hirt16TaskGroupManager14computeNnieSegEPNS_11NnieSegTaskEj_x74c
    /*000005c4*/ SUB         R0, R9, R2 
    /*000005c8*/ CLZ         R0, R0 
    /*000005cc*/ LSR         R0, R0, #5 
    /*000005d0*/ CMP         R5, #0 
    /*000005d4*/ ORRNE       R0, R0, #1 
    /*000005d8*/ CMP         R0, #0 
    /*000005dc*/ BNE         _ZN4hirt16TaskGroupManager14computeNnieSegEPNS_11NnieSegTaskEj_x5f0
    /*000005e0*/ LDR         R0, [R2, #16] 
    /*000005e4*/ CMP         SL, R0 
    /*000005e8*/ MOVCS       R0, #0 
    /*000005ec*/ MOVCC       R0, #1 
    _ZN4hirt16TaskGroupManager14computeNnieSegEPNS_11NnieSegTaskEj_x5f0:
    /*000005f0*/ MOV         R3, R9 
    /*000005f4*/ MOV         R1, R7 
    /*000005f8*/ MOV         R5, R7 
    /*000005fc*/ BL          _ZSt29_Rb_tree_insert_and_rebalancebPSt18_Rb_tree_node_baseS0_RS_
    /*00000600*/ LDR         R3, [R8, #140]              @ 0x8c 
    /*00000604*/ ADD         R3, R3, #1 
    /*00000608*/ STR         R3, [R8, #140]              @ 0x8c 
    _ZN4hirt16TaskGroupManager14computeNnieSegEPNS_11NnieSegTaskEj_x60c:
    /*0000060c*/ ADD         R3, SP, #108                @ 0x6c 
    /*00000610*/ ADD         R1, R5, #20 
    /*00000614*/ STR         R3, [SP, #24] 
    /*00000618*/ MOV         R0, R3 
    /*0000061c*/ BL          _ZNSt7__cxx1112basic_stringIcSt11char_traitsIcESaIcEE9_M_assignERKS4_
    /*00000620*/ LDR         R3, [FP, #88]               @ 0x58 
    /*00000624*/ LDR         R3, [R3, #28] 
    /*00000628*/ LDR         R5, [R3, #104]              @ 0x68 
    /*0000062c*/ STR         R3, [SP, #32] 
    /*00000630*/ ADD         R3, R3, #100                @ 0x64 
    /*00000634*/ STR         R3, [SP, #28] 
    /*00000638*/ CMP         R5, #0 
    /*0000063c*/ BEQ         _ZN4hirt16TaskGroupManager14computeNnieSegEPNS_11NnieSegTaskEj_x758
    /*00000640*/ LDR         R8, [SP, #112]              @ 0x70 
    /*00000644*/ MOV         SL, R3 
    /*00000648*/ LDR         R9, [SP, #108]              @ 0x6c 
    /*0000064c*/ B           _ZN4hirt16TaskGroupManager14computeNnieSegEPNS_11NnieSegTaskEj_x67c
    _ZN4hirt16TaskGroupManager14computeNnieSegEPNS_11NnieSegTaskEj_x650:
    /*00000650*/ LDR         R0, [R5, #16] 
    /*00000654*/ MOV         R1, R9 
    /*00000658*/ BL          memcmp
    /*0000065c*/ CMP         R0, #0 
    /*00000660*/ BEQ         _ZN4hirt16TaskGroupManager14computeNnieSegEPNS_11NnieSegTaskEj_x694
    _ZN4hirt16TaskGroupManager14computeNnieSegEPNS_11NnieSegTaskEj_x664:
    /*00000664*/ CMP         R0, #0 
    /*00000668*/ MOVGE       SL, R5 
    /*0000066c*/ LDRLT       R5, [R5, #12] 
    /*00000670*/ LDRGE       R5, [R5, #8] 
    /*00000674*/ CMP         R5, #0 
    /*00000678*/ BEQ         _ZN4hirt16TaskGroupManager14computeNnieSegEPNS_11NnieSegTaskEj_x69c
    _ZN4hirt16TaskGroupManager14computeNnieSegEPNS_11NnieSegTaskEj_x67c:
    /*0000067c*/ LDR         R7, [R5, #20] 
    /*00000680*/ CMP         R7, R8 
    /*00000684*/ MOVCC       R2, R7 
    /*00000688*/ MOVCS       R2, R8 
    /*0000068c*/ CMP         R2, #0 
    /*00000690*/ BNE         _ZN4hirt16TaskGroupManager14computeNnieSegEPNS_11NnieSegTaskEj_x650
    _ZN4hirt16TaskGroupManager14computeNnieSegEPNS_11NnieSegTaskEj_x694:
    /*00000694*/ SUB         R0, R7, R8 
    /*00000698*/ B           _ZN4hirt16TaskGroupManager14computeNnieSegEPNS_11NnieSegTaskEj_x664
    _ZN4hirt16TaskGroupManager14computeNnieSegEPNS_11NnieSegTaskEj_x69c:
    /*0000069c*/ LDR         R3, [SP, #28] 
    /*000006a0*/ CMP         SL, R3 
    /*000006a4*/ BEQ         _ZN4hirt16TaskGroupManager14computeNnieSegEPNS_11NnieSegTaskEj_x72c
    /*000006a8*/ LDR         R5, [SL, #20] 
    /*000006ac*/ CMP         R5, R8 
    /*000006b0*/ MOVCC       R2, R5 
    /*000006b4*/ MOVCS       R2, R8 
    /*000006b8*/ CMP         R2, #0 
    /*000006bc*/ BEQ         _ZN4hirt16TaskGroupManager14computeNnieSegEPNS_11NnieSegTaskEj_x720
    /*000006c0*/ LDR         R1, [SL, #16] 
    /*000006c4*/ MOV         R0, R9 
    /*000006c8*/ BL          memcmp
    /*000006cc*/ CMP         R0, #0 
    /*000006d0*/ BEQ         _ZN4hirt16TaskGroupManager14computeNnieSegEPNS_11NnieSegTaskEj_x720
    /*000006d4*/ CMP         R0, #0 
    /*000006d8*/ BLT         _ZN4hirt16TaskGroupManager14computeNnieSegEPNS_11NnieSegTaskEj_x72c
    _ZN4hirt16TaskGroupManager14computeNnieSegEPNS_11NnieSegTaskEj_x6dc:
    /*000006dc*/ MOV         R0, SL 
    _ZN4hirt16TaskGroupManager14computeNnieSegEPNS_11NnieSegTaskEj_x6e0:
    /*000006e0*/ LDR         R3, [R0, #40]!              @ 0x28 
    /*000006e4*/ CMP         R3, R0 
    /*000006e8*/ BEQ         _ZN4hirt16TaskGroupManager14computeNnieSegEPNS_11NnieSegTaskEj_x700
    _ZN4hirt16TaskGroupManager14computeNnieSegEPNS_11NnieSegTaskEj_x6ec:
    /*000006ec*/ LDR         R2, [R3, #8] 
    /*000006f0*/ LDR         R3, [R3] 
    /*000006f4*/ STR         R4, [R2, #24] 
    /*000006f8*/ CMP         R3, R0 
    /*000006fc*/ BNE         _ZN4hirt16TaskGroupManager14computeNnieSegEPNS_11NnieSegTaskEj_x6ec
    _ZN4hirt16TaskGroupManager14computeNnieSegEPNS_11NnieSegTaskEj_x700:
    /*00000700*/ LDR         R3, [FP, #436]              @ 0x1b4 
    /*00000704*/ LDR         R2, [SP, #20] 
    _ZN4hirt16TaskGroupManager14computeNnieSegEPNS_11NnieSegTaskEj_x708:
    /*00000708*/ ADD         R6, R6, #1 
    /*0000070c*/ ADD         R2, R2, #4 
    /*00000710*/ CMP         R6, R3 
    /*00000714*/ STR         R2, [SP, #20] 
    /*00000718*/ BCC         _ZN4hirt16TaskGroupManager14computeNnieSegEPNS_11NnieSegTaskEj_x51c
    /*0000071c*/ B           _ZN4hirt16TaskGroupManager14computeNnieSegEPNS_11NnieSegTaskEj_x384
    _ZN4hirt16TaskGroupManager14computeNnieSegEPNS_11NnieSegTaskEj_x720:
    /*00000720*/ SUB         R0, R8, R5 
    /*00000724*/ CMP         R0, #0 
    /*00000728*/ BGE         _ZN4hirt16TaskGroupManager14computeNnieSegEPNS_11NnieSegTaskEj_x6dc
    _ZN4hirt16TaskGroupManager14computeNnieSegEPNS_11NnieSegTaskEj_x72c:
    /*0000072c*/ LDR         R3, [SP, #24] 
    /*00000730*/ ADD         R2, SP, #136                @ 0x88 
    /*00000734*/ MOV         R1, SL 
    /*00000738*/ STR         R3, [R2, #-76]!             @ 0xffffffb4 
    /*0000073c*/ LDR         R3, [SP, #32] 
    /*00000740*/ ADD         R0, R3, #96                 @ 0x60 
    /*00000744*/ BL          _ZNSt8_Rb_treeINSt7__cxx1112basic_stringIcSt11char_traitsIcESaIcEEESt4pairIKS5_NS0_4listIP16hiRUNTIME_BLOB_SSaISA_EEEESt10_Select1stISD_ESt4lessIS5_ESaISD_EE22_M_emplace_hint_uniqueIJRKSt21piecewise_construct_tSt5tupleIJRS7_EESO_IJEEEEESt17_Rb_tree_iteratorISD_ESt23_Rb_tree_const_iteratorISD_EDpOT_.isra.266
    /*00000748*/ B           _ZN4hirt16TaskGroupManager14computeNnieSegEPNS_11NnieSegTaskEj_x6e0
    _ZN4hirt16TaskGroupManager14computeNnieSegEPNS_11NnieSegTaskEj_x74c:
    /*0000074c*/ MOV         R0, R7 
    /*00000750*/ BL          _ZdlPv
    /*00000754*/ B           _ZN4hirt16TaskGroupManager14computeNnieSegEPNS_11NnieSegTaskEj_x60c
    _ZN4hirt16TaskGroupManager14computeNnieSegEPNS_11NnieSegTaskEj_x758:
    /*00000758*/ MOV         SL, R3 
    /*0000075c*/ B           _ZN4hirt16TaskGroupManager14computeNnieSegEPNS_11NnieSegTaskEj_x72c
    _ZN4hirt16TaskGroupManager14computeNnieSegEPNS_11NnieSegTaskEj_x760:
    /*00000760*/ LDR         R3, [FP, #112]              @ 0x70 
    /*00000764*/ CMP         R3, #0 
    /*00000768*/ BEQ         _ZN4hirt16TaskGroupManager14computeNnieSegEPNS_11NnieSegTaskEj_x80c
    /*0000076c*/ LDR         R5, WORD_088c               @ LDR         R5, [PC, #280]              @ 0x000000000000088c 
    /*00000770*/ MOV         R4, #0 
    /*00000774*/ LDR         R6, WORD_0890               @ LDR         R6, [PC, #276]              @ 0x0000000000000890 
    /*00000778*/ ADD         R7, SP, #80                 @ 0x50 
    /*0000077c*/ LDR         R9, WORD_0894               @ LDR         R9, [PC, #272]              @ 0x0000000000000894 
    /*00000780*/ ADD         R5, PC, R5 
    /*00000784*/ ADD         R6, PC, R6 
    /*00000788*/ ADD         R9, PC, R9 
    /*0000078c*/ B           _ZN4hirt16TaskGroupManager14computeNnieSegEPNS_11NnieSegTaskEj_x7a0
    _ZN4hirt16TaskGroupManager14computeNnieSegEPNS_11NnieSegTaskEj_x790:
    /*00000790*/ LDR         R3, [FP, #112]              @ 0x70 
    /*00000794*/ ADD         R4, R4, #1 
    /*00000798*/ CMP         R3, R4 
    /*0000079c*/ BLS         _ZN4hirt16TaskGroupManager14computeNnieSegEPNS_11NnieSegTaskEj_x80c
    _ZN4hirt16TaskGroupManager14computeNnieSegEPNS_11NnieSegTaskEj_x7a0:
    /*000007a0*/ LDR         R2, [FP, #116]              @ 0x74 
    /*000007a4*/ MOV         R3, #48                     @ 0x30 
    /*000007a8*/ MOV         R0, R7 
    /*000007ac*/ MLA         R3, R3, R4, R2 
    /*000007b0*/ LDR         R2, [R3, #24] 
    /*000007b4*/ LDR         R1, [R3, #4] 
    /*000007b8*/ VLDR        D16, [R3, #8] 
    /*000007bc*/ VLDR        D17, [R3, #16] 
    /*000007c0*/ MUL         R1, R2, R1 
    /*000007c4*/ LDR         R2, [R3, #36]               @ 0x24 
    /*000007c8*/ VEXT.8      Q8, Q8, Q8, #8 
    /*000007cc*/ LDR         R3, [R3, #40]               @ 0x28 
    /*000007d0*/ MUL         R2, R2, R1 
    /*000007d4*/ VSTR        D16, [SP, #80]              @ 0x50 
    /*000007d8*/ VSTR        D17, [SP, #88]              @ 0x58 
    /*000007dc*/ MUL         R3, R3, R2 
    /*000007e0*/ STR         R3, [SP, #96]               @ 0x60 
    /*000007e4*/ BL          HIRT_Utils_FlushCache
    /*000007e8*/ CMP         R0, #0 
    /*000007ec*/ BEQ         _ZN4hirt16TaskGroupManager14computeNnieSegEPNS_11NnieSegTaskEj_x790
    /*000007f0*/ STR         R0, [SP] 
    /*000007f4*/ MOV         R3, R5 
    /*000007f8*/ MOV         R2, R6 
    /*000007fc*/ MOV         R1, #4 
    /*00000800*/ MOV         R0, R9 
    /*00000804*/ BL          _Z15HIRT_LOG_PrintfPKc19tagHIRT_LOG_LEVEL_ES0_z
    /*00000808*/ B           _ZN4hirt16TaskGroupManager14computeNnieSegEPNS_11NnieSegTaskEj_x790
    _ZN4hirt16TaskGroupManager14computeNnieSegEPNS_11NnieSegTaskEj_x80c:
    /*0000080c*/ LDR         R3, [FP, #268]              @ 0x10c 
    /*00000810*/ LDR         R4, [R3, #16] 
    /*00000814*/ LDR         R7, [R3, #20] 
    /*00000818*/ CMP         R4, R7 
    /*0000081c*/ BEQ         _ZN4hirt16TaskGroupManager14computeNnieSegEPNS_11NnieSegTaskEj_x384
    /*00000820*/ LDR         R0, [R4] 
    /*00000824*/ CMP         R0, #0 
    /*00000828*/ BEQ         _ZN4hirt16TaskGroupManager14computeNnieSegEPNS_11NnieSegTaskEj_x9d8
    /*0000082c*/ LDR         R3, WORD_0898               @ LDR         R3, [PC, #100]              @ 0x0000000000000898 
    /*00000830*/ MOV         R1, #0 
    /*00000834*/ LDR         R2, WORD_089c               @ LDR         R2, [PC, #96]               @ 0x000000000000089c 
    /*00000838*/ ADD         R4, R4, #4 
    /*0000083c*/ STR         R1, [SP, #20] 
    /*00000840*/ LDR         R9, [R8, R2] 
    /*00000844*/ LDR         R8, [R8, R3] 
    /*00000848*/ LDR         R3, WORD_08a0               @ LDR         R3, [PC, #80]               @ 0x00000000000008a0 
    /*0000084c*/ LDR         SL, WORD_08a4               @ LDR         SL, [PC, #80]               @ 0x00000000000008a4 
    /*00000850*/ ADD         R3, PC, R3 
    /*00000854*/ STR         R3, [SP, #24] 
    /*00000858*/ LDR         R3, WORD_08a8               @ LDR         R3, [PC, #72]               @ 0x00000000000008a8 
    /*0000085c*/ ADD         SL, PC, SL 
    /*00000860*/ ADD         R3, PC, R3 
    /*00000864*/ STR         R3, [SP, #28] 
    /*00000868*/ B           _ZN4hirt16TaskGroupManager14computeNnieSegEPNS_11NnieSegTaskEj_x914
    /*0000086c*/ NOP         {0} 
    /*00000870*/ ANDEQ       R0, R0, R0 
    /*00000874*/ ANDEQ       IP, R0, R0, ASR R3 
    /*00000878*/ WORD_0878: .word 0x0000084c
    /*0000087c*/ WORD_087c: .word 0x00000000
    /*00000880*/ WORD_0880: .word 0x000007b4
    /*00000884*/ WORD_0884: .word 0x000007b4
    /*00000888*/ WORD_0888: .word 0x000007b4
    /*0000088c*/ WORD_088c: .word 0x00000104
    /*00000890*/ WORD_0890: .word 0x00000104
    /*00000894*/ WORD_0894: .word 0x00000104
    /*00000898*/ WORD_0898: .word 0x00000000
    /*0000089c*/ WORD_089c: .word 0x00000000
    /*000008a0*/ WORD_08a0: .word 0x00000048
    /*000008a4*/ WORD_08a4: .word 0x00000040
    /*000008a8*/ WORD_08a8: .word 0x00000040
    /*000008ac*/ WORD_08ac: .word 0xfffffec0
    /*000008b0*/ WORD_08b0: .word 0xfffffec0
    /*000008b4*/ WORD_08b4: .word 0xfffffe54
    /*000008b8*/ WORD_08b8: .word 0xfffffe54
    /*000008bc*/ WORD_08bc: .word 0xfffffe54
    /*000008c0*/ WORD_08c0: .word 0xfffffe10
    /*000008c4*/ WORD_08c4: .word 0xfffffe10
    /*000008c8*/ WORD_08c8: .word 0xfffffdfc
    /*000008cc*/ WORD_08cc: .word 0xfffffdfc
    /*000008d0*/ WORD_08d0: .word 0xfffffdcc
    /*000008d4*/ WORD_08d4: .word 0xfffffdcc
    /*000008d8*/ WORD_08d8: .word 0xfffffdb8
    /*000008dc*/ WORD_08dc: .word 0xfffffdb8
    /*000008e0*/ WORD_08e0: .word 0xfffffda4
    /*000008e4*/ WORD_08e4: .word 0xfffffda4
    /*000008e8*/ WORD_08e8: .word 0xfffffd64
    /*000008ec*/ WORD_08ec: .word 0xfffffd64
    /*000008f0*/ WORD_08f0: .word 0xfffffd64
    _ZN4hirt16TaskGroupManager14computeNnieSegEPNS_11NnieSegTaskEj_x8f4:
    /*000008f4*/ CMP         R4, R7 
    /*000008f8*/ BEQ         _ZN4hirt16TaskGroupManager14computeNnieSegEPNS_11NnieSegTaskEj_x384
    /*000008fc*/ LDR         R0, [R4], #4 
    /*00000900*/ LDR         R3, [SP, #20] 
    /*00000904*/ CMP         R0, #0 
    /*00000908*/ ADD         R3, R3, #48                 @ 0x30 
    /*0000090c*/ STR         R3, [SP, #20] 
    /*00000910*/ BEQ         _ZN4hirt16TaskGroupManager14computeNnieSegEPNS_11NnieSegTaskEj_x9d8
    _ZN4hirt16TaskGroupManager14computeNnieSegEPNS_11NnieSegTaskEj_x914:
    /*00000914*/ MOV         R3, #0 
    /*00000918*/ MOV         R2, R9 
    /*0000091c*/ MOV         R1, R8 
    /*00000920*/ BL          __dynamic_cast
    /*00000924*/ SUBS        R5, R0, #0 
    /*00000928*/ BEQ         _ZN4hirt16TaskGroupManager14computeNnieSegEPNS_11NnieSegTaskEj_x9d8
    /*0000092c*/ LDR         R3, [R5, #72]               @ 0x48 
    /*00000930*/ CMP         R3, #2 
    /*00000934*/ BNE         _ZN4hirt16TaskGroupManager14computeNnieSegEPNS_11NnieSegTaskEj_x8f4
    /*00000938*/ LDR         R2, [R5, #32] 
    /*0000093c*/ LDR         R0, [SP, #20] 
    /*00000940*/ LDR         R3, [FP, #116]              @ 0x74 
    /*00000944*/ LDR         R1, [R5, #36]               @ 0x24 
    /*00000948*/ ADD         R3, R3, R0 
    /*0000094c*/ MUL         R1, R2, R1 
    /*00000950*/ LDR         R2, [FP, #296]              @ 0x128 
    /*00000954*/ LDR         R7, [R3, #4] 
    /*00000958*/ MUL         R2, R2, R1 
    /*0000095c*/ LDR         R0, [FP, #280]              @ 0x118 
    /*00000960*/ MUL         R7, R7, R2 
    /*00000964*/ LDR         R1, [R5, #68]               @ 0x44 
    /*00000968*/ LDR         R2, [R3, #8] 
    /*0000096c*/ MOV         R3, R7 
    /*00000970*/ ADD         R0, R0, R1 
    /*00000974*/ MOV         R1, R7 
    /*00000978*/ BL          memcpy_s
    /*0000097c*/ CMP         R0, #0 
    /*00000980*/ BNE         _ZN4hirt16TaskGroupManager14computeNnieSegEPNS_11NnieSegTaskEj_xb68
    /*00000984*/ STR         R7, [SP, #96]               @ 0x60 
    /*00000988*/ MOV         R3, #0 
    /*0000098c*/ LDR         R2, [R5, #68]               @ 0x44 
    /*00000990*/ ADD         R0, SP, #80                 @ 0x50 
    /*00000994*/ VLDR        D17, [FP, #272]             @ 0x110 
    /*00000998*/ VMOV        D18, R2, R3 
    /*0000099c*/ VLDR        D16, [FP, #280]             @ 0x118 
    /*000009a0*/ VMOV        R6, R7, D16 
    /*000009a4*/ VADD.I64    D17, D17, D18 
    /*000009a8*/ ADDS        R6, R6, R2 
    /*000009ac*/ ADC         R7, R7, R3 
    /*000009b0*/ MOV         R2, R6 
    /*000009b4*/ MOV         R3, R7 
    /*000009b8*/ VSTR        D17, [SP, #80]              @ 0x50 
    /*000009bc*/ STRD        R2, [SP, #88]               @ 0x58 
    /*000009c0*/ BL          HIRT_Utils_FlushCache
    /*000009c4*/ CMP         R0, #0 
    /*000009c8*/ BNE         _ZN4hirt16TaskGroupManager14computeNnieSegEPNS_11NnieSegTaskEj_xad4
    _ZN4hirt16TaskGroupManager14computeNnieSegEPNS_11NnieSegTaskEj_x9cc:
    /*000009cc*/ LDR         R3, [FP, #268]              @ 0x10c 
    /*000009d0*/ LDR         R7, [R3, #20] 
    /*000009d4*/ B           _ZN4hirt16TaskGroupManager14computeNnieSegEPNS_11NnieSegTaskEj_x8f4
    _ZN4hirt16TaskGroupManager14computeNnieSegEPNS_11NnieSegTaskEj_x9d8:
    /*000009d8*/ LDR         R2, WORD_08ac               @ LDR         R2, [PC, #-308]             @ 0x00000000000008ac 
    /*000009dc*/ MOV         R1, #4 
    /*000009e0*/ LDR         R0, WORD_08b0               @ LDR         R0, [PC, #-312]             @ 0x00000000000008b0 
    /*000009e4*/ ADD         R2, PC, R2 
    /*000009e8*/ ADD         R0, PC, R0 
    /*000009ec*/ BL          _Z15HIRT_LOG_PrintfPKc19tagHIRT_LOG_LEVEL_ES0_z
    _ZN4hirt16TaskGroupManager14computeNnieSegEPNS_11NnieSegTaskEj_x9f0:
    /*000009f0*/ MVN         R4, #0 
    /*000009f4*/ B           _ZN4hirt16TaskGroupManager14computeNnieSegEPNS_11NnieSegTaskEj_x388
    _ZN4hirt16TaskGroupManager14computeNnieSegEPNS_11NnieSegTaskEj_x9f8:
    /*000009f8*/ LDR         R3, [FP, #108]              @ 0x6c 
    /*000009fc*/ ADD         R0, SP, #80                 @ 0x50 
    /*00000a00*/ STR         R4, [FP, #208]              @ 0xd0 
    /*00000a04*/ LDR         R2, [R3, #24] 
    /*00000a08*/ LDR         R1, [R3, #4] 
    /*00000a0c*/ VLDR        D16, [R3, #8] 
    /*00000a10*/ VLDR        D17, [R3, #16] 
    /*00000a14*/ MUL         R1, R2, R1 
    /*00000a18*/ LDR         R2, [R3, #36]               @ 0x24 
    /*00000a1c*/ VEXT.8      Q8, Q8, Q8, #8 
    /*00000a20*/ LDR         R3, [R3, #40]               @ 0x28 
    /*00000a24*/ MUL         R2, R2, R1 
    /*00000a28*/ VSTR        D16, [SP, #80]              @ 0x50 
    /*00000a2c*/ VSTR        D17, [SP, #88]              @ 0x58 
    /*00000a30*/ MUL         R3, R3, R2 
    /*00000a34*/ STR         R3, [SP, #96]               @ 0x60 
    /*00000a38*/ BL          HIRT_Utils_FlushCache
    /*00000a3c*/ CMP         R0, #0 
    /*00000a40*/ BEQ         _ZN4hirt16TaskGroupManager14computeNnieSegEPNS_11NnieSegTaskEj_xa68
    /*00000a44*/ STR         R0, [SP] 
    /*00000a48*/ MOV         R1, #4 
    /*00000a4c*/ LDR         R3, WORD_08b4               @ LDR         R3, [PC, #-416]             @ 0x00000000000008b4 
    /*00000a50*/ LDR         R2, WORD_08b8               @ LDR         R2, [PC, #-416]             @ 0x00000000000008b8 
    /*00000a54*/ LDR         R0, WORD_08bc               @ LDR         R0, [PC, #-416]             @ 0x00000000000008bc 
    /*00000a58*/ ADD         R3, PC, R3 
    /*00000a5c*/ ADD         R2, PC, R2 
    /*00000a60*/ ADD         R0, PC, R0 
    /*00000a64*/ BL          _Z15HIRT_LOG_PrintfPKc19tagHIRT_LOG_LEVEL_ES0_z
    _ZN4hirt16TaskGroupManager14computeNnieSegEPNS_11NnieSegTaskEj_xa68:
    /*00000a68*/ LDR         R3, [FP, #120]              @ 0x78 
    /*00000a6c*/ ADD         R0, FP, #192                @ 0xc0 
    /*00000a70*/ LDR         R2, [FP, #108]              @ 0x6c 
    /*00000a74*/ LDR         R1, [FP, #100]              @ 0x64 
    /*00000a78*/ LDR         LR, [FP, #300]              @ 0x12c 
    /*00000a7c*/ STR         R0, [SP, #4] 
    /*00000a80*/ ADD         R0, SP, #48                 @ 0x30 
    /*00000a84*/ LDR         IP, [FP, #116]              @ 0x74 
    /*00000a88*/ STR         LR, [SP, #8] 
    /*00000a8c*/ STR         IP, [SP] 
    /*00000a90*/ BL          HI_MPI_SVP_NNIE_ForwardWithBbox
    /*00000a94*/ SUBS        R3, R0, #0 
    /*00000a98*/ BEQ         _ZN4hirt16TaskGroupManager14computeNnieSegEPNS_11NnieSegTaskEj_x46c
    /*00000a9c*/ LDR         R2, WORD_08c0               @ LDR         R2, [PC, #-484]             @ 0x00000000000008c0 
    /*00000aa0*/ MOV         R1, #4 
    /*00000aa4*/ LDR         R0, WORD_08c4               @ LDR         R0, [PC, #-488]             @ 0x00000000000008c4 
    /*00000aa8*/ ADD         R2, PC, R2 
    /*00000aac*/ ADD         R0, PC, R0 
    /*00000ab0*/ BL          _Z15HIRT_LOG_PrintfPKc19tagHIRT_LOG_LEVEL_ES0_z
    /*00000ab4*/ B           _ZN4hirt16TaskGroupManager14computeNnieSegEPNS_11NnieSegTaskEj_x9f0
    _ZN4hirt16TaskGroupManager14computeNnieSegEPNS_11NnieSegTaskEj_xab8:
    /*00000ab8*/ LDR         R2, WORD_08c8               @ LDR         R2, [PC, #-504]             @ 0x00000000000008c8 
    /*00000abc*/ MOV         R1, #4 
    /*00000ac0*/ LDR         R0, WORD_08cc               @ LDR         R0, [PC, #-508]             @ 0x00000000000008cc 
    /*00000ac4*/ ADD         R2, PC, R2 
    /*00000ac8*/ ADD         R0, PC, R0 
    /*00000acc*/ BL          _Z15HIRT_LOG_PrintfPKc19tagHIRT_LOG_LEVEL_ES0_z
    /*00000ad0*/ B           _ZN4hirt16TaskGroupManager14computeNnieSegEPNS_11NnieSegTaskEj_x9f0
    _ZN4hirt16TaskGroupManager14computeNnieSegEPNS_11NnieSegTaskEj_xad4:
    /*00000ad4*/ STR         R0, [SP] 
    /*00000ad8*/ MOV         R1, #4 
    /*00000adc*/ LDR         R3, [SP, #24] 
    /*00000ae0*/ MOV         R0, SL 
    /*00000ae4*/ LDR         R2, [SP, #28] 
    /*00000ae8*/ BL          _Z15HIRT_LOG_PrintfPKc19tagHIRT_LOG_LEVEL_ES0_z
    /*00000aec*/ B           _ZN4hirt16TaskGroupManager14computeNnieSegEPNS_11NnieSegTaskEj_x9cc
    _ZN4hirt16TaskGroupManager14computeNnieSegEPNS_11NnieSegTaskEj_xaf0:
    /*00000af0*/ LDR         R2, WORD_08d0               @ LDR         R2, [PC, #-552]             @ 0x00000000000008d0 
    /*00000af4*/ MOV         R1, #4 
    /*00000af8*/ LDR         R0, WORD_08d4               @ LDR         R0, [PC, #-556]             @ 0x00000000000008d4 
    /*00000afc*/ ADD         R2, PC, R2 
    /*00000b00*/ ADD         R0, PC, R0 
    /*00000b04*/ BL          _Z15HIRT_LOG_PrintfPKc19tagHIRT_LOG_LEVEL_ES0_z
    /*00000b08*/ B           _ZN4hirt16TaskGroupManager14computeNnieSegEPNS_11NnieSegTaskEj_x9f0
    _ZN4hirt16TaskGroupManager14computeNnieSegEPNS_11NnieSegTaskEj_xb0c:
    /*00000b0c*/ LDR         R2, WORD_08d8               @ LDR         R2, [PC, #-572]             @ 0x00000000000008d8 
    /*00000b10*/ MOV         R1, #4 
    /*00000b14*/ LDR         R0, WORD_08dc               @ LDR         R0, [PC, #-576]             @ 0x00000000000008dc 
    /*00000b18*/ ADD         R2, PC, R2 
    /*00000b1c*/ ADD         R0, PC, R0 
    /*00000b20*/ BL          _Z15HIRT_LOG_PrintfPKc19tagHIRT_LOG_LEVEL_ES0_z
    /*00000b24*/ B           _ZN4hirt16TaskGroupManager14computeNnieSegEPNS_11NnieSegTaskEj_x9f0
    _ZN4hirt16TaskGroupManager14computeNnieSegEPNS_11NnieSegTaskEj_xb28:
    /*00000b28*/ LDR         R2, WORD_08e0               @ LDR         R2, [PC, #-592]             @ 0x00000000000008e0 
    /*00000b2c*/ MOV         R1, #4 
    /*00000b30*/ LDR         R0, WORD_08e4               @ LDR         R0, [PC, #-596]             @ 0x00000000000008e4 
    /*00000b34*/ ADD         R2, PC, R2 
    /*00000b38*/ ADD         R0, PC, R0 
    /*00000b3c*/ BL          _Z15HIRT_LOG_PrintfPKc19tagHIRT_LOG_LEVEL_ES0_z
    /*00000b40*/ B           _ZN4hirt16TaskGroupManager14computeNnieSegEPNS_11NnieSegTaskEj_x9f0
    _ZN4hirt16TaskGroupManager14computeNnieSegEPNS_11NnieSegTaskEj_xb44:
    /*00000b44*/ MOV         R4, #0 
    /*00000b48*/ B           _ZN4hirt16TaskGroupManager14computeNnieSegEPNS_11NnieSegTaskEj_x39c
    _ZN4hirt16TaskGroupManager14computeNnieSegEPNS_11NnieSegTaskEj_xb4c:
    /*00000b4c*/ BL          __stack_chk_fail
    /*00000b50*/ LDR         R0, [SP, #108]              @ 0x6c 
    /*00000b54*/ LDR         R3, [SP, #40]               @ 0x28 
    /*00000b58*/ CMP         R0, R3 
    /*00000b5c*/ BEQ         _ZN4hirt16TaskGroupManager14computeNnieSegEPNS_11NnieSegTaskEj_xb64
    /*00000b60*/ BL          _ZdlPv
    _ZN4hirt16TaskGroupManager14computeNnieSegEPNS_11NnieSegTaskEj_xb64:
    /*00000b64*/ BL          __cxa_end_cleanup
    _ZN4hirt16TaskGroupManager14computeNnieSegEPNS_11NnieSegTaskEj_xb68:
    /*00000b68*/ STR         R0, [SP] 
    /*00000b6c*/ MOV         R1, #4 
    /*00000b70*/ LDR         R3, WORD_08e8               @ LDR         R3, [PC, #-656]             @ 0x00000000000008e8 
    /*00000b74*/ LDR         R2, WORD_08ec               @ LDR         R2, [PC, #-656]             @ 0x00000000000008ec 
    /*00000b78*/ LDR         R0, WORD_08f0               @ LDR         R0, [PC, #-656]             @ 0x00000000000008f0 
    /*00000b7c*/ ADD         R3, PC, R3 
    /*00000b80*/ ADD         R2, PC, R2 
    /*00000b84*/ ADD         R0, PC, R0 
    /*00000b88*/ BL          _Z15HIRT_LOG_PrintfPKc19tagHIRT_LOG_LEVEL_ES0_z
    /*00000b8c*/ B           _ZN4hirt16TaskGroupManager14computeNnieSegEPNS_11NnieSegTaskEj_x9f0
FUNC_END _ZN4hirt16TaskGroupManager14computeNnieSegEPNS_11NnieSegTaskEj


@ - - - - - - - - - - - - - - - - - - - - - - - - - - - - - 
@ .ARM.extab.text._ZN4hirt16TaskGroupManager14computeNnieSegEPNS_11NnieSegTaskEj
@ Size: 0x22
@ - - - - - - - - - - - - - - - - - - - - - - - - - - - - - 

@ - - - - - - - - - - - - - - - - - - - - - - - - - - - - - 
@ .text._ZNSt8_Rb_treeINSt7__cxx1112basic_stringIcSt11char_traitsIcESaIcEEESt4pairIKS5_P16hiRUNTIME_BLOB_SESt10_Select1stISA_ESt4lessIS5_ESaISA_EE24_M_get_insert_unique_posERS7_
@ Size: 0x144
@ - - - - - - - - - - - - - - - - - - - - - - - - - - - - - 

FUNC_BEGIN _ZNSt8_Rb_treeINSt7__cxx1112basic_stringIcSt11char_traitsIcESaIcEEESt4pairIKS5_P16hiRUNTIME_BLOB_SESt10_Select1stISA_ESt4lessIS5_ESaISA_EE24_M_get_insert_unique_posERS7_
    /*00000000*/ MOV         IP, #16384                  @ 0x4000 
    /*00000004*/ PUSH        {R4, R5, R6, R7, R8, R9, SL, FP, LR} 
    /*00000008*/ SUB         IP, SP, IP 
    /*0000000c*/ STR         R0, [IP, #4048]             @ 0xfd0 
    /*00000010*/ LDR         R4, [R1, #8] 
    /*00000014*/ SUB         SP, SP, #12 
    /*00000018*/ MOV         R9, R0 
    /*0000001c*/ MOV         SL, R2 
    /*00000020*/ STR         R1, [SP, #4] 
    /*00000024*/ CMP         R4, #0 
    /*00000028*/ MOVEQ       R3, R1 
    /*0000002c*/ ADDEQ       R4, R3, #4 
    /*00000030*/ BEQ         _ZNSt8_Rb_treeINSt7__cxx1112basic_stringIcSt11char_traitsIcESaIcEEESt4pairIKS5_P16hiRUNTIME_BLOB_SESt10_Select1stISA_ESt4lessIS5_ESaISA_EE24_M_get_insert_unique_posERS7__xd4
    /*00000034*/ LDR         R7, [R2, #4] 
    /*00000038*/ LDR         FP, [R2] 
    /*0000003c*/ B           _ZNSt8_Rb_treeINSt7__cxx1112basic_stringIcSt11char_traitsIcESaIcEEESt4pairIKS5_P16hiRUNTIME_BLOB_SESt10_Select1stISA_ESt4lessIS5_ESaISA_EE24_M_get_insert_unique_posERS7__x6c
    _ZNSt8_Rb_treeINSt7__cxx1112basic_stringIcSt11char_traitsIcESaIcEEESt4pairIKS5_P16hiRUNTIME_BLOB_SESt10_Select1stISA_ESt4lessIS5_ESaISA_EE24_M_get_insert_unique_posERS7__x40:
    /*00000040*/ BL          memcmp
    /*00000044*/ CMP         R0, #0 
    /*00000048*/ BEQ         _ZNSt8_Rb_treeINSt7__cxx1112basic_stringIcSt11char_traitsIcESaIcEEESt4pairIKS5_P16hiRUNTIME_BLOB_SESt10_Select1stISA_ESt4lessIS5_ESaISA_EE24_M_get_insert_unique_posERS7__x90
    _ZNSt8_Rb_treeINSt7__cxx1112basic_stringIcSt11char_traitsIcESaIcEEESt4pairIKS5_P16hiRUNTIME_BLOB_SESt10_Select1stISA_ESt4lessIS5_ESaISA_EE24_M_get_insert_unique_posERS7__x4c:
    /*0000004c*/ CMP         R0, #0 
    /*00000050*/ MOV         R1, #0 
    /*00000054*/ MOVLT       R1, #1 
    /*00000058*/ LDRLT       R2, [R4, #8] 
    /*0000005c*/ LDRGE       R2, [R4, #12] 
    /*00000060*/ CMP         R2, #0 
    /*00000064*/ BEQ         _ZNSt8_Rb_treeINSt7__cxx1112basic_stringIcSt11char_traitsIcESaIcEEESt4pairIKS5_P16hiRUNTIME_BLOB_SESt10_Select1stISA_ESt4lessIS5_ESaISA_EE24_M_get_insert_unique_posERS7__x98
    /*00000068*/ MOV         R4, R2 
    _ZNSt8_Rb_treeINSt7__cxx1112basic_stringIcSt11char_traitsIcESaIcEEESt4pairIKS5_P16hiRUNTIME_BLOB_SESt10_Select1stISA_ESt4lessIS5_ESaISA_EE24_M_get_insert_unique_posERS7__x6c:
    /*0000006c*/ LDR         R5, [R4, #20] 
    /*00000070*/ MOV         R0, FP 
    /*00000074*/ LDR         R8, [R4, #16] 
    /*00000078*/ CMP         R5, R7 
    /*0000007c*/ MOVCC       R6, R5 
    /*00000080*/ MOVCS       R6, R7 
    /*00000084*/ SUBS        R2, R6, #0 
    /*00000088*/ MOV         R1, R8 
    /*0000008c*/ BNE         _ZNSt8_Rb_treeINSt7__cxx1112basic_stringIcSt11char_traitsIcESaIcEEESt4pairIKS5_P16hiRUNTIME_BLOB_SESt10_Select1stISA_ESt4lessIS5_ESaISA_EE24_M_get_insert_unique_posERS7__x40
    _ZNSt8_Rb_treeINSt7__cxx1112basic_stringIcSt11char_traitsIcESaIcEEESt4pairIKS5_P16hiRUNTIME_BLOB_SESt10_Select1stISA_ESt4lessIS5_ESaISA_EE24_M_get_insert_unique_posERS7__x90:
    /*00000090*/ SUB         R0, R7, R5 
    /*00000094*/ B           _ZNSt8_Rb_treeINSt7__cxx1112basic_stringIcSt11char_traitsIcESaIcEEESt4pairIKS5_P16hiRUNTIME_BLOB_SESt10_Select1stISA_ESt4lessIS5_ESaISA_EE24_M_get_insert_unique_posERS7__x4c
    _ZNSt8_Rb_treeINSt7__cxx1112basic_stringIcSt11char_traitsIcESaIcEEESt4pairIKS5_P16hiRUNTIME_BLOB_SESt10_Select1stISA_ESt4lessIS5_ESaISA_EE24_M_get_insert_unique_posERS7__x98:
    /*00000098*/ CMP         R1, #0 
    /*0000009c*/ MOVEQ       R2, R6 
    /*000000a0*/ MOVEQ       R6, R4 
    /*000000a4*/ BNE         _ZNSt8_Rb_treeINSt7__cxx1112basic_stringIcSt11char_traitsIcESaIcEEESt4pairIKS5_P16hiRUNTIME_BLOB_SESt10_Select1stISA_ESt4lessIS5_ESaISA_EE24_M_get_insert_unique_posERS7__xd4
    /*000000a8*/ CMP         R2, #0 
    /*000000ac*/ BNE         _ZNSt8_Rb_treeINSt7__cxx1112basic_stringIcSt11char_traitsIcESaIcEEESt4pairIKS5_P16hiRUNTIME_BLOB_SESt10_Select1stISA_ESt4lessIS5_ESaISA_EE24_M_get_insert_unique_posERS7__x114
    _ZNSt8_Rb_treeINSt7__cxx1112basic_stringIcSt11char_traitsIcESaIcEEESt4pairIKS5_P16hiRUNTIME_BLOB_SESt10_Select1stISA_ESt4lessIS5_ESaISA_EE24_M_get_insert_unique_posERS7__xb0:
    /*000000b0*/ SUB         R0, R5, R7 
    _ZNSt8_Rb_treeINSt7__cxx1112basic_stringIcSt11char_traitsIcESaIcEEESt4pairIKS5_P16hiRUNTIME_BLOB_SESt10_Select1stISA_ESt4lessIS5_ESaISA_EE24_M_get_insert_unique_posERS7__xb4:
    /*000000b4*/ CMP         R0, #0 
    /*000000b8*/ STRGE       R6, [R9] 
    /*000000bc*/ MOVGE       R3, #0 
    /*000000c0*/ STRGE       R3, [R9, #4] 
    /*000000c4*/ BLT         _ZNSt8_Rb_treeINSt7__cxx1112basic_stringIcSt11char_traitsIcESaIcEEESt4pairIKS5_P16hiRUNTIME_BLOB_SESt10_Select1stISA_ESt4lessIS5_ESaISA_EE24_M_get_insert_unique_posERS7__x12c
    /*000000c8*/ MOV         R0, R9 
    /*000000cc*/ ADD         SP, SP, #12 
    /*000000d0*/ POP         {R4, R5, R6, R7, R8, R9, SL, FP, PC} 
    _ZNSt8_Rb_treeINSt7__cxx1112basic_stringIcSt11char_traitsIcESaIcEEESt4pairIKS5_P16hiRUNTIME_BLOB_SESt10_Select1stISA_ESt4lessIS5_ESaISA_EE24_M_get_insert_unique_posERS7__xd4:
    /*000000d4*/ LDR         R3, [SP, #4] 
    /*000000d8*/ LDR         R3, [R3, #12] 
    /*000000dc*/ CMP         R3, R4 
    /*000000e0*/ BEQ         _ZNSt8_Rb_treeINSt7__cxx1112basic_stringIcSt11char_traitsIcESaIcEEESt4pairIKS5_P16hiRUNTIME_BLOB_SESt10_Select1stISA_ESt4lessIS5_ESaISA_EE24_M_get_insert_unique_posERS7__x12c
    /*000000e4*/ MOV         R0, R4 
    /*000000e8*/ BL          _ZSt18_Rb_tree_decrementPSt18_Rb_tree_node_base
    /*000000ec*/ LDR         R5, [R0, #20] 
    /*000000f0*/ MOV         R6, R0 
    /*000000f4*/ LDR         R7, [SL, #4] 
    /*000000f8*/ LDR         FP, [SL] 
    /*000000fc*/ CMP         R5, R7 
    /*00000100*/ LDR         R8, [R0, #16] 
    /*00000104*/ MOVCC       R2, R5 
    /*00000108*/ MOVCS       R2, R7 
    /*0000010c*/ CMP         R2, #0 
    /*00000110*/ BEQ         _ZNSt8_Rb_treeINSt7__cxx1112basic_stringIcSt11char_traitsIcESaIcEEESt4pairIKS5_P16hiRUNTIME_BLOB_SESt10_Select1stISA_ESt4lessIS5_ESaISA_EE24_M_get_insert_unique_posERS7__xb0
    _ZNSt8_Rb_treeINSt7__cxx1112basic_stringIcSt11char_traitsIcESaIcEEESt4pairIKS5_P16hiRUNTIME_BLOB_SESt10_Select1stISA_ESt4lessIS5_ESaISA_EE24_M_get_insert_unique_posERS7__x114:
    /*00000114*/ MOV         R1, FP 
    /*00000118*/ MOV         R0, R8 
    /*0000011c*/ BL          memcmp
    /*00000120*/ CMP         R0, #0 
    /*00000124*/ BNE         _ZNSt8_Rb_treeINSt7__cxx1112basic_stringIcSt11char_traitsIcESaIcEEESt4pairIKS5_P16hiRUNTIME_BLOB_SESt10_Select1stISA_ESt4lessIS5_ESaISA_EE24_M_get_insert_unique_posERS7__xb4
    /*00000128*/ B           _ZNSt8_Rb_treeINSt7__cxx1112basic_stringIcSt11char_traitsIcESaIcEEESt4pairIKS5_P16hiRUNTIME_BLOB_SESt10_Select1stISA_ESt4lessIS5_ESaISA_EE24_M_get_insert_unique_posERS7__xb0
    _ZNSt8_Rb_treeINSt7__cxx1112basic_stringIcSt11char_traitsIcESaIcEEESt4pairIKS5_P16hiRUNTIME_BLOB_SESt10_Select1stISA_ESt4lessIS5_ESaISA_EE24_M_get_insert_unique_posERS7__x12c:
    /*0000012c*/ STR         R4, [R9, #4] 
    /*00000130*/ MOV         R3, #0 
    /*00000134*/ STR         R3, [R9] 
    /*00000138*/ MOV         R0, R9 
    /*0000013c*/ ADD         SP, SP, #12 
    /*00000140*/ POP         {R4, R5, R6, R7, R8, R9, SL, FP, PC} 
FUNC_END _ZNSt8_Rb_treeINSt7__cxx1112basic_stringIcSt11char_traitsIcESaIcEEESt4pairIKS5_P16hiRUNTIME_BLOB_SESt10_Select1stISA_ESt4lessIS5_ESaISA_EE24_M_get_insert_unique_posERS7_


@ - - - - - - - - - - - - - - - - - - - - - - - - - - - - - 
@ .text._ZNSt8_Rb_treeINSt7__cxx1112basic_stringIcSt11char_traitsIcESaIcEEESt4pairIKS5_P16hiRUNTIME_BLOB_SESt10_Select1stISA_ESt4lessIS5_ESaISA_EE22_M_emplace_hint_uniqueIJRKSt21piecewise_construct_tSt5tupleIJOS5_EESL_IJEEEEESt17_Rb_tree_iteratorISA_ESt23_Rb_tree_const_iteratorISA_EDpOT_.isra.282
@ Size: 0x348
@ - - - - - - - - - - - - - - - - - - - - - - - - - - - - - 

FUNC_BEGIN _ZNSt8_Rb_treeINSt7__cxx1112basic_stringIcSt11char_traitsIcESaIcEEESt4pairIKS5_P16hiRUNTIME_BLOB_SESt10_Select1stISA_ESt4lessIS5_ESaISA_EE22_M_emplace_hint_uniqueIJRKSt21piecewise_construct_tSt5tupleIJOS5_EESL_IJEEEEESt17_Rb_tree_iteratorISA_ESt23_Rb_tree_const_iteratorISA_EDpOT_.isra.282
    /*00000000*/ MOV         IP, #16384                  @ 0x4000 
    /*00000004*/ PUSH        {R4, R5, R6, R7, R8, R9, SL, FP, LR} 
    /*00000008*/ SUB         IP, SP, IP 
    /*0000000c*/ STR         R0, [IP, #4040]             @ 0xfc8 
    /*00000010*/ SUB         SP, SP, #20 
    /*00000014*/ MOV         R6, R2 
    /*00000018*/ MOV         R7, R0 
    /*0000001c*/ MOV         R0, #44                     @ 0x2c 
    /*00000020*/ MOV         R5, R1 
    /*00000024*/ BL          _Znwj
    /*00000028*/ LDR         R3, [R6] 
    /*0000002c*/ ADD         R2, R0, #24 
    /*00000030*/ STR         R2, [R0, #16] 
    /*00000034*/ MOV         R4, R0 
    /*00000038*/ STR         R2, [SP] 
    /*0000003c*/ ADD         R2, R0, #16 
    /*00000040*/ STR         R2, [SP, #4] 
    /*00000044*/ MOV         R2, R3 
    /*00000048*/ LDR         R1, [R2], #8 
    /*0000004c*/ CMP         R1, R2 
    /*00000050*/ STRNE       R1, [R0, #16] 
    /*00000054*/ LDRNE       R1, [R3, #8] 
    /*00000058*/ STRNE       R1, [R0, #24] 
    /*0000005c*/ BEQ         _ZNSt8_Rb_treeINSt7__cxx1112basic_stringIcSt11char_traitsIcESaIcEEESt4pairIKS5_P16hiRUNTIME_BLOB_SESt10_Select1stISA_ESt4lessIS5_ESaISA_EE22_M_emplace_hint_uniqueIJRKSt21piecewise_construct_tSt5tupleIJOS5_EESL_IJEEEEESt17_Rb_tree_iteratorISA_ESt23_Rb_tree_const_iteratorISA_EDpOT_.isra.282_x318
    _ZNSt8_Rb_treeINSt7__cxx1112basic_stringIcSt11char_traitsIcESaIcEEESt4pairIKS5_P16hiRUNTIME_BLOB_SESt10_Select1stISA_ESt4lessIS5_ESaISA_EE22_M_emplace_hint_uniqueIJRKSt21piecewise_construct_tSt5tupleIJOS5_EESL_IJEEEEESt17_Rb_tree_iteratorISA_ESt23_Rb_tree_const_iteratorISA_EDpOT_.isra.282_x60:
    /*00000060*/ LDR         R0, [R3, #4] 
    /*00000064*/ ADD         R9, R7, #4 
    /*00000068*/ CMP         R9, R5 
    /*0000006c*/ MOV         R1, #0 
    /*00000070*/ STR         R0, [R4, #20] 
    /*00000074*/ STR         R2, [R3] 
    /*00000078*/ STR         R1, [R3, #4] 
    /*0000007c*/ STRB        R1, [R3, #8] 
    /*00000080*/ STR         R1, [R4, #40]               @ 0x28 
    /*00000084*/ BEQ         _ZNSt8_Rb_treeINSt7__cxx1112basic_stringIcSt11char_traitsIcESaIcEEESt4pairIKS5_P16hiRUNTIME_BLOB_SESt10_Select1stISA_ESt4lessIS5_ESaISA_EE22_M_emplace_hint_uniqueIJRKSt21piecewise_construct_tSt5tupleIJOS5_EESL_IJEEEEESt17_Rb_tree_iteratorISA_ESt23_Rb_tree_const_iteratorISA_EDpOT_.isra.282_x2b8
    /*00000088*/ LDR         R6, [R4, #20] 
    /*0000008c*/ LDR         R8, [R5, #20] 
    /*00000090*/ LDR         SL, [R4, #16] 
    /*00000094*/ CMP         R6, R8 
    /*00000098*/ LDR         R3, [R5, #16] 
    /*0000009c*/ MOVCC       FP, R6 
    /*000000a0*/ MOVCS       FP, R8 
    /*000000a4*/ CMP         FP, #0 
    /*000000a8*/ BNE         _ZNSt8_Rb_treeINSt7__cxx1112basic_stringIcSt11char_traitsIcESaIcEEESt4pairIKS5_P16hiRUNTIME_BLOB_SESt10_Select1stISA_ESt4lessIS5_ESaISA_EE22_M_emplace_hint_uniqueIJRKSt21piecewise_construct_tSt5tupleIJOS5_EESL_IJEEEEESt17_Rb_tree_iteratorISA_ESt23_Rb_tree_const_iteratorISA_EDpOT_.isra.282_xf0
    /*000000ac*/ SUB         R3, R6, R8 
    /*000000b0*/ CMP         R3, #0 
    /*000000b4*/ BLT         _ZNSt8_Rb_treeINSt7__cxx1112basic_stringIcSt11char_traitsIcESaIcEEESt4pairIKS5_P16hiRUNTIME_BLOB_SESt10_Select1stISA_ESt4lessIS5_ESaISA_EE22_M_emplace_hint_uniqueIJRKSt21piecewise_construct_tSt5tupleIJOS5_EESL_IJEEEEESt17_Rb_tree_iteratorISA_ESt23_Rb_tree_const_iteratorISA_EDpOT_.isra.282_x19c
    _ZNSt8_Rb_treeINSt7__cxx1112basic_stringIcSt11char_traitsIcESaIcEEESt4pairIKS5_P16hiRUNTIME_BLOB_SESt10_Select1stISA_ESt4lessIS5_ESaISA_EE22_M_emplace_hint_uniqueIJRKSt21piecewise_construct_tSt5tupleIJOS5_EESL_IJEEEEESt17_Rb_tree_iteratorISA_ESt23_Rb_tree_const_iteratorISA_EDpOT_.isra.282_xb8:
    /*000000b8*/ SUB         R0, R8, R6 
    /*000000bc*/ CMP         R0, #0 
    /*000000c0*/ MOVGE       FP, R5 
    /*000000c4*/ BLT         _ZNSt8_Rb_treeINSt7__cxx1112basic_stringIcSt11char_traitsIcESaIcEEESt4pairIKS5_P16hiRUNTIME_BLOB_SESt10_Select1stISA_ESt4lessIS5_ESaISA_EE22_M_emplace_hint_uniqueIJRKSt21piecewise_construct_tSt5tupleIJOS5_EESL_IJEEEEESt17_Rb_tree_iteratorISA_ESt23_Rb_tree_const_iteratorISA_EDpOT_.isra.282_x138
    _ZNSt8_Rb_treeINSt7__cxx1112basic_stringIcSt11char_traitsIcESaIcEEESt4pairIKS5_P16hiRUNTIME_BLOB_SESt10_Select1stISA_ESt4lessIS5_ESaISA_EE22_M_emplace_hint_uniqueIJRKSt21piecewise_construct_tSt5tupleIJOS5_EESL_IJEEEEESt17_Rb_tree_iteratorISA_ESt23_Rb_tree_const_iteratorISA_EDpOT_.isra.282_xc8:
    /*000000c8*/ LDR         R3, [SP] 
    /*000000cc*/ CMP         SL, R3 
    /*000000d0*/ BEQ         _ZNSt8_Rb_treeINSt7__cxx1112basic_stringIcSt11char_traitsIcESaIcEEESt4pairIKS5_P16hiRUNTIME_BLOB_SESt10_Select1stISA_ESt4lessIS5_ESaISA_EE22_M_emplace_hint_uniqueIJRKSt21piecewise_construct_tSt5tupleIJOS5_EESL_IJEEEEESt17_Rb_tree_iteratorISA_ESt23_Rb_tree_const_iteratorISA_EDpOT_.isra.282_xdc
    /*000000d4*/ MOV         R0, SL 
    /*000000d8*/ BL          _ZdlPv
    _ZNSt8_Rb_treeINSt7__cxx1112basic_stringIcSt11char_traitsIcESaIcEEESt4pairIKS5_P16hiRUNTIME_BLOB_SESt10_Select1stISA_ESt4lessIS5_ESaISA_EE22_M_emplace_hint_uniqueIJRKSt21piecewise_construct_tSt5tupleIJOS5_EESL_IJEEEEESt17_Rb_tree_iteratorISA_ESt23_Rb_tree_const_iteratorISA_EDpOT_.isra.282_xdc:
    /*000000dc*/ MOV         R0, R4 
    /*000000e0*/ BL          _ZdlPv
    /*000000e4*/ MOV         R0, FP 
    /*000000e8*/ ADD         SP, SP, #20 
    /*000000ec*/ POP         {R4, R5, R6, R7, R8, R9, SL, FP, PC} 
    _ZNSt8_Rb_treeINSt7__cxx1112basic_stringIcSt11char_traitsIcESaIcEEESt4pairIKS5_P16hiRUNTIME_BLOB_SESt10_Select1stISA_ESt4lessIS5_ESaISA_EE22_M_emplace_hint_uniqueIJRKSt21piecewise_construct_tSt5tupleIJOS5_EESL_IJEEEEESt17_Rb_tree_iteratorISA_ESt23_Rb_tree_const_iteratorISA_EDpOT_.isra.282_xf0:
    /*000000f0*/ STR         R3, [SP, #4] 
    /*000000f4*/ MOV         R1, R3 
    /*000000f8*/ MOV         R2, FP 
    /*000000fc*/ MOV         R0, SL 
    /*00000100*/ BL          memcmp
    /*00000104*/ LDR         R3, [SP, #4] 
    /*00000108*/ CMP         R0, #0 
    /*0000010c*/ BEQ         _ZNSt8_Rb_treeINSt7__cxx1112basic_stringIcSt11char_traitsIcESaIcEEESt4pairIKS5_P16hiRUNTIME_BLOB_SESt10_Select1stISA_ESt4lessIS5_ESaISA_EE22_M_emplace_hint_uniqueIJRKSt21piecewise_construct_tSt5tupleIJOS5_EESL_IJEEEEESt17_Rb_tree_iteratorISA_ESt23_Rb_tree_const_iteratorISA_EDpOT_.isra.282_x27c
    _ZNSt8_Rb_treeINSt7__cxx1112basic_stringIcSt11char_traitsIcESaIcEEESt4pairIKS5_P16hiRUNTIME_BLOB_SESt10_Select1stISA_ESt4lessIS5_ESaISA_EE22_M_emplace_hint_uniqueIJRKSt21piecewise_construct_tSt5tupleIJOS5_EESL_IJEEEEESt17_Rb_tree_iteratorISA_ESt23_Rb_tree_const_iteratorISA_EDpOT_.isra.282_x110:
    /*00000110*/ BLT         _ZNSt8_Rb_treeINSt7__cxx1112basic_stringIcSt11char_traitsIcESaIcEEESt4pairIKS5_P16hiRUNTIME_BLOB_SESt10_Select1stISA_ESt4lessIS5_ESaISA_EE22_M_emplace_hint_uniqueIJRKSt21piecewise_construct_tSt5tupleIJOS5_EESL_IJEEEEESt17_Rb_tree_iteratorISA_ESt23_Rb_tree_const_iteratorISA_EDpOT_.isra.282_x19c
    /*00000114*/ MOV         R2, FP 
    /*00000118*/ MOV         R0, R3 
    /*0000011c*/ MOV         R1, SL 
    /*00000120*/ BL          memcmp
    /*00000124*/ CMP         R0, #0 
    /*00000128*/ BEQ         _ZNSt8_Rb_treeINSt7__cxx1112basic_stringIcSt11char_traitsIcESaIcEEESt4pairIKS5_P16hiRUNTIME_BLOB_SESt10_Select1stISA_ESt4lessIS5_ESaISA_EE22_M_emplace_hint_uniqueIJRKSt21piecewise_construct_tSt5tupleIJOS5_EESL_IJEEEEESt17_Rb_tree_iteratorISA_ESt23_Rb_tree_const_iteratorISA_EDpOT_.isra.282_xb8
    /*0000012c*/ CMP         R0, #0 
    /*00000130*/ MOVGE       FP, R5 
    /*00000134*/ BGE         _ZNSt8_Rb_treeINSt7__cxx1112basic_stringIcSt11char_traitsIcESaIcEEESt4pairIKS5_P16hiRUNTIME_BLOB_SESt10_Select1stISA_ESt4lessIS5_ESaISA_EE22_M_emplace_hint_uniqueIJRKSt21piecewise_construct_tSt5tupleIJOS5_EESL_IJEEEEESt17_Rb_tree_iteratorISA_ESt23_Rb_tree_const_iteratorISA_EDpOT_.isra.282_xc8
    _ZNSt8_Rb_treeINSt7__cxx1112basic_stringIcSt11char_traitsIcESaIcEEESt4pairIKS5_P16hiRUNTIME_BLOB_SESt10_Select1stISA_ESt4lessIS5_ESaISA_EE22_M_emplace_hint_uniqueIJRKSt21piecewise_construct_tSt5tupleIJOS5_EESL_IJEEEEESt17_Rb_tree_iteratorISA_ESt23_Rb_tree_const_iteratorISA_EDpOT_.isra.282_x138:
    /*00000138*/ LDR         R8, [R7, #16] 
    /*0000013c*/ CMP         R8, R5 
    /*00000140*/ BEQ         _ZNSt8_Rb_treeINSt7__cxx1112basic_stringIcSt11char_traitsIcESaIcEEESt4pairIKS5_P16hiRUNTIME_BLOB_SESt10_Select1stISA_ESt4lessIS5_ESaISA_EE22_M_emplace_hint_uniqueIJRKSt21piecewise_construct_tSt5tupleIJOS5_EESL_IJEEEEESt17_Rb_tree_iteratorISA_ESt23_Rb_tree_const_iteratorISA_EDpOT_.isra.282_x20c
    /*00000144*/ MOV         R0, R5 
    /*00000148*/ BL          _ZSt18_Rb_tree_incrementPSt18_Rb_tree_node_base
    /*0000014c*/ LDR         R8, [R0, #20] 
    /*00000150*/ MOV         FP, R0 
    /*00000154*/ CMP         R6, R8 
    /*00000158*/ MOVCC       R2, R6 
    /*0000015c*/ MOVCS       R2, R8 
    /*00000160*/ CMP         R2, #0 
    /*00000164*/ BEQ         _ZNSt8_Rb_treeINSt7__cxx1112basic_stringIcSt11char_traitsIcESaIcEEESt4pairIKS5_P16hiRUNTIME_BLOB_SESt10_Select1stISA_ESt4lessIS5_ESaISA_EE22_M_emplace_hint_uniqueIJRKSt21piecewise_construct_tSt5tupleIJOS5_EESL_IJEEEEESt17_Rb_tree_iteratorISA_ESt23_Rb_tree_const_iteratorISA_EDpOT_.isra.282_x2f8
    /*00000168*/ LDR         R1, [R0, #16] 
    /*0000016c*/ MOV         R0, SL 
    /*00000170*/ BL          memcmp
    /*00000174*/ CMP         R0, #0 
    /*00000178*/ BEQ         _ZNSt8_Rb_treeINSt7__cxx1112basic_stringIcSt11char_traitsIcESaIcEEESt4pairIKS5_P16hiRUNTIME_BLOB_SESt10_Select1stISA_ESt4lessIS5_ESaISA_EE22_M_emplace_hint_uniqueIJRKSt21piecewise_construct_tSt5tupleIJOS5_EESL_IJEEEEESt17_Rb_tree_iteratorISA_ESt23_Rb_tree_const_iteratorISA_EDpOT_.isra.282_x2f8
    _ZNSt8_Rb_treeINSt7__cxx1112basic_stringIcSt11char_traitsIcESaIcEEESt4pairIKS5_P16hiRUNTIME_BLOB_SESt10_Select1stISA_ESt4lessIS5_ESaISA_EE22_M_emplace_hint_uniqueIJRKSt21piecewise_construct_tSt5tupleIJOS5_EESL_IJEEEEESt17_Rb_tree_iteratorISA_ESt23_Rb_tree_const_iteratorISA_EDpOT_.isra.282_x17c:
    /*0000017c*/ CMP         R0, #0 
    /*00000180*/ BGE         _ZNSt8_Rb_treeINSt7__cxx1112basic_stringIcSt11char_traitsIcESaIcEEESt4pairIKS5_P16hiRUNTIME_BLOB_SESt10_Select1stISA_ESt4lessIS5_ESaISA_EE22_M_emplace_hint_uniqueIJRKSt21piecewise_construct_tSt5tupleIJOS5_EESL_IJEEEEESt17_Rb_tree_iteratorISA_ESt23_Rb_tree_const_iteratorISA_EDpOT_.isra.282_x290
    /*00000184*/ LDR         R3, [R5, #12] 
    /*00000188*/ CMP         R3, #0 
    /*0000018c*/ MOVNE       R8, FP 
    /*00000190*/ BNE         _ZNSt8_Rb_treeINSt7__cxx1112basic_stringIcSt11char_traitsIcESaIcEEESt4pairIKS5_P16hiRUNTIME_BLOB_SESt10_Select1stISA_ESt4lessIS5_ESaISA_EE22_M_emplace_hint_uniqueIJRKSt21piecewise_construct_tSt5tupleIJOS5_EESL_IJEEEEESt17_Rb_tree_iteratorISA_ESt23_Rb_tree_const_iteratorISA_EDpOT_.isra.282_x1e8
    /*00000194*/ MOV         R8, R5 
    /*00000198*/ B           _ZNSt8_Rb_treeINSt7__cxx1112basic_stringIcSt11char_traitsIcESaIcEEESt4pairIKS5_P16hiRUNTIME_BLOB_SESt10_Select1stISA_ESt4lessIS5_ESaISA_EE22_M_emplace_hint_uniqueIJRKSt21piecewise_construct_tSt5tupleIJOS5_EESL_IJEEEEESt17_Rb_tree_iteratorISA_ESt23_Rb_tree_const_iteratorISA_EDpOT_.isra.282_x20c
    _ZNSt8_Rb_treeINSt7__cxx1112basic_stringIcSt11char_traitsIcESaIcEEESt4pairIKS5_P16hiRUNTIME_BLOB_SESt10_Select1stISA_ESt4lessIS5_ESaISA_EE22_M_emplace_hint_uniqueIJRKSt21piecewise_construct_tSt5tupleIJOS5_EESL_IJEEEEESt17_Rb_tree_iteratorISA_ESt23_Rb_tree_const_iteratorISA_EDpOT_.isra.282_x19c:
    /*0000019c*/ LDR         FP, [R7, #12] 
    /*000001a0*/ CMP         FP, R5 
    /*000001a4*/ BEQ         _ZNSt8_Rb_treeINSt7__cxx1112basic_stringIcSt11char_traitsIcESaIcEEESt4pairIKS5_P16hiRUNTIME_BLOB_SESt10_Select1stISA_ESt4lessIS5_ESaISA_EE22_M_emplace_hint_uniqueIJRKSt21piecewise_construct_tSt5tupleIJOS5_EESL_IJEEEEESt17_Rb_tree_iteratorISA_ESt23_Rb_tree_const_iteratorISA_EDpOT_.isra.282_x340
    /*000001a8*/ MOV         R0, R5 
    /*000001ac*/ BL          _ZSt18_Rb_tree_decrementPSt18_Rb_tree_node_base
    /*000001b0*/ LDR         FP, [R0, #20] 
    /*000001b4*/ MOV         R8, R0 
    /*000001b8*/ CMP         R6, FP 
    /*000001bc*/ MOVCC       R2, R6 
    /*000001c0*/ MOVCS       R2, FP 
    /*000001c4*/ CMP         R2, #0 
    /*000001c8*/ BNE         _ZNSt8_Rb_treeINSt7__cxx1112basic_stringIcSt11char_traitsIcESaIcEEESt4pairIKS5_P16hiRUNTIME_BLOB_SESt10_Select1stISA_ESt4lessIS5_ESaISA_EE22_M_emplace_hint_uniqueIJRKSt21piecewise_construct_tSt5tupleIJOS5_EESL_IJEEEEESt17_Rb_tree_iteratorISA_ESt23_Rb_tree_const_iteratorISA_EDpOT_.isra.282_x264
    _ZNSt8_Rb_treeINSt7__cxx1112basic_stringIcSt11char_traitsIcESaIcEEESt4pairIKS5_P16hiRUNTIME_BLOB_SESt10_Select1stISA_ESt4lessIS5_ESaISA_EE22_M_emplace_hint_uniqueIJRKSt21piecewise_construct_tSt5tupleIJOS5_EESL_IJEEEEESt17_Rb_tree_iteratorISA_ESt23_Rb_tree_const_iteratorISA_EDpOT_.isra.282_x1cc:
    /*000001cc*/ SUB         R0, FP, R6 
    _ZNSt8_Rb_treeINSt7__cxx1112basic_stringIcSt11char_traitsIcESaIcEEESt4pairIKS5_P16hiRUNTIME_BLOB_SESt10_Select1stISA_ESt4lessIS5_ESaISA_EE22_M_emplace_hint_uniqueIJRKSt21piecewise_construct_tSt5tupleIJOS5_EESL_IJEEEEESt17_Rb_tree_iteratorISA_ESt23_Rb_tree_const_iteratorISA_EDpOT_.isra.282_x1d0:
    /*000001d0*/ CMP         R0, #0 
    /*000001d4*/ BGE         _ZNSt8_Rb_treeINSt7__cxx1112basic_stringIcSt11char_traitsIcESaIcEEESt4pairIKS5_P16hiRUNTIME_BLOB_SESt10_Select1stISA_ESt4lessIS5_ESaISA_EE22_M_emplace_hint_uniqueIJRKSt21piecewise_construct_tSt5tupleIJOS5_EESL_IJEEEEESt17_Rb_tree_iteratorISA_ESt23_Rb_tree_const_iteratorISA_EDpOT_.isra.282_x290
    /*000001d8*/ LDR         FP, [R8, #12] 
    /*000001dc*/ CMP         FP, #0 
    /*000001e0*/ MOVNE       R8, R5 
    /*000001e4*/ MOVNE       FP, R8 
    _ZNSt8_Rb_treeINSt7__cxx1112basic_stringIcSt11char_traitsIcESaIcEEESt4pairIKS5_P16hiRUNTIME_BLOB_SESt10_Select1stISA_ESt4lessIS5_ESaISA_EE22_M_emplace_hint_uniqueIJRKSt21piecewise_construct_tSt5tupleIJOS5_EESL_IJEEEEESt17_Rb_tree_iteratorISA_ESt23_Rb_tree_const_iteratorISA_EDpOT_.isra.282_x1e8:
    /*000001e8*/ SUB         R0, R9, R8 
    /*000001ec*/ CLZ         R0, R0 
    /*000001f0*/ LSR         R0, R0, #5 
    /*000001f4*/ CMP         FP, #0 
    /*000001f8*/ ORRNE       R0, R0, #1 
    /*000001fc*/ CMP         R0, #0 
    /*00000200*/ BNE         _ZNSt8_Rb_treeINSt7__cxx1112basic_stringIcSt11char_traitsIcESaIcEEESt4pairIKS5_P16hiRUNTIME_BLOB_SESt10_Select1stISA_ESt4lessIS5_ESaISA_EE22_M_emplace_hint_uniqueIJRKSt21piecewise_construct_tSt5tupleIJOS5_EESL_IJEEEEESt17_Rb_tree_iteratorISA_ESt23_Rb_tree_const_iteratorISA_EDpOT_.isra.282_x23c
    /*00000204*/ LDR         R6, [R4, #20] 
    /*00000208*/ LDR         SL, [R4, #16] 
    _ZNSt8_Rb_treeINSt7__cxx1112basic_stringIcSt11char_traitsIcESaIcEEESt4pairIKS5_P16hiRUNTIME_BLOB_SESt10_Select1stISA_ESt4lessIS5_ESaISA_EE22_M_emplace_hint_uniqueIJRKSt21piecewise_construct_tSt5tupleIJOS5_EESL_IJEEEEESt17_Rb_tree_iteratorISA_ESt23_Rb_tree_const_iteratorISA_EDpOT_.isra.282_x20c:
    /*0000020c*/ LDR         R5, [R8, #20] 
    /*00000210*/ CMP         R6, R5 
    /*00000214*/ MOVCC       R2, R6 
    /*00000218*/ MOVCS       R2, R5 
    /*0000021c*/ CMP         R2, #0 
    /*00000220*/ BEQ         _ZNSt8_Rb_treeINSt7__cxx1112basic_stringIcSt11char_traitsIcESaIcEEESt4pairIKS5_P16hiRUNTIME_BLOB_SESt10_Select1stISA_ESt4lessIS5_ESaISA_EE22_M_emplace_hint_uniqueIJRKSt21piecewise_construct_tSt5tupleIJOS5_EESL_IJEEEEESt17_Rb_tree_iteratorISA_ESt23_Rb_tree_const_iteratorISA_EDpOT_.isra.282_x288
    /*00000224*/ LDR         R1, [R8, #16] 
    /*00000228*/ MOV         R0, SL 
    /*0000022c*/ BL          memcmp
    /*00000230*/ CMP         R0, #0 
    /*00000234*/ BEQ         _ZNSt8_Rb_treeINSt7__cxx1112basic_stringIcSt11char_traitsIcESaIcEEESt4pairIKS5_P16hiRUNTIME_BLOB_SESt10_Select1stISA_ESt4lessIS5_ESaISA_EE22_M_emplace_hint_uniqueIJRKSt21piecewise_construct_tSt5tupleIJOS5_EESL_IJEEEEESt17_Rb_tree_iteratorISA_ESt23_Rb_tree_const_iteratorISA_EDpOT_.isra.282_x288
    _ZNSt8_Rb_treeINSt7__cxx1112basic_stringIcSt11char_traitsIcESaIcEEESt4pairIKS5_P16hiRUNTIME_BLOB_SESt10_Select1stISA_ESt4lessIS5_ESaISA_EE22_M_emplace_hint_uniqueIJRKSt21piecewise_construct_tSt5tupleIJOS5_EESL_IJEEEEESt17_Rb_tree_iteratorISA_ESt23_Rb_tree_const_iteratorISA_EDpOT_.isra.282_x238:
    /*00000238*/ LSR         R0, R0, #31 
    _ZNSt8_Rb_treeINSt7__cxx1112basic_stringIcSt11char_traitsIcESaIcEEESt4pairIKS5_P16hiRUNTIME_BLOB_SESt10_Select1stISA_ESt4lessIS5_ESaISA_EE22_M_emplace_hint_uniqueIJRKSt21piecewise_construct_tSt5tupleIJOS5_EESL_IJEEEEESt17_Rb_tree_iteratorISA_ESt23_Rb_tree_const_iteratorISA_EDpOT_.isra.282_x23c:
    /*0000023c*/ MOV         R3, R9 
    /*00000240*/ MOV         R2, R8 
    /*00000244*/ MOV         R1, R4 
    /*00000248*/ BL          _ZSt29_Rb_tree_insert_and_rebalancebPSt18_Rb_tree_node_baseS0_RS_
    /*0000024c*/ LDR         R3, [R7, #20] 
    /*00000250*/ MOV         R0, R4 
    /*00000254*/ ADD         R3, R3, #1 
    /*00000258*/ STR         R3, [R7, #20] 
    /*0000025c*/ ADD         SP, SP, #20 
    /*00000260*/ POP         {R4, R5, R6, R7, R8, R9, SL, FP, PC} 
    _ZNSt8_Rb_treeINSt7__cxx1112basic_stringIcSt11char_traitsIcESaIcEEESt4pairIKS5_P16hiRUNTIME_BLOB_SESt10_Select1stISA_ESt4lessIS5_ESaISA_EE22_M_emplace_hint_uniqueIJRKSt21piecewise_construct_tSt5tupleIJOS5_EESL_IJEEEEESt17_Rb_tree_iteratorISA_ESt23_Rb_tree_const_iteratorISA_EDpOT_.isra.282_x264:
    /*00000264*/ LDR         R0, [R0, #16] 
    /*00000268*/ MOV         R1, SL 
    /*0000026c*/ BL          memcmp
    /*00000270*/ CMP         R0, #0 
    /*00000274*/ BNE         _ZNSt8_Rb_treeINSt7__cxx1112basic_stringIcSt11char_traitsIcESaIcEEESt4pairIKS5_P16hiRUNTIME_BLOB_SESt10_Select1stISA_ESt4lessIS5_ESaISA_EE22_M_emplace_hint_uniqueIJRKSt21piecewise_construct_tSt5tupleIJOS5_EESL_IJEEEEESt17_Rb_tree_iteratorISA_ESt23_Rb_tree_const_iteratorISA_EDpOT_.isra.282_x1d0
    /*00000278*/ B           _ZNSt8_Rb_treeINSt7__cxx1112basic_stringIcSt11char_traitsIcESaIcEEESt4pairIKS5_P16hiRUNTIME_BLOB_SESt10_Select1stISA_ESt4lessIS5_ESaISA_EE22_M_emplace_hint_uniqueIJRKSt21piecewise_construct_tSt5tupleIJOS5_EESL_IJEEEEESt17_Rb_tree_iteratorISA_ESt23_Rb_tree_const_iteratorISA_EDpOT_.isra.282_x1cc
    _ZNSt8_Rb_treeINSt7__cxx1112basic_stringIcSt11char_traitsIcESaIcEEESt4pairIKS5_P16hiRUNTIME_BLOB_SESt10_Select1stISA_ESt4lessIS5_ESaISA_EE22_M_emplace_hint_uniqueIJRKSt21piecewise_construct_tSt5tupleIJOS5_EESL_IJEEEEESt17_Rb_tree_iteratorISA_ESt23_Rb_tree_const_iteratorISA_EDpOT_.isra.282_x27c:
    /*0000027c*/ SUB         R2, R6, R8 
    /*00000280*/ CMP         R2, #0 
    /*00000284*/ B           _ZNSt8_Rb_treeINSt7__cxx1112basic_stringIcSt11char_traitsIcESaIcEEESt4pairIKS5_P16hiRUNTIME_BLOB_SESt10_Select1stISA_ESt4lessIS5_ESaISA_EE22_M_emplace_hint_uniqueIJRKSt21piecewise_construct_tSt5tupleIJOS5_EESL_IJEEEEESt17_Rb_tree_iteratorISA_ESt23_Rb_tree_const_iteratorISA_EDpOT_.isra.282_x110
    _ZNSt8_Rb_treeINSt7__cxx1112basic_stringIcSt11char_traitsIcESaIcEEESt4pairIKS5_P16hiRUNTIME_BLOB_SESt10_Select1stISA_ESt4lessIS5_ESaISA_EE22_M_emplace_hint_uniqueIJRKSt21piecewise_construct_tSt5tupleIJOS5_EESL_IJEEEEESt17_Rb_tree_iteratorISA_ESt23_Rb_tree_const_iteratorISA_EDpOT_.isra.282_x288:
    /*00000288*/ SUB         R0, R6, R5 
    /*0000028c*/ B           _ZNSt8_Rb_treeINSt7__cxx1112basic_stringIcSt11char_traitsIcESaIcEEESt4pairIKS5_P16hiRUNTIME_BLOB_SESt10_Select1stISA_ESt4lessIS5_ESaISA_EE22_M_emplace_hint_uniqueIJRKSt21piecewise_construct_tSt5tupleIJOS5_EESL_IJEEEEESt17_Rb_tree_iteratorISA_ESt23_Rb_tree_const_iteratorISA_EDpOT_.isra.282_x238
    _ZNSt8_Rb_treeINSt7__cxx1112basic_stringIcSt11char_traitsIcESaIcEEESt4pairIKS5_P16hiRUNTIME_BLOB_SESt10_Select1stISA_ESt4lessIS5_ESaISA_EE22_M_emplace_hint_uniqueIJRKSt21piecewise_construct_tSt5tupleIJOS5_EESL_IJEEEEESt17_Rb_tree_iteratorISA_ESt23_Rb_tree_const_iteratorISA_EDpOT_.isra.282_x290:
    /*00000290*/ ADD         R2, R4, #16 
    /*00000294*/ MOV         R1, R7 
    /*00000298*/ ADD         R0, SP, #8 
    /*0000029c*/ BL          _ZNSt8_Rb_treeINSt7__cxx1112basic_stringIcSt11char_traitsIcESaIcEEESt4pairIKS5_P16hiRUNTIME_BLOB_SESt10_Select1stISA_ESt4lessIS5_ESaISA_EE24_M_get_insert_unique_posERS7_
    /*000002a0*/ LDR         R8, [SP, #12] 
    /*000002a4*/ LDR         FP, [SP, #8] 
    /*000002a8*/ CMP         R8, #0 
    /*000002ac*/ LDREQ       SL, [R4, #16] 
    /*000002b0*/ BNE         _ZNSt8_Rb_treeINSt7__cxx1112basic_stringIcSt11char_traitsIcESaIcEEESt4pairIKS5_P16hiRUNTIME_BLOB_SESt10_Select1stISA_ESt4lessIS5_ESaISA_EE22_M_emplace_hint_uniqueIJRKSt21piecewise_construct_tSt5tupleIJOS5_EESL_IJEEEEESt17_Rb_tree_iteratorISA_ESt23_Rb_tree_const_iteratorISA_EDpOT_.isra.282_x1e8
    /*000002b4*/ B           _ZNSt8_Rb_treeINSt7__cxx1112basic_stringIcSt11char_traitsIcESaIcEEESt4pairIKS5_P16hiRUNTIME_BLOB_SESt10_Select1stISA_ESt4lessIS5_ESaISA_EE22_M_emplace_hint_uniqueIJRKSt21piecewise_construct_tSt5tupleIJOS5_EESL_IJEEEEESt17_Rb_tree_iteratorISA_ESt23_Rb_tree_const_iteratorISA_EDpOT_.isra.282_xc8
    _ZNSt8_Rb_treeINSt7__cxx1112basic_stringIcSt11char_traitsIcESaIcEEESt4pairIKS5_P16hiRUNTIME_BLOB_SESt10_Select1stISA_ESt4lessIS5_ESaISA_EE22_M_emplace_hint_uniqueIJRKSt21piecewise_construct_tSt5tupleIJOS5_EESL_IJEEEEESt17_Rb_tree_iteratorISA_ESt23_Rb_tree_const_iteratorISA_EDpOT_.isra.282_x2b8:
    /*000002b8*/ LDR         R3, [R7, #20] 
    /*000002bc*/ CMP         R3, R1 
    /*000002c0*/ BEQ         _ZNSt8_Rb_treeINSt7__cxx1112basic_stringIcSt11char_traitsIcESaIcEEESt4pairIKS5_P16hiRUNTIME_BLOB_SESt10_Select1stISA_ESt4lessIS5_ESaISA_EE22_M_emplace_hint_uniqueIJRKSt21piecewise_construct_tSt5tupleIJOS5_EESL_IJEEEEESt17_Rb_tree_iteratorISA_ESt23_Rb_tree_const_iteratorISA_EDpOT_.isra.282_x290
    /*000002c4*/ LDR         R8, [R7, #16] 
    /*000002c8*/ LDR         R5, [R4, #20] 
    /*000002cc*/ LDR         R6, [R8, #20] 
    /*000002d0*/ CMP         R6, R5 
    /*000002d4*/ MOVCC       R2, R6 
    /*000002d8*/ MOVCS       R2, R5 
    /*000002dc*/ CMP         R2, R1 
    /*000002e0*/ BNE         _ZNSt8_Rb_treeINSt7__cxx1112basic_stringIcSt11char_traitsIcESaIcEEESt4pairIKS5_P16hiRUNTIME_BLOB_SESt10_Select1stISA_ESt4lessIS5_ESaISA_EE22_M_emplace_hint_uniqueIJRKSt21piecewise_construct_tSt5tupleIJOS5_EESL_IJEEEEESt17_Rb_tree_iteratorISA_ESt23_Rb_tree_const_iteratorISA_EDpOT_.isra.282_x300
    _ZNSt8_Rb_treeINSt7__cxx1112basic_stringIcSt11char_traitsIcESaIcEEESt4pairIKS5_P16hiRUNTIME_BLOB_SESt10_Select1stISA_ESt4lessIS5_ESaISA_EE22_M_emplace_hint_uniqueIJRKSt21piecewise_construct_tSt5tupleIJOS5_EESL_IJEEEEESt17_Rb_tree_iteratorISA_ESt23_Rb_tree_const_iteratorISA_EDpOT_.isra.282_x2e4:
    /*000002e4*/ SUB         R0, R6, R5 
    _ZNSt8_Rb_treeINSt7__cxx1112basic_stringIcSt11char_traitsIcESaIcEEESt4pairIKS5_P16hiRUNTIME_BLOB_SESt10_Select1stISA_ESt4lessIS5_ESaISA_EE22_M_emplace_hint_uniqueIJRKSt21piecewise_construct_tSt5tupleIJOS5_EESL_IJEEEEESt17_Rb_tree_iteratorISA_ESt23_Rb_tree_const_iteratorISA_EDpOT_.isra.282_x2e8:
    /*000002e8*/ CMP         R0, #0 
    /*000002ec*/ BGE         _ZNSt8_Rb_treeINSt7__cxx1112basic_stringIcSt11char_traitsIcESaIcEEESt4pairIKS5_P16hiRUNTIME_BLOB_SESt10_Select1stISA_ESt4lessIS5_ESaISA_EE22_M_emplace_hint_uniqueIJRKSt21piecewise_construct_tSt5tupleIJOS5_EESL_IJEEEEESt17_Rb_tree_iteratorISA_ESt23_Rb_tree_const_iteratorISA_EDpOT_.isra.282_x290
    /*000002f0*/ MOV         FP, #0 
    /*000002f4*/ B           _ZNSt8_Rb_treeINSt7__cxx1112basic_stringIcSt11char_traitsIcESaIcEEESt4pairIKS5_P16hiRUNTIME_BLOB_SESt10_Select1stISA_ESt4lessIS5_ESaISA_EE22_M_emplace_hint_uniqueIJRKSt21piecewise_construct_tSt5tupleIJOS5_EESL_IJEEEEESt17_Rb_tree_iteratorISA_ESt23_Rb_tree_const_iteratorISA_EDpOT_.isra.282_x1e8
    _ZNSt8_Rb_treeINSt7__cxx1112basic_stringIcSt11char_traitsIcESaIcEEESt4pairIKS5_P16hiRUNTIME_BLOB_SESt10_Select1stISA_ESt4lessIS5_ESaISA_EE22_M_emplace_hint_uniqueIJRKSt21piecewise_construct_tSt5tupleIJOS5_EESL_IJEEEEESt17_Rb_tree_iteratorISA_ESt23_Rb_tree_const_iteratorISA_EDpOT_.isra.282_x2f8:
    /*000002f8*/ SUB         R0, R6, R8 
    /*000002fc*/ B           _ZNSt8_Rb_treeINSt7__cxx1112basic_stringIcSt11char_traitsIcESaIcEEESt4pairIKS5_P16hiRUNTIME_BLOB_SESt10_Select1stISA_ESt4lessIS5_ESaISA_EE22_M_emplace_hint_uniqueIJRKSt21piecewise_construct_tSt5tupleIJOS5_EESL_IJEEEEESt17_Rb_tree_iteratorISA_ESt23_Rb_tree_const_iteratorISA_EDpOT_.isra.282_x17c
    _ZNSt8_Rb_treeINSt7__cxx1112basic_stringIcSt11char_traitsIcESaIcEEESt4pairIKS5_P16hiRUNTIME_BLOB_SESt10_Select1stISA_ESt4lessIS5_ESaISA_EE22_M_emplace_hint_uniqueIJRKSt21piecewise_construct_tSt5tupleIJOS5_EESL_IJEEEEESt17_Rb_tree_iteratorISA_ESt23_Rb_tree_const_iteratorISA_EDpOT_.isra.282_x300:
    /*00000300*/ LDR         R1, [R4, #16] 
    /*00000304*/ LDR         R0, [R8, #16] 
    /*00000308*/ BL          memcmp
    /*0000030c*/ CMP         R0, #0 
    /*00000310*/ BNE         _ZNSt8_Rb_treeINSt7__cxx1112basic_stringIcSt11char_traitsIcESaIcEEESt4pairIKS5_P16hiRUNTIME_BLOB_SESt10_Select1stISA_ESt4lessIS5_ESaISA_EE22_M_emplace_hint_uniqueIJRKSt21piecewise_construct_tSt5tupleIJOS5_EESL_IJEEEEESt17_Rb_tree_iteratorISA_ESt23_Rb_tree_const_iteratorISA_EDpOT_.isra.282_x2e8
    /*00000314*/ B           _ZNSt8_Rb_treeINSt7__cxx1112basic_stringIcSt11char_traitsIcESaIcEEESt4pairIKS5_P16hiRUNTIME_BLOB_SESt10_Select1stISA_ESt4lessIS5_ESaISA_EE22_M_emplace_hint_uniqueIJRKSt21piecewise_construct_tSt5tupleIJOS5_EESL_IJEEEEESt17_Rb_tree_iteratorISA_ESt23_Rb_tree_const_iteratorISA_EDpOT_.isra.282_x2e4
    _ZNSt8_Rb_treeINSt7__cxx1112basic_stringIcSt11char_traitsIcESaIcEEESt4pairIKS5_P16hiRUNTIME_BLOB_SESt10_Select1stISA_ESt4lessIS5_ESaISA_EE22_M_emplace_hint_uniqueIJRKSt21piecewise_construct_tSt5tupleIJOS5_EESL_IJEEEEESt17_Rb_tree_iteratorISA_ESt23_Rb_tree_const_iteratorISA_EDpOT_.isra.282_x318:
    /*00000318*/ LDR         LR, [R2] 
    /*0000031c*/ LDR         IP, [R2, #4] 
    /*00000320*/ LDR         R0, [R2, #8] 
    /*00000324*/ LDR         R1, [R2, #12] 
    /*00000328*/ STR         LR, [R4, #24] 
    /*0000032c*/ LDR         LR, [SP] 
    /*00000330*/ STR         IP, [LR, #4] 
    /*00000334*/ STR         R0, [LR, #8] 
    /*00000338*/ STR         R1, [LR, #12] 
    /*0000033c*/ B           _ZNSt8_Rb_treeINSt7__cxx1112basic_stringIcSt11char_traitsIcESaIcEEESt4pairIKS5_P16hiRUNTIME_BLOB_SESt10_Select1stISA_ESt4lessIS5_ESaISA_EE22_M_emplace_hint_uniqueIJRKSt21piecewise_construct_tSt5tupleIJOS5_EESL_IJEEEEESt17_Rb_tree_iteratorISA_ESt23_Rb_tree_const_iteratorISA_EDpOT_.isra.282_x60
    _ZNSt8_Rb_treeINSt7__cxx1112basic_stringIcSt11char_traitsIcESaIcEEESt4pairIKS5_P16hiRUNTIME_BLOB_SESt10_Select1stISA_ESt4lessIS5_ESaISA_EE22_M_emplace_hint_uniqueIJRKSt21piecewise_construct_tSt5tupleIJOS5_EESL_IJEEEEESt17_Rb_tree_iteratorISA_ESt23_Rb_tree_const_iteratorISA_EDpOT_.isra.282_x340:
    /*00000340*/ MOV         R8, R5 
    /*00000344*/ B           _ZNSt8_Rb_treeINSt7__cxx1112basic_stringIcSt11char_traitsIcESaIcEEESt4pairIKS5_P16hiRUNTIME_BLOB_SESt10_Select1stISA_ESt4lessIS5_ESaISA_EE22_M_emplace_hint_uniqueIJRKSt21piecewise_construct_tSt5tupleIJOS5_EESL_IJEEEEESt17_Rb_tree_iteratorISA_ESt23_Rb_tree_const_iteratorISA_EDpOT_.isra.282_x1e8
FUNC_END _ZNSt8_Rb_treeINSt7__cxx1112basic_stringIcSt11char_traitsIcESaIcEEESt4pairIKS5_P16hiRUNTIME_BLOB_SESt10_Select1stISA_ESt4lessIS5_ESaISA_EE22_M_emplace_hint_uniqueIJRKSt21piecewise_construct_tSt5tupleIJOS5_EESL_IJEEEEESt17_Rb_tree_iteratorISA_ESt23_Rb_tree_const_iteratorISA_EDpOT_.isra.282


@ - - - - - - - - - - - - - - - - - - - - - - - - - - - - - 
@ .text._ZL16addUserBlobToMapPN4hirt14ModelGroupTaskERSt3mapINSt7__cxx1112basic_stringIcSt11char_traitsIcESaIcEEEP16hiRUNTIME_BLOB_SSt4lessIS8_ESaISt4pairIKS8_SA_EEER22hiRUNTIME_GROUP_BLOB_S
@ Size: 0x3a8
@ - - - - - - - - - - - - - - - - - - - - - - - - - - - - - 

FUNC_BEGIN _ZL16addUserBlobToMapPN4hirt14ModelGroupTaskERSt3mapINSt7__cxx1112basic_stringIcSt11char_traitsIcESaIcEEEP16hiRUNTIME_BLOB_SSt4lessIS8_ESaISt4pairIKS8_SA_EEER22hiRUNTIME_GROUP_BLOB_S
    /*00000000*/ MOV         IP, #16384                  @ 0x4000 
    /*00000004*/ PUSH        {R4, R5, R6, R7, R8, R9, SL, FP, LR} 
    /*00000008*/ SUB         IP, SP, IP 
    /*0000000c*/ STR         R0, [IP, #3856]             @ 0xf10 
    /*00000010*/ LDR         R3, WORD_0384               @ LDR         R3, [PC, #876]              @ 0x0000000000000384 
    /*00000014*/ MOV         SL, R2 
    /*00000018*/ LDR         R2, WORD_0388               @ LDR         R2, [PC, #872]              @ 0x0000000000000388 
    /*0000001c*/ SUB         SP, SP, #204                @ 0xcc 
    /*00000020*/ ADD         R3, PC, R3 
    /*00000024*/ ADD         R9, SP, #64                 @ 0x40 
    /*00000028*/ LDR         R2, [R3, R2] 
    /*0000002c*/ STR         R0, [SP, #24] 
    /*00000030*/ MOV         R0, R9 
    /*00000034*/ STR         R2, [SP, #20] 
    /*00000038*/ LDR         R2, [R2] 
    /*0000003c*/ STR         R1, [SP, #16] 
    /*00000040*/ MOV         R1, #0 
    /*00000044*/ STR         R2, [SP, #196]              @ 0xc4 
    /*00000048*/ MOV         R2, #130                    @ 0x82 
    /*0000004c*/ BL          memset
    /*00000050*/ LDRB        R3, [SL, #4] 
    /*00000054*/ CMP         R3, #0 
    /*00000058*/ BEQ         _ZL16addUserBlobToMapPN4hirt14ModelGroupTaskERSt3mapINSt7__cxx1112basic_stringIcSt11char_traitsIcESaIcEEEP16hiRUNTIME_BLOB_SSt4lessIS8_ESaISt4pairIKS8_SA_EEER22hiRUNTIME_GROUP_BLOB_S_x218
    /*0000005c*/ LDR         R3, WORD_038c               @ LDR         R3, [PC, #808]              @ 0x000000000000038c 
    /*00000060*/ ADD         R2, SL, #69                 @ 0x45 
    /*00000064*/ STR         R2, [SP, #4] 
    /*00000068*/ ADD         R2, SL, #4 
    /*0000006c*/ STR         R2, [SP] 
    /*00000070*/ MOV         R1, #130                    @ 0x82 
    /*00000074*/ ADD         R3, PC, R3 
    /*00000078*/ MOV         R2, #129                    @ 0x81 
    /*0000007c*/ MOV         R0, R9 
    /*00000080*/ BL          snprintf_s
    /*00000084*/ CMN         R0, #1 
    /*00000088*/ MOV         R4, R0 
    /*0000008c*/ BEQ         _ZL16addUserBlobToMapPN4hirt14ModelGroupTaskERSt3mapINSt7__cxx1112basic_stringIcSt11char_traitsIcESaIcEEEP16hiRUNTIME_BLOB_SSt4lessIS8_ESaISt4pairIKS8_SA_EEER22hiRUNTIME_GROUP_BLOB_S_x340
    _ZL16addUserBlobToMapPN4hirt14ModelGroupTaskERSt3mapINSt7__cxx1112basic_stringIcSt11char_traitsIcESaIcEEEP16hiRUNTIME_BLOB_SSt4lessIS8_ESaISt4pairIKS8_SA_EEER22hiRUNTIME_GROUP_BLOB_S_x90:
    /*00000090*/ ADD         R8, SP, #48                 @ 0x30 
    /*00000094*/ MOV         R0, R9 
    /*00000098*/ STR         R8, [SP, #40]               @ 0x28 
    /*0000009c*/ BL          strlen
    /*000000a0*/ STR         R0, [SP, #36]               @ 0x24 
    /*000000a4*/ CMP         R0, #15 
    /*000000a8*/ ADD         R3, SP, #40                 @ 0x28 
    /*000000ac*/ MOV         R4, R0 
    /*000000b0*/ STR         R3, [SP, #12] 
    /*000000b4*/ BHI         _ZL16addUserBlobToMapPN4hirt14ModelGroupTaskERSt3mapINSt7__cxx1112basic_stringIcSt11char_traitsIcESaIcEEEP16hiRUNTIME_BLOB_SSt4lessIS8_ESaISt4pairIKS8_SA_EEER22hiRUNTIME_GROUP_BLOB_S_x2a0
    /*000000b8*/ CMP         R0, #1 
    /*000000bc*/ BEQ         _ZL16addUserBlobToMapPN4hirt14ModelGroupTaskERSt3mapINSt7__cxx1112basic_stringIcSt11char_traitsIcESaIcEEEP16hiRUNTIME_BLOB_SSt4lessIS8_ESaISt4pairIKS8_SA_EEER22hiRUNTIME_GROUP_BLOB_S_x308
    /*000000c0*/ CMP         R0, #0 
    /*000000c4*/ MOVEQ       R2, R8 
    /*000000c8*/ BNE         _ZL16addUserBlobToMapPN4hirt14ModelGroupTaskERSt3mapINSt7__cxx1112basic_stringIcSt11char_traitsIcESaIcEEEP16hiRUNTIME_BLOB_SSt4lessIS8_ESaISt4pairIKS8_SA_EEER22hiRUNTIME_GROUP_BLOB_S_x330
    _ZL16addUserBlobToMapPN4hirt14ModelGroupTaskERSt3mapINSt7__cxx1112basic_stringIcSt11char_traitsIcESaIcEEEP16hiRUNTIME_BLOB_SSt4lessIS8_ESaISt4pairIKS8_SA_EEER22hiRUNTIME_GROUP_BLOB_S_xcc:
    /*000000cc*/ STR         R4, [SP, #44]               @ 0x2c 
    /*000000d0*/ MOV         R3, #0 
    /*000000d4*/ STRB        R3, [R2, R4] 
    /*000000d8*/ LDR         R3, [SP, #16] 
    /*000000dc*/ LDR         R4, [R3, #8] 
    /*000000e0*/ ADD         R2, R3, #4 
    /*000000e4*/ STR         R2, [SP, #28] 
    /*000000e8*/ CMP         R4, #0 
    /*000000ec*/ BEQ         _ZL16addUserBlobToMapPN4hirt14ModelGroupTaskERSt3mapINSt7__cxx1112basic_stringIcSt11char_traitsIcESaIcEEEP16hiRUNTIME_BLOB_SSt4lessIS8_ESaISt4pairIKS8_SA_EEER22hiRUNTIME_GROUP_BLOB_S_x328
    /*000000f0*/ LDR         R6, [SP, #44]               @ 0x2c 
    /*000000f4*/ MOV         FP, R2 
    /*000000f8*/ LDR         R7, [SP, #40]               @ 0x28 
    /*000000fc*/ B           _ZL16addUserBlobToMapPN4hirt14ModelGroupTaskERSt3mapINSt7__cxx1112basic_stringIcSt11char_traitsIcESaIcEEEP16hiRUNTIME_BLOB_SSt4lessIS8_ESaISt4pairIKS8_SA_EEER22hiRUNTIME_GROUP_BLOB_S_x12c
    _ZL16addUserBlobToMapPN4hirt14ModelGroupTaskERSt3mapINSt7__cxx1112basic_stringIcSt11char_traitsIcESaIcEEEP16hiRUNTIME_BLOB_SSt4lessIS8_ESaISt4pairIKS8_SA_EEER22hiRUNTIME_GROUP_BLOB_S_x100:
    /*00000100*/ LDR         R0, [R4, #16] 
    /*00000104*/ MOV         R1, R7 
    /*00000108*/ BL          memcmp
    /*0000010c*/ CMP         R0, #0 
    /*00000110*/ BEQ         _ZL16addUserBlobToMapPN4hirt14ModelGroupTaskERSt3mapINSt7__cxx1112basic_stringIcSt11char_traitsIcESaIcEEEP16hiRUNTIME_BLOB_SSt4lessIS8_ESaISt4pairIKS8_SA_EEER22hiRUNTIME_GROUP_BLOB_S_x144
    _ZL16addUserBlobToMapPN4hirt14ModelGroupTaskERSt3mapINSt7__cxx1112basic_stringIcSt11char_traitsIcESaIcEEEP16hiRUNTIME_BLOB_SSt4lessIS8_ESaISt4pairIKS8_SA_EEER22hiRUNTIME_GROUP_BLOB_S_x114:
    /*00000114*/ CMP         R0, #0 
    /*00000118*/ MOVGE       FP, R4 
    /*0000011c*/ LDRLT       R4, [R4, #12] 
    /*00000120*/ LDRGE       R4, [R4, #8] 
    /*00000124*/ CMP         R4, #0 
    /*00000128*/ BEQ         _ZL16addUserBlobToMapPN4hirt14ModelGroupTaskERSt3mapINSt7__cxx1112basic_stringIcSt11char_traitsIcESaIcEEEP16hiRUNTIME_BLOB_SSt4lessIS8_ESaISt4pairIKS8_SA_EEER22hiRUNTIME_GROUP_BLOB_S_x14c
    _ZL16addUserBlobToMapPN4hirt14ModelGroupTaskERSt3mapINSt7__cxx1112basic_stringIcSt11char_traitsIcESaIcEEEP16hiRUNTIME_BLOB_SSt4lessIS8_ESaISt4pairIKS8_SA_EEER22hiRUNTIME_GROUP_BLOB_S_x12c:
    /*0000012c*/ LDR         R5, [R4, #20] 
    /*00000130*/ CMP         R5, R6 
    /*00000134*/ MOVCC       R2, R5 
    /*00000138*/ MOVCS       R2, R6 
    /*0000013c*/ CMP         R2, #0 
    /*00000140*/ BNE         _ZL16addUserBlobToMapPN4hirt14ModelGroupTaskERSt3mapINSt7__cxx1112basic_stringIcSt11char_traitsIcESaIcEEEP16hiRUNTIME_BLOB_SSt4lessIS8_ESaISt4pairIKS8_SA_EEER22hiRUNTIME_GROUP_BLOB_S_x100
    _ZL16addUserBlobToMapPN4hirt14ModelGroupTaskERSt3mapINSt7__cxx1112basic_stringIcSt11char_traitsIcESaIcEEEP16hiRUNTIME_BLOB_SSt4lessIS8_ESaISt4pairIKS8_SA_EEER22hiRUNTIME_GROUP_BLOB_S_x144:
    /*00000144*/ SUB         R0, R5, R6 
    /*00000148*/ B           _ZL16addUserBlobToMapPN4hirt14ModelGroupTaskERSt3mapINSt7__cxx1112basic_stringIcSt11char_traitsIcESaIcEEEP16hiRUNTIME_BLOB_SSt4lessIS8_ESaISt4pairIKS8_SA_EEER22hiRUNTIME_GROUP_BLOB_S_x114
    _ZL16addUserBlobToMapPN4hirt14ModelGroupTaskERSt3mapINSt7__cxx1112basic_stringIcSt11char_traitsIcESaIcEEEP16hiRUNTIME_BLOB_SSt4lessIS8_ESaISt4pairIKS8_SA_EEER22hiRUNTIME_GROUP_BLOB_S_x14c:
    /*0000014c*/ LDR         R3, [SP, #28] 
    /*00000150*/ CMP         R3, FP 
    /*00000154*/ BEQ         _ZL16addUserBlobToMapPN4hirt14ModelGroupTaskERSt3mapINSt7__cxx1112basic_stringIcSt11char_traitsIcESaIcEEEP16hiRUNTIME_BLOB_SSt4lessIS8_ESaISt4pairIKS8_SA_EEER22hiRUNTIME_GROUP_BLOB_S_x280
    /*00000158*/ LDR         R4, [FP, #20] 
    /*0000015c*/ CMP         R4, R6 
    /*00000160*/ MOVCC       R2, R4 
    /*00000164*/ MOVCS       R2, R6 
    /*00000168*/ CMP         R2, #0 
    /*0000016c*/ BNE         _ZL16addUserBlobToMapPN4hirt14ModelGroupTaskERSt3mapINSt7__cxx1112basic_stringIcSt11char_traitsIcESaIcEEEP16hiRUNTIME_BLOB_SSt4lessIS8_ESaISt4pairIKS8_SA_EEER22hiRUNTIME_GROUP_BLOB_S_x264
    _ZL16addUserBlobToMapPN4hirt14ModelGroupTaskERSt3mapINSt7__cxx1112basic_stringIcSt11char_traitsIcESaIcEEEP16hiRUNTIME_BLOB_SSt4lessIS8_ESaISt4pairIKS8_SA_EEER22hiRUNTIME_GROUP_BLOB_S_x170:
    /*00000170*/ SUB         R0, R6, R4 
    /*00000174*/ CMP         R0, #0 
    /*00000178*/ BLT         _ZL16addUserBlobToMapPN4hirt14ModelGroupTaskERSt3mapINSt7__cxx1112basic_stringIcSt11char_traitsIcESaIcEEEP16hiRUNTIME_BLOB_SSt4lessIS8_ESaISt4pairIKS8_SA_EEER22hiRUNTIME_GROUP_BLOB_S_x280
    _ZL16addUserBlobToMapPN4hirt14ModelGroupTaskERSt3mapINSt7__cxx1112basic_stringIcSt11char_traitsIcESaIcEEEP16hiRUNTIME_BLOB_SSt4lessIS8_ESaISt4pairIKS8_SA_EEER22hiRUNTIME_GROUP_BLOB_S_x17c:
    /*0000017c*/ MOV         R0, FP 
    _ZL16addUserBlobToMapPN4hirt14ModelGroupTaskERSt3mapINSt7__cxx1112basic_stringIcSt11char_traitsIcESaIcEEEP16hiRUNTIME_BLOB_SSt4lessIS8_ESaISt4pairIKS8_SA_EEER22hiRUNTIME_GROUP_BLOB_S_x180:
    /*00000180*/ LDR         R3, [SL] 
    /*00000184*/ CMP         R7, R8 
    /*00000188*/ STR         R3, [R0, #40]               @ 0x28 
    /*0000018c*/ BEQ         _ZL16addUserBlobToMapPN4hirt14ModelGroupTaskERSt3mapINSt7__cxx1112basic_stringIcSt11char_traitsIcESaIcEEEP16hiRUNTIME_BLOB_SSt4lessIS8_ESaISt4pairIKS8_SA_EEER22hiRUNTIME_GROUP_BLOB_S_x198
    /*00000190*/ MOV         R0, R7 
    /*00000194*/ BL          _ZdlPv
    _ZL16addUserBlobToMapPN4hirt14ModelGroupTaskERSt3mapINSt7__cxx1112basic_stringIcSt11char_traitsIcESaIcEEEP16hiRUNTIME_BLOB_SSt4lessIS8_ESaISt4pairIKS8_SA_EEER22hiRUNTIME_GROUP_BLOB_S_x198:
    /*00000198*/ STR         R8, [SP, #40]               @ 0x28 
    /*0000019c*/ MOV         R0, R9 
    /*000001a0*/ BL          strlen
    /*000001a4*/ STR         R0, [SP, #36]               @ 0x24 
    /*000001a8*/ CMP         R0, #15 
    /*000001ac*/ MOV         R4, R0 
    /*000001b0*/ BHI         _ZL16addUserBlobToMapPN4hirt14ModelGroupTaskERSt3mapINSt7__cxx1112basic_stringIcSt11char_traitsIcESaIcEEEP16hiRUNTIME_BLOB_SSt4lessIS8_ESaISt4pairIKS8_SA_EEER22hiRUNTIME_GROUP_BLOB_S_x2d4
    /*000001b4*/ CMP         R0, #1 
    /*000001b8*/ BEQ         _ZL16addUserBlobToMapPN4hirt14ModelGroupTaskERSt3mapINSt7__cxx1112basic_stringIcSt11char_traitsIcESaIcEEEP16hiRUNTIME_BLOB_SSt4lessIS8_ESaISt4pairIKS8_SA_EEER22hiRUNTIME_GROUP_BLOB_S_x318
    /*000001bc*/ CMP         R0, #0 
    /*000001c0*/ MOVEQ       R2, R8 
    /*000001c4*/ BNE         _ZL16addUserBlobToMapPN4hirt14ModelGroupTaskERSt3mapINSt7__cxx1112basic_stringIcSt11char_traitsIcESaIcEEEP16hiRUNTIME_BLOB_SSt4lessIS8_ESaISt4pairIKS8_SA_EEER22hiRUNTIME_GROUP_BLOB_S_x338
    _ZL16addUserBlobToMapPN4hirt14ModelGroupTaskERSt3mapINSt7__cxx1112basic_stringIcSt11char_traitsIcESaIcEEEP16hiRUNTIME_BLOB_SSt4lessIS8_ESaISt4pairIKS8_SA_EEER22hiRUNTIME_GROUP_BLOB_S_x1c8:
    /*000001c8*/ STR         R4, [SP, #44]               @ 0x2c 
    /*000001cc*/ MOV         R3, #0 
    /*000001d0*/ STRB        R3, [R2, R4] 
    /*000001d4*/ LDR         R1, [SP, #12] 
    /*000001d8*/ LDR         R2, [SL] 
    /*000001dc*/ LDR         R0, [SP, #24] 
    /*000001e0*/ BL          _ZL12addBlobTablePN4hirt14ModelGroupTaskENSt7__cxx1112basic_stringIcSt11char_traitsIcESaIcEEEP16hiRUNTIME_BLOB_S
    /*000001e4*/ LDR         R0, [SP, #40]               @ 0x28 
    /*000001e8*/ CMP         R0, R8 
    /*000001ec*/ BEQ         _ZL16addUserBlobToMapPN4hirt14ModelGroupTaskERSt3mapINSt7__cxx1112basic_stringIcSt11char_traitsIcESaIcEEEP16hiRUNTIME_BLOB_SSt4lessIS8_ESaISt4pairIKS8_SA_EEER22hiRUNTIME_GROUP_BLOB_S_x1f4
    /*000001f0*/ BL          _ZdlPv
    _ZL16addUserBlobToMapPN4hirt14ModelGroupTaskERSt3mapINSt7__cxx1112basic_stringIcSt11char_traitsIcESaIcEEEP16hiRUNTIME_BLOB_SSt4lessIS8_ESaISt4pairIKS8_SA_EEER22hiRUNTIME_GROUP_BLOB_S_x1f4:
    /*000001f4*/ MOV         R4, #0 
    _ZL16addUserBlobToMapPN4hirt14ModelGroupTaskERSt3mapINSt7__cxx1112basic_stringIcSt11char_traitsIcESaIcEEEP16hiRUNTIME_BLOB_SSt4lessIS8_ESaISt4pairIKS8_SA_EEER22hiRUNTIME_GROUP_BLOB_S_x1f8:
    /*000001f8*/ LDR         R3, [SP, #20] 
    /*000001fc*/ MOV         R0, R4 
    /*00000200*/ LDR         R2, [SP, #196]              @ 0xc4 
    /*00000204*/ LDR         R3, [R3] 
    /*00000208*/ CMP         R2, R3 
    /*0000020c*/ BNE         _ZL16addUserBlobToMapPN4hirt14ModelGroupTaskERSt3mapINSt7__cxx1112basic_stringIcSt11char_traitsIcESaIcEEEP16hiRUNTIME_BLOB_SSt4lessIS8_ESaISt4pairIKS8_SA_EEER22hiRUNTIME_GROUP_BLOB_S_x380
    /*00000210*/ ADD         SP, SP, #204                @ 0xcc 
    /*00000214*/ POP         {R4, R5, R6, R7, R8, R9, SL, FP, PC} 
    _ZL16addUserBlobToMapPN4hirt14ModelGroupTaskERSt3mapINSt7__cxx1112basic_stringIcSt11char_traitsIcESaIcEEEP16hiRUNTIME_BLOB_SSt4lessIS8_ESaISt4pairIKS8_SA_EEER22hiRUNTIME_GROUP_BLOB_S_x218:
    /*00000218*/ MOV         R3, #64                     @ 0x40 
    /*0000021c*/ ADD         R2, SL, #69                 @ 0x45 
    /*00000220*/ MOV         R1, #65                     @ 0x41 
    /*00000224*/ MOV         R0, R9 
    /*00000228*/ BL          strncpy_s
    /*0000022c*/ CMP         R0, #0 
    /*00000230*/ STRBEQ      R0, [SP, #128]              @ 0x80 
    /*00000234*/ BEQ         _ZL16addUserBlobToMapPN4hirt14ModelGroupTaskERSt3mapINSt7__cxx1112basic_stringIcSt11char_traitsIcESaIcEEEP16hiRUNTIME_BLOB_SSt4lessIS8_ESaISt4pairIKS8_SA_EEER22hiRUNTIME_GROUP_BLOB_S_x90
    /*00000238*/ STR         R0, [SP] 
    /*0000023c*/ MOV         R1, #4 
    /*00000240*/ LDR         R3, WORD_0390               @ LDR         R3, [PC, #328]              @ 0x0000000000000390 
    /*00000244*/ MVN         R4, #0 
    /*00000248*/ LDR         R2, WORD_0394               @ LDR         R2, [PC, #324]              @ 0x0000000000000394 
    /*0000024c*/ LDR         R0, WORD_0398               @ LDR         R0, [PC, #324]              @ 0x0000000000000398 
    /*00000250*/ ADD         R3, PC, R3 
    /*00000254*/ ADD         R2, PC, R2 
    /*00000258*/ ADD         R0, PC, R0 
    /*0000025c*/ BL          _Z15HIRT_LOG_PrintfPKc19tagHIRT_LOG_LEVEL_ES0_z
    /*00000260*/ B           _ZL16addUserBlobToMapPN4hirt14ModelGroupTaskERSt3mapINSt7__cxx1112basic_stringIcSt11char_traitsIcESaIcEEEP16hiRUNTIME_BLOB_SSt4lessIS8_ESaISt4pairIKS8_SA_EEER22hiRUNTIME_GROUP_BLOB_S_x1f8
    _ZL16addUserBlobToMapPN4hirt14ModelGroupTaskERSt3mapINSt7__cxx1112basic_stringIcSt11char_traitsIcESaIcEEEP16hiRUNTIME_BLOB_SSt4lessIS8_ESaISt4pairIKS8_SA_EEER22hiRUNTIME_GROUP_BLOB_S_x264:
    /*00000264*/ LDR         R1, [FP, #16] 
    /*00000268*/ MOV         R0, R7 
    /*0000026c*/ BL          memcmp
    /*00000270*/ CMP         R0, #0 
    /*00000274*/ BEQ         _ZL16addUserBlobToMapPN4hirt14ModelGroupTaskERSt3mapINSt7__cxx1112basic_stringIcSt11char_traitsIcESaIcEEEP16hiRUNTIME_BLOB_SSt4lessIS8_ESaISt4pairIKS8_SA_EEER22hiRUNTIME_GROUP_BLOB_S_x170
    /*00000278*/ CMP         R0, #0 
    /*0000027c*/ BGE         _ZL16addUserBlobToMapPN4hirt14ModelGroupTaskERSt3mapINSt7__cxx1112basic_stringIcSt11char_traitsIcESaIcEEEP16hiRUNTIME_BLOB_SSt4lessIS8_ESaISt4pairIKS8_SA_EEER22hiRUNTIME_GROUP_BLOB_S_x17c
    _ZL16addUserBlobToMapPN4hirt14ModelGroupTaskERSt3mapINSt7__cxx1112basic_stringIcSt11char_traitsIcESaIcEEEP16hiRUNTIME_BLOB_SSt4lessIS8_ESaISt4pairIKS8_SA_EEER22hiRUNTIME_GROUP_BLOB_S_x280:
    /*00000280*/ LDR         R3, [SP, #12] 
    /*00000284*/ ADD         R2, SP, #200                @ 0xc8 
    /*00000288*/ LDR         R0, [SP, #16] 
    /*0000028c*/ MOV         R1, FP 
    /*00000290*/ STR         R3, [R2, #-164]!            @ 0xffffff5c 
    /*00000294*/ BL          _ZNSt8_Rb_treeINSt7__cxx1112basic_stringIcSt11char_traitsIcESaIcEEESt4pairIKS5_P16hiRUNTIME_BLOB_SESt10_Select1stISA_ESt4lessIS5_ESaISA_EE22_M_emplace_hint_uniqueIJRKSt21piecewise_construct_tSt5tupleIJOS5_EESL_IJEEEEESt17_Rb_tree_iteratorISA_ESt23_Rb_tree_const_iteratorISA_EDpOT_.isra.282
    /*00000298*/ LDR         R7, [SP, #40]               @ 0x28 
    /*0000029c*/ B           _ZL16addUserBlobToMapPN4hirt14ModelGroupTaskERSt3mapINSt7__cxx1112basic_stringIcSt11char_traitsIcESaIcEEEP16hiRUNTIME_BLOB_SSt4lessIS8_ESaISt4pairIKS8_SA_EEER22hiRUNTIME_GROUP_BLOB_S_x180
    _ZL16addUserBlobToMapPN4hirt14ModelGroupTaskERSt3mapINSt7__cxx1112basic_stringIcSt11char_traitsIcESaIcEEEP16hiRUNTIME_BLOB_SSt4lessIS8_ESaISt4pairIKS8_SA_EEER22hiRUNTIME_GROUP_BLOB_S_x2a0:
    /*000002a0*/ MOV         R0, R3 
    /*000002a4*/ MOV         R2, #0 
    /*000002a8*/ ADD         R1, SP, #36                 @ 0x24 
    /*000002ac*/ BL          _ZNSt7__cxx1112basic_stringIcSt11char_traitsIcESaIcEE9_M_createERjj
    /*000002b0*/ LDR         R3, [SP, #36]               @ 0x24 
    /*000002b4*/ STR         R0, [SP, #40]               @ 0x28 
    /*000002b8*/ STR         R3, [SP, #48]               @ 0x30 
    _ZL16addUserBlobToMapPN4hirt14ModelGroupTaskERSt3mapINSt7__cxx1112basic_stringIcSt11char_traitsIcESaIcEEEP16hiRUNTIME_BLOB_SSt4lessIS8_ESaISt4pairIKS8_SA_EEER22hiRUNTIME_GROUP_BLOB_S_x2bc:
    /*000002bc*/ MOV         R2, R4 
    /*000002c0*/ MOV         R1, R9 
    /*000002c4*/ BL          memcpy
    /*000002c8*/ LDR         R4, [SP, #36]               @ 0x24 
    /*000002cc*/ LDR         R2, [SP, #40]               @ 0x28 
    /*000002d0*/ B           _ZL16addUserBlobToMapPN4hirt14ModelGroupTaskERSt3mapINSt7__cxx1112basic_stringIcSt11char_traitsIcESaIcEEEP16hiRUNTIME_BLOB_SSt4lessIS8_ESaISt4pairIKS8_SA_EEER22hiRUNTIME_GROUP_BLOB_S_xcc
    _ZL16addUserBlobToMapPN4hirt14ModelGroupTaskERSt3mapINSt7__cxx1112basic_stringIcSt11char_traitsIcESaIcEEEP16hiRUNTIME_BLOB_SSt4lessIS8_ESaISt4pairIKS8_SA_EEER22hiRUNTIME_GROUP_BLOB_S_x2d4:
    /*000002d4*/ LDR         R0, [SP, #12] 
    /*000002d8*/ MOV         R2, #0 
    /*000002dc*/ ADD         R1, SP, #36                 @ 0x24 
    /*000002e0*/ BL          _ZNSt7__cxx1112basic_stringIcSt11char_traitsIcESaIcEE9_M_createERjj
    /*000002e4*/ LDR         R3, [SP, #36]               @ 0x24 
    /*000002e8*/ STR         R0, [SP, #40]               @ 0x28 
    /*000002ec*/ STR         R3, [SP, #48]               @ 0x30 
    _ZL16addUserBlobToMapPN4hirt14ModelGroupTaskERSt3mapINSt7__cxx1112basic_stringIcSt11char_traitsIcESaIcEEEP16hiRUNTIME_BLOB_SSt4lessIS8_ESaISt4pairIKS8_SA_EEER22hiRUNTIME_GROUP_BLOB_S_x2f0:
    /*000002f0*/ MOV         R2, R4 
    /*000002f4*/ MOV         R1, R9 
    /*000002f8*/ BL          memcpy
    /*000002fc*/ LDR         R4, [SP, #36]               @ 0x24 
    /*00000300*/ LDR         R2, [SP, #40]               @ 0x28 
    /*00000304*/ B           _ZL16addUserBlobToMapPN4hirt14ModelGroupTaskERSt3mapINSt7__cxx1112basic_stringIcSt11char_traitsIcESaIcEEEP16hiRUNTIME_BLOB_SSt4lessIS8_ESaISt4pairIKS8_SA_EEER22hiRUNTIME_GROUP_BLOB_S_x1c8
    _ZL16addUserBlobToMapPN4hirt14ModelGroupTaskERSt3mapINSt7__cxx1112basic_stringIcSt11char_traitsIcESaIcEEEP16hiRUNTIME_BLOB_SSt4lessIS8_ESaISt4pairIKS8_SA_EEER22hiRUNTIME_GROUP_BLOB_S_x308:
    /*00000308*/ LDRB        R3, [SP, #64]               @ 0x40 
    /*0000030c*/ MOV         R2, R8 
    /*00000310*/ STRB        R3, [SP, #48]               @ 0x30 
    /*00000314*/ B           _ZL16addUserBlobToMapPN4hirt14ModelGroupTaskERSt3mapINSt7__cxx1112basic_stringIcSt11char_traitsIcESaIcEEEP16hiRUNTIME_BLOB_SSt4lessIS8_ESaISt4pairIKS8_SA_EEER22hiRUNTIME_GROUP_BLOB_S_xcc
    _ZL16addUserBlobToMapPN4hirt14ModelGroupTaskERSt3mapINSt7__cxx1112basic_stringIcSt11char_traitsIcESaIcEEEP16hiRUNTIME_BLOB_SSt4lessIS8_ESaISt4pairIKS8_SA_EEER22hiRUNTIME_GROUP_BLOB_S_x318:
    /*00000318*/ LDRB        R3, [SP, #64]               @ 0x40 
    /*0000031c*/ MOV         R2, R8 
    /*00000320*/ STRB        R3, [SP, #48]               @ 0x30 
    /*00000324*/ B           _ZL16addUserBlobToMapPN4hirt14ModelGroupTaskERSt3mapINSt7__cxx1112basic_stringIcSt11char_traitsIcESaIcEEEP16hiRUNTIME_BLOB_SSt4lessIS8_ESaISt4pairIKS8_SA_EEER22hiRUNTIME_GROUP_BLOB_S_x1c8
    _ZL16addUserBlobToMapPN4hirt14ModelGroupTaskERSt3mapINSt7__cxx1112basic_stringIcSt11char_traitsIcESaIcEEEP16hiRUNTIME_BLOB_SSt4lessIS8_ESaISt4pairIKS8_SA_EEER22hiRUNTIME_GROUP_BLOB_S_x328:
    /*00000328*/ MOV         FP, R2 
    /*0000032c*/ B           _ZL16addUserBlobToMapPN4hirt14ModelGroupTaskERSt3mapINSt7__cxx1112basic_stringIcSt11char_traitsIcESaIcEEEP16hiRUNTIME_BLOB_SSt4lessIS8_ESaISt4pairIKS8_SA_EEER22hiRUNTIME_GROUP_BLOB_S_x280
    _ZL16addUserBlobToMapPN4hirt14ModelGroupTaskERSt3mapINSt7__cxx1112basic_stringIcSt11char_traitsIcESaIcEEEP16hiRUNTIME_BLOB_SSt4lessIS8_ESaISt4pairIKS8_SA_EEER22hiRUNTIME_GROUP_BLOB_S_x330:
    /*00000330*/ MOV         R0, R8 
    /*00000334*/ B           _ZL16addUserBlobToMapPN4hirt14ModelGroupTaskERSt3mapINSt7__cxx1112basic_stringIcSt11char_traitsIcESaIcEEEP16hiRUNTIME_BLOB_SSt4lessIS8_ESaISt4pairIKS8_SA_EEER22hiRUNTIME_GROUP_BLOB_S_x2bc
    _ZL16addUserBlobToMapPN4hirt14ModelGroupTaskERSt3mapINSt7__cxx1112basic_stringIcSt11char_traitsIcESaIcEEEP16hiRUNTIME_BLOB_SSt4lessIS8_ESaISt4pairIKS8_SA_EEER22hiRUNTIME_GROUP_BLOB_S_x338:
    /*00000338*/ MOV         R0, R8 
    /*0000033c*/ B           _ZL16addUserBlobToMapPN4hirt14ModelGroupTaskERSt3mapINSt7__cxx1112basic_stringIcSt11char_traitsIcESaIcEEEP16hiRUNTIME_BLOB_SSt4lessIS8_ESaISt4pairIKS8_SA_EEER22hiRUNTIME_GROUP_BLOB_S_x2f0
    _ZL16addUserBlobToMapPN4hirt14ModelGroupTaskERSt3mapINSt7__cxx1112basic_stringIcSt11char_traitsIcESaIcEEEP16hiRUNTIME_BLOB_SSt4lessIS8_ESaISt4pairIKS8_SA_EEER22hiRUNTIME_GROUP_BLOB_S_x340:
    /*00000340*/ STR         R0, [SP] 
    /*00000344*/ MOV         R1, #4 
    /*00000348*/ LDR         R3, WORD_039c               @ LDR         R3, [PC, #76]               @ 0x000000000000039c 
    /*0000034c*/ LDR         R2, WORD_03a0               @ LDR         R2, [PC, #76]               @ 0x00000000000003a0 
    /*00000350*/ LDR         R0, WORD_03a4               @ LDR         R0, [PC, #76]               @ 0x00000000000003a4 
    /*00000354*/ ADD         R3, PC, R3 
    /*00000358*/ ADD         R2, PC, R2 
    /*0000035c*/ ADD         R0, PC, R0 
    /*00000360*/ BL          _Z15HIRT_LOG_PrintfPKc19tagHIRT_LOG_LEVEL_ES0_z
    /*00000364*/ B           _ZL16addUserBlobToMapPN4hirt14ModelGroupTaskERSt3mapINSt7__cxx1112basic_stringIcSt11char_traitsIcESaIcEEEP16hiRUNTIME_BLOB_SSt4lessIS8_ESaISt4pairIKS8_SA_EEER22hiRUNTIME_GROUP_BLOB_S_x1f8
    _ZL16addUserBlobToMapPN4hirt14ModelGroupTaskERSt3mapINSt7__cxx1112basic_stringIcSt11char_traitsIcESaIcEEEP16hiRUNTIME_BLOB_SSt4lessIS8_ESaISt4pairIKS8_SA_EEER22hiRUNTIME_GROUP_BLOB_S_x368:
    /*00000368*/ LDR         R0, [SP, #40]               @ 0x28 
    /*0000036c*/ CMP         R0, R8 
    /*00000370*/ BEQ         _ZL16addUserBlobToMapPN4hirt14ModelGroupTaskERSt3mapINSt7__cxx1112basic_stringIcSt11char_traitsIcESaIcEEEP16hiRUNTIME_BLOB_SSt4lessIS8_ESaISt4pairIKS8_SA_EEER22hiRUNTIME_GROUP_BLOB_S_x378
    /*00000374*/ BL          _ZdlPv
    _ZL16addUserBlobToMapPN4hirt14ModelGroupTaskERSt3mapINSt7__cxx1112basic_stringIcSt11char_traitsIcESaIcEEEP16hiRUNTIME_BLOB_SSt4lessIS8_ESaISt4pairIKS8_SA_EEER22hiRUNTIME_GROUP_BLOB_S_x378:
    /*00000378*/ BL          __cxa_end_cleanup
    /*0000037c*/ B           _ZL16addUserBlobToMapPN4hirt14ModelGroupTaskERSt3mapINSt7__cxx1112basic_stringIcSt11char_traitsIcESaIcEEEP16hiRUNTIME_BLOB_SSt4lessIS8_ESaISt4pairIKS8_SA_EEER22hiRUNTIME_GROUP_BLOB_S_x368
    _ZL16addUserBlobToMapPN4hirt14ModelGroupTaskERSt3mapINSt7__cxx1112basic_stringIcSt11char_traitsIcESaIcEEEP16hiRUNTIME_BLOB_SSt4lessIS8_ESaISt4pairIKS8_SA_EEER22hiRUNTIME_GROUP_BLOB_S_x380:
    /*00000380*/ BL          __stack_chk_fail
    /*00000384*/ WORD_0384: .word 0x0000035c
    /*00000388*/ WORD_0388: .word 0x00000000
    /*0000038c*/ WORD_038c: .word 0x00000310
    /*00000390*/ WORD_0390: .word 0x00000138
    /*00000394*/ WORD_0394: .word 0x00000138
    /*00000398*/ WORD_0398: .word 0x00000138
    /*0000039c*/ WORD_039c: .word 0x00000040
    /*000003a0*/ WORD_03a0: .word 0x00000040
    /*000003a4*/ WORD_03a4: .word 0x00000040
FUNC_END _ZL16addUserBlobToMapPN4hirt14ModelGroupTaskERSt3mapINSt7__cxx1112basic_stringIcSt11char_traitsIcESaIcEEEP16hiRUNTIME_BLOB_SSt4lessIS8_ESaISt4pairIKS8_SA_EEER22hiRUNTIME_GROUP_BLOB_S


@ - - - - - - - - - - - - - - - - - - - - - - - - - - - - - 
@ .ARM.extab.text._ZL16addUserBlobToMapPN4hirt14ModelGroupTaskERSt3mapINSt7__cxx1112basic_stringIcSt11char_traitsIcESaIcEEEP16hiRUNTIME_BLOB_SSt4lessIS8_ESaISt4pairIKS8_SA_EEER22hiRUNTIME_GROUP_BLOB_S
@ Size: 0x28
@ - - - - - - - - - - - - - - - - - - - - - - - - - - - - - 

@ - - - - - - - - - - - - - - - - - - - - - - - - - - - - - 
@ .text._ZNSt8_Rb_treeINSt7__cxx1112basic_stringIcSt11char_traitsIcESaIcEEESt4pairIKS5_P26hiRUNTIME_SRC_BLOB_ARRAY_SESt10_Select1stISA_ESt4lessIS5_ESaISA_EE24_M_get_insert_unique_posERS7_
@ Size: 0x144
@ - - - - - - - - - - - - - - - - - - - - - - - - - - - - - 

FUNC_BEGIN _ZNSt8_Rb_treeINSt7__cxx1112basic_stringIcSt11char_traitsIcESaIcEEESt4pairIKS5_P26hiRUNTIME_SRC_BLOB_ARRAY_SESt10_Select1stISA_ESt4lessIS5_ESaISA_EE24_M_get_insert_unique_posERS7_
    /*00000000*/ MOV         IP, #16384                  @ 0x4000 
    /*00000004*/ PUSH        {R4, R5, R6, R7, R8, R9, SL, FP, LR} 
    /*00000008*/ SUB         IP, SP, IP 
    /*0000000c*/ STR         R0, [IP, #4048]             @ 0xfd0 
    /*00000010*/ LDR         R4, [R1, #8] 
    /*00000014*/ SUB         SP, SP, #12 
    /*00000018*/ MOV         R9, R0 
    /*0000001c*/ MOV         SL, R2 
    /*00000020*/ STR         R1, [SP, #4] 
    /*00000024*/ CMP         R4, #0 
    /*00000028*/ MOVEQ       R3, R1 
    /*0000002c*/ ADDEQ       R4, R3, #4 
    /*00000030*/ BEQ         _ZNSt8_Rb_treeINSt7__cxx1112basic_stringIcSt11char_traitsIcESaIcEEESt4pairIKS5_P26hiRUNTIME_SRC_BLOB_ARRAY_SESt10_Select1stISA_ESt4lessIS5_ESaISA_EE24_M_get_insert_unique_posERS7__xd4
