@
@ -- FILES --
@

@ TaskMonitor.cpp


unsigned char data[0] = {
};

unsigned char bss[0];

_RODATA__ZTSN4HIRT14MODELGROUPTASKE_0000: .ascii "N4hirt14ModelGroupTaskE\0",
_RODATA__ZTSN4HIRT14MODELGROUPTASKE_0018: .ascii ""


unsigned char data.rel.ro._ZTIN4hirt14ModelGroupTaskE[8] = {
    /*0000*/ 0x08, 0x00, 0x00, 0x00, 0x00, 0x00, 0x00, 0x00, 
};

unsigned char rel.data.rel.ro._ZTIN4hirt14ModelGroupTaskE[16] = {
    /*0000*/ 0x00, 0x00, 0x00, 0x00, 0x02, 0x34, 0x01, 0x00, 0x04, 0x00, 0x00, 0x00, 0x02, 0x32, 0x01, 0x00, 
};

_RODATA__ZTSNST6THREAD11_STATE_IMPLIST12_BIND_SIMPLEIFPFIPN4HIRT11TASKMONITOREES4_EEEE_0000: .ascii "NSt6thread11_State_implISt12_Bind_simpleIFPFiPN4hirt11TaskMonitorEES4_EEEE\0"


unsigned char data.rel.ro._ZTINSt6thread11_State_implISt12_Bind_simpleIFPFiPN4hirt11TaskMonitorEES4_EEEE[12] = {
    /*0000*/ 0x08, 0x00, 0x00, 0x00, 0x00, 0x00, 0x00, 0x00, 0x00, 0x00, 0x00, 0x00, 
};

unsigned char rel.data.rel.ro._ZTINSt6thread11_State_implISt12_Bind_simpleIFPFiPN4hirt11TaskMonitorEES4_EEEE[24] = {
    /*0000*/ 0x00, 0x00, 0x00, 0x00, 0x02, 0x37, 0x01, 0x00, 0x04, 0x00, 0x00, 0x00, 0x02, 0x35, 0x01, 0x00, 
    /*0010*/ 0x08, 0x00, 0x00, 0x00, 0x02, 0x38, 0x01, 0x00, 
};

unsigned char data.rel.ro.local._ZTVN4hirt14ModelGroupTaskE[16] = {
    /*0000*/ 0x00, 0x00, 0x00, 0x00, 0x00, 0x00, 0x00, 0x00, 0x00, 0x00, 0x00, 0x00, 0x00, 0x00, 0x00, 0x00, 
};

unsigned char rel.data.rel.ro.local._ZTVN4hirt14ModelGroupTaskE[24] = {
    /*0000*/ 0x04, 0x00, 0x00, 0x00, 0x02, 0x33, 0x01, 0x00, 0x08, 0x00, 0x00, 0x00, 0x02, 0x13, 0x01, 0x00, 
    /*0010*/ 0x0c, 0x00, 0x00, 0x00, 0x02, 0x14, 0x01, 0x00, 
};

unsigned char data.rel.ro._ZTVNSt6thread11_State_implISt12_Bind_simpleIFPFiPN4hirt11TaskMonitorEES4_EEEE[20] = {
    /*0000*/ 0x00, 0x00, 0x00, 0x00, 0x00, 0x00, 0x00, 0x00, 0x00, 0x00, 0x00, 0x00, 0x00, 0x00, 0x00, 0x00, 
    /*0010*/ 0x00, 0x00, 0x00, 0x00, 
};

unsigned char rel.data.rel.ro._ZTVNSt6thread11_State_implISt12_Bind_simpleIFPFiPN4hirt11TaskMonitorEES4_EEEE[32] = {
    /*0000*/ 0x04, 0x00, 0x00, 0x00, 0x02, 0x36, 0x01, 0x00, 0x08, 0x00, 0x00, 0x00, 0x02, 0xf3, 0x00, 0x00, 
    /*0010*/ 0x0c, 0x00, 0x00, 0x00, 0x02, 0xf4, 0x00, 0x00, 0x10, 0x00, 0x00, 0x00, 0x02, 0xee, 0x00, 0x00, 
};

unsigned char bss._ZN4hirt11TaskMonitor14bNNIETaskReadyE[4];

unsigned char bss._ZN4hirt11TaskMonitor15mNNIEQueueMutexE[24];

unsigned char bss._ZN4hirt11TaskMonitor15setStatusMuxterE[24];

unsigned char bss._ZN4hirt11TaskMonitor17NNIETaskReadyCondE[48];

unsigned char bss._ZN4hirt11TaskMonitor18NNIETaskReadyMutexE[24];

unsigned char bss._ZN4hirt11TaskMonitor18bCustomerTaskReadyE[4];

unsigned char bss._ZN4hirt11TaskMonitor19mCustomerQueueMutexE[24];

unsigned char bss._ZN4hirt11TaskMonitor20mastNnieSchedulQueueE[60];

unsigned char bss._ZN4hirt11TaskMonitor21cusTomerTaskReadyCondE[48];

unsigned char bss._ZN4hirt11TaskMonitor22customerTaskReadyMutexE[24];

unsigned char bss._ZN4hirt11TaskMonitor24mastCustomerSchedulQueueE[60];

unsigned char bss._ZN4hirt11TaskMonitor5mStopE[4];

unsigned char bss._ZStL8__ioinit[1];

_RODATA__ZN4HIRT11TASKMONITOR20RUNTASKMONITORTHREADEPS0__STR1_4_0000: .ascii "[RUNTIME ERROR] set cpu thread 0 or 1 affinity failed!!\0",
_RODATA__ZN4HIRT11TASKMONITOR20RUNTASKMONITORTHREADEPS0__STR1_4_0038: .ascii "hirt\0"


_RODATA__ZN4HIRT11TASKMONITOR23CREATETASKMONITORTHREADEV_STR1_4_0000: .ascii "TaskMonitor\0",
_RODATA__ZN4HIRT11TASKMONITOR23CREATETASKMONITORTHREADEV_STR1_4_000c: .ascii ""


@ - - - - - - - - - - - - - - - - - - - - - - - - - - - - - 
@ .text._ZNSt6thread11_State_implISt12_Bind_simpleIFPFiPN4hirt11TaskMonitorEES4_EEE6_M_runEv
@ Size: 0x8
@ - - - - - - - - - - - - - - - - - - - - - - - - - - - - - 

FUNC_BEGIN _ZNSt6thread11_State_implISt12_Bind_simpleIFPFiPN4hirt11TaskMonitorEES4_EEE6_M_runEv
    /*00000000*/ LDMIB       R0, {R0, R3} 
    /*00000004*/ BX          R3 
FUNC_END _ZNSt6thread11_State_implISt12_Bind_simpleIFPFiPN4hirt11TaskMonitorEES4_EEE6_M_runEv


@ - - - - - - - - - - - - - - - - - - - - - - - - - - - - - 
@ .text._ZNSt6thread11_State_implISt12_Bind_simpleIFPFiPN4hirt11TaskMonitorEES4_EEED2Ev
@ Size: 0x40
@ - - - - - - - - - - - - - - - - - - - - - - - - - - - - - 

FUNC_BEGIN _ZNSt6thread11_State_implISt12_Bind_simpleIFPFiPN4hirt11TaskMonitorEES4_EEED2Ev
    /*00000000*/ MOV         IP, #16384                  @ 0x4000 
    /*00000004*/ PUSH        {R4, LR} 
    /*00000008*/ SUB         IP, SP, IP 
    /*0000000c*/ STR         R0, [IP, #4088]             @ 0xff8 
    /*00000010*/ LDR         R3, WORD_0038               @ LDR         R3, [PC, #32]               @ 0x0000000000000038 
    /*00000014*/ MOV         R4, R0 
    /*00000018*/ LDR         R2, WORD_003c               @ LDR         R2, [PC, #28]               @ 0x000000000000003c 
    /*0000001c*/ ADD         R3, PC, R3 
    /*00000020*/ LDR         R3, [R3, R2] 
    /*00000024*/ ADD         R3, R3, #8 
    /*00000028*/ STR         R3, [R0] 
    /*0000002c*/ BL          _ZNSt6thread6_StateD2Ev
    /*00000030*/ MOV         R0, R4 
    /*00000034*/ POP         {R4, PC} 
    /*00000038*/ WORD_0038: .word 0x00000014
    /*0000003c*/ WORD_003c: .word 0x00000000
FUNC_END _ZNSt6thread11_State_implISt12_Bind_simpleIFPFiPN4hirt11TaskMonitorEES4_EEED2Ev


FUNC_BEGIN _ZNSt6thread11_State_implISt12_Bind_simpleIFPFiPN4hirt11TaskMonitorEES4_EEED1Ev
    /*00000000*/ MOV         IP, #16384                  @ 0x4000 
    /*00000004*/ PUSH        {R4, LR} 
    /*00000008*/ SUB         IP, SP, IP 
    /*0000000c*/ STR         R0, [IP, #4088]             @ 0xff8 
    /*00000010*/ LDR         R3, WORD_0038               @ LDR         R3, [PC, #32]               @ 0x0000000000000038 
    /*00000014*/ MOV         R4, R0 
    /*00000018*/ LDR         R2, WORD_003c               @ LDR         R2, [PC, #28]               @ 0x000000000000003c 
    /*0000001c*/ ADD         R3, PC, R3 
    /*00000020*/ LDR         R3, [R3, R2] 
    /*00000024*/ ADD         R3, R3, #8 
    /*00000028*/ STR         R3, [R0] 
    /*0000002c*/ BL          _ZNSt6thread6_StateD2Ev
    /*00000030*/ MOV         R0, R4 
    /*00000034*/ POP         {R4, PC} 
    /*00000038*/ WORD_0038: .word 0x00000014
    /*0000003c*/ WORD_003c: .word 0x00000000
FUNC_END _ZNSt6thread11_State_implISt12_Bind_simpleIFPFiPN4hirt11TaskMonitorEES4_EEED1Ev


@ - - - - - - - - - - - - - - - - - - - - - - - - - - - - - 
@ .text._ZNSt6thread11_State_implISt12_Bind_simpleIFPFiPN4hirt11TaskMonitorEES4_EEED0Ev
@ Size: 0x4c
@ - - - - - - - - - - - - - - - - - - - - - - - - - - - - - 

FUNC_BEGIN _ZNSt6thread11_State_implISt12_Bind_simpleIFPFiPN4hirt11TaskMonitorEES4_EEED0Ev
    /*00000000*/ MOV         IP, #16384                  @ 0x4000 
    /*00000004*/ PUSH        {R4, LR} 
    /*00000008*/ SUB         IP, SP, IP 
    /*0000000c*/ STR         R0, [IP, #4088]             @ 0xff8 
    /*00000010*/ LDR         R3, WORD_0044               @ LDR         R3, [PC, #44]               @ 0x0000000000000044 
    /*00000014*/ MOV         R4, R0 
    /*00000018*/ LDR         R2, WORD_0048               @ LDR         R2, [PC, #40]               @ 0x0000000000000048 
    /*0000001c*/ ADD         R3, PC, R3 
    /*00000020*/ LDR         R3, [R3, R2] 
    /*00000024*/ ADD         R3, R3, #8 
    /*00000028*/ STR         R3, [R0] 
    /*0000002c*/ BL          _ZNSt6thread6_StateD2Ev
    /*00000030*/ MOV         R0, R4 
    /*00000034*/ MOV         R1, #12 
    /*00000038*/ BL          _ZdlPvj
    /*0000003c*/ MOV         R0, R4 
    /*00000040*/ POP         {R4, PC} 
    /*00000044*/ WORD_0044: .word 0x00000020
    /*00000048*/ WORD_0048: .word 0x00000000
FUNC_END _ZNSt6thread11_State_implISt12_Bind_simpleIFPFiPN4hirt11TaskMonitorEES4_EEED0Ev


@ - - - - - - - - - - - - - - - - - - - - - - - - - - - - - 
@ .text.__tcf_1
@ Size: 0x3c
@ - - - - - - - - - - - - - - - - - - - - - - - - - - - - - 

FUNC_BEGIN __tcf_1
    /*00000000*/ MOV         IP, #16384                  @ 0x4000 
    /*00000004*/ PUSH        {R4, R5, R6, LR} 
    /*00000008*/ SUB         IP, SP, IP 
    /*0000000c*/ STR         R0, [IP, #4080]             @ 0xff0 
    /*00000010*/ LDR         R5, WORD_0038               @ LDR         R5, [PC, #32]               @ 0x0000000000000038 
    /*00000014*/ ADD         R5, PC, R5 
    /*00000018*/ ADD         R4, R5, #60                 @ 0x3c 
    __tcf_1_x1c:
    /*0000001c*/ LDR         R0, [R4, #-12]! 
    /*00000020*/ CMP         R0, #0 
    /*00000024*/ BEQ         __tcf_1_x2c
    /*00000028*/ BL          _ZdlPv
    __tcf_1_x2c:
    /*0000002c*/ CMP         R4, R5 
    /*00000030*/ BNE         __tcf_1_x1c
    /*00000034*/ POP         {R4, R5, R6, PC} 
    /*00000038*/ WORD_0038: .word 0x0000001c
FUNC_END __tcf_1


@ - - - - - - - - - - - - - - - - - - - - - - - - - - - - - 
@ .text.__tcf_0
@ Size: 0x3c
@ - - - - - - - - - - - - - - - - - - - - - - - - - - - - - 

FUNC_BEGIN __tcf_0
    /*00000000*/ MOV         IP, #16384                  @ 0x4000 
    /*00000004*/ PUSH        {R4, R5, R6, LR} 
    /*00000008*/ SUB         IP, SP, IP 
    /*0000000c*/ STR         R0, [IP, #4080]             @ 0xff0 
    /*00000010*/ LDR         R5, WORD_0038               @ LDR         R5, [PC, #32]               @ 0x0000000000000038 
    /*00000014*/ ADD         R5, PC, R5 
    /*00000018*/ ADD         R4, R5, #60                 @ 0x3c 
    __tcf_0_x1c:
    /*0000001c*/ LDR         R0, [R4, #-12]! 
    /*00000020*/ CMP         R0, #0 
    /*00000024*/ BEQ         __tcf_0_x2c
    /*00000028*/ BL          _ZdlPv
    __tcf_0_x2c:
    /*0000002c*/ CMP         R4, R5 
    /*00000030*/ BNE         __tcf_0_x1c
    /*00000034*/ POP         {R4, R5, R6, PC} 
    /*00000038*/ WORD_0038: .word 0x0000001c
FUNC_END __tcf_0


@ - - - - - - - - - - - - - - - - - - - - - - - - - - - - - 
@ .text._ZN4hirt11TaskMonitor23createTaskMonitorThreadEv
@ Size: 0x128
@ - - - - - - - - - - - - - - - - - - - - - - - - - - - - - 

FUNC_BEGIN _ZN4hirt11TaskMonitor23createTaskMonitorThreadEv
    /*00000000*/ MOV         IP, #16384                  @ 0x4000 
    /*00000004*/ PUSH        {R4, R5, R6, R7, LR} 
    /*00000008*/ SUB         IP, SP, IP 
    /*0000000c*/ STR         R0, [IP, #4064]             @ 0xfe0 
    /*00000010*/ LDR         R6, WORD_0110               @ LDR         R6, [PC, #248]              @ 0x0000000000000110 
    /*00000014*/ SUB         SP, SP, #12 
    /*00000018*/ LDR         R3, WORD_0114               @ LDR         R3, [PC, #244]              @ 0x0000000000000114 
    /*0000001c*/ MOV         R5, R0 
    /*00000020*/ ADD         R6, PC, R6 
    /*00000024*/ MOV         R0, #4 
    /*00000028*/ LDR         R7, [R6, R3] 
    /*0000002c*/ MOV         R1, R7 
    /*00000030*/ BL          _ZnwjRKSt9nothrow_t
    /*00000034*/ SUBS        R4, R0, #0 
    /*00000038*/ BEQ         _ZN4hirt11TaskMonitor23createTaskMonitorThreadEv_xa0
    /*0000003c*/ MOV         R3, #0 
    /*00000040*/ MOV         R0, #12 
    /*00000044*/ STR         R3, [R4] 
    /*00000048*/ BL          _Znwj
    /*0000004c*/ LDR         R2, WORD_0118               @ LDR         R2, [PC, #196]              @ 0x0000000000000118 
    /*00000050*/ MOV         R3, R0 
    /*00000054*/ ADD         R1, SP, #8 
    /*00000058*/ MOV         R0, R4 
    /*0000005c*/ LDR         IP, [R6, R2] 
    /*00000060*/ LDR         R2, WORD_011c               @ LDR         R2, [PC, #180]              @ 0x000000000000011c 
    /*00000064*/ STR         R5, [R3, #4] 
    /*00000068*/ ADD         IP, IP, #8 
    /*0000006c*/ ADD         R2, PC, R2 
    /*00000070*/ STR         R2, [R3, #8] 
    /*00000074*/ LDR         R2, WORD_0120               @ LDR         R2, [PC, #164]              @ 0x0000000000000120 
    /*00000078*/ STR         IP, [R3] 
    /*0000007c*/ STR         R3, [R1, #-4]! 
    /*00000080*/ LDR         R2, [R6, R2] 
    /*00000084*/ BL          _ZNSt6thread15_M_start_threadESt10unique_ptrINS_6_StateESt14default_deleteIS1_EEPFvvE
    /*00000088*/ LDR         R0, [SP, #4] 
    /*0000008c*/ CMP         R0, #0 
    /*00000090*/ BEQ         _ZN4hirt11TaskMonitor23createTaskMonitorThreadEv_xa0
    /*00000094*/ LDR         R3, [R0] 
    /*00000098*/ LDR         R3, [R3, #4] 
    /*0000009c*/ BLX         R3 
    _ZN4hirt11TaskMonitor23createTaskMonitorThreadEv_xa0:
    /*000000a0*/ LDR         R0, [R5, #4] 
    /*000000a4*/ STR         R4, [R5, #4] 
    /*000000a8*/ CMP         R0, #0 
    /*000000ac*/ BEQ         _ZN4hirt11TaskMonitor23createTaskMonitorThreadEv_xc8
    /*000000b0*/ LDR         R3, [R0] 
    /*000000b4*/ CMP         R3, #0 
    /*000000b8*/ BNE         _ZN4hirt11TaskMonitor23createTaskMonitorThreadEv_xe0
    /*000000bc*/ MOV         R1, #4 
    /*000000c0*/ BL          _ZdlPvj
    /*000000c4*/ LDR         R4, [R5, #4] 
    _ZN4hirt11TaskMonitor23createTaskMonitorThreadEv_xc8:
    /*000000c8*/ LDR         R1, WORD_0124               @ LDR         R1, [PC, #84]               @ 0x0000000000000124 
    /*000000cc*/ LDR         R0, [R4] 
    /*000000d0*/ ADD         R1, PC, R1 
    /*000000d4*/ BL          pthread_setname_np
    /*000000d8*/ ADD         SP, SP, #12 
    /*000000dc*/ POP         {R4, R5, R6, R7, PC} 
    _ZN4hirt11TaskMonitor23createTaskMonitorThreadEv_xe0:
    /*000000e0*/ BL          _ZSt9terminatev
    /*000000e4*/ LDR         R0, [SP, #4] 
    /*000000e8*/ CMP         R0, #0 
    /*000000ec*/ BEQ         _ZN4hirt11TaskMonitor23createTaskMonitorThreadEv_xfc
    /*000000f0*/ LDR         R3, [R0] 
    /*000000f4*/ LDR         R3, [R3, #4] 
    /*000000f8*/ BLX         R3 
    _ZN4hirt11TaskMonitor23createTaskMonitorThreadEv_xfc:
    /*000000fc*/ MOV         R1, R7 
    /*00000100*/ MOV         R0, R4 
    /*00000104*/ BL          _ZdlPvRKSt9nothrow_t
    /*00000108*/ BL          __cxa_end_cleanup
    /*0000010c*/ B           _ZN4hirt11TaskMonitor23createTaskMonitorThreadEv_xfc
    /*00000110*/ WORD_0110: .word 0x000000e8
    /*00000114*/ WORD_0114: .word 0x00000000
    /*00000118*/ WORD_0118: .word 0x00000000
    /*0000011c*/ WORD_011c: .word 0x000000a8
    /*00000120*/ WORD_0120: .word 0x00000000
    /*00000124*/ WORD_0124: .word 0x0000004c
FUNC_END _ZN4hirt11TaskMonitor23createTaskMonitorThreadEv


@ - - - - - - - - - - - - - - - - - - - - - - - - - - - - - 
@ .ARM.extab.text._ZN4hirt11TaskMonitor23createTaskMonitorThreadEv
@ Size: 0x1c
@ - - - - - - - - - - - - - - - - - - - - - - - - - - - - - 

@ - - - - - - - - - - - - - - - - - - - - - - - - - - - - - 
@ .text._ZN4hirt11TaskMonitor21stopTaskMonitorThreadEv
@ Size: 0x1c
@ - - - - - - - - - - - - - - - - - - - - - - - - - - - - - 

FUNC_BEGIN _ZN4hirt11TaskMonitor21stopTaskMonitorThreadEv
    /*00000000*/ LDR         R3, WORD_0018               @ LDR         R3, [PC, #16]               @ 0x0000000000000018 
    /*00000004*/ MOV         R2, #1 
    /*00000008*/ LDR         R0, [R0, #4] 
    /*0000000c*/ ADD         R3, PC, R3 
    /*00000010*/ STR         R2, [R3] 
    _ZN4hirt11TaskMonitor21stopTaskMonitorThreadEv_x14:
    /*00000014*/ B           _ZN4hirt11TaskMonitor21stopTaskMonitorThreadEv_x14@ _ZNSt6thread4joinEv [R_ARM_JUMP24: +0x0] 
    /*00000018*/ WORD_0018: .word 0x00000004
FUNC_END _ZN4hirt11TaskMonitor21stopTaskMonitorThreadEv


@ - - - - - - - - - - - - - - - - - - - - - - - - - - - - - 
@ .text._ZN4hirt11TaskMonitor22setNNIETaskReadyStatusE7HI_BOOL
@ Size: 0x84
@ - - - - - - - - - - - - - - - - - - - - - - - - - - - - - 

FUNC_BEGIN _ZN4hirt11TaskMonitor22setNNIETaskReadyStatusE7HI_BOOL
    /*00000000*/ LDR         R3, WORD_0070               @ LDR         R3, [PC, #104]              @ 0x0000000000000070 
    /*00000004*/ LDR         R2, WORD_0074               @ LDR         R2, [PC, #104]              @ 0x0000000000000074 
    /*00000008*/ ADD         R3, PC, R3 
    /*0000000c*/ LDR         R3, [R3, R2] 
    /*00000010*/ CMP         R3, #0 
    /*00000014*/ BEQ         _ZN4hirt11TaskMonitor22setNNIETaskReadyStatusE7HI_BOOL_x5c
    /*00000018*/ MOV         IP, #16384                  @ 0x4000 
    /*0000001c*/ PUSH        {R4, R5, R6, LR} 
    /*00000020*/ SUB         IP, SP, IP 
    /*00000024*/ STR         R0, [IP, #4080]             @ 0xff0 
    /*00000028*/ LDR         R5, WORD_0078               @ LDR         R5, [PC, #72]               @ 0x0000000000000078 
    /*0000002c*/ MOV         R4, R0 
    /*00000030*/ ADD         R5, PC, R5 
    /*00000034*/ MOV         R0, R5 
    /*00000038*/ BL          pthread_mutex_lock
    /*0000003c*/ CMP         R0, #0 
    /*00000040*/ BNE         _ZN4hirt11TaskMonitor22setNNIETaskReadyStatusE7HI_BOOL_x6c
    /*00000044*/ LDR         R3, WORD_007c               @ LDR         R3, [PC, #48]               @ 0x000000000000007c 
    /*00000048*/ MOV         R0, R5 
    /*0000004c*/ ADD         R3, PC, R3 
    /*00000050*/ STR         R4, [R3] 
    /*00000054*/ POP         {R4, R5, R6, LR} 
    _ZN4hirt11TaskMonitor22setNNIETaskReadyStatusE7HI_BOOL_x58:
    /*00000058*/ B           _ZN4hirt11TaskMonitor22setNNIETaskReadyStatusE7HI_BOOL_x58@ pthread_mutex_unlock [R_ARM_JUMP24: +0x0] 
    _ZN4hirt11TaskMonitor22setNNIETaskReadyStatusE7HI_BOOL_x5c:
    /*0000005c*/ LDR         R3, WORD_0080               @ LDR         R3, [PC, #28]               @ 0x0000000000000080 
    /*00000060*/ ADD         R3, PC, R3 
    /*00000064*/ STR         R0, [R3] 
    /*00000068*/ BX          LR 
    _ZN4hirt11TaskMonitor22setNNIETaskReadyStatusE7HI_BOOL_x6c:
    /*0000006c*/ BL          _ZSt20__throw_system_errori
    /*00000070*/ WORD_0070: .word 0x00000060
    /*00000074*/ WORD_0074: .word 0x00000000
    /*00000078*/ WORD_0078: .word 0x00000040
    /*0000007c*/ WORD_007c: .word 0x00000028
    /*00000080*/ WORD_0080: .word 0x00000018
FUNC_END _ZN4hirt11TaskMonitor22setNNIETaskReadyStatusE7HI_BOOL


@ - - - - - - - - - - - - - - - - - - - - - - - - - - - - - 
@ .text._ZN4hirt11TaskMonitor26setCustomerTaskReadyStatusE7HI_BOOL
@ Size: 0x84
@ - - - - - - - - - - - - - - - - - - - - - - - - - - - - - 

FUNC_BEGIN _ZN4hirt11TaskMonitor26setCustomerTaskReadyStatusE7HI_BOOL
    /*00000000*/ LDR         R3, WORD_0070               @ LDR         R3, [PC, #104]              @ 0x0000000000000070 
    /*00000004*/ LDR         R2, WORD_0074               @ LDR         R2, [PC, #104]              @ 0x0000000000000074 
    /*00000008*/ ADD         R3, PC, R3 
    /*0000000c*/ LDR         R3, [R3, R2] 
    /*00000010*/ CMP         R3, #0 
    /*00000014*/ BEQ         _ZN4hirt11TaskMonitor26setCustomerTaskReadyStatusE7HI_BOOL_x5c
    /*00000018*/ MOV         IP, #16384                  @ 0x4000 
    /*0000001c*/ PUSH        {R4, R5, R6, LR} 
    /*00000020*/ SUB         IP, SP, IP 
    /*00000024*/ STR         R0, [IP, #4080]             @ 0xff0 
    /*00000028*/ LDR         R5, WORD_0078               @ LDR         R5, [PC, #72]               @ 0x0000000000000078 
    /*0000002c*/ MOV         R4, R0 
    /*00000030*/ ADD         R5, PC, R5 
    /*00000034*/ MOV         R0, R5 
    /*00000038*/ BL          pthread_mutex_lock
    /*0000003c*/ CMP         R0, #0 
    /*00000040*/ BNE         _ZN4hirt11TaskMonitor26setCustomerTaskReadyStatusE7HI_BOOL_x6c
    /*00000044*/ LDR         R3, WORD_007c               @ LDR         R3, [PC, #48]               @ 0x000000000000007c 
    /*00000048*/ MOV         R0, R5 
    /*0000004c*/ ADD         R3, PC, R3 
    /*00000050*/ STR         R4, [R3] 
    /*00000054*/ POP         {R4, R5, R6, LR} 
    _ZN4hirt11TaskMonitor26setCustomerTaskReadyStatusE7HI_BOOL_x58:
    /*00000058*/ B           _ZN4hirt11TaskMonitor26setCustomerTaskReadyStatusE7HI_BOOL_x58@ pthread_mutex_unlock [R_ARM_JUMP24: +0x0] 
    _ZN4hirt11TaskMonitor26setCustomerTaskReadyStatusE7HI_BOOL_x5c:
    /*0000005c*/ LDR         R3, WORD_0080               @ LDR         R3, [PC, #28]               @ 0x0000000000000080 
    /*00000060*/ ADD         R3, PC, R3 
    /*00000064*/ STR         R0, [R3] 
    /*00000068*/ BX          LR 
    _ZN4hirt11TaskMonitor26setCustomerTaskReadyStatusE7HI_BOOL_x6c:
    /*0000006c*/ BL          _ZSt20__throw_system_errori
    /*00000070*/ WORD_0070: .word 0x00000060
    /*00000074*/ WORD_0074: .word 0x00000000
    /*00000078*/ WORD_0078: .word 0x00000040
    /*0000007c*/ WORD_007c: .word 0x00000028
    /*00000080*/ WORD_0080: .word 0x00000018
FUNC_END _ZN4hirt11TaskMonitor26setCustomerTaskReadyStatusE7HI_BOOL


@ - - - - - - - - - - - - - - - - - - - - - - - - - - - - - 
@ .text._ZNSt8_Rb_treeINSt7__cxx1112basic_stringIcSt11char_traitsIcESaIcEEESt4pairIKS5_P26hiRUNTIME_SRC_BLOB_ARRAY_SESt10_Select1stISA_ESt4lessIS5_ESaISA_EE8_M_eraseEPSt13_Rb_tree_nodeISA_E
@ Size: 0x234
@ - - - - - - - - - - - - - - - - - - - - - - - - - - - - - 

FUNC_BEGIN _ZNSt8_Rb_treeINSt7__cxx1112basic_stringIcSt11char_traitsIcESaIcEEESt4pairIKS5_P26hiRUNTIME_SRC_BLOB_ARRAY_SESt10_Select1stISA_ESt4lessIS5_ESaISA_EE8_M_eraseEPSt13_Rb_tree_nodeISA_E
    /*00000000*/ MOV         IP, #16384                  @ 0x4000 
    /*00000004*/ PUSH        {R4, R5, R6, R7, R8, R9, SL, FP, LR} 
    /*00000008*/ SUB         IP, SP, IP 
    /*0000000c*/ STR         R0, [IP, #4040]             @ 0xfc8 
    /*00000010*/ SUB         SP, SP, #20 
    /*00000014*/ SUBS        R3, R1, #0 
    /*00000018*/ STR         R3, [SP, #12] 
    /*0000001c*/ BEQ         _ZNSt8_Rb_treeINSt7__cxx1112basic_stringIcSt11char_traitsIcESaIcEEESt4pairIKS5_P26hiRUNTIME_SRC_BLOB_ARRAY_SESt10_Select1stISA_ESt4lessIS5_ESaISA_EE8_M_eraseEPSt13_Rb_tree_nodeISA_E_x22c
    /*00000020*/ MOV         R5, R0 
    _ZNSt8_Rb_treeINSt7__cxx1112basic_stringIcSt11char_traitsIcESaIcEEESt4pairIKS5_P26hiRUNTIME_SRC_BLOB_ARRAY_SESt10_Select1stISA_ESt4lessIS5_ESaISA_EE8_M_eraseEPSt13_Rb_tree_nodeISA_E_x24:
    /*00000024*/ LDR         R3, [R3, #12] 
    /*00000028*/ CMP         R3, #0 
    /*0000002c*/ STRNE       R3, [SP, #8] 
    /*00000030*/ BEQ         _ZNSt8_Rb_treeINSt7__cxx1112basic_stringIcSt11char_traitsIcESaIcEEESt4pairIKS5_P26hiRUNTIME_SRC_BLOB_ARRAY_SESt10_Select1stISA_ESt4lessIS5_ESaISA_EE8_M_eraseEPSt13_Rb_tree_nodeISA_E_x1f8
    _ZNSt8_Rb_treeINSt7__cxx1112basic_stringIcSt11char_traitsIcESaIcEEESt4pairIKS5_P26hiRUNTIME_SRC_BLOB_ARRAY_SESt10_Select1stISA_ESt4lessIS5_ESaISA_EE8_M_eraseEPSt13_Rb_tree_nodeISA_E_x34:
    /*00000034*/ LDR         R8, [R3, #12] 
    /*00000038*/ CMP         R8, #0 
    /*0000003c*/ STRNE       R8, [SP, #4] 
    /*00000040*/ MOVNE       R3, R8 
    /*00000044*/ BEQ         _ZNSt8_Rb_treeINSt7__cxx1112basic_stringIcSt11char_traitsIcESaIcEEESt4pairIKS5_P26hiRUNTIME_SRC_BLOB_ARRAY_SESt10_Select1stISA_ESt4lessIS5_ESaISA_EE8_M_eraseEPSt13_Rb_tree_nodeISA_E_x1c4
    _ZNSt8_Rb_treeINSt7__cxx1112basic_stringIcSt11char_traitsIcESaIcEEESt4pairIKS5_P26hiRUNTIME_SRC_BLOB_ARRAY_SESt10_Select1stISA_ESt4lessIS5_ESaISA_EE8_M_eraseEPSt13_Rb_tree_nodeISA_E_x48:
    /*00000048*/ LDR         R9, [R3, #12] 
    /*0000004c*/ CMP         R9, #0 
    /*00000050*/ BEQ         _ZNSt8_Rb_treeINSt7__cxx1112basic_stringIcSt11char_traitsIcESaIcEEESt4pairIKS5_P26hiRUNTIME_SRC_BLOB_ARRAY_SESt10_Select1stISA_ESt4lessIS5_ESaISA_EE8_M_eraseEPSt13_Rb_tree_nodeISA_E_x190
    _ZNSt8_Rb_treeINSt7__cxx1112basic_stringIcSt11char_traitsIcESaIcEEESt4pairIKS5_P26hiRUNTIME_SRC_BLOB_ARRAY_SESt10_Select1stISA_ESt4lessIS5_ESaISA_EE8_M_eraseEPSt13_Rb_tree_nodeISA_E_x54:
    /*00000054*/ LDR         SL, [R9, #12] 
    /*00000058*/ CMP         SL, #0 
    /*0000005c*/ BEQ         _ZNSt8_Rb_treeINSt7__cxx1112basic_stringIcSt11char_traitsIcESaIcEEESt4pairIKS5_P26hiRUNTIME_SRC_BLOB_ARRAY_SESt10_Select1stISA_ESt4lessIS5_ESaISA_EE8_M_eraseEPSt13_Rb_tree_nodeISA_E_x168
    _ZNSt8_Rb_treeINSt7__cxx1112basic_stringIcSt11char_traitsIcESaIcEEESt4pairIKS5_P26hiRUNTIME_SRC_BLOB_ARRAY_SESt10_Select1stISA_ESt4lessIS5_ESaISA_EE8_M_eraseEPSt13_Rb_tree_nodeISA_E_x60:
    /*00000060*/ LDR         FP, [SL, #12] 
    /*00000064*/ CMP         FP, #0 
    /*00000068*/ BEQ         _ZNSt8_Rb_treeINSt7__cxx1112basic_stringIcSt11char_traitsIcESaIcEEESt4pairIKS5_P26hiRUNTIME_SRC_BLOB_ARRAY_SESt10_Select1stISA_ESt4lessIS5_ESaISA_EE8_M_eraseEPSt13_Rb_tree_nodeISA_E_x140
    _ZNSt8_Rb_treeINSt7__cxx1112basic_stringIcSt11char_traitsIcESaIcEEESt4pairIKS5_P26hiRUNTIME_SRC_BLOB_ARRAY_SESt10_Select1stISA_ESt4lessIS5_ESaISA_EE8_M_eraseEPSt13_Rb_tree_nodeISA_E_x6c:
    /*0000006c*/ LDR         R7, [FP, #12] 
    /*00000070*/ CMP         R7, #0 
    /*00000074*/ BEQ         _ZNSt8_Rb_treeINSt7__cxx1112basic_stringIcSt11char_traitsIcESaIcEEESt4pairIKS5_P26hiRUNTIME_SRC_BLOB_ARRAY_SESt10_Select1stISA_ESt4lessIS5_ESaISA_EE8_M_eraseEPSt13_Rb_tree_nodeISA_E_x118
    _ZNSt8_Rb_treeINSt7__cxx1112basic_stringIcSt11char_traitsIcESaIcEEESt4pairIKS5_P26hiRUNTIME_SRC_BLOB_ARRAY_SESt10_Select1stISA_ESt4lessIS5_ESaISA_EE8_M_eraseEPSt13_Rb_tree_nodeISA_E_x78:
    /*00000078*/ LDR         R6, [R7, #12] 
    /*0000007c*/ CMP         R6, #0 
    /*00000080*/ BEQ         _ZNSt8_Rb_treeINSt7__cxx1112basic_stringIcSt11char_traitsIcESaIcEEESt4pairIKS5_P26hiRUNTIME_SRC_BLOB_ARRAY_SESt10_Select1stISA_ESt4lessIS5_ESaISA_EE8_M_eraseEPSt13_Rb_tree_nodeISA_E_xf0
    _ZNSt8_Rb_treeINSt7__cxx1112basic_stringIcSt11char_traitsIcESaIcEEESt4pairIKS5_P26hiRUNTIME_SRC_BLOB_ARRAY_SESt10_Select1stISA_ESt4lessIS5_ESaISA_EE8_M_eraseEPSt13_Rb_tree_nodeISA_E_x84:
    /*00000084*/ LDR         R3, [R6, #12] 
    /*00000088*/ CMP         R3, #0 
    /*0000008c*/ MOVNE       R8, R3 
    /*00000090*/ BEQ         _ZNSt8_Rb_treeINSt7__cxx1112basic_stringIcSt11char_traitsIcESaIcEEESt4pairIKS5_P26hiRUNTIME_SRC_BLOB_ARRAY_SESt10_Select1stISA_ESt4lessIS5_ESaISA_EE8_M_eraseEPSt13_Rb_tree_nodeISA_E_xc8
    _ZNSt8_Rb_treeINSt7__cxx1112basic_stringIcSt11char_traitsIcESaIcEEESt4pairIKS5_P26hiRUNTIME_SRC_BLOB_ARRAY_SESt10_Select1stISA_ESt4lessIS5_ESaISA_EE8_M_eraseEPSt13_Rb_tree_nodeISA_E_x94:
    /*00000094*/ LDR         R1, [R8, #12] 
    /*00000098*/ MOV         R0, R5 
    /*0000009c*/ BL          _ZNSt8_Rb_treeINSt7__cxx1112basic_stringIcSt11char_traitsIcESaIcEEESt4pairIKS5_P26hiRUNTIME_SRC_BLOB_ARRAY_SESt10_Select1stISA_ESt4lessIS5_ESaISA_EE8_M_eraseEPSt13_Rb_tree_nodeISA_E
    /*000000a0*/ LDR         R0, [R8, #16] 
    /*000000a4*/ ADD         R2, R8, #24 
    /*000000a8*/ LDR         R4, [R8, #8] 
    /*000000ac*/ CMP         R0, R2 
    /*000000b0*/ BEQ         _ZNSt8_Rb_treeINSt7__cxx1112basic_stringIcSt11char_traitsIcESaIcEEESt4pairIKS5_P26hiRUNTIME_SRC_BLOB_ARRAY_SESt10_Select1stISA_ESt4lessIS5_ESaISA_EE8_M_eraseEPSt13_Rb_tree_nodeISA_E_xb8
    /*000000b4*/ BL          _ZdlPv
    _ZNSt8_Rb_treeINSt7__cxx1112basic_stringIcSt11char_traitsIcESaIcEEESt4pairIKS5_P26hiRUNTIME_SRC_BLOB_ARRAY_SESt10_Select1stISA_ESt4lessIS5_ESaISA_EE8_M_eraseEPSt13_Rb_tree_nodeISA_E_xb8:
    /*000000b8*/ MOV         R0, R8 
    /*000000bc*/ BL          _ZdlPv
    /*000000c0*/ SUBS        R8, R4, #0 
    /*000000c4*/ BNE         _ZNSt8_Rb_treeINSt7__cxx1112basic_stringIcSt11char_traitsIcESaIcEEESt4pairIKS5_P26hiRUNTIME_SRC_BLOB_ARRAY_SESt10_Select1stISA_ESt4lessIS5_ESaISA_EE8_M_eraseEPSt13_Rb_tree_nodeISA_E_x94
    _ZNSt8_Rb_treeINSt7__cxx1112basic_stringIcSt11char_traitsIcESaIcEEESt4pairIKS5_P26hiRUNTIME_SRC_BLOB_ARRAY_SESt10_Select1stISA_ESt4lessIS5_ESaISA_EE8_M_eraseEPSt13_Rb_tree_nodeISA_E_xc8:
    /*000000c8*/ LDR         R0, [R6, #16] 
    /*000000cc*/ ADD         R3, R6, #24 
    /*000000d0*/ LDR         R4, [R6, #8] 
    /*000000d4*/ CMP         R0, R3 
    /*000000d8*/ BEQ         _ZNSt8_Rb_treeINSt7__cxx1112basic_stringIcSt11char_traitsIcESaIcEEESt4pairIKS5_P26hiRUNTIME_SRC_BLOB_ARRAY_SESt10_Select1stISA_ESt4lessIS5_ESaISA_EE8_M_eraseEPSt13_Rb_tree_nodeISA_E_xe0
    /*000000dc*/ BL          _ZdlPv
    _ZNSt8_Rb_treeINSt7__cxx1112basic_stringIcSt11char_traitsIcESaIcEEESt4pairIKS5_P26hiRUNTIME_SRC_BLOB_ARRAY_SESt10_Select1stISA_ESt4lessIS5_ESaISA_EE8_M_eraseEPSt13_Rb_tree_nodeISA_E_xe0:
    /*000000e0*/ MOV         R0, R6 
    /*000000e4*/ BL          _ZdlPv
    /*000000e8*/ SUBS        R6, R4, #0 
    /*000000ec*/ BNE         _ZNSt8_Rb_treeINSt7__cxx1112basic_stringIcSt11char_traitsIcESaIcEEESt4pairIKS5_P26hiRUNTIME_SRC_BLOB_ARRAY_SESt10_Select1stISA_ESt4lessIS5_ESaISA_EE8_M_eraseEPSt13_Rb_tree_nodeISA_E_x84
    _ZNSt8_Rb_treeINSt7__cxx1112basic_stringIcSt11char_traitsIcESaIcEEESt4pairIKS5_P26hiRUNTIME_SRC_BLOB_ARRAY_SESt10_Select1stISA_ESt4lessIS5_ESaISA_EE8_M_eraseEPSt13_Rb_tree_nodeISA_E_xf0:
    /*000000f0*/ LDR         R0, [R7, #16] 
    /*000000f4*/ ADD         R3, R7, #24 
    /*000000f8*/ LDR         R4, [R7, #8] 
    /*000000fc*/ CMP         R0, R3 
    /*00000100*/ BEQ         _ZNSt8_Rb_treeINSt7__cxx1112basic_stringIcSt11char_traitsIcESaIcEEESt4pairIKS5_P26hiRUNTIME_SRC_BLOB_ARRAY_SESt10_Select1stISA_ESt4lessIS5_ESaISA_EE8_M_eraseEPSt13_Rb_tree_nodeISA_E_x108
    /*00000104*/ BL          _ZdlPv
    _ZNSt8_Rb_treeINSt7__cxx1112basic_stringIcSt11char_traitsIcESaIcEEESt4pairIKS5_P26hiRUNTIME_SRC_BLOB_ARRAY_SESt10_Select1stISA_ESt4lessIS5_ESaISA_EE8_M_eraseEPSt13_Rb_tree_nodeISA_E_x108:
    /*00000108*/ MOV         R0, R7 
    /*0000010c*/ BL          _ZdlPv
    /*00000110*/ SUBS        R7, R4, #0 
    /*00000114*/ BNE         _ZNSt8_Rb_treeINSt7__cxx1112basic_stringIcSt11char_traitsIcESaIcEEESt4pairIKS5_P26hiRUNTIME_SRC_BLOB_ARRAY_SESt10_Select1stISA_ESt4lessIS5_ESaISA_EE8_M_eraseEPSt13_Rb_tree_nodeISA_E_x78
    _ZNSt8_Rb_treeINSt7__cxx1112basic_stringIcSt11char_traitsIcESaIcEEESt4pairIKS5_P26hiRUNTIME_SRC_BLOB_ARRAY_SESt10_Select1stISA_ESt4lessIS5_ESaISA_EE8_M_eraseEPSt13_Rb_tree_nodeISA_E_x118:
    /*00000118*/ LDR         R0, [FP, #16] 
    /*0000011c*/ ADD         R3, FP, #24 
    /*00000120*/ LDR         R4, [FP, #8] 
    /*00000124*/ CMP         R0, R3 
    /*00000128*/ BEQ         _ZNSt8_Rb_treeINSt7__cxx1112basic_stringIcSt11char_traitsIcESaIcEEESt4pairIKS5_P26hiRUNTIME_SRC_BLOB_ARRAY_SESt10_Select1stISA_ESt4lessIS5_ESaISA_EE8_M_eraseEPSt13_Rb_tree_nodeISA_E_x130
    /*0000012c*/ BL          _ZdlPv
    _ZNSt8_Rb_treeINSt7__cxx1112basic_stringIcSt11char_traitsIcESaIcEEESt4pairIKS5_P26hiRUNTIME_SRC_BLOB_ARRAY_SESt10_Select1stISA_ESt4lessIS5_ESaISA_EE8_M_eraseEPSt13_Rb_tree_nodeISA_E_x130:
    /*00000130*/ MOV         R0, FP 
    /*00000134*/ BL          _ZdlPv
    /*00000138*/ SUBS        FP, R4, #0 
    /*0000013c*/ BNE         _ZNSt8_Rb_treeINSt7__cxx1112basic_stringIcSt11char_traitsIcESaIcEEESt4pairIKS5_P26hiRUNTIME_SRC_BLOB_ARRAY_SESt10_Select1stISA_ESt4lessIS5_ESaISA_EE8_M_eraseEPSt13_Rb_tree_nodeISA_E_x6c
    _ZNSt8_Rb_treeINSt7__cxx1112basic_stringIcSt11char_traitsIcESaIcEEESt4pairIKS5_P26hiRUNTIME_SRC_BLOB_ARRAY_SESt10_Select1stISA_ESt4lessIS5_ESaISA_EE8_M_eraseEPSt13_Rb_tree_nodeISA_E_x140:
    /*00000140*/ LDR         R0, [SL, #16] 
    /*00000144*/ ADD         R3, SL, #24 
    /*00000148*/ LDR         R4, [SL, #8] 
    /*0000014c*/ CMP         R0, R3 
    /*00000150*/ BEQ         _ZNSt8_Rb_treeINSt7__cxx1112basic_stringIcSt11char_traitsIcESaIcEEESt4pairIKS5_P26hiRUNTIME_SRC_BLOB_ARRAY_SESt10_Select1stISA_ESt4lessIS5_ESaISA_EE8_M_eraseEPSt13_Rb_tree_nodeISA_E_x158
    /*00000154*/ BL          _ZdlPv
    _ZNSt8_Rb_treeINSt7__cxx1112basic_stringIcSt11char_traitsIcESaIcEEESt4pairIKS5_P26hiRUNTIME_SRC_BLOB_ARRAY_SESt10_Select1stISA_ESt4lessIS5_ESaISA_EE8_M_eraseEPSt13_Rb_tree_nodeISA_E_x158:
    /*00000158*/ MOV         R0, SL 
    /*0000015c*/ BL          _ZdlPv
    /*00000160*/ SUBS        SL, R4, #0 
    /*00000164*/ BNE         _ZNSt8_Rb_treeINSt7__cxx1112basic_stringIcSt11char_traitsIcESaIcEEESt4pairIKS5_P26hiRUNTIME_SRC_BLOB_ARRAY_SESt10_Select1stISA_ESt4lessIS5_ESaISA_EE8_M_eraseEPSt13_Rb_tree_nodeISA_E_x60
    _ZNSt8_Rb_treeINSt7__cxx1112basic_stringIcSt11char_traitsIcESaIcEEESt4pairIKS5_P26hiRUNTIME_SRC_BLOB_ARRAY_SESt10_Select1stISA_ESt4lessIS5_ESaISA_EE8_M_eraseEPSt13_Rb_tree_nodeISA_E_x168:
    /*00000168*/ LDR         R0, [R9, #16] 
    /*0000016c*/ ADD         R3, R9, #24 
    /*00000170*/ LDR         R4, [R9, #8] 
    /*00000174*/ CMP         R0, R3 
    /*00000178*/ BEQ         _ZNSt8_Rb_treeINSt7__cxx1112basic_stringIcSt11char_traitsIcESaIcEEESt4pairIKS5_P26hiRUNTIME_SRC_BLOB_ARRAY_SESt10_Select1stISA_ESt4lessIS5_ESaISA_EE8_M_eraseEPSt13_Rb_tree_nodeISA_E_x180
    /*0000017c*/ BL          _ZdlPv
    _ZNSt8_Rb_treeINSt7__cxx1112basic_stringIcSt11char_traitsIcESaIcEEESt4pairIKS5_P26hiRUNTIME_SRC_BLOB_ARRAY_SESt10_Select1stISA_ESt4lessIS5_ESaISA_EE8_M_eraseEPSt13_Rb_tree_nodeISA_E_x180:
    /*00000180*/ MOV         R0, R9 
    /*00000184*/ BL          _ZdlPv
    /*00000188*/ SUBS        R9, R4, #0 
    /*0000018c*/ BNE         _ZNSt8_Rb_treeINSt7__cxx1112basic_stringIcSt11char_traitsIcESaIcEEESt4pairIKS5_P26hiRUNTIME_SRC_BLOB_ARRAY_SESt10_Select1stISA_ESt4lessIS5_ESaISA_EE8_M_eraseEPSt13_Rb_tree_nodeISA_E_x54
    _ZNSt8_Rb_treeINSt7__cxx1112basic_stringIcSt11char_traitsIcESaIcEEESt4pairIKS5_P26hiRUNTIME_SRC_BLOB_ARRAY_SESt10_Select1stISA_ESt4lessIS5_ESaISA_EE8_M_eraseEPSt13_Rb_tree_nodeISA_E_x190:
    /*00000190*/ LDR         R2, [SP, #4] 
    /*00000194*/ LDR         R0, [R2, #16] 
    /*00000198*/ ADD         R3, R2, #24 
    /*0000019c*/ LDR         R4, [R2, #8] 
    /*000001a0*/ CMP         R0, R3 
    /*000001a4*/ MOVEQ       R0, R2 
    /*000001a8*/ BEQ         _ZNSt8_Rb_treeINSt7__cxx1112basic_stringIcSt11char_traitsIcESaIcEEESt4pairIKS5_P26hiRUNTIME_SRC_BLOB_ARRAY_SESt10_Select1stISA_ESt4lessIS5_ESaISA_EE8_M_eraseEPSt13_Rb_tree_nodeISA_E_x1b4
    /*000001ac*/ BL          _ZdlPv
    /*000001b0*/ LDR         R0, [SP, #4] 
    _ZNSt8_Rb_treeINSt7__cxx1112basic_stringIcSt11char_traitsIcESaIcEEESt4pairIKS5_P26hiRUNTIME_SRC_BLOB_ARRAY_SESt10_Select1stISA_ESt4lessIS5_ESaISA_EE8_M_eraseEPSt13_Rb_tree_nodeISA_E_x1b4:
    /*000001b4*/ BL          _ZdlPv
    /*000001b8*/ SUBS        R3, R4, #0 
    /*000001bc*/ STR         R3, [SP, #4] 
    /*000001c0*/ BNE         _ZNSt8_Rb_treeINSt7__cxx1112basic_stringIcSt11char_traitsIcESaIcEEESt4pairIKS5_P26hiRUNTIME_SRC_BLOB_ARRAY_SESt10_Select1stISA_ESt4lessIS5_ESaISA_EE8_M_eraseEPSt13_Rb_tree_nodeISA_E_x48
    _ZNSt8_Rb_treeINSt7__cxx1112basic_stringIcSt11char_traitsIcESaIcEEESt4pairIKS5_P26hiRUNTIME_SRC_BLOB_ARRAY_SESt10_Select1stISA_ESt4lessIS5_ESaISA_EE8_M_eraseEPSt13_Rb_tree_nodeISA_E_x1c4:
    /*000001c4*/ LDR         R2, [SP, #8] 
    /*000001c8*/ LDR         R0, [R2, #16] 
    /*000001cc*/ ADD         R3, R2, #24 
    /*000001d0*/ LDR         R4, [R2, #8] 
    /*000001d4*/ CMP         R0, R3 
    /*000001d8*/ MOVEQ       R0, R2 
    /*000001dc*/ BEQ         _ZNSt8_Rb_treeINSt7__cxx1112basic_stringIcSt11char_traitsIcESaIcEEESt4pairIKS5_P26hiRUNTIME_SRC_BLOB_ARRAY_SESt10_Select1stISA_ESt4lessIS5_ESaISA_EE8_M_eraseEPSt13_Rb_tree_nodeISA_E_x1e8
    /*000001e0*/ BL          _ZdlPv
    /*000001e4*/ LDR         R0, [SP, #8] 
    _ZNSt8_Rb_treeINSt7__cxx1112basic_stringIcSt11char_traitsIcESaIcEEESt4pairIKS5_P26hiRUNTIME_SRC_BLOB_ARRAY_SESt10_Select1stISA_ESt4lessIS5_ESaISA_EE8_M_eraseEPSt13_Rb_tree_nodeISA_E_x1e8:
    /*000001e8*/ BL          _ZdlPv
    /*000001ec*/ SUBS        R3, R4, #0 
    /*000001f0*/ STR         R3, [SP, #8] 
    /*000001f4*/ BNE         _ZNSt8_Rb_treeINSt7__cxx1112basic_stringIcSt11char_traitsIcESaIcEEESt4pairIKS5_P26hiRUNTIME_SRC_BLOB_ARRAY_SESt10_Select1stISA_ESt4lessIS5_ESaISA_EE8_M_eraseEPSt13_Rb_tree_nodeISA_E_x34
    _ZNSt8_Rb_treeINSt7__cxx1112basic_stringIcSt11char_traitsIcESaIcEEESt4pairIKS5_P26hiRUNTIME_SRC_BLOB_ARRAY_SESt10_Select1stISA_ESt4lessIS5_ESaISA_EE8_M_eraseEPSt13_Rb_tree_nodeISA_E_x1f8:
    /*000001f8*/ LDR         R2, [SP, #12] 
    /*000001fc*/ LDR         R0, [R2, #16] 
    /*00000200*/ ADD         R3, R2, #24 
    /*00000204*/ LDR         R4, [R2, #8] 
    /*00000208*/ CMP         R0, R3 
    /*0000020c*/ MOVEQ       R0, R2 
    /*00000210*/ BEQ         _ZNSt8_Rb_treeINSt7__cxx1112basic_stringIcSt11char_traitsIcESaIcEEESt4pairIKS5_P26hiRUNTIME_SRC_BLOB_ARRAY_SESt10_Select1stISA_ESt4lessIS5_ESaISA_EE8_M_eraseEPSt13_Rb_tree_nodeISA_E_x21c
    /*00000214*/ BL          _ZdlPv
    /*00000218*/ LDR         R0, [SP, #12] 
    _ZNSt8_Rb_treeINSt7__cxx1112basic_stringIcSt11char_traitsIcESaIcEEESt4pairIKS5_P26hiRUNTIME_SRC_BLOB_ARRAY_SESt10_Select1stISA_ESt4lessIS5_ESaISA_EE8_M_eraseEPSt13_Rb_tree_nodeISA_E_x21c:
    /*0000021c*/ BL          _ZdlPv
    /*00000220*/ SUBS        R3, R4, #0 
    /*00000224*/ STR         R3, [SP, #12] 
    /*00000228*/ BNE         _ZNSt8_Rb_treeINSt7__cxx1112basic_stringIcSt11char_traitsIcESaIcEEESt4pairIKS5_P26hiRUNTIME_SRC_BLOB_ARRAY_SESt10_Select1stISA_ESt4lessIS5_ESaISA_EE8_M_eraseEPSt13_Rb_tree_nodeISA_E_x24
    _ZNSt8_Rb_treeINSt7__cxx1112basic_stringIcSt11char_traitsIcESaIcEEESt4pairIKS5_P26hiRUNTIME_SRC_BLOB_ARRAY_SESt10_Select1stISA_ESt4lessIS5_ESaISA_EE8_M_eraseEPSt13_Rb_tree_nodeISA_E_x22c:
    /*0000022c*/ ADD         SP, SP, #20 
    /*00000230*/ POP         {R4, R5, R6, R7, R8, R9, SL, FP, PC} 
FUNC_END _ZNSt8_Rb_treeINSt7__cxx1112basic_stringIcSt11char_traitsIcESaIcEEESt4pairIKS5_P26hiRUNTIME_SRC_BLOB_ARRAY_SESt10_Select1stISA_ESt4lessIS5_ESaISA_EE8_M_eraseEPSt13_Rb_tree_nodeISA_E


@ - - - - - - - - - - - - - - - - - - - - - - - - - - - - - 
@ .text._ZNSt8_Rb_treeINSt7__cxx1112basic_stringIcSt11char_traitsIcESaIcEEESt4pairIKS5_NS0_4listIP16hiRUNTIME_BLOB_SSaISA_EEEESt10_Select1stISD_ESt4lessIS5_ESaISD_EE8_M_eraseEPSt13_Rb_tree_nodeISD_E
@ Size: 0x394
@ - - - - - - - - - - - - - - - - - - - - - - - - - - - - - 

FUNC_BEGIN _ZNSt8_Rb_treeINSt7__cxx1112basic_stringIcSt11char_traitsIcESaIcEEESt4pairIKS5_NS0_4listIP16hiRUNTIME_BLOB_SSaISA_EEEESt10_Select1stISD_ESt4lessIS5_ESaISD_EE8_M_eraseEPSt13_Rb_tree_nodeISD_E
    /*00000000*/ MOV         IP, #16384                  @ 0x4000 
    /*00000004*/ PUSH        {R4, R5, R6, R7, R8, R9, SL, FP, LR} 
    /*00000008*/ SUB         IP, SP, IP 
    /*0000000c*/ STR         R0, [IP, #4032]             @ 0xfc0 
    /*00000010*/ SUB         SP, SP, #28 
    /*00000014*/ SUBS        R3, R1, #0 
    /*00000018*/ STR         R3, [SP, #20] 
    /*0000001c*/ BEQ         _ZNSt8_Rb_treeINSt7__cxx1112basic_stringIcSt11char_traitsIcESaIcEEESt4pairIKS5_NS0_4listIP16hiRUNTIME_BLOB_SSaISA_EEEESt10_Select1stISD_ESt4lessIS5_ESaISD_EE8_M_eraseEPSt13_Rb_tree_nodeISD_E_x38c
    /*00000020*/ MOV         R7, R0 
    _ZNSt8_Rb_treeINSt7__cxx1112basic_stringIcSt11char_traitsIcESaIcEEESt4pairIKS5_NS0_4listIP16hiRUNTIME_BLOB_SSaISA_EEEESt10_Select1stISD_ESt4lessIS5_ESaISD_EE8_M_eraseEPSt13_Rb_tree_nodeISD_E_x24:
    /*00000024*/ LDR         R3, [R3, #12] 
    /*00000028*/ CMP         R3, #0 
    /*0000002c*/ STRNE       R3, [SP, #16] 
    /*00000030*/ BEQ         _ZNSt8_Rb_treeINSt7__cxx1112basic_stringIcSt11char_traitsIcESaIcEEESt4pairIKS5_NS0_4listIP16hiRUNTIME_BLOB_SSaISA_EEEESt10_Select1stISD_ESt4lessIS5_ESaISD_EE8_M_eraseEPSt13_Rb_tree_nodeISD_E_x334
    _ZNSt8_Rb_treeINSt7__cxx1112basic_stringIcSt11char_traitsIcESaIcEEESt4pairIKS5_NS0_4listIP16hiRUNTIME_BLOB_SSaISA_EEEESt10_Select1stISD_ESt4lessIS5_ESaISD_EE8_M_eraseEPSt13_Rb_tree_nodeISD_E_x34:
    /*00000034*/ LDR         R3, [R3, #12] 
    /*00000038*/ CMP         R3, #0 
    /*0000003c*/ STRNE       R3, [SP, #12] 
    /*00000040*/ BEQ         _ZNSt8_Rb_treeINSt7__cxx1112basic_stringIcSt11char_traitsIcESaIcEEESt4pairIKS5_NS0_4listIP16hiRUNTIME_BLOB_SSaISA_EEEESt10_Select1stISD_ESt4lessIS5_ESaISD_EE8_M_eraseEPSt13_Rb_tree_nodeISD_E_x2dc
    _ZNSt8_Rb_treeINSt7__cxx1112basic_stringIcSt11char_traitsIcESaIcEEESt4pairIKS5_NS0_4listIP16hiRUNTIME_BLOB_SSaISA_EEEESt10_Select1stISD_ESt4lessIS5_ESaISD_EE8_M_eraseEPSt13_Rb_tree_nodeISD_E_x44:
    /*00000044*/ LDR         R3, [R3, #12] 
    /*00000048*/ CMP         R3, #0 
    /*0000004c*/ STRNE       R3, [SP, #8] 
    /*00000050*/ BEQ         _ZNSt8_Rb_treeINSt7__cxx1112basic_stringIcSt11char_traitsIcESaIcEEESt4pairIKS5_NS0_4listIP16hiRUNTIME_BLOB_SSaISA_EEEESt10_Select1stISD_ESt4lessIS5_ESaISD_EE8_M_eraseEPSt13_Rb_tree_nodeISD_E_x284
    _ZNSt8_Rb_treeINSt7__cxx1112basic_stringIcSt11char_traitsIcESaIcEEESt4pairIKS5_NS0_4listIP16hiRUNTIME_BLOB_SSaISA_EEEESt10_Select1stISD_ESt4lessIS5_ESaISD_EE8_M_eraseEPSt13_Rb_tree_nodeISD_E_x54:
    /*00000054*/ LDR         R9, [R3, #12] 
    /*00000058*/ CMP         R9, #0 
    /*0000005c*/ STRNE       R9, [SP, #4] 
    /*00000060*/ MOVNE       R3, R9 
    /*00000064*/ BEQ         _ZNSt8_Rb_treeINSt7__cxx1112basic_stringIcSt11char_traitsIcESaIcEEESt4pairIKS5_NS0_4listIP16hiRUNTIME_BLOB_SSaISA_EEEESt10_Select1stISD_ESt4lessIS5_ESaISD_EE8_M_eraseEPSt13_Rb_tree_nodeISD_E_x230
    _ZNSt8_Rb_treeINSt7__cxx1112basic_stringIcSt11char_traitsIcESaIcEEESt4pairIKS5_NS0_4listIP16hiRUNTIME_BLOB_SSaISA_EEEESt10_Select1stISD_ESt4lessIS5_ESaISD_EE8_M_eraseEPSt13_Rb_tree_nodeISD_E_x68:
    /*00000068*/ LDR         R9, [R3, #12] 
    /*0000006c*/ CMP         R9, #0 
    /*00000070*/ BEQ         _ZNSt8_Rb_treeINSt7__cxx1112basic_stringIcSt11char_traitsIcESaIcEEESt4pairIKS5_NS0_4listIP16hiRUNTIME_BLOB_SSaISA_EEEESt10_Select1stISD_ESt4lessIS5_ESaISD_EE8_M_eraseEPSt13_Rb_tree_nodeISD_E_x1d8
    _ZNSt8_Rb_treeINSt7__cxx1112basic_stringIcSt11char_traitsIcESaIcEEESt4pairIKS5_NS0_4listIP16hiRUNTIME_BLOB_SSaISA_EEEESt10_Select1stISD_ESt4lessIS5_ESaISD_EE8_M_eraseEPSt13_Rb_tree_nodeISD_E_x74:
    /*00000074*/ LDR         SL, [R9, #12] 
    /*00000078*/ CMP         SL, #0 
    /*0000007c*/ BEQ         _ZNSt8_Rb_treeINSt7__cxx1112basic_stringIcSt11char_traitsIcESaIcEEESt4pairIKS5_NS0_4listIP16hiRUNTIME_BLOB_SSaISA_EEEESt10_Select1stISD_ESt4lessIS5_ESaISD_EE8_M_eraseEPSt13_Rb_tree_nodeISD_E_x188
    _ZNSt8_Rb_treeINSt7__cxx1112basic_stringIcSt11char_traitsIcESaIcEEESt4pairIKS5_NS0_4listIP16hiRUNTIME_BLOB_SSaISA_EEEESt10_Select1stISD_ESt4lessIS5_ESaISD_EE8_M_eraseEPSt13_Rb_tree_nodeISD_E_x80:
    /*00000080*/ LDR         R8, [SL, #12] 
    /*00000084*/ CMP         R8, #0 
    /*00000088*/ BEQ         _ZNSt8_Rb_treeINSt7__cxx1112basic_stringIcSt11char_traitsIcESaIcEEESt4pairIKS5_NS0_4listIP16hiRUNTIME_BLOB_SSaISA_EEEESt10_Select1stISD_ESt4lessIS5_ESaISD_EE8_M_eraseEPSt13_Rb_tree_nodeISD_E_x13c
    _ZNSt8_Rb_treeINSt7__cxx1112basic_stringIcSt11char_traitsIcESaIcEEESt4pairIKS5_NS0_4listIP16hiRUNTIME_BLOB_SSaISA_EEEESt10_Select1stISD_ESt4lessIS5_ESaISD_EE8_M_eraseEPSt13_Rb_tree_nodeISD_E_x8c:
    /*0000008c*/ LDR         R5, [R8, #12] 
    /*00000090*/ CMP         R5, #0 
    /*00000094*/ BEQ         _ZNSt8_Rb_treeINSt7__cxx1112basic_stringIcSt11char_traitsIcESaIcEEESt4pairIKS5_NS0_4listIP16hiRUNTIME_BLOB_SSaISA_EEEESt10_Select1stISD_ESt4lessIS5_ESaISD_EE8_M_eraseEPSt13_Rb_tree_nodeISD_E_xf0
    _ZNSt8_Rb_treeINSt7__cxx1112basic_stringIcSt11char_traitsIcESaIcEEESt4pairIKS5_NS0_4listIP16hiRUNTIME_BLOB_SSaISA_EEEESt10_Select1stISD_ESt4lessIS5_ESaISD_EE8_M_eraseEPSt13_Rb_tree_nodeISD_E_x98:
    /*00000098*/ LDR         R1, [R5, #12] 
    /*0000009c*/ MOV         R4, R5 
    /*000000a0*/ MOV         R0, R7 
    /*000000a4*/ BL          _ZNSt8_Rb_treeINSt7__cxx1112basic_stringIcSt11char_traitsIcESaIcEEESt4pairIKS5_NS0_4listIP16hiRUNTIME_BLOB_SSaISA_EEEESt10_Select1stISD_ESt4lessIS5_ESaISD_EE8_M_eraseEPSt13_Rb_tree_nodeISD_E
    /*000000a8*/ LDR         R0, [R4, #40]!              @ 0x28 
    /*000000ac*/ LDR         R6, [R5, #8] 
    /*000000b0*/ CMP         R4, R0 
    /*000000b4*/ BEQ         _ZNSt8_Rb_treeINSt7__cxx1112basic_stringIcSt11char_traitsIcESaIcEEESt4pairIKS5_NS0_4listIP16hiRUNTIME_BLOB_SSaISA_EEEESt10_Select1stISD_ESt4lessIS5_ESaISD_EE8_M_eraseEPSt13_Rb_tree_nodeISD_E_xcc
    _ZNSt8_Rb_treeINSt7__cxx1112basic_stringIcSt11char_traitsIcESaIcEEESt4pairIKS5_NS0_4listIP16hiRUNTIME_BLOB_SSaISA_EEEESt10_Select1stISD_ESt4lessIS5_ESaISD_EE8_M_eraseEPSt13_Rb_tree_nodeISD_E_xb8:
    /*000000b8*/ LDR         FP, [R0] 
    /*000000bc*/ BL          _ZdlPv
    /*000000c0*/ CMP         R4, FP 
    /*000000c4*/ MOV         R0, FP 
    /*000000c8*/ BNE         _ZNSt8_Rb_treeINSt7__cxx1112basic_stringIcSt11char_traitsIcESaIcEEESt4pairIKS5_NS0_4listIP16hiRUNTIME_BLOB_SSaISA_EEEESt10_Select1stISD_ESt4lessIS5_ESaISD_EE8_M_eraseEPSt13_Rb_tree_nodeISD_E_xb8
    _ZNSt8_Rb_treeINSt7__cxx1112basic_stringIcSt11char_traitsIcESaIcEEESt4pairIKS5_NS0_4listIP16hiRUNTIME_BLOB_SSaISA_EEEESt10_Select1stISD_ESt4lessIS5_ESaISD_EE8_M_eraseEPSt13_Rb_tree_nodeISD_E_xcc:
    /*000000cc*/ LDR         R0, [R5, #16] 
    /*000000d0*/ ADD         R3, R5, #24 
    /*000000d4*/ CMP         R0, R3 
    /*000000d8*/ BEQ         _ZNSt8_Rb_treeINSt7__cxx1112basic_stringIcSt11char_traitsIcESaIcEEESt4pairIKS5_NS0_4listIP16hiRUNTIME_BLOB_SSaISA_EEEESt10_Select1stISD_ESt4lessIS5_ESaISD_EE8_M_eraseEPSt13_Rb_tree_nodeISD_E_xe0
    /*000000dc*/ BL          _ZdlPv
    _ZNSt8_Rb_treeINSt7__cxx1112basic_stringIcSt11char_traitsIcESaIcEEESt4pairIKS5_NS0_4listIP16hiRUNTIME_BLOB_SSaISA_EEEESt10_Select1stISD_ESt4lessIS5_ESaISD_EE8_M_eraseEPSt13_Rb_tree_nodeISD_E_xe0:
    /*000000e0*/ MOV         R0, R5 
    /*000000e4*/ BL          _ZdlPv
    /*000000e8*/ SUBS        R5, R6, #0 
    /*000000ec*/ BNE         _ZNSt8_Rb_treeINSt7__cxx1112basic_stringIcSt11char_traitsIcESaIcEEESt4pairIKS5_NS0_4listIP16hiRUNTIME_BLOB_SSaISA_EEEESt10_Select1stISD_ESt4lessIS5_ESaISD_EE8_M_eraseEPSt13_Rb_tree_nodeISD_E_x98
    _ZNSt8_Rb_treeINSt7__cxx1112basic_stringIcSt11char_traitsIcESaIcEEESt4pairIKS5_NS0_4listIP16hiRUNTIME_BLOB_SSaISA_EEEESt10_Select1stISD_ESt4lessIS5_ESaISD_EE8_M_eraseEPSt13_Rb_tree_nodeISD_E_xf0:
    /*000000f0*/ LDR         R6, [R8, #8] 
    /*000000f4*/ MOV         R5, R8 
    /*000000f8*/ LDR         R0, [R5, #40]!              @ 0x28 
    /*000000fc*/ CMP         R0, R5 
    /*00000100*/ BEQ         _ZNSt8_Rb_treeINSt7__cxx1112basic_stringIcSt11char_traitsIcESaIcEEESt4pairIKS5_NS0_4listIP16hiRUNTIME_BLOB_SSaISA_EEEESt10_Select1stISD_ESt4lessIS5_ESaISD_EE8_M_eraseEPSt13_Rb_tree_nodeISD_E_x118
    _ZNSt8_Rb_treeINSt7__cxx1112basic_stringIcSt11char_traitsIcESaIcEEESt4pairIKS5_NS0_4listIP16hiRUNTIME_BLOB_SSaISA_EEEESt10_Select1stISD_ESt4lessIS5_ESaISD_EE8_M_eraseEPSt13_Rb_tree_nodeISD_E_x104:
    /*00000104*/ LDR         R4, [R0] 
    /*00000108*/ BL          _ZdlPv
    /*0000010c*/ CMP         R4, R5 
    /*00000110*/ MOV         R0, R4 
    /*00000114*/ BNE         _ZNSt8_Rb_treeINSt7__cxx1112basic_stringIcSt11char_traitsIcESaIcEEESt4pairIKS5_NS0_4listIP16hiRUNTIME_BLOB_SSaISA_EEEESt10_Select1stISD_ESt4lessIS5_ESaISD_EE8_M_eraseEPSt13_Rb_tree_nodeISD_E_x104
    _ZNSt8_Rb_treeINSt7__cxx1112basic_stringIcSt11char_traitsIcESaIcEEESt4pairIKS5_NS0_4listIP16hiRUNTIME_BLOB_SSaISA_EEEESt10_Select1stISD_ESt4lessIS5_ESaISD_EE8_M_eraseEPSt13_Rb_tree_nodeISD_E_x118:
    /*00000118*/ LDR         R0, [R8, #16] 
    /*0000011c*/ ADD         R3, R8, #24 
    /*00000120*/ CMP         R0, R3 
    /*00000124*/ BEQ         _ZNSt8_Rb_treeINSt7__cxx1112basic_stringIcSt11char_traitsIcESaIcEEESt4pairIKS5_NS0_4listIP16hiRUNTIME_BLOB_SSaISA_EEEESt10_Select1stISD_ESt4lessIS5_ESaISD_EE8_M_eraseEPSt13_Rb_tree_nodeISD_E_x12c
    /*00000128*/ BL          _ZdlPv
    _ZNSt8_Rb_treeINSt7__cxx1112basic_stringIcSt11char_traitsIcESaIcEEESt4pairIKS5_NS0_4listIP16hiRUNTIME_BLOB_SSaISA_EEEESt10_Select1stISD_ESt4lessIS5_ESaISD_EE8_M_eraseEPSt13_Rb_tree_nodeISD_E_x12c:
    /*0000012c*/ MOV         R0, R8 
    /*00000130*/ BL          _ZdlPv
    /*00000134*/ SUBS        R8, R6, #0 
    /*00000138*/ BNE         _ZNSt8_Rb_treeINSt7__cxx1112basic_stringIcSt11char_traitsIcESaIcEEESt4pairIKS5_NS0_4listIP16hiRUNTIME_BLOB_SSaISA_EEEESt10_Select1stISD_ESt4lessIS5_ESaISD_EE8_M_eraseEPSt13_Rb_tree_nodeISD_E_x8c
    _ZNSt8_Rb_treeINSt7__cxx1112basic_stringIcSt11char_traitsIcESaIcEEESt4pairIKS5_NS0_4listIP16hiRUNTIME_BLOB_SSaISA_EEEESt10_Select1stISD_ESt4lessIS5_ESaISD_EE8_M_eraseEPSt13_Rb_tree_nodeISD_E_x13c:
    /*0000013c*/ LDR         R6, [SL, #8] 
    /*00000140*/ MOV         R5, SL 
    /*00000144*/ LDR         R0, [R5, #40]!              @ 0x28 
    /*00000148*/ CMP         R0, R5 
    /*0000014c*/ BEQ         _ZNSt8_Rb_treeINSt7__cxx1112basic_stringIcSt11char_traitsIcESaIcEEESt4pairIKS5_NS0_4listIP16hiRUNTIME_BLOB_SSaISA_EEEESt10_Select1stISD_ESt4lessIS5_ESaISD_EE8_M_eraseEPSt13_Rb_tree_nodeISD_E_x164
    _ZNSt8_Rb_treeINSt7__cxx1112basic_stringIcSt11char_traitsIcESaIcEEESt4pairIKS5_NS0_4listIP16hiRUNTIME_BLOB_SSaISA_EEEESt10_Select1stISD_ESt4lessIS5_ESaISD_EE8_M_eraseEPSt13_Rb_tree_nodeISD_E_x150:
    /*00000150*/ LDR         R4, [R0] 
    /*00000154*/ BL          _ZdlPv
    /*00000158*/ CMP         R4, R5 
    /*0000015c*/ MOV         R0, R4 
    /*00000160*/ BNE         _ZNSt8_Rb_treeINSt7__cxx1112basic_stringIcSt11char_traitsIcESaIcEEESt4pairIKS5_NS0_4listIP16hiRUNTIME_BLOB_SSaISA_EEEESt10_Select1stISD_ESt4lessIS5_ESaISD_EE8_M_eraseEPSt13_Rb_tree_nodeISD_E_x150
    _ZNSt8_Rb_treeINSt7__cxx1112basic_stringIcSt11char_traitsIcESaIcEEESt4pairIKS5_NS0_4listIP16hiRUNTIME_BLOB_SSaISA_EEEESt10_Select1stISD_ESt4lessIS5_ESaISD_EE8_M_eraseEPSt13_Rb_tree_nodeISD_E_x164:
    /*00000164*/ LDR         R0, [SL, #16] 
    /*00000168*/ ADD         R3, SL, #24 
    /*0000016c*/ CMP         R0, R3 
    /*00000170*/ BEQ         _ZNSt8_Rb_treeINSt7__cxx1112basic_stringIcSt11char_traitsIcESaIcEEESt4pairIKS5_NS0_4listIP16hiRUNTIME_BLOB_SSaISA_EEEESt10_Select1stISD_ESt4lessIS5_ESaISD_EE8_M_eraseEPSt13_Rb_tree_nodeISD_E_x178
    /*00000174*/ BL          _ZdlPv
    _ZNSt8_Rb_treeINSt7__cxx1112basic_stringIcSt11char_traitsIcESaIcEEESt4pairIKS5_NS0_4listIP16hiRUNTIME_BLOB_SSaISA_EEEESt10_Select1stISD_ESt4lessIS5_ESaISD_EE8_M_eraseEPSt13_Rb_tree_nodeISD_E_x178:
    /*00000178*/ MOV         R0, SL 
    /*0000017c*/ BL          _ZdlPv
    /*00000180*/ SUBS        SL, R6, #0 
    /*00000184*/ BNE         _ZNSt8_Rb_treeINSt7__cxx1112basic_stringIcSt11char_traitsIcESaIcEEESt4pairIKS5_NS0_4listIP16hiRUNTIME_BLOB_SSaISA_EEEESt10_Select1stISD_ESt4lessIS5_ESaISD_EE8_M_eraseEPSt13_Rb_tree_nodeISD_E_x80
    _ZNSt8_Rb_treeINSt7__cxx1112basic_stringIcSt11char_traitsIcESaIcEEESt4pairIKS5_NS0_4listIP16hiRUNTIME_BLOB_SSaISA_EEEESt10_Select1stISD_ESt4lessIS5_ESaISD_EE8_M_eraseEPSt13_Rb_tree_nodeISD_E_x188:
    /*00000188*/ LDR         R5, [R9, #8] 
    /*0000018c*/ MOV         R4, R9 
    /*00000190*/ LDR         R0, [R4, #40]!              @ 0x28 
    /*00000194*/ CMP         R0, R4 
    /*00000198*/ BEQ         _ZNSt8_Rb_treeINSt7__cxx1112basic_stringIcSt11char_traitsIcESaIcEEESt4pairIKS5_NS0_4listIP16hiRUNTIME_BLOB_SSaISA_EEEESt10_Select1stISD_ESt4lessIS5_ESaISD_EE8_M_eraseEPSt13_Rb_tree_nodeISD_E_x1b0
    _ZNSt8_Rb_treeINSt7__cxx1112basic_stringIcSt11char_traitsIcESaIcEEESt4pairIKS5_NS0_4listIP16hiRUNTIME_BLOB_SSaISA_EEEESt10_Select1stISD_ESt4lessIS5_ESaISD_EE8_M_eraseEPSt13_Rb_tree_nodeISD_E_x19c:
    /*0000019c*/ LDR         R6, [R0] 
    /*000001a0*/ BL          _ZdlPv
    /*000001a4*/ CMP         R6, R4 
    /*000001a8*/ MOV         R0, R6 
    /*000001ac*/ BNE         _ZNSt8_Rb_treeINSt7__cxx1112basic_stringIcSt11char_traitsIcESaIcEEESt4pairIKS5_NS0_4listIP16hiRUNTIME_BLOB_SSaISA_EEEESt10_Select1stISD_ESt4lessIS5_ESaISD_EE8_M_eraseEPSt13_Rb_tree_nodeISD_E_x19c
    _ZNSt8_Rb_treeINSt7__cxx1112basic_stringIcSt11char_traitsIcESaIcEEESt4pairIKS5_NS0_4listIP16hiRUNTIME_BLOB_SSaISA_EEEESt10_Select1stISD_ESt4lessIS5_ESaISD_EE8_M_eraseEPSt13_Rb_tree_nodeISD_E_x1b0:
    /*000001b0*/ LDR         R0, [R9, #16] 
    /*000001b4*/ ADD         R3, R9, #24 
    /*000001b8*/ CMP         R0, R3 
    /*000001bc*/ BEQ         _ZNSt8_Rb_treeINSt7__cxx1112basic_stringIcSt11char_traitsIcESaIcEEESt4pairIKS5_NS0_4listIP16hiRUNTIME_BLOB_SSaISA_EEEESt10_Select1stISD_ESt4lessIS5_ESaISD_EE8_M_eraseEPSt13_Rb_tree_nodeISD_E_x1c4
    /*000001c0*/ BL          _ZdlPv
    _ZNSt8_Rb_treeINSt7__cxx1112basic_stringIcSt11char_traitsIcESaIcEEESt4pairIKS5_NS0_4listIP16hiRUNTIME_BLOB_SSaISA_EEEESt10_Select1stISD_ESt4lessIS5_ESaISD_EE8_M_eraseEPSt13_Rb_tree_nodeISD_E_x1c4:
    /*000001c4*/ MOV         R0, R9 
    /*000001c8*/ BL          _ZdlPv
    /*000001cc*/ SUBS        R9, R5, #0 
    /*000001d0*/ BNE         _ZNSt8_Rb_treeINSt7__cxx1112basic_stringIcSt11char_traitsIcESaIcEEESt4pairIKS5_NS0_4listIP16hiRUNTIME_BLOB_SSaISA_EEEESt10_Select1stISD_ESt4lessIS5_ESaISD_EE8_M_eraseEPSt13_Rb_tree_nodeISD_E_x74
    /*000001d4*/ LDR         R3, [SP, #4] 
    _ZNSt8_Rb_treeINSt7__cxx1112basic_stringIcSt11char_traitsIcESaIcEEESt4pairIKS5_NS0_4listIP16hiRUNTIME_BLOB_SSaISA_EEEESt10_Select1stISD_ESt4lessIS5_ESaISD_EE8_M_eraseEPSt13_Rb_tree_nodeISD_E_x1d8:
    /*000001d8*/ LDR         R5, [R3, #8] 
    /*000001dc*/ MOV         R4, R3 
    /*000001e0*/ LDR         R0, [R4, #40]!              @ 0x28 
    /*000001e4*/ CMP         R0, R4 
    /*000001e8*/ BEQ         _ZNSt8_Rb_treeINSt7__cxx1112basic_stringIcSt11char_traitsIcESaIcEEESt4pairIKS5_NS0_4listIP16hiRUNTIME_BLOB_SSaISA_EEEESt10_Select1stISD_ESt4lessIS5_ESaISD_EE8_M_eraseEPSt13_Rb_tree_nodeISD_E_x204
    _ZNSt8_Rb_treeINSt7__cxx1112basic_stringIcSt11char_traitsIcESaIcEEESt4pairIKS5_NS0_4listIP16hiRUNTIME_BLOB_SSaISA_EEEESt10_Select1stISD_ESt4lessIS5_ESaISD_EE8_M_eraseEPSt13_Rb_tree_nodeISD_E_x1ec:
    /*000001ec*/ LDR         R6, [R0] 
    /*000001f0*/ BL          _ZdlPv
    /*000001f4*/ CMP         R6, R4 
    /*000001f8*/ MOV         R0, R6 
    /*000001fc*/ BNE         _ZNSt8_Rb_treeINSt7__cxx1112basic_stringIcSt11char_traitsIcESaIcEEESt4pairIKS5_NS0_4listIP16hiRUNTIME_BLOB_SSaISA_EEEESt10_Select1stISD_ESt4lessIS5_ESaISD_EE8_M_eraseEPSt13_Rb_tree_nodeISD_E_x1ec
    /*00000200*/ LDR         R3, [SP, #4] 
    _ZNSt8_Rb_treeINSt7__cxx1112basic_stringIcSt11char_traitsIcESaIcEEESt4pairIKS5_NS0_4listIP16hiRUNTIME_BLOB_SSaISA_EEEESt10_Select1stISD_ESt4lessIS5_ESaISD_EE8_M_eraseEPSt13_Rb_tree_nodeISD_E_x204:
    /*00000204*/ LDR         R0, [R3, #16] 
    /*00000208*/ ADD         R3, R3, #24 
    /*0000020c*/ CMP         R0, R3 
    /*00000210*/ BEQ         _ZNSt8_Rb_treeINSt7__cxx1112basic_stringIcSt11char_traitsIcESaIcEEESt4pairIKS5_NS0_4listIP16hiRUNTIME_BLOB_SSaISA_EEEESt10_Select1stISD_ESt4lessIS5_ESaISD_EE8_M_eraseEPSt13_Rb_tree_nodeISD_E_x218
    /*00000214*/ BL          _ZdlPv
    _ZNSt8_Rb_treeINSt7__cxx1112basic_stringIcSt11char_traitsIcESaIcEEESt4pairIKS5_NS0_4listIP16hiRUNTIME_BLOB_SSaISA_EEEESt10_Select1stISD_ESt4lessIS5_ESaISD_EE8_M_eraseEPSt13_Rb_tree_nodeISD_E_x218:
    /*00000218*/ LDR         R0, [SP, #4] 
    /*0000021c*/ BL          _ZdlPv
    /*00000220*/ SUBS        R3, R5, #0 
    /*00000224*/ STR         R3, [SP, #4] 
    /*00000228*/ BNE         _ZNSt8_Rb_treeINSt7__cxx1112basic_stringIcSt11char_traitsIcESaIcEEESt4pairIKS5_NS0_4listIP16hiRUNTIME_BLOB_SSaISA_EEEESt10_Select1stISD_ESt4lessIS5_ESaISD_EE8_M_eraseEPSt13_Rb_tree_nodeISD_E_x68
    /*0000022c*/ LDR         R3, [SP, #8] 
    _ZNSt8_Rb_treeINSt7__cxx1112basic_stringIcSt11char_traitsIcESaIcEEESt4pairIKS5_NS0_4listIP16hiRUNTIME_BLOB_SSaISA_EEEESt10_Select1stISD_ESt4lessIS5_ESaISD_EE8_M_eraseEPSt13_Rb_tree_nodeISD_E_x230:
    /*00000230*/ LDR         R5, [R3, #8] 
    /*00000234*/ MOV         R4, R3 
    /*00000238*/ LDR         R0, [R4, #40]!              @ 0x28 
    /*0000023c*/ CMP         R0, R4 
    /*00000240*/ BEQ         _ZNSt8_Rb_treeINSt7__cxx1112basic_stringIcSt11char_traitsIcESaIcEEESt4pairIKS5_NS0_4listIP16hiRUNTIME_BLOB_SSaISA_EEEESt10_Select1stISD_ESt4lessIS5_ESaISD_EE8_M_eraseEPSt13_Rb_tree_nodeISD_E_x25c
    _ZNSt8_Rb_treeINSt7__cxx1112basic_stringIcSt11char_traitsIcESaIcEEESt4pairIKS5_NS0_4listIP16hiRUNTIME_BLOB_SSaISA_EEEESt10_Select1stISD_ESt4lessIS5_ESaISD_EE8_M_eraseEPSt13_Rb_tree_nodeISD_E_x244:
    /*00000244*/ LDR         R6, [R0] 
    /*00000248*/ BL          _ZdlPv
    /*0000024c*/ CMP         R6, R4 
    /*00000250*/ MOV         R0, R6 
    /*00000254*/ BNE         _ZNSt8_Rb_treeINSt7__cxx1112basic_stringIcSt11char_traitsIcESaIcEEESt4pairIKS5_NS0_4listIP16hiRUNTIME_BLOB_SSaISA_EEEESt10_Select1stISD_ESt4lessIS5_ESaISD_EE8_M_eraseEPSt13_Rb_tree_nodeISD_E_x244
    /*00000258*/ LDR         R3, [SP, #8] 
    _ZNSt8_Rb_treeINSt7__cxx1112basic_stringIcSt11char_traitsIcESaIcEEESt4pairIKS5_NS0_4listIP16hiRUNTIME_BLOB_SSaISA_EEEESt10_Select1stISD_ESt4lessIS5_ESaISD_EE8_M_eraseEPSt13_Rb_tree_nodeISD_E_x25c:
    /*0000025c*/ LDR         R0, [R3, #16] 
    /*00000260*/ ADD         R3, R3, #24 
    /*00000264*/ CMP         R0, R3 
    /*00000268*/ BEQ         _ZNSt8_Rb_treeINSt7__cxx1112basic_stringIcSt11char_traitsIcESaIcEEESt4pairIKS5_NS0_4listIP16hiRUNTIME_BLOB_SSaISA_EEEESt10_Select1stISD_ESt4lessIS5_ESaISD_EE8_M_eraseEPSt13_Rb_tree_nodeISD_E_x270
    /*0000026c*/ BL          _ZdlPv
    _ZNSt8_Rb_treeINSt7__cxx1112basic_stringIcSt11char_traitsIcESaIcEEESt4pairIKS5_NS0_4listIP16hiRUNTIME_BLOB_SSaISA_EEEESt10_Select1stISD_ESt4lessIS5_ESaISD_EE8_M_eraseEPSt13_Rb_tree_nodeISD_E_x270:
    /*00000270*/ LDR         R0, [SP, #8] 
    /*00000274*/ BL          _ZdlPv
    /*00000278*/ SUBS        R3, R5, #0 
    /*0000027c*/ STR         R3, [SP, #8] 
    /*00000280*/ BNE         _ZNSt8_Rb_treeINSt7__cxx1112basic_stringIcSt11char_traitsIcESaIcEEESt4pairIKS5_NS0_4listIP16hiRUNTIME_BLOB_SSaISA_EEEESt10_Select1stISD_ESt4lessIS5_ESaISD_EE8_M_eraseEPSt13_Rb_tree_nodeISD_E_x54
    _ZNSt8_Rb_treeINSt7__cxx1112basic_stringIcSt11char_traitsIcESaIcEEESt4pairIKS5_NS0_4listIP16hiRUNTIME_BLOB_SSaISA_EEEESt10_Select1stISD_ESt4lessIS5_ESaISD_EE8_M_eraseEPSt13_Rb_tree_nodeISD_E_x284:
    /*00000284*/ LDR         R3, [SP, #12] 
    /*00000288*/ LDR         R5, [R3, #8] 
    /*0000028c*/ MOV         R4, R3 
    /*00000290*/ LDR         R0, [R4, #40]!              @ 0x28 
    /*00000294*/ CMP         R0, R4 
    /*00000298*/ BEQ         _ZNSt8_Rb_treeINSt7__cxx1112basic_stringIcSt11char_traitsIcESaIcEEESt4pairIKS5_NS0_4listIP16hiRUNTIME_BLOB_SSaISA_EEEESt10_Select1stISD_ESt4lessIS5_ESaISD_EE8_M_eraseEPSt13_Rb_tree_nodeISD_E_x2b4
    _ZNSt8_Rb_treeINSt7__cxx1112basic_stringIcSt11char_traitsIcESaIcEEESt4pairIKS5_NS0_4listIP16hiRUNTIME_BLOB_SSaISA_EEEESt10_Select1stISD_ESt4lessIS5_ESaISD_EE8_M_eraseEPSt13_Rb_tree_nodeISD_E_x29c:
    /*0000029c*/ LDR         R6, [R0] 
    /*000002a0*/ BL          _ZdlPv
    /*000002a4*/ CMP         R6, R4 
    /*000002a8*/ MOV         R0, R6 
    /*000002ac*/ BNE         _ZNSt8_Rb_treeINSt7__cxx1112basic_stringIcSt11char_traitsIcESaIcEEESt4pairIKS5_NS0_4listIP16hiRUNTIME_BLOB_SSaISA_EEEESt10_Select1stISD_ESt4lessIS5_ESaISD_EE8_M_eraseEPSt13_Rb_tree_nodeISD_E_x29c
    /*000002b0*/ LDR         R3, [SP, #12] 
    _ZNSt8_Rb_treeINSt7__cxx1112basic_stringIcSt11char_traitsIcESaIcEEESt4pairIKS5_NS0_4listIP16hiRUNTIME_BLOB_SSaISA_EEEESt10_Select1stISD_ESt4lessIS5_ESaISD_EE8_M_eraseEPSt13_Rb_tree_nodeISD_E_x2b4:
    /*000002b4*/ LDR         R0, [R3, #16] 
    /*000002b8*/ ADD         R3, R3, #24 
    /*000002bc*/ CMP         R0, R3 
    /*000002c0*/ BEQ         _ZNSt8_Rb_treeINSt7__cxx1112basic_stringIcSt11char_traitsIcESaIcEEESt4pairIKS5_NS0_4listIP16hiRUNTIME_BLOB_SSaISA_EEEESt10_Select1stISD_ESt4lessIS5_ESaISD_EE8_M_eraseEPSt13_Rb_tree_nodeISD_E_x2c8
    /*000002c4*/ BL          _ZdlPv
    _ZNSt8_Rb_treeINSt7__cxx1112basic_stringIcSt11char_traitsIcESaIcEEESt4pairIKS5_NS0_4listIP16hiRUNTIME_BLOB_SSaISA_EEEESt10_Select1stISD_ESt4lessIS5_ESaISD_EE8_M_eraseEPSt13_Rb_tree_nodeISD_E_x2c8:
    /*000002c8*/ LDR         R0, [SP, #12] 
    /*000002cc*/ BL          _ZdlPv
    /*000002d0*/ SUBS        R3, R5, #0 
    /*000002d4*/ STR         R3, [SP, #12] 
    /*000002d8*/ BNE         _ZNSt8_Rb_treeINSt7__cxx1112basic_stringIcSt11char_traitsIcESaIcEEESt4pairIKS5_NS0_4listIP16hiRUNTIME_BLOB_SSaISA_EEEESt10_Select1stISD_ESt4lessIS5_ESaISD_EE8_M_eraseEPSt13_Rb_tree_nodeISD_E_x44
    _ZNSt8_Rb_treeINSt7__cxx1112basic_stringIcSt11char_traitsIcESaIcEEESt4pairIKS5_NS0_4listIP16hiRUNTIME_BLOB_SSaISA_EEEESt10_Select1stISD_ESt4lessIS5_ESaISD_EE8_M_eraseEPSt13_Rb_tree_nodeISD_E_x2dc:
    /*000002dc*/ LDR         R3, [SP, #16] 
    /*000002e0*/ LDR         R5, [R3, #8] 
    /*000002e4*/ MOV         R4, R3 
    /*000002e8*/ LDR         R0, [R4, #40]!              @ 0x28 
    /*000002ec*/ CMP         R0, R4 
    /*000002f0*/ BEQ         _ZNSt8_Rb_treeINSt7__cxx1112basic_stringIcSt11char_traitsIcESaIcEEESt4pairIKS5_NS0_4listIP16hiRUNTIME_BLOB_SSaISA_EEEESt10_Select1stISD_ESt4lessIS5_ESaISD_EE8_M_eraseEPSt13_Rb_tree_nodeISD_E_x30c
    _ZNSt8_Rb_treeINSt7__cxx1112basic_stringIcSt11char_traitsIcESaIcEEESt4pairIKS5_NS0_4listIP16hiRUNTIME_BLOB_SSaISA_EEEESt10_Select1stISD_ESt4lessIS5_ESaISD_EE8_M_eraseEPSt13_Rb_tree_nodeISD_E_x2f4:
    /*000002f4*/ LDR         R6, [R0] 
    /*000002f8*/ BL          _ZdlPv
    /*000002fc*/ CMP         R6, R4 
    /*00000300*/ MOV         R0, R6 
    /*00000304*/ BNE         _ZNSt8_Rb_treeINSt7__cxx1112basic_stringIcSt11char_traitsIcESaIcEEESt4pairIKS5_NS0_4listIP16hiRUNTIME_BLOB_SSaISA_EEEESt10_Select1stISD_ESt4lessIS5_ESaISD_EE8_M_eraseEPSt13_Rb_tree_nodeISD_E_x2f4
    /*00000308*/ LDR         R3, [SP, #16] 
    _ZNSt8_Rb_treeINSt7__cxx1112basic_stringIcSt11char_traitsIcESaIcEEESt4pairIKS5_NS0_4listIP16hiRUNTIME_BLOB_SSaISA_EEEESt10_Select1stISD_ESt4lessIS5_ESaISD_EE8_M_eraseEPSt13_Rb_tree_nodeISD_E_x30c:
    /*0000030c*/ LDR         R0, [R3, #16] 
    /*00000310*/ ADD         R3, R3, #24 
    /*00000314*/ CMP         R0, R3 
    /*00000318*/ BEQ         _ZNSt8_Rb_treeINSt7__cxx1112basic_stringIcSt11char_traitsIcESaIcEEESt4pairIKS5_NS0_4listIP16hiRUNTIME_BLOB_SSaISA_EEEESt10_Select1stISD_ESt4lessIS5_ESaISD_EE8_M_eraseEPSt13_Rb_tree_nodeISD_E_x320
    /*0000031c*/ BL          _ZdlPv
    _ZNSt8_Rb_treeINSt7__cxx1112basic_stringIcSt11char_traitsIcESaIcEEESt4pairIKS5_NS0_4listIP16hiRUNTIME_BLOB_SSaISA_EEEESt10_Select1stISD_ESt4lessIS5_ESaISD_EE8_M_eraseEPSt13_Rb_tree_nodeISD_E_x320:
    /*00000320*/ LDR         R0, [SP, #16] 
    /*00000324*/ BL          _ZdlPv
    /*00000328*/ SUBS        R3, R5, #0 
    /*0000032c*/ STR         R3, [SP, #16] 
    /*00000330*/ BNE         _ZNSt8_Rb_treeINSt7__cxx1112basic_stringIcSt11char_traitsIcESaIcEEESt4pairIKS5_NS0_4listIP16hiRUNTIME_BLOB_SSaISA_EEEESt10_Select1stISD_ESt4lessIS5_ESaISD_EE8_M_eraseEPSt13_Rb_tree_nodeISD_E_x34
    _ZNSt8_Rb_treeINSt7__cxx1112basic_stringIcSt11char_traitsIcESaIcEEESt4pairIKS5_NS0_4listIP16hiRUNTIME_BLOB_SSaISA_EEEESt10_Select1stISD_ESt4lessIS5_ESaISD_EE8_M_eraseEPSt13_Rb_tree_nodeISD_E_x334:
    /*00000334*/ LDR         R3, [SP, #20] 
    /*00000338*/ LDR         R5, [R3, #8] 
    /*0000033c*/ MOV         R4, R3 
    /*00000340*/ LDR         R0, [R4, #40]!              @ 0x28 
    /*00000344*/ CMP         R0, R4 
    /*00000348*/ BEQ         _ZNSt8_Rb_treeINSt7__cxx1112basic_stringIcSt11char_traitsIcESaIcEEESt4pairIKS5_NS0_4listIP16hiRUNTIME_BLOB_SSaISA_EEEESt10_Select1stISD_ESt4lessIS5_ESaISD_EE8_M_eraseEPSt13_Rb_tree_nodeISD_E_x364
    _ZNSt8_Rb_treeINSt7__cxx1112basic_stringIcSt11char_traitsIcESaIcEEESt4pairIKS5_NS0_4listIP16hiRUNTIME_BLOB_SSaISA_EEEESt10_Select1stISD_ESt4lessIS5_ESaISD_EE8_M_eraseEPSt13_Rb_tree_nodeISD_E_x34c:
    /*0000034c*/ LDR         R6, [R0] 
    /*00000350*/ BL          _ZdlPv
    /*00000354*/ CMP         R6, R4 
    /*00000358*/ MOV         R0, R6 
    /*0000035c*/ BNE         _ZNSt8_Rb_treeINSt7__cxx1112basic_stringIcSt11char_traitsIcESaIcEEESt4pairIKS5_NS0_4listIP16hiRUNTIME_BLOB_SSaISA_EEEESt10_Select1stISD_ESt4lessIS5_ESaISD_EE8_M_eraseEPSt13_Rb_tree_nodeISD_E_x34c
    /*00000360*/ LDR         R3, [SP, #20] 
    _ZNSt8_Rb_treeINSt7__cxx1112basic_stringIcSt11char_traitsIcESaIcEEESt4pairIKS5_NS0_4listIP16hiRUNTIME_BLOB_SSaISA_EEEESt10_Select1stISD_ESt4lessIS5_ESaISD_EE8_M_eraseEPSt13_Rb_tree_nodeISD_E_x364:
    /*00000364*/ LDR         R0, [R3, #16] 
    /*00000368*/ ADD         R3, R3, #24 
    /*0000036c*/ CMP         R0, R3 
    /*00000370*/ BEQ         _ZNSt8_Rb_treeINSt7__cxx1112basic_stringIcSt11char_traitsIcESaIcEEESt4pairIKS5_NS0_4listIP16hiRUNTIME_BLOB_SSaISA_EEEESt10_Select1stISD_ESt4lessIS5_ESaISD_EE8_M_eraseEPSt13_Rb_tree_nodeISD_E_x378
    /*00000374*/ BL          _ZdlPv
    _ZNSt8_Rb_treeINSt7__cxx1112basic_stringIcSt11char_traitsIcESaIcEEESt4pairIKS5_NS0_4listIP16hiRUNTIME_BLOB_SSaISA_EEEESt10_Select1stISD_ESt4lessIS5_ESaISD_EE8_M_eraseEPSt13_Rb_tree_nodeISD_E_x378:
    /*00000378*/ LDR         R0, [SP, #20] 
    /*0000037c*/ BL          _ZdlPv
    /*00000380*/ SUBS        R3, R5, #0 
    /*00000384*/ STR         R3, [SP, #20] 
    /*00000388*/ BNE         _ZNSt8_Rb_treeINSt7__cxx1112basic_stringIcSt11char_traitsIcESaIcEEESt4pairIKS5_NS0_4listIP16hiRUNTIME_BLOB_SSaISA_EEEESt10_Select1stISD_ESt4lessIS5_ESaISD_EE8_M_eraseEPSt13_Rb_tree_nodeISD_E_x24
    _ZNSt8_Rb_treeINSt7__cxx1112basic_stringIcSt11char_traitsIcESaIcEEESt4pairIKS5_NS0_4listIP16hiRUNTIME_BLOB_SSaISA_EEEESt10_Select1stISD_ESt4lessIS5_ESaISD_EE8_M_eraseEPSt13_Rb_tree_nodeISD_E_x38c:
    /*0000038c*/ ADD         SP, SP, #28 
    /*00000390*/ POP         {R4, R5, R6, R7, R8, R9, SL, FP, PC} 
FUNC_END _ZNSt8_Rb_treeINSt7__cxx1112basic_stringIcSt11char_traitsIcESaIcEEESt4pairIKS5_NS0_4listIP16hiRUNTIME_BLOB_SSaISA_EEEESt10_Select1stISD_ESt4lessIS5_ESaISD_EE8_M_eraseEPSt13_Rb_tree_nodeISD_E


@ - - - - - - - - - - - - - - - - - - - - - - - - - - - - - 
@ .text._ZNSt8_Rb_treeIP16hiRUNTIME_BLOB_SSt4pairIKS1_NSt7__cxx1112basic_stringIcSt11char_traitsIcESaIcEEEESt10_Select1stISA_ESt4lessIS1_ESaISA_EE8_M_eraseEPSt13_Rb_tree_nodeISA_E
@ Size: 0x234
@ - - - - - - - - - - - - - - - - - - - - - - - - - - - - - 

FUNC_BEGIN _ZNSt8_Rb_treeIP16hiRUNTIME_BLOB_SSt4pairIKS1_NSt7__cxx1112basic_stringIcSt11char_traitsIcESaIcEEEESt10_Select1stISA_ESt4lessIS1_ESaISA_EE8_M_eraseEPSt13_Rb_tree_nodeISA_E
    /*00000000*/ MOV         IP, #16384                  @ 0x4000 
    /*00000004*/ PUSH        {R4, R5, R6, R7, R8, R9, SL, FP, LR} 
    /*00000008*/ SUB         IP, SP, IP 
    /*0000000c*/ STR         R0, [IP, #4040]             @ 0xfc8 
    /*00000010*/ SUB         SP, SP, #20 
    /*00000014*/ SUBS        R3, R1, #0 
    /*00000018*/ STR         R3, [SP, #12] 
    /*0000001c*/ BEQ         _ZNSt8_Rb_treeIP16hiRUNTIME_BLOB_SSt4pairIKS1_NSt7__cxx1112basic_stringIcSt11char_traitsIcESaIcEEEESt10_Select1stISA_ESt4lessIS1_ESaISA_EE8_M_eraseEPSt13_Rb_tree_nodeISA_E_x22c
    /*00000020*/ MOV         R5, R0 
    _ZNSt8_Rb_treeIP16hiRUNTIME_BLOB_SSt4pairIKS1_NSt7__cxx1112basic_stringIcSt11char_traitsIcESaIcEEEESt10_Select1stISA_ESt4lessIS1_ESaISA_EE8_M_eraseEPSt13_Rb_tree_nodeISA_E_x24:
    /*00000024*/ LDR         R3, [R3, #12] 
    /*00000028*/ CMP         R3, #0 
    /*0000002c*/ STRNE       R3, [SP, #8] 
    /*00000030*/ BEQ         _ZNSt8_Rb_treeIP16hiRUNTIME_BLOB_SSt4pairIKS1_NSt7__cxx1112basic_stringIcSt11char_traitsIcESaIcEEEESt10_Select1stISA_ESt4lessIS1_ESaISA_EE8_M_eraseEPSt13_Rb_tree_nodeISA_E_x1f8
    _ZNSt8_Rb_treeIP16hiRUNTIME_BLOB_SSt4pairIKS1_NSt7__cxx1112basic_stringIcSt11char_traitsIcESaIcEEEESt10_Select1stISA_ESt4lessIS1_ESaISA_EE8_M_eraseEPSt13_Rb_tree_nodeISA_E_x34:
    /*00000034*/ LDR         R8, [R3, #12] 
    /*00000038*/ CMP         R8, #0 
    /*0000003c*/ STRNE       R8, [SP, #4] 
    /*00000040*/ MOVNE       R3, R8 
    /*00000044*/ BEQ         _ZNSt8_Rb_treeIP16hiRUNTIME_BLOB_SSt4pairIKS1_NSt7__cxx1112basic_stringIcSt11char_traitsIcESaIcEEEESt10_Select1stISA_ESt4lessIS1_ESaISA_EE8_M_eraseEPSt13_Rb_tree_nodeISA_E_x1c4
    _ZNSt8_Rb_treeIP16hiRUNTIME_BLOB_SSt4pairIKS1_NSt7__cxx1112basic_stringIcSt11char_traitsIcESaIcEEEESt10_Select1stISA_ESt4lessIS1_ESaISA_EE8_M_eraseEPSt13_Rb_tree_nodeISA_E_x48:
    /*00000048*/ LDR         R9, [R3, #12] 
    /*0000004c*/ CMP         R9, #0 
    /*00000050*/ BEQ         _ZNSt8_Rb_treeIP16hiRUNTIME_BLOB_SSt4pairIKS1_NSt7__cxx1112basic_stringIcSt11char_traitsIcESaIcEEEESt10_Select1stISA_ESt4lessIS1_ESaISA_EE8_M_eraseEPSt13_Rb_tree_nodeISA_E_x190
    _ZNSt8_Rb_treeIP16hiRUNTIME_BLOB_SSt4pairIKS1_NSt7__cxx1112basic_stringIcSt11char_traitsIcESaIcEEEESt10_Select1stISA_ESt4lessIS1_ESaISA_EE8_M_eraseEPSt13_Rb_tree_nodeISA_E_x54:
    /*00000054*/ LDR         SL, [R9, #12] 
    /*00000058*/ CMP         SL, #0 
    /*0000005c*/ BEQ         _ZNSt8_Rb_treeIP16hiRUNTIME_BLOB_SSt4pairIKS1_NSt7__cxx1112basic_stringIcSt11char_traitsIcESaIcEEEESt10_Select1stISA_ESt4lessIS1_ESaISA_EE8_M_eraseEPSt13_Rb_tree_nodeISA_E_x168
    _ZNSt8_Rb_treeIP16hiRUNTIME_BLOB_SSt4pairIKS1_NSt7__cxx1112basic_stringIcSt11char_traitsIcESaIcEEEESt10_Select1stISA_ESt4lessIS1_ESaISA_EE8_M_eraseEPSt13_Rb_tree_nodeISA_E_x60:
    /*00000060*/ LDR         FP, [SL, #12] 
    /*00000064*/ CMP         FP, #0 
    /*00000068*/ BEQ         _ZNSt8_Rb_treeIP16hiRUNTIME_BLOB_SSt4pairIKS1_NSt7__cxx1112basic_stringIcSt11char_traitsIcESaIcEEEESt10_Select1stISA_ESt4lessIS1_ESaISA_EE8_M_eraseEPSt13_Rb_tree_nodeISA_E_x140
    _ZNSt8_Rb_treeIP16hiRUNTIME_BLOB_SSt4pairIKS1_NSt7__cxx1112basic_stringIcSt11char_traitsIcESaIcEEEESt10_Select1stISA_ESt4lessIS1_ESaISA_EE8_M_eraseEPSt13_Rb_tree_nodeISA_E_x6c:
    /*0000006c*/ LDR         R7, [FP, #12] 
    /*00000070*/ CMP         R7, #0 
    /*00000074*/ BEQ         _ZNSt8_Rb_treeIP16hiRUNTIME_BLOB_SSt4pairIKS1_NSt7__cxx1112basic_stringIcSt11char_traitsIcESaIcEEEESt10_Select1stISA_ESt4lessIS1_ESaISA_EE8_M_eraseEPSt13_Rb_tree_nodeISA_E_x118
    _ZNSt8_Rb_treeIP16hiRUNTIME_BLOB_SSt4pairIKS1_NSt7__cxx1112basic_stringIcSt11char_traitsIcESaIcEEEESt10_Select1stISA_ESt4lessIS1_ESaISA_EE8_M_eraseEPSt13_Rb_tree_nodeISA_E_x78:
    /*00000078*/ LDR         R6, [R7, #12] 
    /*0000007c*/ CMP         R6, #0 
    /*00000080*/ BEQ         _ZNSt8_Rb_treeIP16hiRUNTIME_BLOB_SSt4pairIKS1_NSt7__cxx1112basic_stringIcSt11char_traitsIcESaIcEEEESt10_Select1stISA_ESt4lessIS1_ESaISA_EE8_M_eraseEPSt13_Rb_tree_nodeISA_E_xf0
    _ZNSt8_Rb_treeIP16hiRUNTIME_BLOB_SSt4pairIKS1_NSt7__cxx1112basic_stringIcSt11char_traitsIcESaIcEEEESt10_Select1stISA_ESt4lessIS1_ESaISA_EE8_M_eraseEPSt13_Rb_tree_nodeISA_E_x84:
    /*00000084*/ LDR         R3, [R6, #12] 
    /*00000088*/ CMP         R3, #0 
    /*0000008c*/ MOVNE       R8, R3 
    /*00000090*/ BEQ         _ZNSt8_Rb_treeIP16hiRUNTIME_BLOB_SSt4pairIKS1_NSt7__cxx1112basic_stringIcSt11char_traitsIcESaIcEEEESt10_Select1stISA_ESt4lessIS1_ESaISA_EE8_M_eraseEPSt13_Rb_tree_nodeISA_E_xc8
    _ZNSt8_Rb_treeIP16hiRUNTIME_BLOB_SSt4pairIKS1_NSt7__cxx1112basic_stringIcSt11char_traitsIcESaIcEEEESt10_Select1stISA_ESt4lessIS1_ESaISA_EE8_M_eraseEPSt13_Rb_tree_nodeISA_E_x94:
    /*00000094*/ LDR         R1, [R8, #12] 
    /*00000098*/ MOV         R0, R5 
    /*0000009c*/ BL          _ZNSt8_Rb_treeIP16hiRUNTIME_BLOB_SSt4pairIKS1_NSt7__cxx1112basic_stringIcSt11char_traitsIcESaIcEEEESt10_Select1stISA_ESt4lessIS1_ESaISA_EE8_M_eraseEPSt13_Rb_tree_nodeISA_E
    /*000000a0*/ LDR         R0, [R8, #20] 
    /*000000a4*/ ADD         R2, R8, #28 
    /*000000a8*/ LDR         R4, [R8, #8] 
    /*000000ac*/ CMP         R0, R2 
    /*000000b0*/ BEQ         _ZNSt8_Rb_treeIP16hiRUNTIME_BLOB_SSt4pairIKS1_NSt7__cxx1112basic_stringIcSt11char_traitsIcESaIcEEEESt10_Select1stISA_ESt4lessIS1_ESaISA_EE8_M_eraseEPSt13_Rb_tree_nodeISA_E_xb8
    /*000000b4*/ BL          _ZdlPv
    _ZNSt8_Rb_treeIP16hiRUNTIME_BLOB_SSt4pairIKS1_NSt7__cxx1112basic_stringIcSt11char_traitsIcESaIcEEEESt10_Select1stISA_ESt4lessIS1_ESaISA_EE8_M_eraseEPSt13_Rb_tree_nodeISA_E_xb8:
    /*000000b8*/ MOV         R0, R8 
    /*000000bc*/ BL          _ZdlPv
    /*000000c0*/ SUBS        R8, R4, #0 
    /*000000c4*/ BNE         _ZNSt8_Rb_treeIP16hiRUNTIME_BLOB_SSt4pairIKS1_NSt7__cxx1112basic_stringIcSt11char_traitsIcESaIcEEEESt10_Select1stISA_ESt4lessIS1_ESaISA_EE8_M_eraseEPSt13_Rb_tree_nodeISA_E_x94
    _ZNSt8_Rb_treeIP16hiRUNTIME_BLOB_SSt4pairIKS1_NSt7__cxx1112basic_stringIcSt11char_traitsIcESaIcEEEESt10_Select1stISA_ESt4lessIS1_ESaISA_EE8_M_eraseEPSt13_Rb_tree_nodeISA_E_xc8:
    /*000000c8*/ LDR         R0, [R6, #20] 
    /*000000cc*/ ADD         R3, R6, #28 
    /*000000d0*/ LDR         R4, [R6, #8] 
    /*000000d4*/ CMP         R0, R3 
    /*000000d8*/ BEQ         _ZNSt8_Rb_treeIP16hiRUNTIME_BLOB_SSt4pairIKS1_NSt7__cxx1112basic_stringIcSt11char_traitsIcESaIcEEEESt10_Select1stISA_ESt4lessIS1_ESaISA_EE8_M_eraseEPSt13_Rb_tree_nodeISA_E_xe0
    /*000000dc*/ BL          _ZdlPv
    _ZNSt8_Rb_treeIP16hiRUNTIME_BLOB_SSt4pairIKS1_NSt7__cxx1112basic_stringIcSt11char_traitsIcESaIcEEEESt10_Select1stISA_ESt4lessIS1_ESaISA_EE8_M_eraseEPSt13_Rb_tree_nodeISA_E_xe0:
    /*000000e0*/ MOV         R0, R6 
    /*000000e4*/ BL          _ZdlPv
    /*000000e8*/ SUBS        R6, R4, #0 
    /*000000ec*/ BNE         _ZNSt8_Rb_treeIP16hiRUNTIME_BLOB_SSt4pairIKS1_NSt7__cxx1112basic_stringIcSt11char_traitsIcESaIcEEEESt10_Select1stISA_ESt4lessIS1_ESaISA_EE8_M_eraseEPSt13_Rb_tree_nodeISA_E_x84
    _ZNSt8_Rb_treeIP16hiRUNTIME_BLOB_SSt4pairIKS1_NSt7__cxx1112basic_stringIcSt11char_traitsIcESaIcEEEESt10_Select1stISA_ESt4lessIS1_ESaISA_EE8_M_eraseEPSt13_Rb_tree_nodeISA_E_xf0:
    /*000000f0*/ LDR         R0, [R7, #20] 
    /*000000f4*/ ADD         R3, R7, #28 
    /*000000f8*/ LDR         R4, [R7, #8] 
    /*000000fc*/ CMP         R0, R3 
    /*00000100*/ BEQ         _ZNSt8_Rb_treeIP16hiRUNTIME_BLOB_SSt4pairIKS1_NSt7__cxx1112basic_stringIcSt11char_traitsIcESaIcEEEESt10_Select1stISA_ESt4lessIS1_ESaISA_EE8_M_eraseEPSt13_Rb_tree_nodeISA_E_x108
    /*00000104*/ BL          _ZdlPv
    _ZNSt8_Rb_treeIP16hiRUNTIME_BLOB_SSt4pairIKS1_NSt7__cxx1112basic_stringIcSt11char_traitsIcESaIcEEEESt10_Select1stISA_ESt4lessIS1_ESaISA_EE8_M_eraseEPSt13_Rb_tree_nodeISA_E_x108:
    /*00000108*/ MOV         R0, R7 
    /*0000010c*/ BL          _ZdlPv
    /*00000110*/ SUBS        R7, R4, #0 
    /*00000114*/ BNE         _ZNSt8_Rb_treeIP16hiRUNTIME_BLOB_SSt4pairIKS1_NSt7__cxx1112basic_stringIcSt11char_traitsIcESaIcEEEESt10_Select1stISA_ESt4lessIS1_ESaISA_EE8_M_eraseEPSt13_Rb_tree_nodeISA_E_x78
    _ZNSt8_Rb_treeIP16hiRUNTIME_BLOB_SSt4pairIKS1_NSt7__cxx1112basic_stringIcSt11char_traitsIcESaIcEEEESt10_Select1stISA_ESt4lessIS1_ESaISA_EE8_M_eraseEPSt13_Rb_tree_nodeISA_E_x118:
    /*00000118*/ LDR         R0, [FP, #20] 
    /*0000011c*/ ADD         R3, FP, #28 
    /*00000120*/ LDR         R4, [FP, #8] 
    /*00000124*/ CMP         R0, R3 
    /*00000128*/ BEQ         _ZNSt8_Rb_treeIP16hiRUNTIME_BLOB_SSt4pairIKS1_NSt7__cxx1112basic_stringIcSt11char_traitsIcESaIcEEEESt10_Select1stISA_ESt4lessIS1_ESaISA_EE8_M_eraseEPSt13_Rb_tree_nodeISA_E_x130
    /*0000012c*/ BL          _ZdlPv
    _ZNSt8_Rb_treeIP16hiRUNTIME_BLOB_SSt4pairIKS1_NSt7__cxx1112basic_stringIcSt11char_traitsIcESaIcEEEESt10_Select1stISA_ESt4lessIS1_ESaISA_EE8_M_eraseEPSt13_Rb_tree_nodeISA_E_x130:
    /*00000130*/ MOV         R0, FP 
    /*00000134*/ BL          _ZdlPv
    /*00000138*/ SUBS        FP, R4, #0 
    /*0000013c*/ BNE         _ZNSt8_Rb_treeIP16hiRUNTIME_BLOB_SSt4pairIKS1_NSt7__cxx1112basic_stringIcSt11char_traitsIcESaIcEEEESt10_Select1stISA_ESt4lessIS1_ESaISA_EE8_M_eraseEPSt13_Rb_tree_nodeISA_E_x6c
    _ZNSt8_Rb_treeIP16hiRUNTIME_BLOB_SSt4pairIKS1_NSt7__cxx1112basic_stringIcSt11char_traitsIcESaIcEEEESt10_Select1stISA_ESt4lessIS1_ESaISA_EE8_M_eraseEPSt13_Rb_tree_nodeISA_E_x140:
    /*00000140*/ LDR         R0, [SL, #20] 
    /*00000144*/ ADD         R3, SL, #28 
    /*00000148*/ LDR         R4, [SL, #8] 
    /*0000014c*/ CMP         R0, R3 
    /*00000150*/ BEQ         _ZNSt8_Rb_treeIP16hiRUNTIME_BLOB_SSt4pairIKS1_NSt7__cxx1112basic_stringIcSt11char_traitsIcESaIcEEEESt10_Select1stISA_ESt4lessIS1_ESaISA_EE8_M_eraseEPSt13_Rb_tree_nodeISA_E_x158
    /*00000154*/ BL          _ZdlPv
    _ZNSt8_Rb_treeIP16hiRUNTIME_BLOB_SSt4pairIKS1_NSt7__cxx1112basic_stringIcSt11char_traitsIcESaIcEEEESt10_Select1stISA_ESt4lessIS1_ESaISA_EE8_M_eraseEPSt13_Rb_tree_nodeISA_E_x158:
    /*00000158*/ MOV         R0, SL 
    /*0000015c*/ BL          _ZdlPv
    /*00000160*/ SUBS        SL, R4, #0 
    /*00000164*/ BNE         _ZNSt8_Rb_treeIP16hiRUNTIME_BLOB_SSt4pairIKS1_NSt7__cxx1112basic_stringIcSt11char_traitsIcESaIcEEEESt10_Select1stISA_ESt4lessIS1_ESaISA_EE8_M_eraseEPSt13_Rb_tree_nodeISA_E_x60
    _ZNSt8_Rb_treeIP16hiRUNTIME_BLOB_SSt4pairIKS1_NSt7__cxx1112basic_stringIcSt11char_traitsIcESaIcEEEESt10_Select1stISA_ESt4lessIS1_ESaISA_EE8_M_eraseEPSt13_Rb_tree_nodeISA_E_x168:
    /*00000168*/ LDR         R0, [R9, #20] 
    /*0000016c*/ ADD         R3, R9, #28 
    /*00000170*/ LDR         R4, [R9, #8] 
    /*00000174*/ CMP         R0, R3 
    /*00000178*/ BEQ         _ZNSt8_Rb_treeIP16hiRUNTIME_BLOB_SSt4pairIKS1_NSt7__cxx1112basic_stringIcSt11char_traitsIcESaIcEEEESt10_Select1stISA_ESt4lessIS1_ESaISA_EE8_M_eraseEPSt13_Rb_tree_nodeISA_E_x180
    /*0000017c*/ BL          _ZdlPv
    _ZNSt8_Rb_treeIP16hiRUNTIME_BLOB_SSt4pairIKS1_NSt7__cxx1112basic_stringIcSt11char_traitsIcESaIcEEEESt10_Select1stISA_ESt4lessIS1_ESaISA_EE8_M_eraseEPSt13_Rb_tree_nodeISA_E_x180:
    /*00000180*/ MOV         R0, R9 
    /*00000184*/ BL          _ZdlPv
    /*00000188*/ SUBS        R9, R4, #0 
    /*0000018c*/ BNE         _ZNSt8_Rb_treeIP16hiRUNTIME_BLOB_SSt4pairIKS1_NSt7__cxx1112basic_stringIcSt11char_traitsIcESaIcEEEESt10_Select1stISA_ESt4lessIS1_ESaISA_EE8_M_eraseEPSt13_Rb_tree_nodeISA_E_x54
    _ZNSt8_Rb_treeIP16hiRUNTIME_BLOB_SSt4pairIKS1_NSt7__cxx1112basic_stringIcSt11char_traitsIcESaIcEEEESt10_Select1stISA_ESt4lessIS1_ESaISA_EE8_M_eraseEPSt13_Rb_tree_nodeISA_E_x190:
    /*00000190*/ LDR         R2, [SP, #4] 
    /*00000194*/ LDR         R0, [R2, #20] 
    /*00000198*/ ADD         R3, R2, #28 
    /*0000019c*/ LDR         R4, [R2, #8] 
    /*000001a0*/ CMP         R0, R3 
    /*000001a4*/ MOVEQ       R0, R2 
    /*000001a8*/ BEQ         _ZNSt8_Rb_treeIP16hiRUNTIME_BLOB_SSt4pairIKS1_NSt7__cxx1112basic_stringIcSt11char_traitsIcESaIcEEEESt10_Select1stISA_ESt4lessIS1_ESaISA_EE8_M_eraseEPSt13_Rb_tree_nodeISA_E_x1b4
    /*000001ac*/ BL          _ZdlPv
    /*000001b0*/ LDR         R0, [SP, #4] 
    _ZNSt8_Rb_treeIP16hiRUNTIME_BLOB_SSt4pairIKS1_NSt7__cxx1112basic_stringIcSt11char_traitsIcESaIcEEEESt10_Select1stISA_ESt4lessIS1_ESaISA_EE8_M_eraseEPSt13_Rb_tree_nodeISA_E_x1b4:
    /*000001b4*/ BL          _ZdlPv
    /*000001b8*/ SUBS        R3, R4, #0 
    /*000001bc*/ STR         R3, [SP, #4] 
    /*000001c0*/ BNE         _ZNSt8_Rb_treeIP16hiRUNTIME_BLOB_SSt4pairIKS1_NSt7__cxx1112basic_stringIcSt11char_traitsIcESaIcEEEESt10_Select1stISA_ESt4lessIS1_ESaISA_EE8_M_eraseEPSt13_Rb_tree_nodeISA_E_x48
    _ZNSt8_Rb_treeIP16hiRUNTIME_BLOB_SSt4pairIKS1_NSt7__cxx1112basic_stringIcSt11char_traitsIcESaIcEEEESt10_Select1stISA_ESt4lessIS1_ESaISA_EE8_M_eraseEPSt13_Rb_tree_nodeISA_E_x1c4:
    /*000001c4*/ LDR         R2, [SP, #8] 
    /*000001c8*/ LDR         R0, [R2, #20] 
    /*000001cc*/ ADD         R3, R2, #28 
    /*000001d0*/ LDR         R4, [R2, #8] 
    /*000001d4*/ CMP         R0, R3 
    /*000001d8*/ MOVEQ       R0, R2 
    /*000001dc*/ BEQ         _ZNSt8_Rb_treeIP16hiRUNTIME_BLOB_SSt4pairIKS1_NSt7__cxx1112basic_stringIcSt11char_traitsIcESaIcEEEESt10_Select1stISA_ESt4lessIS1_ESaISA_EE8_M_eraseEPSt13_Rb_tree_nodeISA_E_x1e8
    /*000001e0*/ BL          _ZdlPv
    /*000001e4*/ LDR         R0, [SP, #8] 
    _ZNSt8_Rb_treeIP16hiRUNTIME_BLOB_SSt4pairIKS1_NSt7__cxx1112basic_stringIcSt11char_traitsIcESaIcEEEESt10_Select1stISA_ESt4lessIS1_ESaISA_EE8_M_eraseEPSt13_Rb_tree_nodeISA_E_x1e8:
    /*000001e8*/ BL          _ZdlPv
    /*000001ec*/ SUBS        R3, R4, #0 
    /*000001f0*/ STR         R3, [SP, #8] 
    /*000001f4*/ BNE         _ZNSt8_Rb_treeIP16hiRUNTIME_BLOB_SSt4pairIKS1_NSt7__cxx1112basic_stringIcSt11char_traitsIcESaIcEEEESt10_Select1stISA_ESt4lessIS1_ESaISA_EE8_M_eraseEPSt13_Rb_tree_nodeISA_E_x34
    _ZNSt8_Rb_treeIP16hiRUNTIME_BLOB_SSt4pairIKS1_NSt7__cxx1112basic_stringIcSt11char_traitsIcESaIcEEEESt10_Select1stISA_ESt4lessIS1_ESaISA_EE8_M_eraseEPSt13_Rb_tree_nodeISA_E_x1f8:
    /*000001f8*/ LDR         R2, [SP, #12] 
    /*000001fc*/ LDR         R0, [R2, #20] 
    /*00000200*/ ADD         R3, R2, #28 
    /*00000204*/ LDR         R4, [R2, #8] 
    /*00000208*/ CMP         R0, R3 
    /*0000020c*/ MOVEQ       R0, R2 
    /*00000210*/ BEQ         _ZNSt8_Rb_treeIP16hiRUNTIME_BLOB_SSt4pairIKS1_NSt7__cxx1112basic_stringIcSt11char_traitsIcESaIcEEEESt10_Select1stISA_ESt4lessIS1_ESaISA_EE8_M_eraseEPSt13_Rb_tree_nodeISA_E_x21c
    /*00000214*/ BL          _ZdlPv
    /*00000218*/ LDR         R0, [SP, #12] 
    _ZNSt8_Rb_treeIP16hiRUNTIME_BLOB_SSt4pairIKS1_NSt7__cxx1112basic_stringIcSt11char_traitsIcESaIcEEEESt10_Select1stISA_ESt4lessIS1_ESaISA_EE8_M_eraseEPSt13_Rb_tree_nodeISA_E_x21c:
    /*0000021c*/ BL          _ZdlPv
    /*00000220*/ SUBS        R3, R4, #0 
    /*00000224*/ STR         R3, [SP, #12] 
    /*00000228*/ BNE         _ZNSt8_Rb_treeIP16hiRUNTIME_BLOB_SSt4pairIKS1_NSt7__cxx1112basic_stringIcSt11char_traitsIcESaIcEEEESt10_Select1stISA_ESt4lessIS1_ESaISA_EE8_M_eraseEPSt13_Rb_tree_nodeISA_E_x24
    _ZNSt8_Rb_treeIP16hiRUNTIME_BLOB_SSt4pairIKS1_NSt7__cxx1112basic_stringIcSt11char_traitsIcESaIcEEEESt10_Select1stISA_ESt4lessIS1_ESaISA_EE8_M_eraseEPSt13_Rb_tree_nodeISA_E_x22c:
    /*0000022c*/ ADD         SP, SP, #20 
    /*00000230*/ POP         {R4, R5, R6, R7, R8, R9, SL, FP, PC} 
FUNC_END _ZNSt8_Rb_treeIP16hiRUNTIME_BLOB_SSt4pairIKS1_NSt7__cxx1112basic_stringIcSt11char_traitsIcESaIcEEEESt10_Select1stISA_ESt4lessIS1_ESaISA_EE8_M_eraseEPSt13_Rb_tree_nodeISA_E


@ - - - - - - - - - - - - - - - - - - - - - - - - - - - - - 
@ .text._ZNSt8_Rb_treeIP16hiRUNTIME_BLOB_SSt4pairIKS1_7HI_BOOLESt10_Select1stIS5_ESt4lessIS1_ESaIS5_EE8_M_eraseEPSt13_Rb_tree_nodeIS5_E
@ Size: 0x178
@ - - - - - - - - - - - - - - - - - - - - - - - - - - - - - 

FUNC_BEGIN _ZNSt8_Rb_treeIP16hiRUNTIME_BLOB_SSt4pairIKS1_7HI_BOOLESt10_Select1stIS5_ESt4lessIS1_ESaIS5_EE8_M_eraseEPSt13_Rb_tree_nodeIS5_E
    /*00000000*/ MOV         IP, #16384                  @ 0x4000 
    /*00000004*/ PUSH        {R4, R5, R6, R7, R8, R9, SL, FP, LR} 
    /*00000008*/ SUB         IP, SP, IP 
    /*0000000c*/ STR         R0, [IP, #4040]             @ 0xfc8 
    /*00000010*/ SUB         SP, SP, #20 
    /*00000014*/ SUBS        R3, R1, #0 
    /*00000018*/ STR         R3, [SP, #12] 
    /*0000001c*/ BEQ         _ZNSt8_Rb_treeIP16hiRUNTIME_BLOB_SSt4pairIKS1_7HI_BOOLESt10_Select1stIS5_ESt4lessIS1_ESaIS5_EE8_M_eraseEPSt13_Rb_tree_nodeIS5_E_x170
    /*00000020*/ MOV         R4, R0 
    _ZNSt8_Rb_treeIP16hiRUNTIME_BLOB_SSt4pairIKS1_7HI_BOOLESt10_Select1stIS5_ESt4lessIS1_ESaIS5_EE8_M_eraseEPSt13_Rb_tree_nodeIS5_E_x24:
    /*00000024*/ LDR         R7, [R3, #12] 
    /*00000028*/ CMP         R7, #0 
    /*0000002c*/ STRNE       R7, [SP, #4] 
    /*00000030*/ MOVNE       R3, R7 
    /*00000034*/ BEQ         _ZNSt8_Rb_treeIP16hiRUNTIME_BLOB_SSt4pairIKS1_7HI_BOOLESt10_Select1stIS5_ESt4lessIS1_ESaIS5_EE8_M_eraseEPSt13_Rb_tree_nodeIS5_E_x158
    _ZNSt8_Rb_treeIP16hiRUNTIME_BLOB_SSt4pairIKS1_7HI_BOOLESt10_Select1stIS5_ESt4lessIS1_ESaIS5_EE8_M_eraseEPSt13_Rb_tree_nodeIS5_E_x38:
    /*00000038*/ LDR         R8, [R3, #12] 
    /*0000003c*/ CMP         R8, #0 
    /*00000040*/ STRNE       R8, [SP, #8] 
    /*00000044*/ MOVNE       R3, R8 
    /*00000048*/ BEQ         _ZNSt8_Rb_treeIP16hiRUNTIME_BLOB_SSt4pairIKS1_7HI_BOOLESt10_Select1stIS5_ESt4lessIS1_ESaIS5_EE8_M_eraseEPSt13_Rb_tree_nodeIS5_E_x13c
    _ZNSt8_Rb_treeIP16hiRUNTIME_BLOB_SSt4pairIKS1_7HI_BOOLESt10_Select1stIS5_ESt4lessIS1_ESaIS5_EE8_M_eraseEPSt13_Rb_tree_nodeIS5_E_x4c:
    /*0000004c*/ LDR         R9, [R3, #12] 
    /*00000050*/ CMP         R9, #0 
    /*00000054*/ BEQ         _ZNSt8_Rb_treeIP16hiRUNTIME_BLOB_SSt4pairIKS1_7HI_BOOLESt10_Select1stIS5_ESt4lessIS1_ESaIS5_EE8_M_eraseEPSt13_Rb_tree_nodeIS5_E_x120
    _ZNSt8_Rb_treeIP16hiRUNTIME_BLOB_SSt4pairIKS1_7HI_BOOLESt10_Select1stIS5_ESt4lessIS1_ESaIS5_EE8_M_eraseEPSt13_Rb_tree_nodeIS5_E_x58:
    /*00000058*/ LDR         SL, [R9, #12] 
    /*0000005c*/ CMP         SL, #0 
    /*00000060*/ BEQ         _ZNSt8_Rb_treeIP16hiRUNTIME_BLOB_SSt4pairIKS1_7HI_BOOLESt10_Select1stIS5_ESt4lessIS1_ESaIS5_EE8_M_eraseEPSt13_Rb_tree_nodeIS5_E_x108
    _ZNSt8_Rb_treeIP16hiRUNTIME_BLOB_SSt4pairIKS1_7HI_BOOLESt10_Select1stIS5_ESt4lessIS1_ESaIS5_EE8_M_eraseEPSt13_Rb_tree_nodeIS5_E_x64:
    /*00000064*/ LDR         FP, [SL, #12] 
    /*00000068*/ CMP         FP, #0 
    /*0000006c*/ BEQ         _ZNSt8_Rb_treeIP16hiRUNTIME_BLOB_SSt4pairIKS1_7HI_BOOLESt10_Select1stIS5_ESt4lessIS1_ESaIS5_EE8_M_eraseEPSt13_Rb_tree_nodeIS5_E_xf4
    _ZNSt8_Rb_treeIP16hiRUNTIME_BLOB_SSt4pairIKS1_7HI_BOOLESt10_Select1stIS5_ESt4lessIS1_ESaIS5_EE8_M_eraseEPSt13_Rb_tree_nodeIS5_E_x70:
    /*00000070*/ LDR         R6, [FP, #12] 
    /*00000074*/ CMP         R6, #0 
    /*00000078*/ BEQ         _ZNSt8_Rb_treeIP16hiRUNTIME_BLOB_SSt4pairIKS1_7HI_BOOLESt10_Select1stIS5_ESt4lessIS1_ESaIS5_EE8_M_eraseEPSt13_Rb_tree_nodeIS5_E_xe0
    _ZNSt8_Rb_treeIP16hiRUNTIME_BLOB_SSt4pairIKS1_7HI_BOOLESt10_Select1stIS5_ESt4lessIS1_ESaIS5_EE8_M_eraseEPSt13_Rb_tree_nodeIS5_E_x7c:
    /*0000007c*/ LDR         R5, [R6, #12] 
    /*00000080*/ CMP         R5, #0 
    /*00000084*/ BEQ         _ZNSt8_Rb_treeIP16hiRUNTIME_BLOB_SSt4pairIKS1_7HI_BOOLESt10_Select1stIS5_ESt4lessIS1_ESaIS5_EE8_M_eraseEPSt13_Rb_tree_nodeIS5_E_xcc
    _ZNSt8_Rb_treeIP16hiRUNTIME_BLOB_SSt4pairIKS1_7HI_BOOLESt10_Select1stIS5_ESt4lessIS1_ESaIS5_EE8_M_eraseEPSt13_Rb_tree_nodeIS5_E_x88:
    /*00000088*/ LDR         R3, [R5, #12] 
    /*0000008c*/ CMP         R3, #0 
    /*00000090*/ MOVNE       R7, R3 
    /*00000094*/ BEQ         _ZNSt8_Rb_treeIP16hiRUNTIME_BLOB_SSt4pairIKS1_7HI_BOOLESt10_Select1stIS5_ESt4lessIS1_ESaIS5_EE8_M_eraseEPSt13_Rb_tree_nodeIS5_E_xb8
    _ZNSt8_Rb_treeIP16hiRUNTIME_BLOB_SSt4pairIKS1_7HI_BOOLESt10_Select1stIS5_ESt4lessIS1_ESaIS5_EE8_M_eraseEPSt13_Rb_tree_nodeIS5_E_x98:
    /*00000098*/ LDR         R1, [R7, #12] 
    /*0000009c*/ MOV         R0, R4 
    /*000000a0*/ BL          _ZNSt8_Rb_treeIP16hiRUNTIME_BLOB_SSt4pairIKS1_7HI_BOOLESt10_Select1stIS5_ESt4lessIS1_ESaIS5_EE8_M_eraseEPSt13_Rb_tree_nodeIS5_E
    /*000000a4*/ LDR         R8, [R7, #8] 
    /*000000a8*/ MOV         R0, R7 
    /*000000ac*/ BL          _ZdlPv
    /*000000b0*/ SUBS        R7, R8, #0 
    /*000000b4*/ BNE         _ZNSt8_Rb_treeIP16hiRUNTIME_BLOB_SSt4pairIKS1_7HI_BOOLESt10_Select1stIS5_ESt4lessIS1_ESaIS5_EE8_M_eraseEPSt13_Rb_tree_nodeIS5_E_x98
    _ZNSt8_Rb_treeIP16hiRUNTIME_BLOB_SSt4pairIKS1_7HI_BOOLESt10_Select1stIS5_ESt4lessIS1_ESaIS5_EE8_M_eraseEPSt13_Rb_tree_nodeIS5_E_xb8:
    /*000000b8*/ LDR         R7, [R5, #8] 
    /*000000bc*/ MOV         R0, R5 
    /*000000c0*/ BL          _ZdlPv
    /*000000c4*/ SUBS        R5, R7, #0 
    /*000000c8*/ BNE         _ZNSt8_Rb_treeIP16hiRUNTIME_BLOB_SSt4pairIKS1_7HI_BOOLESt10_Select1stIS5_ESt4lessIS1_ESaIS5_EE8_M_eraseEPSt13_Rb_tree_nodeIS5_E_x88
    _ZNSt8_Rb_treeIP16hiRUNTIME_BLOB_SSt4pairIKS1_7HI_BOOLESt10_Select1stIS5_ESt4lessIS1_ESaIS5_EE8_M_eraseEPSt13_Rb_tree_nodeIS5_E_xcc:
    /*000000cc*/ LDR         R5, [R6, #8] 
    /*000000d0*/ MOV         R0, R6 
    /*000000d4*/ BL          _ZdlPv
    /*000000d8*/ SUBS        R6, R5, #0 
    /*000000dc*/ BNE         _ZNSt8_Rb_treeIP16hiRUNTIME_BLOB_SSt4pairIKS1_7HI_BOOLESt10_Select1stIS5_ESt4lessIS1_ESaIS5_EE8_M_eraseEPSt13_Rb_tree_nodeIS5_E_x7c
    _ZNSt8_Rb_treeIP16hiRUNTIME_BLOB_SSt4pairIKS1_7HI_BOOLESt10_Select1stIS5_ESt4lessIS1_ESaIS5_EE8_M_eraseEPSt13_Rb_tree_nodeIS5_E_xe0:
    /*000000e0*/ LDR         R5, [FP, #8] 
    /*000000e4*/ MOV         R0, FP 
    /*000000e8*/ BL          _ZdlPv
    /*000000ec*/ SUBS        FP, R5, #0 
    /*000000f0*/ BNE         _ZNSt8_Rb_treeIP16hiRUNTIME_BLOB_SSt4pairIKS1_7HI_BOOLESt10_Select1stIS5_ESt4lessIS1_ESaIS5_EE8_M_eraseEPSt13_Rb_tree_nodeIS5_E_x70
    _ZNSt8_Rb_treeIP16hiRUNTIME_BLOB_SSt4pairIKS1_7HI_BOOLESt10_Select1stIS5_ESt4lessIS1_ESaIS5_EE8_M_eraseEPSt13_Rb_tree_nodeIS5_E_xf4:
    /*000000f4*/ LDR         R5, [SL, #8] 
    /*000000f8*/ MOV         R0, SL 
    /*000000fc*/ BL          _ZdlPv
    /*00000100*/ SUBS        SL, R5, #0 
    /*00000104*/ BNE         _ZNSt8_Rb_treeIP16hiRUNTIME_BLOB_SSt4pairIKS1_7HI_BOOLESt10_Select1stIS5_ESt4lessIS1_ESaIS5_EE8_M_eraseEPSt13_Rb_tree_nodeIS5_E_x64
    _ZNSt8_Rb_treeIP16hiRUNTIME_BLOB_SSt4pairIKS1_7HI_BOOLESt10_Select1stIS5_ESt4lessIS1_ESaIS5_EE8_M_eraseEPSt13_Rb_tree_nodeIS5_E_x108:
    /*00000108*/ LDR         R5, [R9, #8] 
    /*0000010c*/ MOV         R0, R9 
    /*00000110*/ BL          _ZdlPv
    /*00000114*/ SUBS        R9, R5, #0 
    /*00000118*/ BNE         _ZNSt8_Rb_treeIP16hiRUNTIME_BLOB_SSt4pairIKS1_7HI_BOOLESt10_Select1stIS5_ESt4lessIS1_ESaIS5_EE8_M_eraseEPSt13_Rb_tree_nodeIS5_E_x58
    /*0000011c*/ LDR         R3, [SP, #8] 
    _ZNSt8_Rb_treeIP16hiRUNTIME_BLOB_SSt4pairIKS1_7HI_BOOLESt10_Select1stIS5_ESt4lessIS1_ESaIS5_EE8_M_eraseEPSt13_Rb_tree_nodeIS5_E_x120:
    /*00000120*/ LDR         R5, [R3, #8] 
    /*00000124*/ MOV         R0, R3 
    /*00000128*/ BL          _ZdlPv
    /*0000012c*/ SUBS        R3, R5, #0 
    /*00000130*/ STR         R3, [SP, #8] 
    /*00000134*/ BNE         _ZNSt8_Rb_treeIP16hiRUNTIME_BLOB_SSt4pairIKS1_7HI_BOOLESt10_Select1stIS5_ESt4lessIS1_ESaIS5_EE8_M_eraseEPSt13_Rb_tree_nodeIS5_E_x4c
    /*00000138*/ LDR         R3, [SP, #4] 
    _ZNSt8_Rb_treeIP16hiRUNTIME_BLOB_SSt4pairIKS1_7HI_BOOLESt10_Select1stIS5_ESt4lessIS1_ESaIS5_EE8_M_eraseEPSt13_Rb_tree_nodeIS5_E_x13c:
    /*0000013c*/ LDR         R5, [R3, #8] 
    /*00000140*/ MOV         R0, R3 
    /*00000144*/ BL          _ZdlPv
    /*00000148*/ SUBS        R3, R5, #0 
    /*0000014c*/ STR         R3, [SP, #4] 
    /*00000150*/ BNE         _ZNSt8_Rb_treeIP16hiRUNTIME_BLOB_SSt4pairIKS1_7HI_BOOLESt10_Select1stIS5_ESt4lessIS1_ESaIS5_EE8_M_eraseEPSt13_Rb_tree_nodeIS5_E_x38
    /*00000154*/ LDR         R3, [SP, #12] 
    _ZNSt8_Rb_treeIP16hiRUNTIME_BLOB_SSt4pairIKS1_7HI_BOOLESt10_Select1stIS5_ESt4lessIS1_ESaIS5_EE8_M_eraseEPSt13_Rb_tree_nodeIS5_E_x158:
    /*00000158*/ LDR         R5, [R3, #8] 
    /*0000015c*/ MOV         R0, R3 
    /*00000160*/ BL          _ZdlPv
    /*00000164*/ SUBS        R3, R5, #0 
    /*00000168*/ STR         R3, [SP, #12] 
    /*0000016c*/ BNE         _ZNSt8_Rb_treeIP16hiRUNTIME_BLOB_SSt4pairIKS1_7HI_BOOLESt10_Select1stIS5_ESt4lessIS1_ESaIS5_EE8_M_eraseEPSt13_Rb_tree_nodeIS5_E_x24
    _ZNSt8_Rb_treeIP16hiRUNTIME_BLOB_SSt4pairIKS1_7HI_BOOLESt10_Select1stIS5_ESt4lessIS1_ESaIS5_EE8_M_eraseEPSt13_Rb_tree_nodeIS5_E_x170:
    /*00000170*/ ADD         SP, SP, #20 
    /*00000174*/ POP         {R4, R5, R6, R7, R8, R9, SL, FP, PC} 
FUNC_END _ZNSt8_Rb_treeIP16hiRUNTIME_BLOB_SSt4pairIKS1_7HI_BOOLESt10_Select1stIS5_ESt4lessIS1_ESaIS5_EE8_M_eraseEPSt13_Rb_tree_nodeIS5_E


@ - - - - - - - - - - - - - - - - - - - - - - - - - - - - - 
@ .text._ZN4hirt14ModelGroupTaskD2Ev
@ Size: 0x254
@ - - - - - - - - - - - - - - - - - - - - - - - - - - - - - 

FUNC_BEGIN _ZN4hirt14ModelGroupTaskD2Ev
    /*00000000*/ MOV         IP, #16384                  @ 0x4000 
    /*00000004*/ PUSH        {R4, R5, R6, R7, R8, LR} 
    /*00000008*/ SUB         IP, SP, IP 
    /*0000000c*/ STR         R0, [IP, #4072]             @ 0xfe8 
    /*00000010*/ LDR         R3, WORD_0250               @ LDR         R3, [PC, #568]              @ 0x0000000000000250 
    /*00000014*/ ADD         R6, R0, #152                @ 0x98 
    /*00000018*/ LDR         R4, [R0, #160]              @ 0xa0 
    /*0000001c*/ MOV         R5, R0 
    /*00000020*/ ADD         R3, PC, R3 
    /*00000024*/ CMP         R4, R6 
    /*00000028*/ ADD         R3, R3, #8 
    /*0000002c*/ STR         R3, [R0] 
    /*00000030*/ BNE         _ZN4hirt14ModelGroupTaskD2Ev_x4c
    /*00000034*/ B           _ZN4hirt14ModelGroupTaskD2Ev_x70
    _ZN4hirt14ModelGroupTaskD2Ev_x38:
    /*00000038*/ MOV         R0, R4 
    /*0000003c*/ BL          _ZSt18_Rb_tree_incrementPSt18_Rb_tree_node_base
    /*00000040*/ CMP         R0, R6 
    /*00000044*/ MOV         R4, R0 
    /*00000048*/ BEQ         _ZN4hirt14ModelGroupTaskD2Ev_x70
    _ZN4hirt14ModelGroupTaskD2Ev_x4c:
    /*0000004c*/ LDR         R3, [R4, #20] 
    /*00000050*/ CMP         R3, #1 
    /*00000054*/ BNE         _ZN4hirt14ModelGroupTaskD2Ev_x38
    /*00000058*/ LDR         R0, [R4, #16] 
    /*0000005c*/ MOV         R1, #48                     @ 0x30 
    /*00000060*/ CMP         R0, #0 
    /*00000064*/ BEQ         _ZN4hirt14ModelGroupTaskD2Ev_x38
    /*00000068*/ BL          _ZdlPvj
    /*0000006c*/ B           _ZN4hirt14ModelGroupTaskD2Ev_x38
    _ZN4hirt14ModelGroupTaskD2Ev_x70:
    /*00000070*/ LDR         R0, [R5, #144]              @ 0x90 
    /*00000074*/ CMP         R0, #0 
    /*00000078*/ BEQ         _ZN4hirt14ModelGroupTaskD2Ev_xac
    /*0000007c*/ LDR         R3, [R0, #4] 
    /*00000080*/ CMP         R3, #0 
    /*00000084*/ BEQ         _ZN4hirt14ModelGroupTaskD2Ev_x9c
    /*00000088*/ MOV         R0, R3 
    /*0000008c*/ BL          _ZdaPv
    /*00000090*/ LDR         R0, [R5, #144]              @ 0x90 
    /*00000094*/ MOV         R3, #0 
    /*00000098*/ STR         R3, [R0, #4] 
    _ZN4hirt14ModelGroupTaskD2Ev_x9c:
    /*0000009c*/ MOV         R1, #8 
    /*000000a0*/ BL          _ZdlPvj
    /*000000a4*/ MOV         R3, #0 
    /*000000a8*/ STR         R3, [R5, #144]              @ 0x90 
    _ZN4hirt14ModelGroupTaskD2Ev_xac:
    /*000000ac*/ LDR         R4, [R5, #8] 
    /*000000b0*/ LDR         R3, [R5, #12] 
    /*000000b4*/ CMP         R3, R4 
    /*000000b8*/ ADDNE       R6, R4, #4 
    /*000000bc*/ MOVNE       R7, #0 
    /*000000c0*/ BNE         _ZN4hirt14ModelGroupTaskD2Ev_xd8
    /*000000c4*/ B           _ZN4hirt14ModelGroupTaskD2Ev_x12c
    _ZN4hirt14ModelGroupTaskD2Ev_xc8:
    /*000000c8*/ SUB         R3, R3, #4 
    /*000000cc*/ CMP         R4, R3 
    /*000000d0*/ STR         R3, [R5, #12] 
    /*000000d4*/ BEQ         _ZN4hirt14ModelGroupTaskD2Ev_x12c
    _ZN4hirt14ModelGroupTaskD2Ev_xd8:
    /*000000d8*/ LDR         R2, [R4] 
    /*000000dc*/ SUBS        R0, R2, #0 
    /*000000e0*/ BEQ         _ZN4hirt14ModelGroupTaskD2Ev_xf8
    /*000000e4*/ LDR         R3, [R2] 
    /*000000e8*/ LDR         R3, [R3, #4] 
    /*000000ec*/ BLX         R3 
    /*000000f0*/ LDR         R3, [R5, #12] 
    /*000000f4*/ STR         R7, [R4] 
    _ZN4hirt14ModelGroupTaskD2Ev_xf8:
    /*000000f8*/ CMP         R3, R6 
    /*000000fc*/ SUB         R2, R3, R6 
    /*00000100*/ BEQ         _ZN4hirt14ModelGroupTaskD2Ev_xc8
    /*00000104*/ LSRS        R1, R2, #2 
    /*00000108*/ BEQ         _ZN4hirt14ModelGroupTaskD2Ev_xc8
    /*0000010c*/ MOV         R1, R6 
    /*00000110*/ MOV         R0, R4 
    /*00000114*/ BL          memmove
    /*00000118*/ LDR         R3, [R5, #12] 
    /*0000011c*/ SUB         R3, R3, #4 
    /*00000120*/ CMP         R4, R3 
    /*00000124*/ STR         R3, [R5, #12] 
    /*00000128*/ BNE         _ZN4hirt14ModelGroupTaskD2Ev_xd8
    _ZN4hirt14ModelGroupTaskD2Ev_x12c:
    /*0000012c*/ LDR         R4, [R5, #60]               @ 0x3c 
    /*00000130*/ ADD         R7, R5, #52                 @ 0x34 
    /*00000134*/ CMP         R4, R7 
    /*00000138*/ MOVNE       R6, #0 
    /*0000013c*/ BEQ         _ZN4hirt14ModelGroupTaskD2Ev_x184
    _ZN4hirt14ModelGroupTaskD2Ev_x140:
    /*00000140*/ LDR         R3, [R4, #40]               @ 0x28 
    /*00000144*/ CMP         R3, #0 
    /*00000148*/ BEQ         _ZN4hirt14ModelGroupTaskD2Ev_x170
    /*0000014c*/ LDR         R2, [R3, #4] 
    /*00000150*/ SUBS        R0, R2, #0 
    /*00000154*/ BEQ         _ZN4hirt14ModelGroupTaskD2Ev_x164
    /*00000158*/ BL          free
    /*0000015c*/ LDR         R3, [R4, #40]               @ 0x28 
    /*00000160*/ STR         R6, [R3, #4] 
    _ZN4hirt14ModelGroupTaskD2Ev_x164:
    /*00000164*/ MOV         R0, R3 
    /*00000168*/ BL          free
    /*0000016c*/ STR         R6, [R4, #40]               @ 0x28 
    _ZN4hirt14ModelGroupTaskD2Ev_x170:
    /*00000170*/ MOV         R0, R4 
    /*00000174*/ BL          _ZSt18_Rb_tree_incrementPSt18_Rb_tree_node_base
    /*00000178*/ CMP         R0, R7 
    /*0000017c*/ MOV         R4, R0 
    /*00000180*/ BNE         _ZN4hirt14ModelGroupTaskD2Ev_x140
    _ZN4hirt14ModelGroupTaskD2Ev_x184:
    /*00000184*/ LDR         R4, [R5, #84]               @ 0x54 
    /*00000188*/ ADD         R7, R5, #76                 @ 0x4c 
    /*0000018c*/ CMP         R7, R4 
    /*00000190*/ MOVNE       R6, #0 
    /*00000194*/ BEQ         _ZN4hirt14ModelGroupTaskD2Ev_x1dc
    _ZN4hirt14ModelGroupTaskD2Ev_x198:
    /*00000198*/ LDR         R3, [R4, #40]               @ 0x28 
    /*0000019c*/ CMP         R3, #0 
    /*000001a0*/ BEQ         _ZN4hirt14ModelGroupTaskD2Ev_x1c8
    /*000001a4*/ LDR         R2, [R3, #4] 
    /*000001a8*/ SUBS        R0, R2, #0 
    /*000001ac*/ BEQ         _ZN4hirt14ModelGroupTaskD2Ev_x1bc
    /*000001b0*/ BL          free
    /*000001b4*/ LDR         R3, [R4, #40]               @ 0x28 
    /*000001b8*/ STR         R6, [R3, #4] 
    _ZN4hirt14ModelGroupTaskD2Ev_x1bc:
    /*000001bc*/ MOV         R0, R3 
    /*000001c0*/ BL          free
    /*000001c4*/ STR         R6, [R4, #40]               @ 0x28 
    _ZN4hirt14ModelGroupTaskD2Ev_x1c8:
    /*000001c8*/ MOV         R0, R4 
    /*000001cc*/ BL          _ZSt18_Rb_tree_incrementPSt18_Rb_tree_node_base
    /*000001d0*/ CMP         R7, R0 
    /*000001d4*/ MOV         R4, R0 
    /*000001d8*/ BNE         _ZN4hirt14ModelGroupTaskD2Ev_x198
    _ZN4hirt14ModelGroupTaskD2Ev_x1dc:
    /*000001dc*/ LDR         R0, [R5, #176]              @ 0xb0 
    /*000001e0*/ CMP         R0, #0 
    /*000001e4*/ BEQ         _ZN4hirt14ModelGroupTaskD2Ev_x1ec
    /*000001e8*/ BL          _ZdlPv
    _ZN4hirt14ModelGroupTaskD2Ev_x1ec:
    /*000001ec*/ LDR         R1, [R5, #156]              @ 0x9c 
    /*000001f0*/ ADD         R0, R5, #148                @ 0x94 
    /*000001f4*/ BL          _ZNSt8_Rb_treeIP16hiRUNTIME_BLOB_SSt4pairIKS1_7HI_BOOLESt10_Select1stIS5_ESt4lessIS1_ESaIS5_EE8_M_eraseEPSt13_Rb_tree_nodeIS5_E
    /*000001f8*/ LDR         R1, [R5, #128]              @ 0x80 
    /*000001fc*/ ADD         R0, R5, #120                @ 0x78 
    /*00000200*/ BL          _ZNSt8_Rb_treeIP16hiRUNTIME_BLOB_SSt4pairIKS1_NSt7__cxx1112basic_stringIcSt11char_traitsIcESaIcEEEESt10_Select1stISA_ESt4lessIS1_ESaISA_EE8_M_eraseEPSt13_Rb_tree_nodeISA_E
    /*00000204*/ LDR         R1, [R5, #104]              @ 0x68 
    /*00000208*/ ADD         R0, R5, #96                 @ 0x60 
    /*0000020c*/ BL          _ZNSt8_Rb_treeINSt7__cxx1112basic_stringIcSt11char_traitsIcESaIcEEESt4pairIKS5_NS0_4listIP16hiRUNTIME_BLOB_SSaISA_EEEESt10_Select1stISD_ESt4lessIS5_ESaISD_EE8_M_eraseEPSt13_Rb_tree_nodeISD_E
    /*00000210*/ LDR         R1, [R5, #80]               @ 0x50 
    /*00000214*/ ADD         R0, R5, #72                 @ 0x48 
    /*00000218*/ BL          _ZNSt8_Rb_treeINSt7__cxx1112basic_stringIcSt11char_traitsIcESaIcEEESt4pairIKS5_P26hiRUNTIME_SRC_BLOB_ARRAY_SESt10_Select1stISA_ESt4lessIS5_ESaISA_EE8_M_eraseEPSt13_Rb_tree_nodeISA_E
    /*0000021c*/ LDR         R1, [R5, #56]               @ 0x38 
    /*00000220*/ ADD         R0, R5, #48                 @ 0x30 
    /*00000224*/ BL          _ZNSt8_Rb_treeINSt7__cxx1112basic_stringIcSt11char_traitsIcESaIcEEESt4pairIKS5_P26hiRUNTIME_SRC_BLOB_ARRAY_SESt10_Select1stISA_ESt4lessIS5_ESaISA_EE8_M_eraseEPSt13_Rb_tree_nodeISA_E
    /*00000228*/ LDR         R0, [R5, #20] 
    /*0000022c*/ CMP         R0, #0 
    /*00000230*/ BEQ         _ZN4hirt14ModelGroupTaskD2Ev_x238
    /*00000234*/ BL          _ZdlPv
    _ZN4hirt14ModelGroupTaskD2Ev_x238:
    /*00000238*/ LDR         R0, [R5, #8] 
    /*0000023c*/ CMP         R0, #0 
    /*00000240*/ BEQ         _ZN4hirt14ModelGroupTaskD2Ev_x248
    /*00000244*/ BL          _ZdlPv
    _ZN4hirt14ModelGroupTaskD2Ev_x248:
    /*00000248*/ MOV         R0, R5 
    /*0000024c*/ POP         {R4, R5, R6, R7, R8, PC} 
    /*00000250*/ WORD_0250: .word 0x00000228
FUNC_END _ZN4hirt14ModelGroupTaskD2Ev


FUNC_BEGIN _ZN4hirt14ModelGroupTaskD1Ev
    /*00000000*/ MOV         IP, #16384                  @ 0x4000 
    /*00000004*/ PUSH        {R4, R5, R6, R7, R8, LR} 
    /*00000008*/ SUB         IP, SP, IP 
    /*0000000c*/ STR         R0, [IP, #4072]             @ 0xfe8 
    /*00000010*/ LDR         R3, WORD_0250               @ LDR         R3, [PC, #568]              @ 0x0000000000000250 
    /*00000014*/ ADD         R6, R0, #152                @ 0x98 
    /*00000018*/ LDR         R4, [R0, #160]              @ 0xa0 
    /*0000001c*/ MOV         R5, R0 
    /*00000020*/ ADD         R3, PC, R3 
    /*00000024*/ CMP         R4, R6 
    /*00000028*/ ADD         R3, R3, #8 
    /*0000002c*/ STR         R3, [R0] 
    /*00000030*/ BNE         _ZN4hirt14ModelGroupTaskD1Ev_x4c
    /*00000034*/ B           _ZN4hirt14ModelGroupTaskD1Ev_x70
    _ZN4hirt14ModelGroupTaskD1Ev_x38:
    /*00000038*/ MOV         R0, R4 
    /*0000003c*/ BL          _ZSt18_Rb_tree_incrementPSt18_Rb_tree_node_base
    /*00000040*/ CMP         R0, R6 
    /*00000044*/ MOV         R4, R0 
    /*00000048*/ BEQ         _ZN4hirt14ModelGroupTaskD1Ev_x70
    _ZN4hirt14ModelGroupTaskD1Ev_x4c:
    /*0000004c*/ LDR         R3, [R4, #20] 
    /*00000050*/ CMP         R3, #1 
    /*00000054*/ BNE         _ZN4hirt14ModelGroupTaskD1Ev_x38
    /*00000058*/ LDR         R0, [R4, #16] 
    /*0000005c*/ MOV         R1, #48                     @ 0x30 
    /*00000060*/ CMP         R0, #0 
    /*00000064*/ BEQ         _ZN4hirt14ModelGroupTaskD1Ev_x38
    /*00000068*/ BL          _ZdlPvj
    /*0000006c*/ B           _ZN4hirt14ModelGroupTaskD1Ev_x38
    _ZN4hirt14ModelGroupTaskD1Ev_x70:
    /*00000070*/ LDR         R0, [R5, #144]              @ 0x90 
    /*00000074*/ CMP         R0, #0 
    /*00000078*/ BEQ         _ZN4hirt14ModelGroupTaskD1Ev_xac
    /*0000007c*/ LDR         R3, [R0, #4] 
    /*00000080*/ CMP         R3, #0 
    /*00000084*/ BEQ         _ZN4hirt14ModelGroupTaskD1Ev_x9c
    /*00000088*/ MOV         R0, R3 
    /*0000008c*/ BL          _ZdaPv
    /*00000090*/ LDR         R0, [R5, #144]              @ 0x90 
    /*00000094*/ MOV         R3, #0 
    /*00000098*/ STR         R3, [R0, #4] 
    _ZN4hirt14ModelGroupTaskD1Ev_x9c:
    /*0000009c*/ MOV         R1, #8 
    /*000000a0*/ BL          _ZdlPvj
    /*000000a4*/ MOV         R3, #0 
    /*000000a8*/ STR         R3, [R5, #144]              @ 0x90 
    _ZN4hirt14ModelGroupTaskD1Ev_xac:
    /*000000ac*/ LDR         R4, [R5, #8] 
    /*000000b0*/ LDR         R3, [R5, #12] 
    /*000000b4*/ CMP         R3, R4 
    /*000000b8*/ ADDNE       R6, R4, #4 
    /*000000bc*/ MOVNE       R7, #0 
    /*000000c0*/ BNE         _ZN4hirt14ModelGroupTaskD1Ev_xd8
    /*000000c4*/ B           _ZN4hirt14ModelGroupTaskD1Ev_x12c
    _ZN4hirt14ModelGroupTaskD1Ev_xc8:
    /*000000c8*/ SUB         R3, R3, #4 
    /*000000cc*/ CMP         R4, R3 
    /*000000d0*/ STR         R3, [R5, #12] 
    /*000000d4*/ BEQ         _ZN4hirt14ModelGroupTaskD1Ev_x12c
    _ZN4hirt14ModelGroupTaskD1Ev_xd8:
    /*000000d8*/ LDR         R2, [R4] 
    /*000000dc*/ SUBS        R0, R2, #0 
    /*000000e0*/ BEQ         _ZN4hirt14ModelGroupTaskD1Ev_xf8
    /*000000e4*/ LDR         R3, [R2] 
    /*000000e8*/ LDR         R3, [R3, #4] 
    /*000000ec*/ BLX         R3 
    /*000000f0*/ LDR         R3, [R5, #12] 
    /*000000f4*/ STR         R7, [R4] 
    _ZN4hirt14ModelGroupTaskD1Ev_xf8:
    /*000000f8*/ CMP         R3, R6 
    /*000000fc*/ SUB         R2, R3, R6 
    /*00000100*/ BEQ         _ZN4hirt14ModelGroupTaskD1Ev_xc8
    /*00000104*/ LSRS        R1, R2, #2 
    /*00000108*/ BEQ         _ZN4hirt14ModelGroupTaskD1Ev_xc8
    /*0000010c*/ MOV         R1, R6 
    /*00000110*/ MOV         R0, R4 
    /*00000114*/ BL          memmove
    /*00000118*/ LDR         R3, [R5, #12] 
    /*0000011c*/ SUB         R3, R3, #4 
    /*00000120*/ CMP         R4, R3 
    /*00000124*/ STR         R3, [R5, #12] 
    /*00000128*/ BNE         _ZN4hirt14ModelGroupTaskD1Ev_xd8
    _ZN4hirt14ModelGroupTaskD1Ev_x12c:
    /*0000012c*/ LDR         R4, [R5, #60]               @ 0x3c 
    /*00000130*/ ADD         R7, R5, #52                 @ 0x34 
    /*00000134*/ CMP         R4, R7 
    /*00000138*/ MOVNE       R6, #0 
    /*0000013c*/ BEQ         _ZN4hirt14ModelGroupTaskD1Ev_x184
    _ZN4hirt14ModelGroupTaskD1Ev_x140:
    /*00000140*/ LDR         R3, [R4, #40]               @ 0x28 
    /*00000144*/ CMP         R3, #0 
    /*00000148*/ BEQ         _ZN4hirt14ModelGroupTaskD1Ev_x170
    /*0000014c*/ LDR         R2, [R3, #4] 
    /*00000150*/ SUBS        R0, R2, #0 
    /*00000154*/ BEQ         _ZN4hirt14ModelGroupTaskD1Ev_x164
    /*00000158*/ BL          free
    /*0000015c*/ LDR         R3, [R4, #40]               @ 0x28 
    /*00000160*/ STR         R6, [R3, #4] 
    _ZN4hirt14ModelGroupTaskD1Ev_x164:
    /*00000164*/ MOV         R0, R3 
    /*00000168*/ BL          free
    /*0000016c*/ STR         R6, [R4, #40]               @ 0x28 
    _ZN4hirt14ModelGroupTaskD1Ev_x170:
    /*00000170*/ MOV         R0, R4 
    /*00000174*/ BL          _ZSt18_Rb_tree_incrementPSt18_Rb_tree_node_base
    /*00000178*/ CMP         R0, R7 
    /*0000017c*/ MOV         R4, R0 
    /*00000180*/ BNE         _ZN4hirt14ModelGroupTaskD1Ev_x140
    _ZN4hirt14ModelGroupTaskD1Ev_x184:
    /*00000184*/ LDR         R4, [R5, #84]               @ 0x54 
    /*00000188*/ ADD         R7, R5, #76                 @ 0x4c 
    /*0000018c*/ CMP         R7, R4 
    /*00000190*/ MOVNE       R6, #0 
    /*00000194*/ BEQ         _ZN4hirt14ModelGroupTaskD1Ev_x1dc
    _ZN4hirt14ModelGroupTaskD1Ev_x198:
    /*00000198*/ LDR         R3, [R4, #40]               @ 0x28 
    /*0000019c*/ CMP         R3, #0 
    /*000001a0*/ BEQ         _ZN4hirt14ModelGroupTaskD1Ev_x1c8
    /*000001a4*/ LDR         R2, [R3, #4] 
    /*000001a8*/ SUBS        R0, R2, #0 
    /*000001ac*/ BEQ         _ZN4hirt14ModelGroupTaskD1Ev_x1bc
    /*000001b0*/ BL          free
    /*000001b4*/ LDR         R3, [R4, #40]               @ 0x28 
    /*000001b8*/ STR         R6, [R3, #4] 
    _ZN4hirt14ModelGroupTaskD1Ev_x1bc:
    /*000001bc*/ MOV         R0, R3 
    /*000001c0*/ BL          free
    /*000001c4*/ STR         R6, [R4, #40]               @ 0x28 
    _ZN4hirt14ModelGroupTaskD1Ev_x1c8:
    /*000001c8*/ MOV         R0, R4 
    /*000001cc*/ BL          _ZSt18_Rb_tree_incrementPSt18_Rb_tree_node_base
    /*000001d0*/ CMP         R7, R0 
    /*000001d4*/ MOV         R4, R0 
    /*000001d8*/ BNE         _ZN4hirt14ModelGroupTaskD1Ev_x198
    _ZN4hirt14ModelGroupTaskD1Ev_x1dc:
    /*000001dc*/ LDR         R0, [R5, #176]              @ 0xb0 
    /*000001e0*/ CMP         R0, #0 
    /*000001e4*/ BEQ         _ZN4hirt14ModelGroupTaskD1Ev_x1ec
    /*000001e8*/ BL          _ZdlPv
    _ZN4hirt14ModelGroupTaskD1Ev_x1ec:
    /*000001ec*/ LDR         R1, [R5, #156]              @ 0x9c 
    /*000001f0*/ ADD         R0, R5, #148                @ 0x94 
    /*000001f4*/ BL          _ZNSt8_Rb_treeIP16hiRUNTIME_BLOB_SSt4pairIKS1_7HI_BOOLESt10_Select1stIS5_ESt4lessIS1_ESaIS5_EE8_M_eraseEPSt13_Rb_tree_nodeIS5_E
    /*000001f8*/ LDR         R1, [R5, #128]              @ 0x80 
    /*000001fc*/ ADD         R0, R5, #120                @ 0x78 
    /*00000200*/ BL          _ZNSt8_Rb_treeIP16hiRUNTIME_BLOB_SSt4pairIKS1_NSt7__cxx1112basic_stringIcSt11char_traitsIcESaIcEEEESt10_Select1stISA_ESt4lessIS1_ESaISA_EE8_M_eraseEPSt13_Rb_tree_nodeISA_E
    /*00000204*/ LDR         R1, [R5, #104]              @ 0x68 
    /*00000208*/ ADD         R0, R5, #96                 @ 0x60 
    /*0000020c*/ BL          _ZNSt8_Rb_treeINSt7__cxx1112basic_stringIcSt11char_traitsIcESaIcEEESt4pairIKS5_NS0_4listIP16hiRUNTIME_BLOB_SSaISA_EEEESt10_Select1stISD_ESt4lessIS5_ESaISD_EE8_M_eraseEPSt13_Rb_tree_nodeISD_E
    /*00000210*/ LDR         R1, [R5, #80]               @ 0x50 
    /*00000214*/ ADD         R0, R5, #72                 @ 0x48 
    /*00000218*/ BL          _ZNSt8_Rb_treeINSt7__cxx1112basic_stringIcSt11char_traitsIcESaIcEEESt4pairIKS5_P26hiRUNTIME_SRC_BLOB_ARRAY_SESt10_Select1stISA_ESt4lessIS5_ESaISA_EE8_M_eraseEPSt13_Rb_tree_nodeISA_E
    /*0000021c*/ LDR         R1, [R5, #56]               @ 0x38 
    /*00000220*/ ADD         R0, R5, #48                 @ 0x30 
    /*00000224*/ BL          _ZNSt8_Rb_treeINSt7__cxx1112basic_stringIcSt11char_traitsIcESaIcEEESt4pairIKS5_P26hiRUNTIME_SRC_BLOB_ARRAY_SESt10_Select1stISA_ESt4lessIS5_ESaISA_EE8_M_eraseEPSt13_Rb_tree_nodeISA_E
    /*00000228*/ LDR         R0, [R5, #20] 
    /*0000022c*/ CMP         R0, #0 
    /*00000230*/ BEQ         _ZN4hirt14ModelGroupTaskD1Ev_x238
    /*00000234*/ BL          _ZdlPv
    _ZN4hirt14ModelGroupTaskD1Ev_x238:
    /*00000238*/ LDR         R0, [R5, #8] 
    /*0000023c*/ CMP         R0, #0 
    /*00000240*/ BEQ         _ZN4hirt14ModelGroupTaskD1Ev_x248
    /*00000244*/ BL          _ZdlPv
    _ZN4hirt14ModelGroupTaskD1Ev_x248:
    /*00000248*/ MOV         R0, R5 
    /*0000024c*/ POP         {R4, R5, R6, R7, R8, PC} 
    /*00000250*/ WORD_0250: .word 0x00000228
FUNC_END _ZN4hirt14ModelGroupTaskD1Ev


@ - - - - - - - - - - - - - - - - - - - - - - - - - - - - - 
@ .text._ZN4hirt14ModelGroupTaskD0Ev
@ Size: 0x260
@ - - - - - - - - - - - - - - - - - - - - - - - - - - - - - 

FUNC_BEGIN _ZN4hirt14ModelGroupTaskD0Ev
    /*00000000*/ MOV         IP, #16384                  @ 0x4000 
    /*00000004*/ PUSH        {R4, R5, R6, R7, R8, LR} 
    /*00000008*/ SUB         IP, SP, IP 
    /*0000000c*/ STR         R0, [IP, #4072]             @ 0xfe8 
    /*00000010*/ LDR         R3, WORD_025c               @ LDR         R3, [PC, #580]              @ 0x000000000000025c 
    /*00000014*/ ADD         R6, R0, #152                @ 0x98 
    /*00000018*/ LDR         R4, [R0, #160]              @ 0xa0 
    /*0000001c*/ MOV         R5, R0 
    /*00000020*/ ADD         R3, PC, R3 
    /*00000024*/ CMP         R4, R6 
    /*00000028*/ ADD         R3, R3, #8 
    /*0000002c*/ STR         R3, [R0] 
    /*00000030*/ BNE         _ZN4hirt14ModelGroupTaskD0Ev_x4c
    /*00000034*/ B           _ZN4hirt14ModelGroupTaskD0Ev_x70
    _ZN4hirt14ModelGroupTaskD0Ev_x38:
    /*00000038*/ MOV         R0, R4 
    /*0000003c*/ BL          _ZSt18_Rb_tree_incrementPSt18_Rb_tree_node_base
    /*00000040*/ CMP         R0, R6 
    /*00000044*/ MOV         R4, R0 
    /*00000048*/ BEQ         _ZN4hirt14ModelGroupTaskD0Ev_x70
    _ZN4hirt14ModelGroupTaskD0Ev_x4c:
    /*0000004c*/ LDR         R3, [R4, #20] 
    /*00000050*/ CMP         R3, #1 
    /*00000054*/ BNE         _ZN4hirt14ModelGroupTaskD0Ev_x38
    /*00000058*/ LDR         R0, [R4, #16] 
    /*0000005c*/ MOV         R1, #48                     @ 0x30 
    /*00000060*/ CMP         R0, #0 
    /*00000064*/ BEQ         _ZN4hirt14ModelGroupTaskD0Ev_x38
    /*00000068*/ BL          _ZdlPvj
    /*0000006c*/ B           _ZN4hirt14ModelGroupTaskD0Ev_x38
    _ZN4hirt14ModelGroupTaskD0Ev_x70:
    /*00000070*/ LDR         R0, [R5, #144]              @ 0x90 
    /*00000074*/ CMP         R0, #0 
    /*00000078*/ BEQ         _ZN4hirt14ModelGroupTaskD0Ev_xac
    /*0000007c*/ LDR         R3, [R0, #4] 
    /*00000080*/ CMP         R3, #0 
    /*00000084*/ BEQ         _ZN4hirt14ModelGroupTaskD0Ev_x9c
    /*00000088*/ MOV         R0, R3 
    /*0000008c*/ BL          _ZdaPv
    /*00000090*/ LDR         R0, [R5, #144]              @ 0x90 
    /*00000094*/ MOV         R3, #0 
    /*00000098*/ STR         R3, [R0, #4] 
    _ZN4hirt14ModelGroupTaskD0Ev_x9c:
    /*0000009c*/ MOV         R1, #8 
    /*000000a0*/ BL          _ZdlPvj
    /*000000a4*/ MOV         R3, #0 
    /*000000a8*/ STR         R3, [R5, #144]              @ 0x90 
    _ZN4hirt14ModelGroupTaskD0Ev_xac:
    /*000000ac*/ LDR         R4, [R5, #8] 
    /*000000b0*/ LDR         R3, [R5, #12] 
    /*000000b4*/ CMP         R3, R4 
    /*000000b8*/ ADDNE       R6, R4, #4 
    /*000000bc*/ MOVNE       R7, #0 
    /*000000c0*/ BNE         _ZN4hirt14ModelGroupTaskD0Ev_xd8
    /*000000c4*/ B           _ZN4hirt14ModelGroupTaskD0Ev_x12c
    _ZN4hirt14ModelGroupTaskD0Ev_xc8:
    /*000000c8*/ SUB         R3, R3, #4 
    /*000000cc*/ CMP         R4, R3 
    /*000000d0*/ STR         R3, [R5, #12] 
    /*000000d4*/ BEQ         _ZN4hirt14ModelGroupTaskD0Ev_x12c
    _ZN4hirt14ModelGroupTaskD0Ev_xd8:
    /*000000d8*/ LDR         R2, [R4] 
    /*000000dc*/ SUBS        R0, R2, #0 
    /*000000e0*/ BEQ         _ZN4hirt14ModelGroupTaskD0Ev_xf8
    /*000000e4*/ LDR         R3, [R2] 
    /*000000e8*/ LDR         R3, [R3, #4] 
    /*000000ec*/ BLX         R3 
    /*000000f0*/ LDR         R3, [R5, #12] 
    /*000000f4*/ STR         R7, [R4] 
    _ZN4hirt14ModelGroupTaskD0Ev_xf8:
    /*000000f8*/ CMP         R6, R3 
    /*000000fc*/ SUB         R2, R3, R6 
    /*00000100*/ BEQ         _ZN4hirt14ModelGroupTaskD0Ev_xc8
    /*00000104*/ LSRS        R1, R2, #2 
    /*00000108*/ BEQ         _ZN4hirt14ModelGroupTaskD0Ev_xc8
    /*0000010c*/ MOV         R1, R6 
    /*00000110*/ MOV         R0, R4 
    /*00000114*/ BL          memmove
    /*00000118*/ LDR         R3, [R5, #12] 
    /*0000011c*/ SUB         R3, R3, #4 
    /*00000120*/ CMP         R4, R3 
    /*00000124*/ STR         R3, [R5, #12] 
    /*00000128*/ BNE         _ZN4hirt14ModelGroupTaskD0Ev_xd8
    _ZN4hirt14ModelGroupTaskD0Ev_x12c:
    /*0000012c*/ LDR         R4, [R5, #60]               @ 0x3c 
    /*00000130*/ ADD         R7, R5, #52                 @ 0x34 
    /*00000134*/ CMP         R4, R7 
    /*00000138*/ MOVNE       R6, #0 
    /*0000013c*/ BEQ         _ZN4hirt14ModelGroupTaskD0Ev_x184
    _ZN4hirt14ModelGroupTaskD0Ev_x140:
    /*00000140*/ LDR         R3, [R4, #40]               @ 0x28 
    /*00000144*/ CMP         R3, #0 
    /*00000148*/ BEQ         _ZN4hirt14ModelGroupTaskD0Ev_x170
    /*0000014c*/ LDR         R2, [R3, #4] 
    /*00000150*/ SUBS        R0, R2, #0 
    /*00000154*/ BEQ         _ZN4hirt14ModelGroupTaskD0Ev_x164
    /*00000158*/ BL          free
    /*0000015c*/ LDR         R3, [R4, #40]               @ 0x28 
    /*00000160*/ STR         R6, [R3, #4] 
    _ZN4hirt14ModelGroupTaskD0Ev_x164:
    /*00000164*/ MOV         R0, R3 
    /*00000168*/ BL          free
    /*0000016c*/ STR         R6, [R4, #40]               @ 0x28 
    _ZN4hirt14ModelGroupTaskD0Ev_x170:
    /*00000170*/ MOV         R0, R4 
    /*00000174*/ BL          _ZSt18_Rb_tree_incrementPSt18_Rb_tree_node_base
    /*00000178*/ CMP         R0, R7 
    /*0000017c*/ MOV         R4, R0 
    /*00000180*/ BNE         _ZN4hirt14ModelGroupTaskD0Ev_x140
    _ZN4hirt14ModelGroupTaskD0Ev_x184:
    /*00000184*/ LDR         R4, [R5, #84]               @ 0x54 
    /*00000188*/ ADD         R7, R5, #76                 @ 0x4c 
    /*0000018c*/ CMP         R7, R4 
    /*00000190*/ MOVNE       R6, #0 
    /*00000194*/ BEQ         _ZN4hirt14ModelGroupTaskD0Ev_x1dc
    _ZN4hirt14ModelGroupTaskD0Ev_x198:
    /*00000198*/ LDR         R3, [R4, #40]               @ 0x28 
    /*0000019c*/ CMP         R3, #0 
    /*000001a0*/ BEQ         _ZN4hirt14ModelGroupTaskD0Ev_x1c8
    /*000001a4*/ LDR         R2, [R3, #4] 
    /*000001a8*/ SUBS        R0, R2, #0 
    /*000001ac*/ BEQ         _ZN4hirt14ModelGroupTaskD0Ev_x1bc
    /*000001b0*/ BL          free
    /*000001b4*/ LDR         R3, [R4, #40]               @ 0x28 
    /*000001b8*/ STR         R6, [R3, #4] 
    _ZN4hirt14ModelGroupTaskD0Ev_x1bc:
    /*000001bc*/ MOV         R0, R3 
    /*000001c0*/ BL          free
    /*000001c4*/ STR         R6, [R4, #40]               @ 0x28 
    _ZN4hirt14ModelGroupTaskD0Ev_x1c8:
    /*000001c8*/ MOV         R0, R4 
    /*000001cc*/ BL          _ZSt18_Rb_tree_incrementPSt18_Rb_tree_node_base
    /*000001d0*/ CMP         R7, R0 
    /*000001d4*/ MOV         R4, R0 
    /*000001d8*/ BNE         _ZN4hirt14ModelGroupTaskD0Ev_x198
    _ZN4hirt14ModelGroupTaskD0Ev_x1dc:
    /*000001dc*/ LDR         R0, [R5, #176]              @ 0xb0 
    /*000001e0*/ CMP         R0, #0 
    /*000001e4*/ BEQ         _ZN4hirt14ModelGroupTaskD0Ev_x1ec
    /*000001e8*/ BL          _ZdlPv
    _ZN4hirt14ModelGroupTaskD0Ev_x1ec:
    /*000001ec*/ LDR         R1, [R5, #156]              @ 0x9c 
    /*000001f0*/ ADD         R0, R5, #148                @ 0x94 
    /*000001f4*/ BL          _ZNSt8_Rb_treeIP16hiRUNTIME_BLOB_SSt4pairIKS1_7HI_BOOLESt10_Select1stIS5_ESt4lessIS1_ESaIS5_EE8_M_eraseEPSt13_Rb_tree_nodeIS5_E
    /*000001f8*/ LDR         R1, [R5, #128]              @ 0x80 
    /*000001fc*/ ADD         R0, R5, #120                @ 0x78 
    /*00000200*/ BL          _ZNSt8_Rb_treeIP16hiRUNTIME_BLOB_SSt4pairIKS1_NSt7__cxx1112basic_stringIcSt11char_traitsIcESaIcEEEESt10_Select1stISA_ESt4lessIS1_ESaISA_EE8_M_eraseEPSt13_Rb_tree_nodeISA_E
    /*00000204*/ LDR         R1, [R5, #104]              @ 0x68 
    /*00000208*/ ADD         R0, R5, #96                 @ 0x60 
    /*0000020c*/ BL          _ZNSt8_Rb_treeINSt7__cxx1112basic_stringIcSt11char_traitsIcESaIcEEESt4pairIKS5_NS0_4listIP16hiRUNTIME_BLOB_SSaISA_EEEESt10_Select1stISD_ESt4lessIS5_ESaISD_EE8_M_eraseEPSt13_Rb_tree_nodeISD_E
    /*00000210*/ LDR         R1, [R5, #80]               @ 0x50 
    /*00000214*/ ADD         R0, R5, #72                 @ 0x48 
    /*00000218*/ BL          _ZNSt8_Rb_treeINSt7__cxx1112basic_stringIcSt11char_traitsIcESaIcEEESt4pairIKS5_P26hiRUNTIME_SRC_BLOB_ARRAY_SESt10_Select1stISA_ESt4lessIS5_ESaISA_EE8_M_eraseEPSt13_Rb_tree_nodeISA_E
    /*0000021c*/ LDR         R1, [R5, #56]               @ 0x38 
    /*00000220*/ ADD         R0, R5, #48                 @ 0x30 
    /*00000224*/ BL          _ZNSt8_Rb_treeINSt7__cxx1112basic_stringIcSt11char_traitsIcESaIcEEESt4pairIKS5_P26hiRUNTIME_SRC_BLOB_ARRAY_SESt10_Select1stISA_ESt4lessIS5_ESaISA_EE8_M_eraseEPSt13_Rb_tree_nodeISA_E
    /*00000228*/ LDR         R0, [R5, #20] 
    /*0000022c*/ CMP         R0, #0 
    /*00000230*/ BEQ         _ZN4hirt14ModelGroupTaskD0Ev_x238
    /*00000234*/ BL          _ZdlPv
    _ZN4hirt14ModelGroupTaskD0Ev_x238:
    /*00000238*/ LDR         R0, [R5, #8] 
    /*0000023c*/ CMP         R0, #0 
    /*00000240*/ BEQ         _ZN4hirt14ModelGroupTaskD0Ev_x248
    /*00000244*/ BL          _ZdlPv
    _ZN4hirt14ModelGroupTaskD0Ev_x248:
    /*00000248*/ MOV         R0, R5 
    /*0000024c*/ MOV         R1, #304                    @ 0x130 
    /*00000250*/ BL          _ZdlPvj
    /*00000254*/ MOV         R0, R5 
    /*00000258*/ POP         {R4, R5, R6, R7, R8, PC} 
    /*0000025c*/ WORD_025c: .word 0x00000234
FUNC_END _ZN4hirt14ModelGroupTaskD0Ev


@ - - - - - - - - - - - - - - - - - - - - - - - - - - - - - 
@ .text._ZL31searchReadyTaskInModelGroupListPN4hirt17TaskGroupPriorityE
@ Size: 0x850
@ - - - - - - - - - - - - - - - - - - - - - - - - - - - - - 

FUNC_BEGIN _ZL31searchReadyTaskInModelGroupListPN4hirt17TaskGroupPriorityE
    /*00000000*/ MOV         IP, #16384                  @ 0x4000 
    /*00000004*/ PUSH        {R4, R5, R6, R7, R8, R9, SL, FP, LR} 
    /*00000008*/ SUB         IP, SP, IP 
    /*0000000c*/ STR         R0, [IP, #4040]             @ 0xfc8 
    /*00000010*/ LDR         R2, WORD_0838               @ LDR         R2, [PC, #2080]             @ 0x0000000000000838 
    /*00000014*/ SUB         SP, SP, #20 
    /*00000018*/ LDR         R3, WORD_083c               @ LDR         R3, [PC, #2076]             @ 0x000000000000083c 
    /*0000001c*/ MOV         R8, R0 
    /*00000020*/ ADD         R2, PC, R2 
    /*00000024*/ ADD         R3, PC, R3 
    /*00000028*/ ADD         R2, R2, #8 
    /*0000002c*/ STR         R2, [SP, #4] 
    /*00000030*/ ADD         R3, R3, #8 
    /*00000034*/ LDR         R2, WORD_0840               @ LDR         R2, [PC, #2052]             @ 0x0000000000000840 
    /*00000038*/ LDR         SL, WORD_0844               @ LDR         SL, [PC, #2052]             @ 0x0000000000000844 
    /*0000003c*/ ADD         R2, PC, R2 
    /*00000040*/ STR         R2, [SP, #8] 
    /*00000044*/ LDR         R2, WORD_0848               @ LDR         R2, [PC, #2044]             @ 0x0000000000000848 
    /*00000048*/ STR         R3, [SP, #12] 
    /*0000004c*/ ADD         R2, PC, R2 
    /*00000050*/ LDR         R5, [R0, #4] 
    /*00000054*/ LDR         R3, [R0, #8] 
    /*00000058*/ STR         R2, [SP] 
    /*0000005c*/ ADD         SL, PC, SL 
    _ZL31searchReadyTaskInModelGroupListPN4hirt17TaskGroupPriorityE_x60:
    /*00000060*/ CMP         R5, R3 
    /*00000064*/ BEQ         _ZL31searchReadyTaskInModelGroupListPN4hirt17TaskGroupPriorityE_xb4
    _ZL31searchReadyTaskInModelGroupListPN4hirt17TaskGroupPriorityE_x68:
    /*00000068*/ LDR         R4, [R5] 
    /*0000006c*/ CMP         R4, #0 
    /*00000070*/ BEQ         _ZL31searchReadyTaskInModelGroupListPN4hirt17TaskGroupPriorityE_x48c
    /*00000074*/ LDR         R2, [R4, #40]               @ 0x28 
    /*00000078*/ CMP         R2, #0 
    /*0000007c*/ BNE         _ZL31searchReadyTaskInModelGroupListPN4hirt17TaskGroupPriorityE_x6d8
    /*00000080*/ LDR         R2, [R4, #36]               @ 0x24 
    /*00000084*/ CMP         R2, #0 
    /*00000088*/ BNE         _ZL31searchReadyTaskInModelGroupListPN4hirt17TaskGroupPriorityE_xa8
    /*0000008c*/ LDR         R2, [R4, #268]              @ 0x10c 
    /*00000090*/ LDR         R2, [R2, #108]              @ 0x6c 
    /*00000094*/ CMP         R2, #0 
    /*00000098*/ BEQ         _ZL31searchReadyTaskInModelGroupListPN4hirt17TaskGroupPriorityE_xc4
    /*0000009c*/ LDR         R1, [R4, #272]              @ 0x110 
    /*000000a0*/ CMP         R1, #0 
    /*000000a4*/ BNE         _ZL31searchReadyTaskInModelGroupListPN4hirt17TaskGroupPriorityE_x344
    _ZL31searchReadyTaskInModelGroupListPN4hirt17TaskGroupPriorityE_xa8:
    /*000000a8*/ ADD         R5, R5, #4 
    /*000000ac*/ CMP         R5, R3 
    /*000000b0*/ BNE         _ZL31searchReadyTaskInModelGroupListPN4hirt17TaskGroupPriorityE_x68
    _ZL31searchReadyTaskInModelGroupListPN4hirt17TaskGroupPriorityE_xb4:
    /*000000b4*/ MOV         R4, #0 
    _ZL31searchReadyTaskInModelGroupListPN4hirt17TaskGroupPriorityE_xb8:
    /*000000b8*/ MOV         R0, R4 
    /*000000bc*/ ADD         SP, SP, #20 
    /*000000c0*/ POP         {R4, R5, R6, R7, R8, R9, SL, FP, PC} 
    _ZL31searchReadyTaskInModelGroupListPN4hirt17TaskGroupPriorityE_xc4:
    /*000000c4*/ ADD         R1, R5, #4 
    /*000000c8*/ CMP         R1, R3 
    /*000000cc*/ BEQ         _ZL31searchReadyTaskInModelGroupListPN4hirt17TaskGroupPriorityE_xdc
    /*000000d0*/ SUB         R2, R3, R1 
    /*000000d4*/ LSRS        R0, R2, #2 
    /*000000d8*/ BNE         _ZL31searchReadyTaskInModelGroupListPN4hirt17TaskGroupPriorityE_x4c0
    _ZL31searchReadyTaskInModelGroupListPN4hirt17TaskGroupPriorityE_xdc:
    /*000000dc*/ LDR         R2, [R4] 
    /*000000e0*/ SUB         R3, R3, #4 
    /*000000e4*/ STR         R3, [R8, #8] 
    /*000000e8*/ LDR         R3, [R2, #4] 
    /*000000ec*/ LDR         R2, [SP] 
    /*000000f0*/ CMP         R3, R2 
    /*000000f4*/ BNE         _ZL31searchReadyTaskInModelGroupListPN4hirt17TaskGroupPriorityE_x6cc
    /*000000f8*/ LDR         R6, [R4, #160]              @ 0xa0 
    /*000000fc*/ ADD         R7, R4, #152                @ 0x98 
    /*00000100*/ LDR         R3, [SP, #4] 
    /*00000104*/ CMP         R6, R7 
    /*00000108*/ STR         R3, [R4] 
    /*0000010c*/ BNE         _ZL31searchReadyTaskInModelGroupListPN4hirt17TaskGroupPriorityE_x128
    /*00000110*/ B           _ZL31searchReadyTaskInModelGroupListPN4hirt17TaskGroupPriorityE_x14c
    _ZL31searchReadyTaskInModelGroupListPN4hirt17TaskGroupPriorityE_x114:
    /*00000114*/ MOV         R0, R6 
    /*00000118*/ BL          _ZSt18_Rb_tree_incrementPSt18_Rb_tree_node_base
    /*0000011c*/ CMP         R0, R7 
    /*00000120*/ MOV         R6, R0 
    /*00000124*/ BEQ         _ZL31searchReadyTaskInModelGroupListPN4hirt17TaskGroupPriorityE_x14c
    _ZL31searchReadyTaskInModelGroupListPN4hirt17TaskGroupPriorityE_x128:
    /*00000128*/ LDR         R3, [R6, #20] 
    /*0000012c*/ CMP         R3, #1 
    /*00000130*/ BNE         _ZL31searchReadyTaskInModelGroupListPN4hirt17TaskGroupPriorityE_x114
    /*00000134*/ LDR         R0, [R6, #16] 
    /*00000138*/ CMP         R0, #0 
    /*0000013c*/ BEQ         _ZL31searchReadyTaskInModelGroupListPN4hirt17TaskGroupPriorityE_x114
    /*00000140*/ MOV         R1, #48                     @ 0x30 
    /*00000144*/ BL          _ZdlPvj
    /*00000148*/ B           _ZL31searchReadyTaskInModelGroupListPN4hirt17TaskGroupPriorityE_x114
    _ZL31searchReadyTaskInModelGroupListPN4hirt17TaskGroupPriorityE_x14c:
    /*0000014c*/ LDR         R0, [R4, #144]              @ 0x90 
    /*00000150*/ CMP         R0, #0 
    /*00000154*/ BEQ         _ZL31searchReadyTaskInModelGroupListPN4hirt17TaskGroupPriorityE_x188
    /*00000158*/ LDR         R3, [R0, #4] 
    /*0000015c*/ CMP         R3, #0 
    /*00000160*/ BEQ         _ZL31searchReadyTaskInModelGroupListPN4hirt17TaskGroupPriorityE_x178
    /*00000164*/ MOV         R0, R3 
    /*00000168*/ BL          _ZdaPv
    /*0000016c*/ LDR         R0, [R4, #144]              @ 0x90 
    /*00000170*/ MOV         R3, #0 
    /*00000174*/ STR         R3, [R0, #4] 
    _ZL31searchReadyTaskInModelGroupListPN4hirt17TaskGroupPriorityE_x178:
    /*00000178*/ MOV         R1, #8 
    /*0000017c*/ BL          _ZdlPvj
    /*00000180*/ MOV         R3, #0 
    /*00000184*/ STR         R3, [R4, #144]              @ 0x90 
    _ZL31searchReadyTaskInModelGroupListPN4hirt17TaskGroupPriorityE_x188:
    /*00000188*/ LDR         R6, [R4, #8] 
    /*0000018c*/ LDR         R3, [R4, #12] 
    /*00000190*/ CMP         R6, R3 
    /*00000194*/ ADDNE       R9, R6, #4 
    /*00000198*/ MOVNE       R7, #0 
    /*0000019c*/ BNE         _ZL31searchReadyTaskInModelGroupListPN4hirt17TaskGroupPriorityE_x1b4
    /*000001a0*/ B           _ZL31searchReadyTaskInModelGroupListPN4hirt17TaskGroupPriorityE_x208
    _ZL31searchReadyTaskInModelGroupListPN4hirt17TaskGroupPriorityE_x1a4:
    /*000001a4*/ SUB         R3, R3, #4 
    /*000001a8*/ CMP         R6, R3 
    /*000001ac*/ STR         R3, [R4, #12] 
    /*000001b0*/ BEQ         _ZL31searchReadyTaskInModelGroupListPN4hirt17TaskGroupPriorityE_x208
    _ZL31searchReadyTaskInModelGroupListPN4hirt17TaskGroupPriorityE_x1b4:
    /*000001b4*/ LDR         R0, [R6] 
    /*000001b8*/ CMP         R0, #0 
    /*000001bc*/ BEQ         _ZL31searchReadyTaskInModelGroupListPN4hirt17TaskGroupPriorityE_x1d4
    /*000001c0*/ LDR         R3, [R0] 
    /*000001c4*/ LDR         R3, [R3, #4] 
    /*000001c8*/ BLX         R3 
    /*000001cc*/ LDR         R3, [R4, #12] 
    /*000001d0*/ STR         R7, [R6] 
    _ZL31searchReadyTaskInModelGroupListPN4hirt17TaskGroupPriorityE_x1d4:
    /*000001d4*/ CMP         R3, R9 
    /*000001d8*/ BEQ         _ZL31searchReadyTaskInModelGroupListPN4hirt17TaskGroupPriorityE_x1a4
    /*000001dc*/ SUB         R2, R3, R9 
    /*000001e0*/ LSRS        R1, R2, #2 
    /*000001e4*/ BEQ         _ZL31searchReadyTaskInModelGroupListPN4hirt17TaskGroupPriorityE_x1a4
    /*000001e8*/ MOV         R1, R9 
    /*000001ec*/ MOV         R0, R6 
    /*000001f0*/ BL          memmove
    /*000001f4*/ LDR         R3, [R4, #12] 
    /*000001f8*/ SUB         R3, R3, #4 
    /*000001fc*/ CMP         R6, R3 
    /*00000200*/ STR         R3, [R4, #12] 
    /*00000204*/ BNE         _ZL31searchReadyTaskInModelGroupListPN4hirt17TaskGroupPriorityE_x1b4
    _ZL31searchReadyTaskInModelGroupListPN4hirt17TaskGroupPriorityE_x208:
    /*00000208*/ LDR         R6, [R4, #60]               @ 0x3c 
    /*0000020c*/ ADD         R7, R4, #52                 @ 0x34 
    /*00000210*/ CMP         R7, R6 
    /*00000214*/ MOVNE       R9, #0 
    /*00000218*/ BEQ         _ZL31searchReadyTaskInModelGroupListPN4hirt17TaskGroupPriorityE_x260
    _ZL31searchReadyTaskInModelGroupListPN4hirt17TaskGroupPriorityE_x21c:
    /*0000021c*/ LDR         R0, [R6, #40]               @ 0x28 
    /*00000220*/ CMP         R0, #0 
    /*00000224*/ BEQ         _ZL31searchReadyTaskInModelGroupListPN4hirt17TaskGroupPriorityE_x24c
    /*00000228*/ LDR         R3, [R0, #4] 
    /*0000022c*/ CMP         R3, #0 
    /*00000230*/ BEQ         _ZL31searchReadyTaskInModelGroupListPN4hirt17TaskGroupPriorityE_x244
    /*00000234*/ MOV         R0, R3 
    /*00000238*/ BL          free
    /*0000023c*/ LDR         R0, [R6, #40]               @ 0x28 
    /*00000240*/ STR         R9, [R0, #4] 
    _ZL31searchReadyTaskInModelGroupListPN4hirt17TaskGroupPriorityE_x244:
    /*00000244*/ BL          free
    /*00000248*/ STR         R9, [R6, #40]               @ 0x28 
    _ZL31searchReadyTaskInModelGroupListPN4hirt17TaskGroupPriorityE_x24c:
    /*0000024c*/ MOV         R0, R6 
    /*00000250*/ BL          _ZSt18_Rb_tree_incrementPSt18_Rb_tree_node_base
    /*00000254*/ CMP         R7, R0 
    /*00000258*/ MOV         R6, R0 
    /*0000025c*/ BNE         _ZL31searchReadyTaskInModelGroupListPN4hirt17TaskGroupPriorityE_x21c
    _ZL31searchReadyTaskInModelGroupListPN4hirt17TaskGroupPriorityE_x260:
    /*00000260*/ LDR         R6, [R4, #84]               @ 0x54 
    /*00000264*/ ADD         R7, R4, #76                 @ 0x4c 
    /*00000268*/ CMP         R7, R6 
    /*0000026c*/ MOVNE       R9, #0 
    /*00000270*/ BEQ         _ZL31searchReadyTaskInModelGroupListPN4hirt17TaskGroupPriorityE_x2b8
    _ZL31searchReadyTaskInModelGroupListPN4hirt17TaskGroupPriorityE_x274:
    /*00000274*/ LDR         R0, [R6, #40]               @ 0x28 
    /*00000278*/ CMP         R0, #0 
    /*0000027c*/ BEQ         _ZL31searchReadyTaskInModelGroupListPN4hirt17TaskGroupPriorityE_x2a4
    /*00000280*/ LDR         R3, [R0, #4] 
    /*00000284*/ CMP         R3, #0 
    /*00000288*/ BEQ         _ZL31searchReadyTaskInModelGroupListPN4hirt17TaskGroupPriorityE_x29c
    /*0000028c*/ MOV         R0, R3 
    /*00000290*/ BL          free
    /*00000294*/ LDR         R0, [R6, #40]               @ 0x28 
    /*00000298*/ STR         R9, [R0, #4] 
    _ZL31searchReadyTaskInModelGroupListPN4hirt17TaskGroupPriorityE_x29c:
    /*0000029c*/ BL          free
    /*000002a0*/ STR         R9, [R6, #40]               @ 0x28 
    _ZL31searchReadyTaskInModelGroupListPN4hirt17TaskGroupPriorityE_x2a4:
    /*000002a4*/ MOV         R0, R6 
    /*000002a8*/ BL          _ZSt18_Rb_tree_incrementPSt18_Rb_tree_node_base
    /*000002ac*/ CMP         R7, R0 
    /*000002b0*/ MOV         R6, R0 
    /*000002b4*/ BNE         _ZL31searchReadyTaskInModelGroupListPN4hirt17TaskGroupPriorityE_x274
    _ZL31searchReadyTaskInModelGroupListPN4hirt17TaskGroupPriorityE_x2b8:
    /*000002b8*/ LDR         R0, [R4, #176]              @ 0xb0 
    /*000002bc*/ CMP         R0, #0 
    /*000002c0*/ BEQ         _ZL31searchReadyTaskInModelGroupListPN4hirt17TaskGroupPriorityE_x2c8
    /*000002c4*/ BL          _ZdlPv
    _ZL31searchReadyTaskInModelGroupListPN4hirt17TaskGroupPriorityE_x2c8:
    /*000002c8*/ LDR         R1, [R4, #156]              @ 0x9c 
    /*000002cc*/ ADD         R0, R4, #148                @ 0x94 
    /*000002d0*/ BL          _ZNSt8_Rb_treeIP16hiRUNTIME_BLOB_SSt4pairIKS1_7HI_BOOLESt10_Select1stIS5_ESt4lessIS1_ESaIS5_EE8_M_eraseEPSt13_Rb_tree_nodeIS5_E
    /*000002d4*/ LDR         R1, [R4, #128]              @ 0x80 
    /*000002d8*/ ADD         R0, R4, #120                @ 0x78 
    /*000002dc*/ BL          _ZNSt8_Rb_treeIP16hiRUNTIME_BLOB_SSt4pairIKS1_NSt7__cxx1112basic_stringIcSt11char_traitsIcESaIcEEEESt10_Select1stISA_ESt4lessIS1_ESaISA_EE8_M_eraseEPSt13_Rb_tree_nodeISA_E
    /*000002e0*/ LDR         R1, [R4, #104]              @ 0x68 
    /*000002e4*/ ADD         R0, R4, #96                 @ 0x60 
    /*000002e8*/ BL          _ZNSt8_Rb_treeINSt7__cxx1112basic_stringIcSt11char_traitsIcESaIcEEESt4pairIKS5_NS0_4listIP16hiRUNTIME_BLOB_SSaISA_EEEESt10_Select1stISD_ESt4lessIS5_ESaISD_EE8_M_eraseEPSt13_Rb_tree_nodeISD_E
    /*000002ec*/ LDR         R1, [R4, #80]               @ 0x50 
    /*000002f0*/ ADD         R0, R4, #72                 @ 0x48 
    /*000002f4*/ BL          _ZNSt8_Rb_treeINSt7__cxx1112basic_stringIcSt11char_traitsIcESaIcEEESt4pairIKS5_P26hiRUNTIME_SRC_BLOB_ARRAY_SESt10_Select1stISA_ESt4lessIS5_ESaISA_EE8_M_eraseEPSt13_Rb_tree_nodeISA_E
    /*000002f8*/ LDR         R1, [R4, #56]               @ 0x38 
    /*000002fc*/ ADD         R0, R4, #48                 @ 0x30 
    /*00000300*/ BL          _ZNSt8_Rb_treeINSt7__cxx1112basic_stringIcSt11char_traitsIcESaIcEEESt4pairIKS5_P26hiRUNTIME_SRC_BLOB_ARRAY_SESt10_Select1stISA_ESt4lessIS5_ESaISA_EE8_M_eraseEPSt13_Rb_tree_nodeISA_E
    /*00000304*/ LDR         R0, [R4, #20] 
    /*00000308*/ CMP         R0, #0 
    /*0000030c*/ BEQ         _ZL31searchReadyTaskInModelGroupListPN4hirt17TaskGroupPriorityE_x314
    /*00000310*/ BL          _ZdlPv
    _ZL31searchReadyTaskInModelGroupListPN4hirt17TaskGroupPriorityE_x314:
    /*00000314*/ LDR         R0, [R4, #8] 
    /*00000318*/ CMP         R0, #0 
    /*0000031c*/ BEQ         _ZL31searchReadyTaskInModelGroupListPN4hirt17TaskGroupPriorityE_x324
    /*00000320*/ BL          _ZdlPv
    _ZL31searchReadyTaskInModelGroupListPN4hirt17TaskGroupPriorityE_x324:
    /*00000324*/ MOV         R0, R4 
    /*00000328*/ MOV         R1, #304                    @ 0x130 
    /*0000032c*/ BL          _ZdlPvj
    _ZL31searchReadyTaskInModelGroupListPN4hirt17TaskGroupPriorityE_x330:
    /*00000330*/ LDMIB       R8, {R2, R3} 
    /*00000334*/ SUB         R2, R3, R2 
    /*00000338*/ LSRS        R2, R2, #2 
    /*0000033c*/ BNE         _ZL31searchReadyTaskInModelGroupListPN4hirt17TaskGroupPriorityE_x60
    /*00000340*/ B           _ZL31searchReadyTaskInModelGroupListPN4hirt17TaskGroupPriorityE_xb4
    _ZL31searchReadyTaskInModelGroupListPN4hirt17TaskGroupPriorityE_x344:
    /*00000344*/ ADD         R1, R2, R1 
    /*00000348*/ MOV         R0, R8 
    /*0000034c*/ BL          _ZN4hirt17TaskGroupPriority20searchModelGroupTaskEj
    /*00000350*/ SUBS        R4, R0, #0 
    /*00000354*/ BEQ         _ZL31searchReadyTaskInModelGroupListPN4hirt17TaskGroupPriorityE_x6c4
    /*00000358*/ LDMIB       R8, {R2, R3} 
    /*0000035c*/ SUB         R1, R3, R2 
    /*00000360*/ ASR         R0, R1, #4 
    /*00000364*/ ASR         R1, R1, #2 
    /*00000368*/ CMP         R0, #0 
    /*0000036c*/ BLE         _ZL31searchReadyTaskInModelGroupListPN4hirt17TaskGroupPriorityE_x824
    /*00000370*/ LDR         R1, [R2] 
    /*00000374*/ CMP         R4, R1 
    /*00000378*/ BEQ         _ZL31searchReadyTaskInModelGroupListPN4hirt17TaskGroupPriorityE_x81c
    /*0000037c*/ LDR         R1, [R2, #4] 
    /*00000380*/ CMP         R4, R1 
    /*00000384*/ ADDEQ       R6, R2, #4 
    /*00000388*/ BEQ         _ZL31searchReadyTaskInModelGroupListPN4hirt17TaskGroupPriorityE_x41c
    /*0000038c*/ LDR         R1, [R2, #8] 
    /*00000390*/ CMP         R4, R1 
    /*00000394*/ ADDEQ       R6, R2, #8 
    /*00000398*/ BEQ         _ZL31searchReadyTaskInModelGroupListPN4hirt17TaskGroupPriorityE_x41c
    /*0000039c*/ LDR         R1, [R2, #12] 
    /*000003a0*/ CMP         R4, R1 
    /*000003a4*/ ADDNE       R0, R2, R0, LSL #4 
    /*000003a8*/ BNE         _ZL31searchReadyTaskInModelGroupListPN4hirt17TaskGroupPriorityE_x3e4
    /*000003ac*/ B           _ZL31searchReadyTaskInModelGroupListPN4hirt17TaskGroupPriorityE_x82c
    _ZL31searchReadyTaskInModelGroupListPN4hirt17TaskGroupPriorityE_x3b0:
    /*000003b0*/ LDR         R1, [R2, #16] 
    /*000003b4*/ CMP         R4, R1 
    /*000003b8*/ BEQ         _ZL31searchReadyTaskInModelGroupListPN4hirt17TaskGroupPriorityE_x41c
    /*000003bc*/ LDR         R1, [R6, #4] 
    /*000003c0*/ CMP         R4, R1 
    /*000003c4*/ BEQ         _ZL31searchReadyTaskInModelGroupListPN4hirt17TaskGroupPriorityE_x7dc
    /*000003c8*/ LDR         R1, [R6, #8] 
    /*000003cc*/ CMP         R4, R1 
    /*000003d0*/ BEQ         _ZL31searchReadyTaskInModelGroupListPN4hirt17TaskGroupPriorityE_x7d4
    /*000003d4*/ LDR         R1, [R6, #12] 
    /*000003d8*/ CMP         R4, R1 
    /*000003dc*/ BEQ         _ZL31searchReadyTaskInModelGroupListPN4hirt17TaskGroupPriorityE_x7e4
    /*000003e0*/ MOV         R2, R6 
    _ZL31searchReadyTaskInModelGroupListPN4hirt17TaskGroupPriorityE_x3e4:
    /*000003e4*/ ADD         R6, R2, #16 
    /*000003e8*/ CMP         R6, R0 
    /*000003ec*/ BNE         _ZL31searchReadyTaskInModelGroupListPN4hirt17TaskGroupPriorityE_x3b0
    /*000003f0*/ SUB         R0, R3, R0 
    /*000003f4*/ ASR         R1, R0, #2 
    _ZL31searchReadyTaskInModelGroupListPN4hirt17TaskGroupPriorityE_x3f8:
    /*000003f8*/ CMP         R1, #2 
    /*000003fc*/ BEQ         _ZL31searchReadyTaskInModelGroupListPN4hirt17TaskGroupPriorityE_x7fc
    /*00000400*/ CMP         R1, #3 
    /*00000404*/ BEQ         _ZL31searchReadyTaskInModelGroupListPN4hirt17TaskGroupPriorityE_x7ec
    /*00000408*/ CMP         R1, #1 
    /*0000040c*/ BNE         _ZL31searchReadyTaskInModelGroupListPN4hirt17TaskGroupPriorityE_xa8
    _ZL31searchReadyTaskInModelGroupListPN4hirt17TaskGroupPriorityE_x410:
    /*00000410*/ LDR         R2, [R6] 
    /*00000414*/ CMP         R4, R2 
    /*00000418*/ BNE         _ZL31searchReadyTaskInModelGroupListPN4hirt17TaskGroupPriorityE_xa8
    _ZL31searchReadyTaskInModelGroupListPN4hirt17TaskGroupPriorityE_x41c:
    /*0000041c*/ CMP         R6, R3 
    /*00000420*/ BEQ         _ZL31searchReadyTaskInModelGroupListPN4hirt17TaskGroupPriorityE_xa8
    /*00000424*/ LDR         R3, [R4] 
    /*00000428*/ LDR         R2, [SP, #8] 
    /*0000042c*/ LDR         R3, [R3, #4] 
    /*00000430*/ CMP         R3, R2 
    /*00000434*/ BNE         _ZL31searchReadyTaskInModelGroupListPN4hirt17TaskGroupPriorityE_x810
    /*00000438*/ LDR         R7, [R4, #160]              @ 0xa0 
    /*0000043c*/ ADD         R9, R4, #152                @ 0x98 
    /*00000440*/ LDR         R3, [SP, #12] 
    /*00000444*/ CMP         R9, R7 
    /*00000448*/ STR         R3, [R4] 
    /*0000044c*/ BNE         _ZL31searchReadyTaskInModelGroupListPN4hirt17TaskGroupPriorityE_x468
    /*00000450*/ B           _ZL31searchReadyTaskInModelGroupListPN4hirt17TaskGroupPriorityE_x4d0
    _ZL31searchReadyTaskInModelGroupListPN4hirt17TaskGroupPriorityE_x454:
    /*00000454*/ MOV         R0, R7 
    /*00000458*/ BL          _ZSt18_Rb_tree_incrementPSt18_Rb_tree_node_base
    /*0000045c*/ CMP         R9, R0 
    /*00000460*/ MOV         R7, R0 
    /*00000464*/ BEQ         _ZL31searchReadyTaskInModelGroupListPN4hirt17TaskGroupPriorityE_x4d0
    _ZL31searchReadyTaskInModelGroupListPN4hirt17TaskGroupPriorityE_x468:
    /*00000468*/ LDR         R3, [R7, #20] 
    /*0000046c*/ CMP         R3, #1 
    /*00000470*/ BNE         _ZL31searchReadyTaskInModelGroupListPN4hirt17TaskGroupPriorityE_x454
    /*00000474*/ LDR         R0, [R7, #16] 
    /*00000478*/ CMP         R0, #0 
    /*0000047c*/ BEQ         _ZL31searchReadyTaskInModelGroupListPN4hirt17TaskGroupPriorityE_x454
    /*00000480*/ MOV         R1, #48                     @ 0x30 
    /*00000484*/ BL          _ZdlPvj
    /*00000488*/ B           _ZL31searchReadyTaskInModelGroupListPN4hirt17TaskGroupPriorityE_x454
    _ZL31searchReadyTaskInModelGroupListPN4hirt17TaskGroupPriorityE_x48c:
    /*0000048c*/ ADD         R1, R5, #4 
    /*00000490*/ CMP         R1, R3 
    /*00000494*/ BEQ         _ZL31searchReadyTaskInModelGroupListPN4hirt17TaskGroupPriorityE_x4a4
    /*00000498*/ SUB         R2, R3, R1 
    /*0000049c*/ LSRS        R0, R2, #2 
    /*000004a0*/ BNE         _ZL31searchReadyTaskInModelGroupListPN4hirt17TaskGroupPriorityE_x7c4
    _ZL31searchReadyTaskInModelGroupListPN4hirt17TaskGroupPriorityE_x4a4:
    /*000004a4*/ LDR         R2, [R8, #4] 
    /*000004a8*/ SUB         R3, R3, #4 
    /*000004ac*/ STR         R3, [R8, #8] 
    /*000004b0*/ SUB         R2, R3, R2 
    /*000004b4*/ LSRS        R2, R2, #2 
    /*000004b8*/ BNE         _ZL31searchReadyTaskInModelGroupListPN4hirt17TaskGroupPriorityE_x60
    /*000004bc*/ B           _ZL31searchReadyTaskInModelGroupListPN4hirt17TaskGroupPriorityE_xb4
    _ZL31searchReadyTaskInModelGroupListPN4hirt17TaskGroupPriorityE_x4c0:
    /*000004c0*/ MOV         R0, R5 
    /*000004c4*/ BL          memmove
    /*000004c8*/ LDR         R3, [R8, #8] 
    /*000004cc*/ B           _ZL31searchReadyTaskInModelGroupListPN4hirt17TaskGroupPriorityE_xdc
    _ZL31searchReadyTaskInModelGroupListPN4hirt17TaskGroupPriorityE_x4d0:
    /*000004d0*/ LDR         R0, [R4, #144]              @ 0x90 
    /*000004d4*/ CMP         R0, #0 
    /*000004d8*/ BEQ         _ZL31searchReadyTaskInModelGroupListPN4hirt17TaskGroupPriorityE_x50c
    /*000004dc*/ LDR         R3, [R0, #4] 
    /*000004e0*/ CMP         R3, #0 
    /*000004e4*/ BEQ         _ZL31searchReadyTaskInModelGroupListPN4hirt17TaskGroupPriorityE_x4fc
    /*000004e8*/ MOV         R0, R3 
    /*000004ec*/ BL          _ZdaPv
    /*000004f0*/ LDR         R0, [R4, #144]              @ 0x90 
    /*000004f4*/ MOV         R3, #0 
    /*000004f8*/ STR         R3, [R0, #4] 
    _ZL31searchReadyTaskInModelGroupListPN4hirt17TaskGroupPriorityE_x4fc:
    /*000004fc*/ MOV         R1, #8 
    /*00000500*/ BL          _ZdlPvj
    /*00000504*/ MOV         R3, #0 
    /*00000508*/ STR         R3, [R4, #144]              @ 0x90 
    _ZL31searchReadyTaskInModelGroupListPN4hirt17TaskGroupPriorityE_x50c:
    /*0000050c*/ LDR         R7, [R4, #8] 
    /*00000510*/ LDR         R3, [R4, #12] 
    /*00000514*/ CMP         R7, R3 
    /*00000518*/ ADDNE       FP, R7, #4 
    /*0000051c*/ MOVNE       R9, #0 
    /*00000520*/ BNE         _ZL31searchReadyTaskInModelGroupListPN4hirt17TaskGroupPriorityE_x538
    /*00000524*/ B           _ZL31searchReadyTaskInModelGroupListPN4hirt17TaskGroupPriorityE_x58c
    _ZL31searchReadyTaskInModelGroupListPN4hirt17TaskGroupPriorityE_x528:
    /*00000528*/ SUB         R3, R3, #4 
    /*0000052c*/ CMP         R7, R3 
    /*00000530*/ STR         R3, [R4, #12] 
    /*00000534*/ BEQ         _ZL31searchReadyTaskInModelGroupListPN4hirt17TaskGroupPriorityE_x58c
    _ZL31searchReadyTaskInModelGroupListPN4hirt17TaskGroupPriorityE_x538:
    /*00000538*/ LDR         R0, [R7] 
    /*0000053c*/ CMP         R0, #0 
    /*00000540*/ BEQ         _ZL31searchReadyTaskInModelGroupListPN4hirt17TaskGroupPriorityE_x558
    /*00000544*/ LDR         R3, [R0] 
    /*00000548*/ LDR         R3, [R3, #4] 
    /*0000054c*/ BLX         R3 
    /*00000550*/ LDR         R3, [R4, #12] 
    /*00000554*/ STR         R9, [R7] 
    _ZL31searchReadyTaskInModelGroupListPN4hirt17TaskGroupPriorityE_x558:
    /*00000558*/ CMP         R3, FP 
    /*0000055c*/ BEQ         _ZL31searchReadyTaskInModelGroupListPN4hirt17TaskGroupPriorityE_x528
    /*00000560*/ SUB         R2, R3, FP 
    /*00000564*/ LSRS        R1, R2, #2 
    /*00000568*/ BEQ         _ZL31searchReadyTaskInModelGroupListPN4hirt17TaskGroupPriorityE_x528
    /*0000056c*/ MOV         R1, FP 
    /*00000570*/ MOV         R0, R7 
    /*00000574*/ BL          memmove
    /*00000578*/ LDR         R3, [R4, #12] 
    /*0000057c*/ SUB         R3, R3, #4 
    /*00000580*/ CMP         R7, R3 
    /*00000584*/ STR         R3, [R4, #12] 
    /*00000588*/ BNE         _ZL31searchReadyTaskInModelGroupListPN4hirt17TaskGroupPriorityE_x538
    _ZL31searchReadyTaskInModelGroupListPN4hirt17TaskGroupPriorityE_x58c:
    /*0000058c*/ LDR         R7, [R4, #60]               @ 0x3c 
    /*00000590*/ ADD         R9, R4, #52                 @ 0x34 
    /*00000594*/ CMP         R9, R7 
    /*00000598*/ MOVNE       FP, #0 
    /*0000059c*/ BEQ         _ZL31searchReadyTaskInModelGroupListPN4hirt17TaskGroupPriorityE_x5e4
    _ZL31searchReadyTaskInModelGroupListPN4hirt17TaskGroupPriorityE_x5a0:
    /*000005a0*/ LDR         R0, [R7, #40]               @ 0x28 
    /*000005a4*/ CMP         R0, #0 
    /*000005a8*/ BEQ         _ZL31searchReadyTaskInModelGroupListPN4hirt17TaskGroupPriorityE_x5d0
    /*000005ac*/ LDR         R3, [R0, #4] 
    /*000005b0*/ CMP         R3, #0 
    /*000005b4*/ BEQ         _ZL31searchReadyTaskInModelGroupListPN4hirt17TaskGroupPriorityE_x5c8
    /*000005b8*/ MOV         R0, R3 
    /*000005bc*/ BL          free
    /*000005c0*/ LDR         R0, [R7, #40]               @ 0x28 
    /*000005c4*/ STR         FP, [R0, #4] 
    _ZL31searchReadyTaskInModelGroupListPN4hirt17TaskGroupPriorityE_x5c8:
    /*000005c8*/ BL          free
    /*000005cc*/ STR         FP, [R7, #40]               @ 0x28 
    _ZL31searchReadyTaskInModelGroupListPN4hirt17TaskGroupPriorityE_x5d0:
    /*000005d0*/ MOV         R0, R7 
    /*000005d4*/ BL          _ZSt18_Rb_tree_incrementPSt18_Rb_tree_node_base
    /*000005d8*/ CMP         R9, R0 
    /*000005dc*/ MOV         R7, R0 
    /*000005e0*/ BNE         _ZL31searchReadyTaskInModelGroupListPN4hirt17TaskGroupPriorityE_x5a0
    _ZL31searchReadyTaskInModelGroupListPN4hirt17TaskGroupPriorityE_x5e4:
    /*000005e4*/ LDR         R7, [R4, #84]               @ 0x54 
    /*000005e8*/ ADD         R9, R4, #76                 @ 0x4c 
    /*000005ec*/ CMP         R7, R9 
    /*000005f0*/ MOVNE       FP, #0 
    /*000005f4*/ BEQ         _ZL31searchReadyTaskInModelGroupListPN4hirt17TaskGroupPriorityE_x63c
    _ZL31searchReadyTaskInModelGroupListPN4hirt17TaskGroupPriorityE_x5f8:
    /*000005f8*/ LDR         R0, [R7, #40]               @ 0x28 
    /*000005fc*/ CMP         R0, #0 
    /*00000600*/ BEQ         _ZL31searchReadyTaskInModelGroupListPN4hirt17TaskGroupPriorityE_x628
    /*00000604*/ LDR         R3, [R0, #4] 
    /*00000608*/ CMP         R3, #0 
    /*0000060c*/ BEQ         _ZL31searchReadyTaskInModelGroupListPN4hirt17TaskGroupPriorityE_x620
    /*00000610*/ MOV         R0, R3 
    /*00000614*/ BL          free
    /*00000618*/ LDR         R0, [R7, #40]               @ 0x28 
    /*0000061c*/ STR         FP, [R0, #4] 
    _ZL31searchReadyTaskInModelGroupListPN4hirt17TaskGroupPriorityE_x620:
    /*00000620*/ BL          free
    /*00000624*/ STR         FP, [R7, #40]               @ 0x28 
    _ZL31searchReadyTaskInModelGroupListPN4hirt17TaskGroupPriorityE_x628:
    /*00000628*/ MOV         R0, R7 
    /*0000062c*/ BL          _ZSt18_Rb_tree_incrementPSt18_Rb_tree_node_base
    /*00000630*/ CMP         R0, R9 
    /*00000634*/ MOV         R7, R0 
    /*00000638*/ BNE         _ZL31searchReadyTaskInModelGroupListPN4hirt17TaskGroupPriorityE_x5f8
    _ZL31searchReadyTaskInModelGroupListPN4hirt17TaskGroupPriorityE_x63c:
    /*0000063c*/ LDR         R0, [R4, #176]              @ 0xb0 
    /*00000640*/ CMP         R0, #0 
    /*00000644*/ BEQ         _ZL31searchReadyTaskInModelGroupListPN4hirt17TaskGroupPriorityE_x64c
    /*00000648*/ BL          _ZdlPv
    _ZL31searchReadyTaskInModelGroupListPN4hirt17TaskGroupPriorityE_x64c:
    /*0000064c*/ LDR         R1, [R4, #156]              @ 0x9c 
    /*00000650*/ ADD         R0, R4, #148                @ 0x94 
    /*00000654*/ BL          _ZNSt8_Rb_treeIP16hiRUNTIME_BLOB_SSt4pairIKS1_7HI_BOOLESt10_Select1stIS5_ESt4lessIS1_ESaIS5_EE8_M_eraseEPSt13_Rb_tree_nodeIS5_E
    /*00000658*/ LDR         R1, [R4, #128]              @ 0x80 
    /*0000065c*/ ADD         R0, R4, #120                @ 0x78 
    /*00000660*/ BL          _ZNSt8_Rb_treeIP16hiRUNTIME_BLOB_SSt4pairIKS1_NSt7__cxx1112basic_stringIcSt11char_traitsIcESaIcEEEESt10_Select1stISA_ESt4lessIS1_ESaISA_EE8_M_eraseEPSt13_Rb_tree_nodeISA_E
    /*00000664*/ LDR         R1, [R4, #104]              @ 0x68 
    /*00000668*/ ADD         R0, R4, #96                 @ 0x60 
    /*0000066c*/ BL          _ZNSt8_Rb_treeINSt7__cxx1112basic_stringIcSt11char_traitsIcESaIcEEESt4pairIKS5_NS0_4listIP16hiRUNTIME_BLOB_SSaISA_EEEESt10_Select1stISD_ESt4lessIS5_ESaISD_EE8_M_eraseEPSt13_Rb_tree_nodeISD_E
    /*00000670*/ LDR         R1, [R4, #80]               @ 0x50 
    /*00000674*/ ADD         R0, R4, #72                 @ 0x48 
    /*00000678*/ BL          _ZNSt8_Rb_treeINSt7__cxx1112basic_stringIcSt11char_traitsIcESaIcEEESt4pairIKS5_P26hiRUNTIME_SRC_BLOB_ARRAY_SESt10_Select1stISA_ESt4lessIS5_ESaISA_EE8_M_eraseEPSt13_Rb_tree_nodeISA_E
    /*0000067c*/ LDR         R1, [R4, #56]               @ 0x38 
    /*00000680*/ ADD         R0, R4, #48                 @ 0x30 
    /*00000684*/ BL          _ZNSt8_Rb_treeINSt7__cxx1112basic_stringIcSt11char_traitsIcESaIcEEESt4pairIKS5_P26hiRUNTIME_SRC_BLOB_ARRAY_SESt10_Select1stISA_ESt4lessIS5_ESaISA_EE8_M_eraseEPSt13_Rb_tree_nodeISA_E
    /*00000688*/ LDR         R0, [R4, #20] 
    /*0000068c*/ CMP         R0, #0 
    /*00000690*/ BEQ         _ZL31searchReadyTaskInModelGroupListPN4hirt17TaskGroupPriorityE_x698
    /*00000694*/ BL          _ZdlPv
    _ZL31searchReadyTaskInModelGroupListPN4hirt17TaskGroupPriorityE_x698:
    /*00000698*/ LDR         R0, [R4, #8] 
    /*0000069c*/ CMP         R0, #0 
    /*000006a0*/ BEQ         _ZL31searchReadyTaskInModelGroupListPN4hirt17TaskGroupPriorityE_x6a8
    /*000006a4*/ BL          _ZdlPv
    _ZL31searchReadyTaskInModelGroupListPN4hirt17TaskGroupPriorityE_x6a8:
    /*000006a8*/ MOV         R0, R4 
    /*000006ac*/ MOV         R1, #304                    @ 0x130 
    /*000006b0*/ BL          _ZdlPvj
    _ZL31searchReadyTaskInModelGroupListPN4hirt17TaskGroupPriorityE_x6b4:
    /*000006b4*/ LDR         R3, [R8, #8] 
    /*000006b8*/ MOV         R2, #0 
    /*000006bc*/ STR         R2, [R6] 
    /*000006c0*/ B           _ZL31searchReadyTaskInModelGroupListPN4hirt17TaskGroupPriorityE_xa8
    _ZL31searchReadyTaskInModelGroupListPN4hirt17TaskGroupPriorityE_x6c4:
    /*000006c4*/ LDR         R3, [R8, #8] 
    /*000006c8*/ B           _ZL31searchReadyTaskInModelGroupListPN4hirt17TaskGroupPriorityE_xa8
    _ZL31searchReadyTaskInModelGroupListPN4hirt17TaskGroupPriorityE_x6cc:
    /*000006cc*/ MOV         R0, R4 
    /*000006d0*/ BLX         R3 
    /*000006d4*/ B           _ZL31searchReadyTaskInModelGroupListPN4hirt17TaskGroupPriorityE_x330
    _ZL31searchReadyTaskInModelGroupListPN4hirt17TaskGroupPriorityE_x6d8:
    /*000006d8*/ LDR         R1, [R4, #8] 
    /*000006dc*/ LDR         LR, [R4, #12] 
    /*000006e0*/ CMP         R1, LR 
    /*000006e4*/ BEQ         _ZL31searchReadyTaskInModelGroupListPN4hirt17TaskGroupPriorityE_xb4
    _ZL31searchReadyTaskInModelGroupListPN4hirt17TaskGroupPriorityE_x6e8:
    /*000006e8*/ LDR         R5, [R1], #4 
    /*000006ec*/ LDR         R0, [R5, #16] 
    /*000006f0*/ LDR         IP, [R5, #20] 
    /*000006f4*/ CMP         R0, IP 
    /*000006f8*/ BEQ         _ZL31searchReadyTaskInModelGroupListPN4hirt17TaskGroupPriorityE_x730
    /*000006fc*/ LDR         R4, [R0] 
    /*00000700*/ LDR         R3, [R4, #60]               @ 0x3c 
    /*00000704*/ CMP         R3, #0 
    /*00000708*/ BEQ         _ZL31searchReadyTaskInModelGroupListPN4hirt17TaskGroupPriorityE_x73c
    /*0000070c*/ ADD         R3, R0, #4 
    /*00000710*/ B           _ZL31searchReadyTaskInModelGroupListPN4hirt17TaskGroupPriorityE_x724
    _ZL31searchReadyTaskInModelGroupListPN4hirt17TaskGroupPriorityE_x714:
    /*00000714*/ LDR         R4, [R3], #4 
    /*00000718*/ LDR         R2, [R4, #60]               @ 0x3c 
    /*0000071c*/ CMP         R2, #0 
    /*00000720*/ BEQ         _ZL31searchReadyTaskInModelGroupListPN4hirt17TaskGroupPriorityE_x73c
    _ZL31searchReadyTaskInModelGroupListPN4hirt17TaskGroupPriorityE_x724:
    /*00000724*/ CMP         R3, IP 
    /*00000728*/ MOV         R0, R3 
    /*0000072c*/ BNE         _ZL31searchReadyTaskInModelGroupListPN4hirt17TaskGroupPriorityE_x714
    _ZL31searchReadyTaskInModelGroupListPN4hirt17TaskGroupPriorityE_x730:
    /*00000730*/ CMP         LR, R1 
    /*00000734*/ BNE         _ZL31searchReadyTaskInModelGroupListPN4hirt17TaskGroupPriorityE_x6e8
    /*00000738*/ B           _ZL31searchReadyTaskInModelGroupListPN4hirt17TaskGroupPriorityE_xb4
    _ZL31searchReadyTaskInModelGroupListPN4hirt17TaskGroupPriorityE_x73c:
    /*0000073c*/ ADD         R1, R0, #4 
    /*00000740*/ CMP         R1, IP 
    /*00000744*/ BEQ         _ZL31searchReadyTaskInModelGroupListPN4hirt17TaskGroupPriorityE_x754
    /*00000748*/ SUB         R2, IP, R1 
    /*0000074c*/ LSRS        R3, R2, #2 
    /*00000750*/ BNE         _ZL31searchReadyTaskInModelGroupListPN4hirt17TaskGroupPriorityE_x7b8
    _ZL31searchReadyTaskInModelGroupListPN4hirt17TaskGroupPriorityE_x754:
    /*00000754*/ LDR         R3, WORD_084c               @ LDR         R3, [PC, #240]              @ 0x000000000000084c 
    /*00000758*/ SUB         IP, IP, #4 
    /*0000075c*/ STR         IP, [R5, #20] 
    /*00000760*/ LDR         R3, [SL, R3] 
    /*00000764*/ LDR         R2, [R4, #88]               @ 0x58 
    /*00000768*/ CMP         R3, #0 
    /*0000076c*/ LDR         R5, [R2, #28] 
    /*00000770*/ BEQ         _ZL31searchReadyTaskInModelGroupListPN4hirt17TaskGroupPriorityE_x7a8
    /*00000774*/ ADD         R6, R5, #212                @ 0xd4 
    /*00000778*/ MOV         R0, R6 
    /*0000077c*/ BL          pthread_mutex_lock
    /*00000780*/ CMP         R0, #0 
    /*00000784*/ BNE         _ZL31searchReadyTaskInModelGroupListPN4hirt17TaskGroupPriorityE_x834
    /*00000788*/ LDR         R3, [R5, #40]               @ 0x28 
    /*0000078c*/ MOV         R0, R6 
    /*00000790*/ SUB         R3, R3, #1 
    /*00000794*/ STR         R3, [R5, #40]               @ 0x28 
    /*00000798*/ BL          pthread_mutex_unlock
    /*0000079c*/ MOV         R0, R4 
    /*000007a0*/ ADD         SP, SP, #20 
    /*000007a4*/ POP         {R4, R5, R6, R7, R8, R9, SL, FP, PC} 
    _ZL31searchReadyTaskInModelGroupListPN4hirt17TaskGroupPriorityE_x7a8:
    /*000007a8*/ LDR         R3, [R5, #40]               @ 0x28 
    /*000007ac*/ SUB         R3, R3, #1 
    /*000007b0*/ STR         R3, [R5, #40]               @ 0x28 
    /*000007b4*/ B           _ZL31searchReadyTaskInModelGroupListPN4hirt17TaskGroupPriorityE_xb8
    _ZL31searchReadyTaskInModelGroupListPN4hirt17TaskGroupPriorityE_x7b8:
    /*000007b8*/ BL          memmove
    /*000007bc*/ LDR         IP, [R5, #20] 
    /*000007c0*/ B           _ZL31searchReadyTaskInModelGroupListPN4hirt17TaskGroupPriorityE_x754
    _ZL31searchReadyTaskInModelGroupListPN4hirt17TaskGroupPriorityE_x7c4:
    /*000007c4*/ MOV         R0, R5 
    /*000007c8*/ BL          memmove
    /*000007cc*/ LDR         R3, [R8, #8] 
    /*000007d0*/ B           _ZL31searchReadyTaskInModelGroupListPN4hirt17TaskGroupPriorityE_x4a4
    _ZL31searchReadyTaskInModelGroupListPN4hirt17TaskGroupPriorityE_x7d4:
    /*000007d4*/ ADD         R6, R2, #24 
    /*000007d8*/ B           _ZL31searchReadyTaskInModelGroupListPN4hirt17TaskGroupPriorityE_x41c
    _ZL31searchReadyTaskInModelGroupListPN4hirt17TaskGroupPriorityE_x7dc:
    /*000007dc*/ ADD         R6, R2, #20 
    /*000007e0*/ B           _ZL31searchReadyTaskInModelGroupListPN4hirt17TaskGroupPriorityE_x41c
    _ZL31searchReadyTaskInModelGroupListPN4hirt17TaskGroupPriorityE_x7e4:
    /*000007e4*/ ADD         R6, R2, #28 
    /*000007e8*/ B           _ZL31searchReadyTaskInModelGroupListPN4hirt17TaskGroupPriorityE_x41c
    _ZL31searchReadyTaskInModelGroupListPN4hirt17TaskGroupPriorityE_x7ec:
    /*000007ec*/ LDR         R2, [R6] 
    /*000007f0*/ CMP         R4, R2 
    /*000007f4*/ BEQ         _ZL31searchReadyTaskInModelGroupListPN4hirt17TaskGroupPriorityE_x41c
    /*000007f8*/ ADD         R6, R6, #4 
    _ZL31searchReadyTaskInModelGroupListPN4hirt17TaskGroupPriorityE_x7fc:
    /*000007fc*/ LDR         R2, [R6] 
    /*00000800*/ CMP         R4, R2 
    /*00000804*/ BEQ         _ZL31searchReadyTaskInModelGroupListPN4hirt17TaskGroupPriorityE_x41c
    /*00000808*/ ADD         R6, R6, #4 
    /*0000080c*/ B           _ZL31searchReadyTaskInModelGroupListPN4hirt17TaskGroupPriorityE_x410
    _ZL31searchReadyTaskInModelGroupListPN4hirt17TaskGroupPriorityE_x810:
    /*00000810*/ MOV         R0, R4 
    /*00000814*/ BLX         R3 
    /*00000818*/ B           _ZL31searchReadyTaskInModelGroupListPN4hirt17TaskGroupPriorityE_x6b4
    _ZL31searchReadyTaskInModelGroupListPN4hirt17TaskGroupPriorityE_x81c:
    /*0000081c*/ MOV         R6, R2 
    /*00000820*/ B           _ZL31searchReadyTaskInModelGroupListPN4hirt17TaskGroupPriorityE_x41c
    _ZL31searchReadyTaskInModelGroupListPN4hirt17TaskGroupPriorityE_x824:
    /*00000824*/ MOV         R6, R2 
    /*00000828*/ B           _ZL31searchReadyTaskInModelGroupListPN4hirt17TaskGroupPriorityE_x3f8
    _ZL31searchReadyTaskInModelGroupListPN4hirt17TaskGroupPriorityE_x82c:
    /*0000082c*/ ADD         R6, R2, #12 
    /*00000830*/ B           _ZL31searchReadyTaskInModelGroupListPN4hirt17TaskGroupPriorityE_x41c
    _ZL31searchReadyTaskInModelGroupListPN4hirt17TaskGroupPriorityE_x834:
    /*00000834*/ BL          _ZSt20__throw_system_errori
    /*00000838*/ WORD_0838: .word 0x00000810
    /*0000083c*/ WORD_083c: .word 0x00000810
    /*00000840*/ WORD_0840: .word 0x000007fc
    /*00000844*/ WORD_0844: .word 0x000007e0
    /*00000848*/ WORD_0848: .word 0x000007f4
    /*0000084c*/ WORD_084c: .word 0x00000000
FUNC_END _ZL31searchReadyTaskInModelGroupListPN4hirt17TaskGroupPriorityE


@ - - - - - - - - - - - - - - - - - - - - - - - - - - - - - 
@ .text._ZN4hirt11TaskMonitor14fetchReadyTaskEPj
@ Size: 0xd8
@ - - - - - - - - - - - - - - - - - - - - - - - - - - - - - 

FUNC_BEGIN _ZN4hirt11TaskMonitor14fetchReadyTaskEPj
    /*00000000*/ MOV         IP, #16384                  @ 0x4000 
    /*00000004*/ PUSH        {R4, R5, R6, R7, R8, R9, SL, LR} 
    /*00000008*/ SUB         IP, SP, IP 
    /*0000000c*/ STR         R0, [IP, #4064]             @ 0xfe0 
    /*00000010*/ LDR         R2, WORD_00cc               @ LDR         R2, [PC, #180]              @ 0x00000000000000cc 
    /*00000014*/ MOV         R9, R1 
    /*00000018*/ LDR         R3, WORD_00d0               @ LDR         R3, [PC, #176]              @ 0x00000000000000d0 
    /*0000001c*/ ADD         R2, PC, R2 
    /*00000020*/ LDR         R4, [R2, R3] 
    /*00000024*/ LDR         R3, WORD_00d4               @ LDR         R3, [PC, #168]              @ 0x00000000000000d4 
    /*00000028*/ CMP         R4, #0 
    /*0000002c*/ MOVNE       R5, #0 
    /*00000030*/ LDRNE       R4, [R2, R3] 
    /*00000034*/ BEQ         _ZN4hirt11TaskMonitor14fetchReadyTaskEPj_x8c
    _ZN4hirt11TaskMonitor14fetchReadyTaskEPj_x38:
    /*00000038*/ ADD         R7, R4, #20 
    /*0000003c*/ BL          _ZN4hirt16TaskGroupManager11getInstanceEv
    /*00000040*/ MOV         R0, R7 
    /*00000044*/ MOV         R8, R5 
    /*00000048*/ BL          pthread_mutex_lock
    /*0000004c*/ CMP         R0, #0 
    /*00000050*/ BNE         _ZN4hirt11TaskMonitor14fetchReadyTaskEPj_xc8
    /*00000054*/ MOV         R0, R4 
    /*00000058*/ BL          _ZL31searchReadyTaskInModelGroupListPN4hirt17TaskGroupPriorityE
    /*0000005c*/ MOV         R6, R0 
    /*00000060*/ MOV         R0, R7 
    /*00000064*/ BL          pthread_mutex_unlock
    /*00000068*/ CMP         R6, #0 
    /*0000006c*/ BNE         _ZN4hirt11TaskMonitor14fetchReadyTaskEPj_xbc
    /*00000070*/ ADD         R5, R5, #1 
    /*00000074*/ ADD         R4, R4, #44                 @ 0x2c 
    /*00000078*/ CMP         R5, #5 
    /*0000007c*/ BNE         _ZN4hirt11TaskMonitor14fetchReadyTaskEPj_x38
    _ZN4hirt11TaskMonitor14fetchReadyTaskEPj_x80:
    /*00000080*/ MOV         R6, #0 
    /*00000084*/ MOV         R0, R6 
    /*00000088*/ POP         {R4, R5, R6, R7, R8, R9, SL, PC} 
    _ZN4hirt11TaskMonitor14fetchReadyTaskEPj_x8c:
    /*0000008c*/ LDR         R5, [R2, R3] 
    _ZN4hirt11TaskMonitor14fetchReadyTaskEPj_x90:
    /*00000090*/ MOV         R8, R4 
    /*00000094*/ BL          _ZN4hirt16TaskGroupManager11getInstanceEv
    /*00000098*/ MOV         R0, R5 
    /*0000009c*/ BL          _ZL31searchReadyTaskInModelGroupListPN4hirt17TaskGroupPriorityE
    /*000000a0*/ SUBS        R6, R0, #0 
    /*000000a4*/ BNE         _ZN4hirt11TaskMonitor14fetchReadyTaskEPj_xbc
    /*000000a8*/ ADD         R4, R4, #1 
    /*000000ac*/ ADD         R5, R5, #44                 @ 0x2c 
    /*000000b0*/ CMP         R4, #5 
    /*000000b4*/ BNE         _ZN4hirt11TaskMonitor14fetchReadyTaskEPj_x90
    /*000000b8*/ B           _ZN4hirt11TaskMonitor14fetchReadyTaskEPj_x80
    _ZN4hirt11TaskMonitor14fetchReadyTaskEPj_xbc:
    /*000000bc*/ STR         R8, [R9] 
    /*000000c0*/ MOV         R0, R6 
    /*000000c4*/ POP         {R4, R5, R6, R7, R8, R9, SL, PC} 
    _ZN4hirt11TaskMonitor14fetchReadyTaskEPj_xc8:
    /*000000c8*/ BL          _ZSt20__throw_system_errori
    /*000000cc*/ WORD_00cc: .word 0x000000a8
    /*000000d0*/ WORD_00d0: .word 0x00000000
    /*000000d4*/ WORD_00d4: .word 0x00000000
FUNC_END _ZN4hirt11TaskMonitor14fetchReadyTaskEPj


@ - - - - - - - - - - - - - - - - - - - - - - - - - - - - - 
@ .text._ZNSt11unique_lockISt5mutexE6unlockEv
@ Size: 0x64
@ - - - - - - - - - - - - - - - - - - - - - - - - - - - - - 

FUNC_BEGIN _ZNSt11unique_lockISt5mutexE6unlockEv
    /*00000000*/ MOV         IP, #16384                  @ 0x4000 
    /*00000004*/ PUSH        {R4, LR} 
    /*00000008*/ SUB         IP, SP, IP 
    /*0000000c*/ STR         R0, [IP, #4088]             @ 0xff8 
    /*00000010*/ LDRB        R2, [R0, #4] 
    /*00000014*/ LDR         R3, WORD_005c               @ LDR         R3, [PC, #64]               @ 0x000000000000005c 
    /*00000018*/ CMP         R2, #0 
    /*0000001c*/ ADD         R3, PC, R3 
    /*00000020*/ BEQ         _ZNSt11unique_lockISt5mutexE6unlockEv_x54
    /*00000024*/ MOV         R4, R0 
    /*00000028*/ LDR         R0, [R0] 
    /*0000002c*/ CMP         R0, #0 
    /*00000030*/ POPEQ       {R4, PC} 
    /*00000034*/ LDR         R2, WORD_0060               @ LDR         R2, [PC, #36]               @ 0x0000000000000060 
    /*00000038*/ LDR         R3, [R3, R2] 
    /*0000003c*/ CMP         R3, #0 
    /*00000040*/ BEQ         _ZNSt11unique_lockISt5mutexE6unlockEv_x48
    /*00000044*/ BL          pthread_mutex_unlock
    _ZNSt11unique_lockISt5mutexE6unlockEv_x48:
    /*00000048*/ MOV         R3, #0 
    /*0000004c*/ STRB        R3, [R4, #4] 
    /*00000050*/ POP         {R4, PC} 
    _ZNSt11unique_lockISt5mutexE6unlockEv_x54:
    /*00000054*/ MOV         R0, #1 
    /*00000058*/ BL          _ZSt20__throw_system_errori
    /*0000005c*/ WORD_005c: .word 0x00000038
    /*00000060*/ WORD_0060: .word 0x00000000
FUNC_END _ZNSt11unique_lockISt5mutexE6unlockEv


@ - - - - - - - - - - - - - - - - - - - - - - - - - - - - - 
@ .text._ZN4hirt11TaskMonitor19notifyNNIETaskReadyEv
@ Size: 0x114
@ - - - - - - - - - - - - - - - - - - - - - - - - - - - - - 

FUNC_BEGIN _ZN4hirt11TaskMonitor19notifyNNIETaskReadyEv
    /*00000000*/ MOV         IP, #16384                  @ 0x4000 
    /*00000004*/ PUSH        {R4, R5, R6, LR} 
    /*00000008*/ SUB         IP, SP, IP 
    /*0000000c*/ STR         R0, [IP, #4072]             @ 0xfe8 
    /*00000010*/ LDR         R2, WORD_00f8               @ LDR         R2, [PC, #224]              @ 0x00000000000000f8 
    /*00000014*/ SUB         SP, SP, #8 
    /*00000018*/ LDR         R0, WORD_00fc               @ LDR         R0, [PC, #220]              @ 0x00000000000000fc 
    /*0000001c*/ MOV         R1, #0 
    /*00000020*/ ADD         R2, PC, R2 
    /*00000024*/ LDR         R3, WORD_0100               @ LDR         R3, [PC, #212]              @ 0x0000000000000100 
    /*00000028*/ ADD         R0, PC, R0 
    /*0000002c*/ STR         R0, [SP] 
    /*00000030*/ STRB        R1, [SP, #4] 
    /*00000034*/ LDR         R4, [R2, R3] 
    /*00000038*/ CMP         R4, R1 
    /*0000003c*/ BEQ         _ZN4hirt11TaskMonitor19notifyNNIETaskReadyEv_xc0
    /*00000040*/ BL          pthread_mutex_lock
    /*00000044*/ CMP         R0, #0 
    /*00000048*/ BNE         _ZN4hirt11TaskMonitor19notifyNNIETaskReadyEv_xf4
    /*0000004c*/ LDR         R6, WORD_0104               @ LDR         R6, [PC, #176]              @ 0x0000000000000104 
    /*00000050*/ MOV         R5, #1 
    /*00000054*/ STRB        R5, [SP, #4] 
    /*00000058*/ ADD         R6, PC, R6 
    /*0000005c*/ MOV         R0, R6 
    /*00000060*/ BL          pthread_mutex_lock
    /*00000064*/ CMP         R0, #0 
    /*00000068*/ BNE         _ZN4hirt11TaskMonitor19notifyNNIETaskReadyEv_xd8
    /*0000006c*/ LDR         R3, WORD_0108               @ LDR         R3, [PC, #148]              @ 0x0000000000000108 
    /*00000070*/ MOV         R0, R6 
    /*00000074*/ ADD         R3, PC, R3 
    /*00000078*/ STR         R5, [R3] 
    /*0000007c*/ BL          pthread_mutex_unlock
    _ZN4hirt11TaskMonitor19notifyNNIETaskReadyEv_x80:
    /*00000080*/ LDR         R0, WORD_010c               @ LDR         R0, [PC, #132]              @ 0x000000000000010c 
    /*00000084*/ ADD         R0, PC, R0 
    /*00000088*/ BL          _ZNSt18condition_variable10notify_allEv
    /*0000008c*/ LDRB        R3, [SP, #4] 
    /*00000090*/ CMP         R3, #0 
    /*00000094*/ BNE         _ZN4hirt11TaskMonitor19notifyNNIETaskReadyEv_xa0
    _ZN4hirt11TaskMonitor19notifyNNIETaskReadyEv_x98:
    /*00000098*/ ADD         SP, SP, #8 
    /*0000009c*/ POP         {R4, R5, R6, PC} 
    _ZN4hirt11TaskMonitor19notifyNNIETaskReadyEv_xa0:
    /*000000a0*/ LDR         R0, [SP] 
    /*000000a4*/ CMP         R0, #0 
    /*000000a8*/ BEQ         _ZN4hirt11TaskMonitor19notifyNNIETaskReadyEv_x98
    /*000000ac*/ CMP         R4, #0 
    /*000000b0*/ BEQ         _ZN4hirt11TaskMonitor19notifyNNIETaskReadyEv_x98
    /*000000b4*/ BL          pthread_mutex_unlock
    /*000000b8*/ ADD         SP, SP, #8 
    /*000000bc*/ POP         {R4, R5, R6, PC} 
    _ZN4hirt11TaskMonitor19notifyNNIETaskReadyEv_xc0:
    /*000000c0*/ LDR         R3, WORD_0110               @ LDR         R3, [PC, #72]               @ 0x0000000000000110 
    /*000000c4*/ MOV         R2, #1 
    /*000000c8*/ STRB        R2, [SP, #4] 
    /*000000cc*/ ADD         R3, PC, R3 
    /*000000d0*/ STR         R2, [R3] 
    /*000000d4*/ B           _ZN4hirt11TaskMonitor19notifyNNIETaskReadyEv_x80
    _ZN4hirt11TaskMonitor19notifyNNIETaskReadyEv_xd8:
    /*000000d8*/ BL          _ZSt20__throw_system_errori
    /*000000dc*/ LDRB        R3, [SP, #4] 
    /*000000e0*/ CMP         R3, #0 
    /*000000e4*/ BEQ         _ZN4hirt11TaskMonitor19notifyNNIETaskReadyEv_xf0
    /*000000e8*/ MOV         R0, SP 
    /*000000ec*/ BL          _ZNSt11unique_lockISt5mutexE6unlockEv
    _ZN4hirt11TaskMonitor19notifyNNIETaskReadyEv_xf0:
    /*000000f0*/ BL          __cxa_end_cleanup
    _ZN4hirt11TaskMonitor19notifyNNIETaskReadyEv_xf4:
    /*000000f4*/ BL          _ZSt20__throw_system_errori
    /*000000f8*/ WORD_00f8: .word 0x000000d0
    /*000000fc*/ WORD_00fc: .word 0x000000cc
    /*00000100*/ WORD_0100: .word 0x00000000
    /*00000104*/ WORD_0104: .word 0x000000a4
    /*00000108*/ WORD_0108: .word 0x0000008c
    /*0000010c*/ WORD_010c: .word 0x00000080
    /*00000110*/ WORD_0110: .word 0x0000003c
FUNC_END _ZN4hirt11TaskMonitor19notifyNNIETaskReadyEv


@ - - - - - - - - - - - - - - - - - - - - - - - - - - - - - 
@ .ARM.extab.text._ZN4hirt11TaskMonitor19notifyNNIETaskReadyEv
@ Size: 0x17
@ - - - - - - - - - - - - - - - - - - - - - - - - - - - - - 

@ - - - - - - - - - - - - - - - - - - - - - - - - - - - - - 
@ .text._ZN4hirt11TaskMonitor23notifyCustomerTaskReadyEv
@ Size: 0x114
@ - - - - - - - - - - - - - - - - - - - - - - - - - - - - - 

FUNC_BEGIN _ZN4hirt11TaskMonitor23notifyCustomerTaskReadyEv
    /*00000000*/ MOV         IP, #16384                  @ 0x4000 
    /*00000004*/ PUSH        {R4, R5, R6, LR} 
    /*00000008*/ SUB         IP, SP, IP 
    /*0000000c*/ STR         R0, [IP, #4072]             @ 0xfe8 
    /*00000010*/ LDR         R2, WORD_00f8               @ LDR         R2, [PC, #224]              @ 0x00000000000000f8 
    /*00000014*/ SUB         SP, SP, #8 
    /*00000018*/ LDR         R0, WORD_00fc               @ LDR         R0, [PC, #220]              @ 0x00000000000000fc 
    /*0000001c*/ MOV         R1, #0 
    /*00000020*/ ADD         R2, PC, R2 
    /*00000024*/ LDR         R3, WORD_0100               @ LDR         R3, [PC, #212]              @ 0x0000000000000100 
    /*00000028*/ ADD         R0, PC, R0 
    /*0000002c*/ STR         R0, [SP] 
    /*00000030*/ STRB        R1, [SP, #4] 
    /*00000034*/ LDR         R4, [R2, R3] 
    /*00000038*/ CMP         R4, R1 
    /*0000003c*/ BEQ         _ZN4hirt11TaskMonitor23notifyCustomerTaskReadyEv_xc0
    /*00000040*/ BL          pthread_mutex_lock
    /*00000044*/ CMP         R0, #0 
    /*00000048*/ BNE         _ZN4hirt11TaskMonitor23notifyCustomerTaskReadyEv_xf4
    /*0000004c*/ LDR         R6, WORD_0104               @ LDR         R6, [PC, #176]              @ 0x0000000000000104 
    /*00000050*/ MOV         R5, #1 
    /*00000054*/ STRB        R5, [SP, #4] 
    /*00000058*/ ADD         R6, PC, R6 
    /*0000005c*/ MOV         R0, R6 
    /*00000060*/ BL          pthread_mutex_lock
    /*00000064*/ CMP         R0, #0 
    /*00000068*/ BNE         _ZN4hirt11TaskMonitor23notifyCustomerTaskReadyEv_xd8
    /*0000006c*/ LDR         R3, WORD_0108               @ LDR         R3, [PC, #148]              @ 0x0000000000000108 
    /*00000070*/ MOV         R0, R6 
    /*00000074*/ ADD         R3, PC, R3 
    /*00000078*/ STR         R5, [R3] 
    /*0000007c*/ BL          pthread_mutex_unlock
    _ZN4hirt11TaskMonitor23notifyCustomerTaskReadyEv_x80:
    /*00000080*/ LDR         R0, WORD_010c               @ LDR         R0, [PC, #132]              @ 0x000000000000010c 
    /*00000084*/ ADD         R0, PC, R0 
    /*00000088*/ BL          _ZNSt18condition_variable10notify_allEv
    /*0000008c*/ LDRB        R3, [SP, #4] 
    /*00000090*/ CMP         R3, #0 
    /*00000094*/ BNE         _ZN4hirt11TaskMonitor23notifyCustomerTaskReadyEv_xa0
    _ZN4hirt11TaskMonitor23notifyCustomerTaskReadyEv_x98:
    /*00000098*/ ADD         SP, SP, #8 
    /*0000009c*/ POP         {R4, R5, R6, PC} 
    _ZN4hirt11TaskMonitor23notifyCustomerTaskReadyEv_xa0:
    /*000000a0*/ LDR         R0, [SP] 
    /*000000a4*/ CMP         R0, #0 
    /*000000a8*/ BEQ         _ZN4hirt11TaskMonitor23notifyCustomerTaskReadyEv_x98
    /*000000ac*/ CMP         R4, #0 
    /*000000b0*/ BEQ         _ZN4hirt11TaskMonitor23notifyCustomerTaskReadyEv_x98
    /*000000b4*/ BL          pthread_mutex_unlock
    /*000000b8*/ ADD         SP, SP, #8 
    /*000000bc*/ POP         {R4, R5, R6, PC} 
    _ZN4hirt11TaskMonitor23notifyCustomerTaskReadyEv_xc0:
    /*000000c0*/ LDR         R3, WORD_0110               @ LDR         R3, [PC, #72]               @ 0x0000000000000110 
    /*000000c4*/ MOV         R2, #1 
    /*000000c8*/ STRB        R2, [SP, #4] 
    /*000000cc*/ ADD         R3, PC, R3 
    /*000000d0*/ STR         R2, [R3] 
    /*000000d4*/ B           _ZN4hirt11TaskMonitor23notifyCustomerTaskReadyEv_x80
    _ZN4hirt11TaskMonitor23notifyCustomerTaskReadyEv_xd8:
    /*000000d8*/ BL          _ZSt20__throw_system_errori
    /*000000dc*/ LDRB        R3, [SP, #4] 
    /*000000e0*/ CMP         R3, #0 
    /*000000e4*/ BEQ         _ZN4hirt11TaskMonitor23notifyCustomerTaskReadyEv_xf0
    /*000000e8*/ MOV         R0, SP 
    /*000000ec*/ BL          _ZNSt11unique_lockISt5mutexE6unlockEv
    _ZN4hirt11TaskMonitor23notifyCustomerTaskReadyEv_xf0:
    /*000000f0*/ BL          __cxa_end_cleanup
    _ZN4hirt11TaskMonitor23notifyCustomerTaskReadyEv_xf4:
    /*000000f4*/ BL          _ZSt20__throw_system_errori
    /*000000f8*/ WORD_00f8: .word 0x000000d0
    /*000000fc*/ WORD_00fc: .word 0x000000cc
    /*00000100*/ WORD_0100: .word 0x00000000
    /*00000104*/ WORD_0104: .word 0x000000a4
    /*00000108*/ WORD_0108: .word 0x0000008c
    /*0000010c*/ WORD_010c: .word 0x00000080
    /*00000110*/ WORD_0110: .word 0x0000003c
FUNC_END _ZN4hirt11TaskMonitor23notifyCustomerTaskReadyEv


@ - - - - - - - - - - - - - - - - - - - - - - - - - - - - - 
@ .ARM.extab.text._ZN4hirt11TaskMonitor23notifyCustomerTaskReadyEv
@ Size: 0x17
@ - - - - - - - - - - - - - - - - - - - - - - - - - - - - - 

@ - - - - - - - - - - - - - - - - - - - - - - - - - - - - - 
@ .text._ZN4hirt11TaskMonitor21waitLockNNIETaskReadyEv
@ Size: 0x214
@ - - - - - - - - - - - - - - - - - - - - - - - - - - - - - 

FUNC_BEGIN _ZN4hirt11TaskMonitor21waitLockNNIETaskReadyEv
    /*00000000*/ MOV         IP, #16384                  @ 0x4000 
    /*00000004*/ PUSH        {R4, R5, R6, R7, R8, R9, SL, LR} 
    /*00000008*/ VPUSH       {D8-D9} 
    /*0000000c*/ SUB         IP, SP, IP 
    /*00000010*/ STR         R0, [IP, #4024]             @ 0xfb8 
    /*00000014*/ LDR         R4, WORD_01e8               @ LDR         R4, [PC, #460]              @ 0x00000000000001e8 
    /*00000018*/ SUB         SP, SP, #24 
    /*0000001c*/ LDR         R0, WORD_01ec               @ LDR         R0, [PC, #456]              @ 0x00000000000001ec 
    /*00000020*/ MOV         R2, #0 
    /*00000024*/ ADD         R4, PC, R4 
    /*00000028*/ LDR         R3, WORD_01f0               @ LDR         R3, [PC, #448]              @ 0x00000000000001f0 
    /*0000002c*/ ADD         R0, PC, R0 
    /*00000030*/ STR         R0, [SP, #8] 
    /*00000034*/ STRB        R2, [SP, #12] 
    /*00000038*/ LDR         R9, [R4, R3] 
    /*0000003c*/ CMP         R9, R2 
    /*00000040*/ BEQ         _ZN4hirt11TaskMonitor21waitLockNNIETaskReadyEv_xb0
    /*00000044*/ BL          pthread_mutex_lock
    /*00000048*/ CMP         R0, #0 
    /*0000004c*/ BNE         _ZN4hirt11TaskMonitor21waitLockNNIETaskReadyEv_x1d4
    /*00000050*/ LDR         R3, WORD_01f4               @ LDR         R3, [PC, #412]              @ 0x00000000000001f4 
    /*00000054*/ MOV         R2, #1 
    /*00000058*/ STRB        R2, [SP, #12] 
    /*0000005c*/ ADD         R3, PC, R3 
    /*00000060*/ LDR         R3, [R3] 
    /*00000064*/ CMP         R3, #0 
    /*00000068*/ BEQ         _ZN4hirt11TaskMonitor21waitLockNNIETaskReadyEv_xcc
    _ZN4hirt11TaskMonitor21waitLockNNIETaskReadyEv_x6c:
    /*0000006c*/ LDR         R4, WORD_01f8               @ LDR         R4, [PC, #388]              @ 0x00000000000001f8 
    /*00000070*/ ADD         R4, PC, R4 
    /*00000074*/ MOV         R0, R4 
    /*00000078*/ BL          pthread_mutex_lock
    /*0000007c*/ SUBS        R2, R0, #0 
    /*00000080*/ BNE         _ZN4hirt11TaskMonitor21waitLockNNIETaskReadyEv_x1d0
    /*00000084*/ LDR         R3, WORD_01fc               @ LDR         R3, [PC, #368]              @ 0x00000000000001fc 
    /*00000088*/ MOV         R0, R4 
    /*0000008c*/ ADD         R3, PC, R3 
    /*00000090*/ STR         R2, [R3] 
    /*00000094*/ BL          pthread_mutex_unlock
    /*00000098*/ LDRB        R3, [SP, #12] 
    /*0000009c*/ CMP         R3, #0 
    /*000000a0*/ BNE         _ZN4hirt11TaskMonitor21waitLockNNIETaskReadyEv_x194
    _ZN4hirt11TaskMonitor21waitLockNNIETaskReadyEv_xa4:
    /*000000a4*/ ADD         SP, SP, #24 
    /*000000a8*/ VPOP        {D8-D9} 
    /*000000ac*/ POP         {R4, R5, R6, R7, R8, R9, SL, PC} 
    _ZN4hirt11TaskMonitor21waitLockNNIETaskReadyEv_xb0:
    /*000000b0*/ LDR         R3, WORD_0200               @ LDR         R3, [PC, #328]              @ 0x0000000000000200 
    /*000000b4*/ MOV         R2, #1 
    /*000000b8*/ STRB        R2, [SP, #12] 
    /*000000bc*/ ADD         R3, PC, R3 
    /*000000c0*/ LDR         R3, [R3] 
    /*000000c4*/ CMP         R3, #0 
    /*000000c8*/ BNE         _ZN4hirt11TaskMonitor21waitLockNNIETaskReadyEv_x178
    _ZN4hirt11TaskMonitor21waitLockNNIETaskReadyEv_xcc:
    /*000000cc*/ LDR         R3, WORD_0204               @ LDR         R3, [PC, #304]              @ 0x0000000000000204 
    /*000000d0*/ LDR         SL, [R4, R3] 
    /*000000d4*/ LDR         R3, [SL] 
    /*000000d8*/ CMP         R3, #0 
    /*000000dc*/ BNE         _ZN4hirt11TaskMonitor21waitLockNNIETaskReadyEv_x170
    /*000000e0*/ LDR         R7, WORD_0208               @ LDR         R7, [PC, #288]              @ 0x0000000000000208 
    /*000000e4*/ MOV         R6, SP 
    /*000000e8*/ VLDR        D9, [PC, #232]              @ 0x00000000000001d8 
    /*000000ec*/ VLDR        D8, [PC, #236]              @ 0x00000000000001e0 
    /*000000f0*/ ADD         R7, PC, R7 
    /*000000f4*/ ADD         R8, SP, #16 
    _ZN4hirt11TaskMonitor21waitLockNNIETaskReadyEv_xf8:
    /*000000f8*/ MOV         R0, R6 
    /*000000fc*/ BL          _ZNSt6chrono3_V212system_clock3nowEv
    /*00000100*/ LDRD        R4, [SP] 
    /*00000104*/ VMOV        R0, R1, D9 
    /*00000108*/ VMOV        R2, R3, D8 
    /*0000010c*/ ADDS        R0, R0, R4 
    /*00000110*/ ADC         R1, R1, R5 
    /*00000114*/ MOV         R4, R0 
    /*00000118*/ MOV         R5, R1 
    /*0000011c*/ BL          __aeabi_ldivmod
    /*00000120*/ STR         R0, [SP, #16] 
    /*00000124*/ MOV         R1, R5 
    /*00000128*/ VMOV        R2, R3, D8 
    /*0000012c*/ MOV         R0, R4 
    /*00000130*/ BL          __aeabi_ldivmod
    /*00000134*/ STR         R2, [SP, #20] 
    /*00000138*/ MOV         R0, R7 
    /*0000013c*/ LDR         R1, [SP, #8] 
    /*00000140*/ MOV         R2, R8 
    /*00000144*/ BL          pthread_cond_timedwait
    /*00000148*/ MOV         R0, R6 
    /*0000014c*/ BL          _ZNSt6chrono3_V212system_clock3nowEv
    /*00000150*/ LDR         R3, WORD_020c               @ LDR         R3, [PC, #180]              @ 0x000000000000020c 
    /*00000154*/ ADD         R3, PC, R3 
    /*00000158*/ LDR         R3, [R3] 
    /*0000015c*/ CMP         R3, #0 
    /*00000160*/ BNE         _ZN4hirt11TaskMonitor21waitLockNNIETaskReadyEv_x170
    /*00000164*/ LDR         R3, [SL] 
    /*00000168*/ CMP         R3, #0 
    /*0000016c*/ BEQ         _ZN4hirt11TaskMonitor21waitLockNNIETaskReadyEv_xf8
    _ZN4hirt11TaskMonitor21waitLockNNIETaskReadyEv_x170:
    /*00000170*/ CMP         R9, #0 
    /*00000174*/ BNE         _ZN4hirt11TaskMonitor21waitLockNNIETaskReadyEv_x6c
    _ZN4hirt11TaskMonitor21waitLockNNIETaskReadyEv_x178:
    /*00000178*/ LDR         R3, WORD_0210               @ LDR         R3, [PC, #144]              @ 0x0000000000000210 
    /*0000017c*/ MOV         R2, #0 
    /*00000180*/ ADD         R3, PC, R3 
    /*00000184*/ STR         R2, [R3] 
    /*00000188*/ LDRB        R3, [SP, #12] 
    /*0000018c*/ CMP         R3, #0 
    /*00000190*/ BEQ         _ZN4hirt11TaskMonitor21waitLockNNIETaskReadyEv_xa4
    _ZN4hirt11TaskMonitor21waitLockNNIETaskReadyEv_x194:
    /*00000194*/ LDR         R0, [SP, #8] 
    /*00000198*/ CMP         R0, #0 
    /*0000019c*/ BEQ         _ZN4hirt11TaskMonitor21waitLockNNIETaskReadyEv_xa4
    /*000001a0*/ CMP         R9, #0 
    /*000001a4*/ BEQ         _ZN4hirt11TaskMonitor21waitLockNNIETaskReadyEv_xa4
    /*000001a8*/ BL          pthread_mutex_unlock
    /*000001ac*/ ADD         SP, SP, #24 
    /*000001b0*/ VPOP        {D8-D9} 
    /*000001b4*/ POP         {R4, R5, R6, R7, R8, R9, SL, PC} 
    /*000001b8*/ LDRB        R3, [SP, #12] 
    /*000001bc*/ CMP         R3, #0 
    /*000001c0*/ BEQ         _ZN4hirt11TaskMonitor21waitLockNNIETaskReadyEv_x1cc
    /*000001c4*/ ADD         R0, SP, #8 
    /*000001c8*/ BL          _ZNSt11unique_lockISt5mutexE6unlockEv
    _ZN4hirt11TaskMonitor21waitLockNNIETaskReadyEv_x1cc:
    /*000001cc*/ BL          __cxa_end_cleanup
    _ZN4hirt11TaskMonitor21waitLockNNIETaskReadyEv_x1d0:
    /*000001d0*/ BL          _ZSt20__throw_system_errori
    _ZN4hirt11TaskMonitor21waitLockNNIETaskReadyEv_x1d4:
    /*000001d4*/ BL          _ZSt20__throw_system_errori
    /*000001d8*/ CFSTR64NE   MVDX6, [SP] 
    /*000001dc*/ ANDEQ       R0, R0, R0 
    /*000001e0*/ BLCC        0xFFFFFFFFFE6B29E8 
    /*000001e4*/ ANDEQ       R0, R0, R0 
    /*000001e8*/ WORD_01e8: .word 0x000001bc
    /*000001ec*/ WORD_01ec: .word 0x000001b8
    /*000001f0*/ WORD_01f0: .word 0x00000000
    /*000001f4*/ WORD_01f4: .word 0x00000190
    /*000001f8*/ WORD_01f8: .word 0x00000180
    /*000001fc*/ WORD_01fc: .word 0x00000168
    /*00000200*/ WORD_0200: .word 0x0000013c
    /*00000204*/ WORD_0204: .word 0x00000000
    /*00000208*/ WORD_0208: .word 0x00000110
    /*0000020c*/ WORD_020c: .word 0x000000b0
    /*00000210*/ WORD_0210: .word 0x00000088
FUNC_END _ZN4hirt11TaskMonitor21waitLockNNIETaskReadyEv


@ - - - - - - - - - - - - - - - - - - - - - - - - - - - - - 
@ .ARM.extab.text._ZN4hirt11TaskMonitor21waitLockNNIETaskReadyEv
@ Size: 0x26
@ - - - - - - - - - - - - - - - - - - - - - - - - - - - - - 

@ - - - - - - - - - - - - - - - - - - - - - - - - - - - - - 
@ .text._ZN4hirt11TaskMonitor25waitLockCustomerTaskReadyEv
@ Size: 0x214
@ - - - - - - - - - - - - - - - - - - - - - - - - - - - - - 

FUNC_BEGIN _ZN4hirt11TaskMonitor25waitLockCustomerTaskReadyEv
    /*00000000*/ MOV         IP, #16384                  @ 0x4000 
    /*00000004*/ PUSH        {R4, R5, R6, R7, R8, R9, SL, LR} 
    /*00000008*/ VPUSH       {D8-D9} 
    /*0000000c*/ SUB         IP, SP, IP 
    /*00000010*/ STR         R0, [IP, #4024]             @ 0xfb8 
    /*00000014*/ LDR         R4, WORD_01e8               @ LDR         R4, [PC, #460]              @ 0x00000000000001e8 
    /*00000018*/ SUB         SP, SP, #24 
    /*0000001c*/ LDR         R0, WORD_01ec               @ LDR         R0, [PC, #456]              @ 0x00000000000001ec 
    /*00000020*/ MOV         R2, #0 
    /*00000024*/ ADD         R4, PC, R4 
    /*00000028*/ LDR         R3, WORD_01f0               @ LDR         R3, [PC, #448]              @ 0x00000000000001f0 
    /*0000002c*/ ADD         R0, PC, R0 
    /*00000030*/ STR         R0, [SP, #8] 
    /*00000034*/ STRB        R2, [SP, #12] 
    /*00000038*/ LDR         R9, [R4, R3] 
    /*0000003c*/ CMP         R9, R2 
    /*00000040*/ BEQ         _ZN4hirt11TaskMonitor25waitLockCustomerTaskReadyEv_xb0
    /*00000044*/ BL          pthread_mutex_lock
    /*00000048*/ CMP         R0, #0 
    /*0000004c*/ BNE         _ZN4hirt11TaskMonitor25waitLockCustomerTaskReadyEv_x1d4
    /*00000050*/ LDR         R3, WORD_01f4               @ LDR         R3, [PC, #412]              @ 0x00000000000001f4 
    /*00000054*/ MOV         R2, #1 
    /*00000058*/ STRB        R2, [SP, #12] 
    /*0000005c*/ ADD         R3, PC, R3 
    /*00000060*/ LDR         R3, [R3] 
    /*00000064*/ CMP         R3, #0 
    /*00000068*/ BEQ         _ZN4hirt11TaskMonitor25waitLockCustomerTaskReadyEv_xcc
    _ZN4hirt11TaskMonitor25waitLockCustomerTaskReadyEv_x6c:
    /*0000006c*/ LDR         R4, WORD_01f8               @ LDR         R4, [PC, #388]              @ 0x00000000000001f8 
    /*00000070*/ ADD         R4, PC, R4 
    /*00000074*/ MOV         R0, R4 
    /*00000078*/ BL          pthread_mutex_lock
    /*0000007c*/ SUBS        R2, R0, #0 
    /*00000080*/ BNE         _ZN4hirt11TaskMonitor25waitLockCustomerTaskReadyEv_x1d0
    /*00000084*/ LDR         R3, WORD_01fc               @ LDR         R3, [PC, #368]              @ 0x00000000000001fc 
    /*00000088*/ MOV         R0, R4 
    /*0000008c*/ ADD         R3, PC, R3 
    /*00000090*/ STR         R2, [R3] 
    /*00000094*/ BL          pthread_mutex_unlock
    /*00000098*/ LDRB        R3, [SP, #12] 
    /*0000009c*/ CMP         R3, #0 
    /*000000a0*/ BNE         _ZN4hirt11TaskMonitor25waitLockCustomerTaskReadyEv_x194
    _ZN4hirt11TaskMonitor25waitLockCustomerTaskReadyEv_xa4:
    /*000000a4*/ ADD         SP, SP, #24 
    /*000000a8*/ VPOP        {D8-D9} 
    /*000000ac*/ POP         {R4, R5, R6, R7, R8, R9, SL, PC} 
    _ZN4hirt11TaskMonitor25waitLockCustomerTaskReadyEv_xb0:
    /*000000b0*/ LDR         R3, WORD_0200               @ LDR         R3, [PC, #328]              @ 0x0000000000000200 
    /*000000b4*/ MOV         R2, #1 
    /*000000b8*/ STRB        R2, [SP, #12] 
    /*000000bc*/ ADD         R3, PC, R3 
    /*000000c0*/ LDR         R3, [R3] 
    /*000000c4*/ CMP         R3, #0 
    /*000000c8*/ BNE         _ZN4hirt11TaskMonitor25waitLockCustomerTaskReadyEv_x178
    _ZN4hirt11TaskMonitor25waitLockCustomerTaskReadyEv_xcc:
    /*000000cc*/ LDR         R3, WORD_0204               @ LDR         R3, [PC, #304]              @ 0x0000000000000204 
    /*000000d0*/ LDR         SL, [R4, R3] 
    /*000000d4*/ LDR         R3, [SL] 
    /*000000d8*/ CMP         R3, #0 
    /*000000dc*/ BNE         _ZN4hirt11TaskMonitor25waitLockCustomerTaskReadyEv_x170
    /*000000e0*/ LDR         R7, WORD_0208               @ LDR         R7, [PC, #288]              @ 0x0000000000000208 
    /*000000e4*/ MOV         R6, SP 
    /*000000e8*/ VLDR        D9, [PC, #232]              @ 0x00000000000001d8 
    /*000000ec*/ VLDR        D8, [PC, #236]              @ 0x00000000000001e0 
    /*000000f0*/ ADD         R7, PC, R7 
    /*000000f4*/ ADD         R8, SP, #16 
    _ZN4hirt11TaskMonitor25waitLockCustomerTaskReadyEv_xf8:
    /*000000f8*/ MOV         R0, R6 
    /*000000fc*/ BL          _ZNSt6chrono3_V212system_clock3nowEv
    /*00000100*/ LDRD        R4, [SP] 
    /*00000104*/ VMOV        R0, R1, D9 
    /*00000108*/ VMOV        R2, R3, D8 
    /*0000010c*/ ADDS        R0, R0, R4 
    /*00000110*/ ADC         R1, R1, R5 
    /*00000114*/ MOV         R4, R0 
    /*00000118*/ MOV         R5, R1 
    /*0000011c*/ BL          __aeabi_ldivmod
    /*00000120*/ STR         R0, [SP, #16] 
    /*00000124*/ MOV         R1, R5 
    /*00000128*/ VMOV        R2, R3, D8 
    /*0000012c*/ MOV         R0, R4 
    /*00000130*/ BL          __aeabi_ldivmod
    /*00000134*/ STR         R2, [SP, #20] 
    /*00000138*/ MOV         R0, R7 
    /*0000013c*/ LDR         R1, [SP, #8] 
    /*00000140*/ MOV         R2, R8 
    /*00000144*/ BL          pthread_cond_timedwait
    /*00000148*/ MOV         R0, R6 
    /*0000014c*/ BL          _ZNSt6chrono3_V212system_clock3nowEv
    /*00000150*/ LDR         R3, WORD_020c               @ LDR         R3, [PC, #180]              @ 0x000000000000020c 
    /*00000154*/ ADD         R3, PC, R3 
    /*00000158*/ LDR         R3, [R3] 
    /*0000015c*/ CMP         R3, #0 
    /*00000160*/ BNE         _ZN4hirt11TaskMonitor25waitLockCustomerTaskReadyEv_x170
    /*00000164*/ LDR         R3, [SL] 
    /*00000168*/ CMP         R3, #0 
    /*0000016c*/ BEQ         _ZN4hirt11TaskMonitor25waitLockCustomerTaskReadyEv_xf8
    _ZN4hirt11TaskMonitor25waitLockCustomerTaskReadyEv_x170:
    /*00000170*/ CMP         R9, #0 
    /*00000174*/ BNE         _ZN4hirt11TaskMonitor25waitLockCustomerTaskReadyEv_x6c
    _ZN4hirt11TaskMonitor25waitLockCustomerTaskReadyEv_x178:
    /*00000178*/ LDR         R3, WORD_0210               @ LDR         R3, [PC, #144]              @ 0x0000000000000210 
    /*0000017c*/ MOV         R2, #0 
    /*00000180*/ ADD         R3, PC, R3 
    /*00000184*/ STR         R2, [R3] 
    /*00000188*/ LDRB        R3, [SP, #12] 
    /*0000018c*/ CMP         R3, #0 
    /*00000190*/ BEQ         _ZN4hirt11TaskMonitor25waitLockCustomerTaskReadyEv_xa4
    _ZN4hirt11TaskMonitor25waitLockCustomerTaskReadyEv_x194:
    /*00000194*/ LDR         R0, [SP, #8] 
    /*00000198*/ CMP         R0, #0 
    /*0000019c*/ BEQ         _ZN4hirt11TaskMonitor25waitLockCustomerTaskReadyEv_xa4
    /*000001a0*/ CMP         R9, #0 
    /*000001a4*/ BEQ         _ZN4hirt11TaskMonitor25waitLockCustomerTaskReadyEv_xa4
    /*000001a8*/ BL          pthread_mutex_unlock
    /*000001ac*/ ADD         SP, SP, #24 
    /*000001b0*/ VPOP        {D8-D9} 
    /*000001b4*/ POP         {R4, R5, R6, R7, R8, R9, SL, PC} 
    /*000001b8*/ LDRB        R3, [SP, #12] 
    /*000001bc*/ CMP         R3, #0 
    /*000001c0*/ BEQ         _ZN4hirt11TaskMonitor25waitLockCustomerTaskReadyEv_x1cc
    /*000001c4*/ ADD         R0, SP, #8 
    /*000001c8*/ BL          _ZNSt11unique_lockISt5mutexE6unlockEv
    _ZN4hirt11TaskMonitor25waitLockCustomerTaskReadyEv_x1cc:
    /*000001cc*/ BL          __cxa_end_cleanup
    _ZN4hirt11TaskMonitor25waitLockCustomerTaskReadyEv_x1d0:
    /*000001d0*/ BL          _ZSt20__throw_system_errori
    _ZN4hirt11TaskMonitor25waitLockCustomerTaskReadyEv_x1d4:
    /*000001d4*/ BL          _ZSt20__throw_system_errori
    /*000001d8*/ CFSTR64NE   MVDX6, [SP] 
    /*000001dc*/ ANDEQ       R0, R0, R0 
    /*000001e0*/ BLCC        0xFFFFFFFFFE6B29E8 
    /*000001e4*/ ANDEQ       R0, R0, R0 
    /*000001e8*/ WORD_01e8: .word 0x000001bc
    /*000001ec*/ WORD_01ec: .word 0x000001b8
    /*000001f0*/ WORD_01f0: .word 0x00000000
    /*000001f4*/ WORD_01f4: .word 0x00000190
    /*000001f8*/ WORD_01f8: .word 0x00000180
    /*000001fc*/ WORD_01fc: .word 0x00000168
    /*00000200*/ WORD_0200: .word 0x0000013c
    /*00000204*/ WORD_0204: .word 0x00000000
    /*00000208*/ WORD_0208: .word 0x00000110
    /*0000020c*/ WORD_020c: .word 0x000000b0
    /*00000210*/ WORD_0210: .word 0x00000088
FUNC_END _ZN4hirt11TaskMonitor25waitLockCustomerTaskReadyEv


@ - - - - - - - - - - - - - - - - - - - - - - - - - - - - - 
@ .ARM.extab.text._ZN4hirt11TaskMonitor25waitLockCustomerTaskReadyEv
@ Size: 0x26
@ - - - - - - - - - - - - - - - - - - - - - - - - - - - - - 

@ - - - - - - - - - - - - - - - - - - - - - - - - - - - - - 
@ .text._ZNSt6vectorIPN4hirt7SegTaskESaIS2_EE19_M_emplace_back_auxIJRKS2_EEEvDpOT_
@ Size: 0xd4
@ - - - - - - - - - - - - - - - - - - - - - - - - - - - - - 

FUNC_BEGIN _ZNSt6vectorIPN4hirt7SegTaskESaIS2_EE19_M_emplace_back_auxIJRKS2_EEEvDpOT_
    /*00000000*/ MOV         IP, #16384                  @ 0x4000 
    /*00000004*/ PUSH        {R4, R5, R6, R7, R8, R9, SL, LR} 
    /*00000008*/ SUB         IP, SP, IP 
    /*0000000c*/ STR         R0, [IP, #4064]             @ 0xfe0 
    /*00000010*/ LDM         R0, {R2, R3} 
    /*00000014*/ MOV         R6, R0 
    /*00000018*/ MOV         R9, R1 
    /*0000001c*/ SUB         R3, R3, R2 
    /*00000020*/ ASRS        R3, R3, #2 
    /*00000024*/ BEQ         _ZNSt6vectorIPN4hirt7SegTaskESaIS2_EE19_M_emplace_back_auxIJRKS2_EEEvDpOT__x3c
    /*00000028*/ LSL         R5, R3, #1 
    /*0000002c*/ CMP         R3, R5 
    /*00000030*/ BLS         _ZNSt6vectorIPN4hirt7SegTaskESaIS2_EE19_M_emplace_back_auxIJRKS2_EEEvDpOT__xb8
    _ZNSt6vectorIPN4hirt7SegTaskESaIS2_EE19_M_emplace_back_auxIJRKS2_EEEvDpOT__x34:
    /*00000034*/ MVN         R5, #3 
    /*00000038*/ B           _ZNSt6vectorIPN4hirt7SegTaskESaIS2_EE19_M_emplace_back_auxIJRKS2_EEEvDpOT__x40
    _ZNSt6vectorIPN4hirt7SegTaskESaIS2_EE19_M_emplace_back_auxIJRKS2_EEEvDpOT__x3c:
    /*0000003c*/ MOV         R5, #4 
    _ZNSt6vectorIPN4hirt7SegTaskESaIS2_EE19_M_emplace_back_auxIJRKS2_EEEvDpOT__x40:
    /*00000040*/ MOV         R0, R5 
    /*00000044*/ BL          _Znwj
    /*00000048*/ MOV         R7, R0 
    _ZNSt6vectorIPN4hirt7SegTaskESaIS2_EE19_M_emplace_back_auxIJRKS2_EEEvDpOT__x4c:
    /*0000004c*/ LDR         R8, [R6] 
    /*00000050*/ LDR         R4, [R6, #4] 
    /*00000054*/ LDR         R2, [R9] 
    /*00000058*/ SUB         R4, R4, R8 
    /*0000005c*/ CMN         R7, R4 
    /*00000060*/ ASR         R3, R4, #2 
    /*00000064*/ STRNE       R2, [R7, R4] 
    /*00000068*/ CMP         R3, #0 
    /*0000006c*/ BNE         _ZNSt6vectorIPN4hirt7SegTaskESaIS2_EE19_M_emplace_back_auxIJRKS2_EEEvDpOT__x9c
    /*00000070*/ CMP         R8, #0 
    /*00000074*/ ADD         R4, R4, #4 
    /*00000078*/ ADD         R4, R7, R4 
    /*0000007c*/ BEQ         _ZNSt6vectorIPN4hirt7SegTaskESaIS2_EE19_M_emplace_back_auxIJRKS2_EEEvDpOT__x88
    _ZNSt6vectorIPN4hirt7SegTaskESaIS2_EE19_M_emplace_back_auxIJRKS2_EEEvDpOT__x80:
    /*00000080*/ MOV         R0, R8 
    /*00000084*/ BL          _ZdlPv
    _ZNSt6vectorIPN4hirt7SegTaskESaIS2_EE19_M_emplace_back_auxIJRKS2_EEEvDpOT__x88:
    /*00000088*/ ADD         R5, R7, R5 
    /*0000008c*/ STR         R5, [R6, #8] 
    /*00000090*/ STR         R7, [R6] 
    /*00000094*/ STR         R4, [R6, #4] 
    /*00000098*/ POP         {R4, R5, R6, R7, R8, R9, SL, PC} 
    _ZNSt6vectorIPN4hirt7SegTaskESaIS2_EE19_M_emplace_back_auxIJRKS2_EEEvDpOT__x9c:
    /*0000009c*/ MOV         R2, R4 
    /*000000a0*/ MOV         R1, R8 
    /*000000a4*/ MOV         R0, R7 
    /*000000a8*/ ADD         R4, R4, #4 
    /*000000ac*/ ADD         R4, R7, R4 
    /*000000b0*/ BL          memmove
    /*000000b4*/ B           _ZNSt6vectorIPN4hirt7SegTaskESaIS2_EE19_M_emplace_back_auxIJRKS2_EEEvDpOT__x80
    _ZNSt6vectorIPN4hirt7SegTaskESaIS2_EE19_M_emplace_back_auxIJRKS2_EEEvDpOT__xb8:
    /*000000b8*/ CMN         R5, #-1073741823            @ 0xc0000001 
    /*000000bc*/ BHI         _ZNSt6vectorIPN4hirt7SegTaskESaIS2_EE19_M_emplace_back_auxIJRKS2_EEEvDpOT__x34
    /*000000c0*/ CMP         R5, #0 
    /*000000c4*/ LSLNE       R5, R3, #3 
    /*000000c8*/ BNE         _ZNSt6vectorIPN4hirt7SegTaskESaIS2_EE19_M_emplace_back_auxIJRKS2_EEEvDpOT__x40
    /*000000cc*/ MOV         R7, R5 
    /*000000d0*/ B           _ZNSt6vectorIPN4hirt7SegTaskESaIS2_EE19_M_emplace_back_auxIJRKS2_EEEvDpOT__x4c
FUNC_END _ZNSt6vectorIPN4hirt7SegTaskESaIS2_EE19_M_emplace_back_auxIJRKS2_EEEvDpOT_


@ - - - - - - - - - - - - - - - - - - - - - - - - - - - - - 
@ .text._ZN4hirt11TaskMonitor20runTaskMonitorThreadEPS0_
@ Size: 0x2e0
@ - - - - - - - - - - - - - - - - - - - - - - - - - - - - - 

FUNC_BEGIN _ZN4hirt11TaskMonitor20runTaskMonitorThreadEPS0_
    /*00000000*/ MOV         IP, #16384                  @ 0x4000 
    /*00000004*/ PUSH        {R4, R5, R6, R7, R8, R9, SL, FP, LR} 
    /*00000008*/ SUB         IP, SP, IP 
    /*0000000c*/ STR         R0, [IP, #3776]             @ 0xec0 
    /*00000010*/ LDR         R6, WORD_02a4               @ LDR         R6, [PC, #652]              @ 0x00000000000002a4 
    /*00000014*/ SUB         SP, SP, #284                @ 0x11c 
    /*00000018*/ LDR         R8, WORD_02a8               @ LDR         R8, [PC, #648]              @ 0x00000000000002a8 
    /*0000001c*/ ADD         R3, SP, #152                @ 0x98 
    /*00000020*/ ADD         R6, PC, R6 
    /*00000024*/ ADD         R5, SP, #24 
    /*00000028*/ STR         R3, [SP, #12] 
    /*0000002c*/ MOV         R7, R3 
    /*00000030*/ ADD         R8, PC, R8 
    /*00000034*/ ADD         R1, R0, #8 
    /*00000038*/ MOV         R4, #0 
    /*0000003c*/ MOV         R2, #128                    @ 0x80 
    /*00000040*/ STR         R4, [R6] 
    /*00000044*/ MOV         R0, R5 
    /*00000048*/ BL          memcpy
    /*0000004c*/ MOV         R1, R4 
    /*00000050*/ MOV         R2, #128                    @ 0x80 
    /*00000054*/ MOV         R0, R7 
    /*00000058*/ BL          memset
    /*0000005c*/ MOV         R1, R5 
    /*00000060*/ MOV         R0, R7 
    /*00000064*/ MOV         R2, #128                    @ 0x80 
    /*00000068*/ BL          memcmp
    /*0000006c*/ SUBS        R4, R0, #0 
    /*00000070*/ BNE         _ZN4hirt11TaskMonitor20runTaskMonitorThreadEPS0__x25c
    _ZN4hirt11TaskMonitor20runTaskMonitorThreadEPS0__x74:
    /*00000074*/ LDR         R3, WORD_02ac               @ LDR         R3, [PC, #560]              @ 0x00000000000002ac 
    /*00000078*/ CMP         R4, #0 
    /*0000007c*/ LDR         R9, WORD_02b0               @ LDR         R9, [PC, #556]              @ 0x00000000000002b0 
    /*00000080*/ ADD         R3, PC, R3 
    /*00000084*/ STR         R3, [SP, #8] 
    /*00000088*/ LDR         R3, WORD_02b4               @ LDR         R3, [PC, #548]              @ 0x00000000000002b4 
    /*0000008c*/ ADD         R9, PC, R9 
    /*00000090*/ ADD         R3, PC, R3 
    /*00000094*/ STR         R3, [SP, #4] 
    /*00000098*/ BNE         _ZN4hirt11TaskMonitor20runTaskMonitorThreadEPS0__x110
    _ZN4hirt11TaskMonitor20runTaskMonitorThreadEPS0__x9c:
    /*0000009c*/ LDR         R3, WORD_02b8               @ LDR         R3, [PC, #532]              @ 0x00000000000002b8 
    /*000000a0*/ LDR         R7, [R8, R3] 
    /*000000a4*/ LDR         R3, WORD_02bc               @ LDR         R3, [PC, #528]              @ 0x00000000000002bc 
    /*000000a8*/ CMP         R7, #0 
    /*000000ac*/ LDRNE       SL, [R8, R3] 
    /*000000b0*/ BEQ         _ZN4hirt11TaskMonitor20runTaskMonitorThreadEPS0__x11c
    _ZN4hirt11TaskMonitor20runTaskMonitorThreadEPS0__xb4:
    /*000000b4*/ ADD         R5, SL, #20 
    /*000000b8*/ BL          _ZN4hirt16TaskGroupManager11getInstanceEv
    /*000000bc*/ MOV         R0, R5 
    /*000000c0*/ MOV         R6, R4 
    /*000000c4*/ BL          pthread_mutex_lock
    /*000000c8*/ CMP         R0, #0 
    /*000000cc*/ BNE         _ZN4hirt11TaskMonitor20runTaskMonitorThreadEPS0__x2a0
    /*000000d0*/ MOV         R0, SL 
    /*000000d4*/ BL          _ZL31searchReadyTaskInModelGroupListPN4hirt17TaskGroupPriorityE
    /*000000d8*/ MOV         FP, R0 
    /*000000dc*/ MOV         R0, R5 
    /*000000e0*/ BL          pthread_mutex_unlock
    /*000000e4*/ CMP         FP, #0 
    /*000000e8*/ BNE         _ZN4hirt11TaskMonitor20runTaskMonitorThreadEPS0__x14c
    /*000000ec*/ ADD         R4, R4, #1 
    /*000000f0*/ ADD         SL, SL, #44                 @ 0x2c 
    /*000000f4*/ CMP         R4, #5 
    /*000000f8*/ BNE         _ZN4hirt11TaskMonitor20runTaskMonitorThreadEPS0__xb4
    _ZN4hirt11TaskMonitor20runTaskMonitorThreadEPS0__xfc:
    /*000000fc*/ BL          _ZN4hirt13RunningThread17waitLockTaskFinshEv
    _ZN4hirt11TaskMonitor20runTaskMonitorThreadEPS0__x100:
    /*00000100*/ LDR         R3, WORD_02c0               @ LDR         R3, [PC, #440]              @ 0x00000000000002c0 
    /*00000104*/ LDR         R4, [PC, R3] 
    /*00000108*/ CMP         R4, #0 
    /*0000010c*/ BEQ         _ZN4hirt11TaskMonitor20runTaskMonitorThreadEPS0__x9c
    _ZN4hirt11TaskMonitor20runTaskMonitorThreadEPS0__x110:
    /*00000110*/ MOV         R0, #0 
    /*00000114*/ ADD         SP, SP, #284                @ 0x11c 
    /*00000118*/ POP         {R4, R5, R6, R7, R8, R9, SL, FP, PC} 
    _ZN4hirt11TaskMonitor20runTaskMonitorThreadEPS0__x11c:
    /*0000011c*/ LDR         R5, [R8, R3] 
    _ZN4hirt11TaskMonitor20runTaskMonitorThreadEPS0__x120:
    /*00000120*/ MOV         R6, R4 
    /*00000124*/ BL          _ZN4hirt16TaskGroupManager11getInstanceEv
    /*00000128*/ MOV         R0, R5 
    /*0000012c*/ BL          _ZL31searchReadyTaskInModelGroupListPN4hirt17TaskGroupPriorityE
    /*00000130*/ SUBS        FP, R0, #0 
    /*00000134*/ BNE         _ZN4hirt11TaskMonitor20runTaskMonitorThreadEPS0__x1d0
    /*00000138*/ ADD         R4, R4, #1 
    /*0000013c*/ ADD         R5, R5, #44                 @ 0x2c 
    /*00000140*/ CMP         R4, #5 
    /*00000144*/ BNE         _ZN4hirt11TaskMonitor20runTaskMonitorThreadEPS0__x120
    /*00000148*/ B           _ZN4hirt11TaskMonitor20runTaskMonitorThreadEPS0__xfc
    _ZN4hirt11TaskMonitor20runTaskMonitorThreadEPS0__x14c:
    /*0000014c*/ LDR         R3, [FP, #4] 
    /*00000150*/ CMP         R3, #1 
    /*00000154*/ BNE         _ZN4hirt11TaskMonitor20runTaskMonitorThreadEPS0__x1e0
    /*00000158*/ LDR         R0, WORD_02c4               @ LDR         R0, [PC, #356]              @ 0x00000000000002c4 
    /*0000015c*/ STR         FP, [SP, #20] 
    /*00000160*/ ADD         R0, PC, R0 
    /*00000164*/ BL          pthread_mutex_lock
    /*00000168*/ CMP         R0, #0 
    /*0000016c*/ BNE         _ZN4hirt11TaskMonitor20runTaskMonitorThreadEPS0__x2a0
    _ZN4hirt11TaskMonitor20runTaskMonitorThreadEPS0__x170:
    /*00000170*/ LDR         R0, WORD_02c8               @ LDR         R0, [PC, #336]              @ 0x00000000000002c8 
    /*00000174*/ MOV         R3, #12 
    /*00000178*/ ADD         R0, PC, R0 
    /*0000017c*/ MLA         R0, R3, R6, R0 
    /*00000180*/ LDR         R3, [R0, #4] 
    /*00000184*/ LDR         R2, [R0, #8] 
    /*00000188*/ CMP         R3, R2 
    /*0000018c*/ BEQ         _ZN4hirt11TaskMonitor20runTaskMonitorThreadEPS0__x294
    /*00000190*/ LDR         R2, [SP, #20] 
    /*00000194*/ CMP         R3, #0 
    /*00000198*/ LDR         R1, WORD_02cc               @ LDR         R1, [PC, #300]              @ 0x00000000000002cc 
    /*0000019c*/ ADD         R3, R3, #4 
    /*000001a0*/ STRNE       R2, [R3, #-4] 
    /*000001a4*/ MOV         R2, #12 
    /*000001a8*/ ADD         R1, PC, R1 
    /*000001ac*/ MLA         R6, R2, R6, R1 
    /*000001b0*/ STR         R3, [R6, #4] 
    _ZN4hirt11TaskMonitor20runTaskMonitorThreadEPS0__x1b4:
    /*000001b4*/ CMP         R7, #0 
    /*000001b8*/ BEQ         _ZN4hirt11TaskMonitor20runTaskMonitorThreadEPS0__x1c8
    /*000001bc*/ LDR         R0, WORD_02d0               @ LDR         R0, [PC, #268]              @ 0x00000000000002d0 
    /*000001c0*/ ADD         R0, PC, R0 
    /*000001c4*/ BL          pthread_mutex_unlock
    _ZN4hirt11TaskMonitor20runTaskMonitorThreadEPS0__x1c8:
    /*000001c8*/ BL          _ZN4hirt11TaskMonitor19notifyNNIETaskReadyEv
    /*000001cc*/ B           _ZN4hirt11TaskMonitor20runTaskMonitorThreadEPS0__x100
    _ZN4hirt11TaskMonitor20runTaskMonitorThreadEPS0__x1d0:
    /*000001d0*/ LDR         R3, [FP, #4] 
    /*000001d4*/ CMP         R3, #1 
    /*000001d8*/ STREQ       FP, [SP, #20] 
    /*000001dc*/ BEQ         _ZN4hirt11TaskMonitor20runTaskMonitorThreadEPS0__x170
    _ZN4hirt11TaskMonitor20runTaskMonitorThreadEPS0__x1e0:
    /*000001e0*/ STR         FP, [SP, #152]              @ 0x98 
    /*000001e4*/ CMP         R7, #0 
    /*000001e8*/ BEQ         _ZN4hirt11TaskMonitor20runTaskMonitorThreadEPS0__x200
    /*000001ec*/ LDR         R0, WORD_02d4               @ LDR         R0, [PC, #224]              @ 0x00000000000002d4 
    /*000001f0*/ ADD         R0, PC, R0 
    /*000001f4*/ BL          pthread_mutex_lock
    /*000001f8*/ CMP         R0, #0 
    /*000001fc*/ BNE         _ZN4hirt11TaskMonitor20runTaskMonitorThreadEPS0__x2a0
    _ZN4hirt11TaskMonitor20runTaskMonitorThreadEPS0__x200:
    /*00000200*/ MOV         R0, #12 
    /*00000204*/ MLA         R0, R0, R6, R9 
    /*00000208*/ LDR         R3, [R0, #4] 
    /*0000020c*/ LDR         R2, [R0, #8] 
    /*00000210*/ CMP         R3, R2 
    /*00000214*/ BEQ         _ZN4hirt11TaskMonitor20runTaskMonitorThreadEPS0__x250
    /*00000218*/ LDR         R2, [SP, #152]              @ 0x98 
    /*0000021c*/ CMP         R3, #0 
    /*00000220*/ LDR         R1, [SP, #4] 
    /*00000224*/ ADD         R3, R3, #4 
    /*00000228*/ STRNE       R2, [R3, #-4] 
    /*0000022c*/ MOV         R2, #12 
    /*00000230*/ MLA         R6, R2, R6, R1 
    /*00000234*/ STR         R3, [R6, #4] 
    _ZN4hirt11TaskMonitor20runTaskMonitorThreadEPS0__x238:
    /*00000238*/ CMP         R7, #0 
    /*0000023c*/ BEQ         _ZN4hirt11TaskMonitor20runTaskMonitorThreadEPS0__x248
    /*00000240*/ LDR         R0, [SP, #8] 
    /*00000244*/ BL          pthread_mutex_unlock
    _ZN4hirt11TaskMonitor20runTaskMonitorThreadEPS0__x248:
    /*00000248*/ BL          _ZN4hirt11TaskMonitor23notifyCustomerTaskReadyEv
    /*0000024c*/ B           _ZN4hirt11TaskMonitor20runTaskMonitorThreadEPS0__x100
    _ZN4hirt11TaskMonitor20runTaskMonitorThreadEPS0__x250:
    /*00000250*/ LDR         R1, [SP, #12] 
    /*00000254*/ BL          _ZNSt6vectorIPN4hirt7SegTaskESaIS2_EE19_M_emplace_back_auxIJRKS2_EEEvDpOT_
    /*00000258*/ B           _ZN4hirt11TaskMonitor20runTaskMonitorThreadEPS0__x238
    _ZN4hirt11TaskMonitor20runTaskMonitorThreadEPS0__x25c:
    /*0000025c*/ BL          pthread_self
    /*00000260*/ MOV         R2, R5 
    /*00000264*/ MOV         R1, #128                    @ 0x80 
    /*00000268*/ BL          pthread_setaffinity_np
    /*0000026c*/ CMP         R0, #0 
    /*00000270*/ BEQ         _ZN4hirt11TaskMonitor20runTaskMonitorThreadEPS0__x28c
    /*00000274*/ LDR         R2, WORD_02d8               @ LDR         R2, [PC, #92]               @ 0x00000000000002d8 
    /*00000278*/ MOV         R1, #4 
    /*0000027c*/ LDR         R0, WORD_02dc               @ LDR         R0, [PC, #88]               @ 0x00000000000002dc 
    /*00000280*/ ADD         R2, PC, R2 
    /*00000284*/ ADD         R0, PC, R0 
    /*00000288*/ BL          _Z15HIRT_LOG_PrintfPKc19tagHIRT_LOG_LEVEL_ES0_z
    _ZN4hirt11TaskMonitor20runTaskMonitorThreadEPS0__x28c:
    /*0000028c*/ LDR         R4, [R6] 
    /*00000290*/ B           _ZN4hirt11TaskMonitor20runTaskMonitorThreadEPS0__x74
    _ZN4hirt11TaskMonitor20runTaskMonitorThreadEPS0__x294:
    /*00000294*/ ADD         R1, SP, #20 
    /*00000298*/ BL          _ZNSt6vectorIPN4hirt7SegTaskESaIS2_EE19_M_emplace_back_auxIJRKS2_EEEvDpOT_
    /*0000029c*/ B           _ZN4hirt11TaskMonitor20runTaskMonitorThreadEPS0__x1b4
    _ZN4hirt11TaskMonitor20runTaskMonitorThreadEPS0__x2a0:
    /*000002a0*/ BL          _ZSt20__throw_system_errori
    /*000002a4*/ WORD_02a4: .word 0x0000027c
    /*000002a8*/ WORD_02a8: .word 0x00000270
    /*000002ac*/ WORD_02ac: .word 0x00000224
    /*000002b0*/ WORD_02b0: .word 0x0000021c
    /*000002b4*/ WORD_02b4: .word 0x0000021c
    /*000002b8*/ WORD_02b8: .word 0x00000000
    /*000002bc*/ WORD_02bc: .word 0x00000000
    /*000002c0*/ WORD_02c0: .word 0x000001b4
    /*000002c4*/ WORD_02c4: .word 0x0000015c
    /*000002c8*/ WORD_02c8: .word 0x00000148
    /*000002cc*/ WORD_02cc: .word 0x0000011c
    /*000002d0*/ WORD_02d0: .word 0x00000108
    /*000002d4*/ WORD_02d4: .word 0x000000dc
    /*000002d8*/ WORD_02d8: .word 0x00000050
    /*000002dc*/ WORD_02dc: .word 0x00000050
FUNC_END _ZN4hirt11TaskMonitor20runTaskMonitorThreadEPS0_


@ - - - - - - - - - - - - - - - - - - - - - - - - - - - - - 
@ .text._ZN4hirt11TaskMonitor18addToNnieTaskQueueEPNS_7SegTaskEj
@ Size: 0xd4
@ - - - - - - - - - - - - - - - - - - - - - - - - - - - - - 

FUNC_BEGIN _ZN4hirt11TaskMonitor18addToNnieTaskQueueEPNS_7SegTaskEj
    /*00000000*/ MOV         IP, #16384                  @ 0x4000 
    /*00000004*/ PUSH        {R4, R5, LR} 
    /*00000008*/ SUB         IP, SP, IP 
    /*0000000c*/ STR         R0, [IP, #4072]             @ 0xfe8 
    /*00000010*/ LDR         R3, WORD_00bc               @ LDR         R3, [PC, #164]              @ 0x00000000000000bc 
    /*00000014*/ SUB         SP, SP, #12 
    /*00000018*/ MOV         R4, R2 
    /*0000001c*/ ADD         R3, PC, R3 
    /*00000020*/ LDR         R2, WORD_00c0               @ LDR         R2, [PC, #152]              @ 0x00000000000000c0 
    /*00000024*/ STR         R1, [SP, #4] 
    /*00000028*/ LDR         R5, [R3, R2] 
    /*0000002c*/ CMP         R5, #0 
    /*00000030*/ BEQ         _ZN4hirt11TaskMonitor18addToNnieTaskQueueEPNS_7SegTaskEj_x48
    /*00000034*/ LDR         R0, WORD_00c4               @ LDR         R0, [PC, #136]              @ 0x00000000000000c4 
    /*00000038*/ ADD         R0, PC, R0 
    /*0000003c*/ BL          pthread_mutex_lock
    /*00000040*/ CMP         R0, #0 
    /*00000044*/ BNE         _ZN4hirt11TaskMonitor18addToNnieTaskQueueEPNS_7SegTaskEj_xb8
    _ZN4hirt11TaskMonitor18addToNnieTaskQueueEPNS_7SegTaskEj_x48:
    /*00000048*/ LDR         R0, WORD_00c8               @ LDR         R0, [PC, #120]              @ 0x00000000000000c8 
    /*0000004c*/ MOV         R3, #12 
    /*00000050*/ ADD         R0, PC, R0 
    /*00000054*/ MLA         R0, R3, R4, R0 
    /*00000058*/ LDR         R3, [R0, #4] 
    /*0000005c*/ LDR         R2, [R0, #8] 
    /*00000060*/ CMP         R3, R2 
    /*00000064*/ BEQ         _ZN4hirt11TaskMonitor18addToNnieTaskQueueEPNS_7SegTaskEj_xac
    /*00000068*/ LDR         R2, [SP, #4] 
    /*0000006c*/ CMP         R3, #0 
    /*00000070*/ MOV         R1, #12 
    /*00000074*/ ADD         R3, R3, #4 
    /*00000078*/ STRNE       R2, [R3, #-4] 
    /*0000007c*/ LDR         R2, WORD_00cc               @ LDR         R2, [PC, #72]               @ 0x00000000000000cc 
    /*00000080*/ ADD         R2, PC, R2 
    /*00000084*/ MLA         R4, R1, R4, R2 
    /*00000088*/ STR         R3, [R4, #4] 
    _ZN4hirt11TaskMonitor18addToNnieTaskQueueEPNS_7SegTaskEj_x8c:
    /*0000008c*/ CMP         R5, #0 
    /*00000090*/ BEQ         _ZN4hirt11TaskMonitor18addToNnieTaskQueueEPNS_7SegTaskEj_xa0
    /*00000094*/ LDR         R0, WORD_00d0               @ LDR         R0, [PC, #52]               @ 0x00000000000000d0 
    /*00000098*/ ADD         R0, PC, R0 
    /*0000009c*/ BL          pthread_mutex_unlock
    _ZN4hirt11TaskMonitor18addToNnieTaskQueueEPNS_7SegTaskEj_xa0:
    /*000000a0*/ MOV         R0, #0 
    /*000000a4*/ ADD         SP, SP, #12 
    /*000000a8*/ POP         {R4, R5, PC} 
    _ZN4hirt11TaskMonitor18addToNnieTaskQueueEPNS_7SegTaskEj_xac:
    /*000000ac*/ ADD         R1, SP, #4 
    /*000000b0*/ BL          _ZNSt6vectorIPN4hirt7SegTaskESaIS2_EE19_M_emplace_back_auxIJRKS2_EEEvDpOT_
    /*000000b4*/ B           _ZN4hirt11TaskMonitor18addToNnieTaskQueueEPNS_7SegTaskEj_x8c
    _ZN4hirt11TaskMonitor18addToNnieTaskQueueEPNS_7SegTaskEj_xb8:
    /*000000b8*/ BL          _ZSt20__throw_system_errori
    /*000000bc*/ WORD_00bc: .word 0x00000098
    /*000000c0*/ WORD_00c0: .word 0x00000000
    /*000000c4*/ WORD_00c4: .word 0x00000084
    /*000000c8*/ WORD_00c8: .word 0x00000070
    /*000000cc*/ WORD_00cc: .word 0x00000044
    /*000000d0*/ WORD_00d0: .word 0x00000030
FUNC_END _ZN4hirt11TaskMonitor18addToNnieTaskQueueEPNS_7SegTaskEj


@ - - - - - - - - - - - - - - - - - - - - - - - - - - - - - 
@ .text._ZN4hirt11TaskMonitor25addToCustomerSchedulQueueEPNS_7SegTaskEj
@ Size: 0xd4
@ - - - - - - - - - - - - - - - - - - - - - - - - - - - - - 

FUNC_BEGIN _ZN4hirt11TaskMonitor25addToCustomerSchedulQueueEPNS_7SegTaskEj
    /*00000000*/ MOV         IP, #16384                  @ 0x4000 
    /*00000004*/ PUSH        {R4, R5, LR} 
    /*00000008*/ SUB         IP, SP, IP 
    /*0000000c*/ STR         R0, [IP, #4072]             @ 0xfe8 
    /*00000010*/ LDR         R3, WORD_00bc               @ LDR         R3, [PC, #164]              @ 0x00000000000000bc 
    /*00000014*/ SUB         SP, SP, #12 
    /*00000018*/ MOV         R4, R2 
    /*0000001c*/ ADD         R3, PC, R3 
    /*00000020*/ LDR         R2, WORD_00c0               @ LDR         R2, [PC, #152]              @ 0x00000000000000c0 
    /*00000024*/ STR         R1, [SP, #4] 
    /*00000028*/ LDR         R5, [R3, R2] 
    /*0000002c*/ CMP         R5, #0 
    /*00000030*/ BEQ         _ZN4hirt11TaskMonitor25addToCustomerSchedulQueueEPNS_7SegTaskEj_x48
    /*00000034*/ LDR         R0, WORD_00c4               @ LDR         R0, [PC, #136]              @ 0x00000000000000c4 
    /*00000038*/ ADD         R0, PC, R0 
    /*0000003c*/ BL          pthread_mutex_lock
    /*00000040*/ CMP         R0, #0 
    /*00000044*/ BNE         _ZN4hirt11TaskMonitor25addToCustomerSchedulQueueEPNS_7SegTaskEj_xb8
    _ZN4hirt11TaskMonitor25addToCustomerSchedulQueueEPNS_7SegTaskEj_x48:
    /*00000048*/ LDR         R0, WORD_00c8               @ LDR         R0, [PC, #120]              @ 0x00000000000000c8 
    /*0000004c*/ MOV         R3, #12 
    /*00000050*/ ADD         R0, PC, R0 
    /*00000054*/ MLA         R0, R3, R4, R0 
    /*00000058*/ LDR         R3, [R0, #4] 
    /*0000005c*/ LDR         R2, [R0, #8] 
    /*00000060*/ CMP         R3, R2 
    /*00000064*/ BEQ         _ZN4hirt11TaskMonitor25addToCustomerSchedulQueueEPNS_7SegTaskEj_xac
    /*00000068*/ LDR         R2, [SP, #4] 
    /*0000006c*/ CMP         R3, #0 
    /*00000070*/ MOV         R1, #12 
    /*00000074*/ ADD         R3, R3, #4 
    /*00000078*/ STRNE       R2, [R3, #-4] 
    /*0000007c*/ LDR         R2, WORD_00cc               @ LDR         R2, [PC, #72]               @ 0x00000000000000cc 
    /*00000080*/ ADD         R2, PC, R2 
    /*00000084*/ MLA         R4, R1, R4, R2 
    /*00000088*/ STR         R3, [R4, #4] 
    _ZN4hirt11TaskMonitor25addToCustomerSchedulQueueEPNS_7SegTaskEj_x8c:
    /*0000008c*/ CMP         R5, #0 
    /*00000090*/ BEQ         _ZN4hirt11TaskMonitor25addToCustomerSchedulQueueEPNS_7SegTaskEj_xa0
    /*00000094*/ LDR         R0, WORD_00d0               @ LDR         R0, [PC, #52]               @ 0x00000000000000d0 
    /*00000098*/ ADD         R0, PC, R0 
    /*0000009c*/ BL          pthread_mutex_unlock
    _ZN4hirt11TaskMonitor25addToCustomerSchedulQueueEPNS_7SegTaskEj_xa0:
    /*000000a0*/ MOV         R0, #0 
    /*000000a4*/ ADD         SP, SP, #12 
    /*000000a8*/ POP         {R4, R5, PC} 
    _ZN4hirt11TaskMonitor25addToCustomerSchedulQueueEPNS_7SegTaskEj_xac:
    /*000000ac*/ ADD         R1, SP, #4 
    /*000000b0*/ BL          _ZNSt6vectorIPN4hirt7SegTaskESaIS2_EE19_M_emplace_back_auxIJRKS2_EEEvDpOT_
    /*000000b4*/ B           _ZN4hirt11TaskMonitor25addToCustomerSchedulQueueEPNS_7SegTaskEj_x8c
    _ZN4hirt11TaskMonitor25addToCustomerSchedulQueueEPNS_7SegTaskEj_xb8:
    /*000000b8*/ BL          _ZSt20__throw_system_errori
    /*000000bc*/ WORD_00bc: .word 0x00000098
    /*000000c0*/ WORD_00c0: .word 0x00000000
    /*000000c4*/ WORD_00c4: .word 0x00000084
    /*000000c8*/ WORD_00c8: .word 0x00000070
    /*000000cc*/ WORD_00cc: .word 0x00000044
    /*000000d0*/ WORD_00d0: .word 0x00000030
FUNC_END _ZN4hirt11TaskMonitor25addToCustomerSchedulQueueEPNS_7SegTaskEj


@ - - - - - - - - - - - - - - - - - - - - - - - - - - - - - 
@ .text.startup._GLOBAL__sub_I_TaskMonitor.cpp
@ Size: 0x144
@ - - - - - - - - - - - - - - - - - - - - - - - - - - - - - 

FUNC_BEGIN _GLOBAL__sub_I_TaskMonitor.cpp
    /*00000000*/ MOV         IP, #16384                  @ 0x4000 
    /*00000004*/ PUSH        {R4, R5, R6, R7, R8, LR} 
    /*00000008*/ VPUSH       {D8-D9} 
    /*0000000c*/ SUB         IP, SP, IP 
    /*00000010*/ STR         R0, [IP, #4056]             @ 0xfd8 
    /*00000014*/ LDR         R6, WORD_0118               @ LDR         R6, [PC, #252]              @ 0x0000000000000118 
    /*00000018*/ MOV         R4, #0 
    /*0000001c*/ LDR         R8, WORD_011c               @ LDR         R8, [PC, #248]              @ 0x000000000000011c 
    /*00000020*/ ADD         R6, PC, R6 
    /*00000024*/ LDR         R5, WORD_0120               @ LDR         R5, [PC, #244]              @ 0x0000000000000120 
    /*00000028*/ MOV         R0, R6 
    /*0000002c*/ ADD         R8, PC, R8 
    /*00000030*/ BL          _ZNSt8ios_base4InitC1Ev
    /*00000034*/ LDR         R3, WORD_0124               @ LDR         R3, [PC, #232]              @ 0x0000000000000124 
    /*00000038*/ MOV         R0, R6 
    /*0000003c*/ ADD         R5, PC, R5 
    /*00000040*/ LDR         R1, [R8, R3] 
    /*00000044*/ MOV         R2, R5 
    /*00000048*/ LDR         R7, WORD_0128               @ LDR         R7, [PC, #216]              @ 0x0000000000000128 
    /*0000004c*/ BL          __aeabi_atexit
    /*00000050*/ LDR         R3, WORD_012c               @ LDR         R3, [PC, #212]              @ 0x000000000000012c 
    /*00000054*/ MOV         R2, R5 
    /*00000058*/ VMOV.I32    Q4, #0                      @ 0x00000000 
    /*0000005c*/ ADD         R3, PC, R3 
    /*00000060*/ ADD         R7, PC, R7 
    /*00000064*/ ADD         R1, R3, #32 
    /*00000068*/ STR         R4, [R3, #48]               @ 0x30 
    /*0000006c*/ ADD         R0, R3, #16 
    /*00000070*/ VST1.32     {D8-D9}, [R1] 
    /*00000074*/ LDR         R1, WORD_0130               @ LDR         R1, [PC, #180]              @ 0x0000000000000130 
    /*00000078*/ STR         R4, [R3, #52]               @ 0x34 
    /*0000007c*/ VST1.32     {D8-D9}, [R0] 
    /*00000080*/ VST1.32     {D8-D9}, [R3] 
    /*00000084*/ STR         R4, [R3, #56]               @ 0x38 
    /*00000088*/ MOV         R0, R4 
    /*0000008c*/ ADD         R1, PC, R1 
    /*00000090*/ LDR         R6, WORD_0134               @ LDR         R6, [PC, #156]              @ 0x0000000000000134 
    /*00000094*/ BL          __aeabi_atexit
    /*00000098*/ LDR         R3, WORD_0138               @ LDR         R3, [PC, #152]              @ 0x0000000000000138 
    /*0000009c*/ MOV         R2, R5 
    /*000000a0*/ LDR         R1, WORD_013c               @ LDR         R1, [PC, #148]              @ 0x000000000000013c 
    /*000000a4*/ MOV         R0, R4 
    /*000000a8*/ ADD         R3, PC, R3 
    /*000000ac*/ ADD         R1, PC, R1 
    /*000000b0*/ ADD         IP, R3, #16 
    /*000000b4*/ STR         R4, [R3, #48]               @ 0x30 
    /*000000b8*/ STR         R4, [R3, #52]               @ 0x34 
    /*000000bc*/ STR         R4, [R3, #56]               @ 0x38 
    /*000000c0*/ VST1.32     {D8-D9}, [R3] 
    /*000000c4*/ ADD         R6, PC, R6 
    /*000000c8*/ ADD         R3, R3, #32 
    /*000000cc*/ VST1.32     {D8-D9}, [IP] 
    /*000000d0*/ VST1.32     {D8-D9}, [R3] 
    /*000000d4*/ BL          __aeabi_atexit
    /*000000d8*/ MOV         R0, R7 
    /*000000dc*/ BL          _ZNSt18condition_variableC1Ev
    /*000000e0*/ LDR         R3, WORD_0140               @ LDR         R3, [PC, #88]               @ 0x0000000000000140 
    /*000000e4*/ MOV         R2, R5 
    /*000000e8*/ MOV         R0, R7 
    /*000000ec*/ LDR         R4, [R8, R3] 
    /*000000f0*/ MOV         R1, R4 
    /*000000f4*/ BL          __aeabi_atexit
    /*000000f8*/ MOV         R0, R6 
    /*000000fc*/ BL          _ZNSt18condition_variableC1Ev
    /*00000100*/ VPOP        {D8-D9} 
    /*00000104*/ MOV         R2, R5 
    /*00000108*/ MOV         R1, R4 
    /*0000010c*/ MOV         R0, R6 
    /*00000110*/ POP         {R4, R5, R6, R7, R8, LR} 
    _GLOBAL__sub_I_TaskMonitor.cpp_x114:
    /*00000114*/ B           _GLOBAL__sub_I_TaskMonitor.cpp_x114@ __aeabi_atexit [R_ARM_JUMP24: +0x0] 
    /*00000118*/ WORD_0118: .word 0x000000f0
    /*0000011c*/ WORD_011c: .word 0x000000e8
    /*00000120*/ WORD_0120: .word 0x000000dc
    /*00000124*/ WORD_0124: .word 0x00000000
    /*00000128*/ WORD_0128: .word 0x000000c0
    /*0000012c*/ WORD_012c: .word 0x000000c8
    /*00000130*/ WORD_0130: .word 0x0000009c
    /*00000134*/ WORD_0134: .word 0x00000068
    /*00000138*/ WORD_0138: .word 0x00000088
    /*0000013c*/ WORD_013c: .word 0x00000088
    /*00000140*/ WORD_0140: .word 0x00000000
FUNC_END _GLOBAL__sub_I_TaskMonitor.cpp


